GAS LISTING /tmp/ccFnt4CE.s 			page 1


   1              		.file	"KPCB.cpp"
   2              		.option pic
   3              		.option norelax
   4              		.text
   5              	.Ltext0:
   6              		.align	2
   7              		.globl	_ZN4KPCB5yieldEv
   9              	_ZN4KPCB5yieldEv:
  10              	.LFB33:
  11              		.file 1 "src/KPCB.cpp"
   1:src/KPCB.cpp  **** //
   2:src/KPCB.cpp  **** // Created by os on 6/22/22.
   3:src/KPCB.cpp  **** //
   4:src/KPCB.cpp  **** 
   5:src/KPCB.cpp  **** #include "../h/KPCB.hpp"
   6:src/KPCB.cpp  **** #include "../h/KRiscv.hpp"
   7:src/KPCB.cpp  **** 
   8:src/KPCB.cpp  **** KPCB* KPCB::running = nullptr;
   9:src/KPCB.cpp  **** int KPCB::counter = 0;
  10:src/KPCB.cpp  **** int KPCB::statID = 0;
  11:src/KPCB.cpp  **** time_t KPCB::timeSliceCounter = 0;
  12:src/KPCB.cpp  **** 
  13:src/KPCB.cpp  **** void KPCB::yield() {
  12              		.loc 1 13 20
  13              		.cfi_startproc
  14 0000 130101FF 		addi	sp,sp,-16
  15              		.cfi_def_cfa_offset 16
  16 0004 23348100 		sd	s0,8(sp)
  17              		.cfi_offset 8, -8
  18 0008 13040101 		addi	s0,sp,16
  19              		.cfi_def_cfa 8, 0
  14:src/KPCB.cpp  ****     asm volatile ("li a0, 0x13");
  20              		.loc 1 14 5
  21              		.loc 1 14 33 is_stmt 0
  22              	#APP
  23              	# 14 "src/KPCB.cpp" 1
  15              	    asm volatile ("ecall");
  24              		li a0, 0x13
  25              	# 0 "" 2
  26              		.loc 1 15 5 is_stmt 1
  27              		.loc 1 15 27 is_stmt 0
  28              	# 15 "src/KPCB.cpp" 1
  16              	}
  29              		ecall
  30              	# 0 "" 2
  31              		.loc 1 16 1
  32              	#NO_APP
  33 0014 03348100 		ld	s0,8(sp)
  34              		.cfi_restore 8
  35              		.cfi_def_cfa 2, 16
  36 0018 13010101 		addi	sp,sp,16
  37              		.cfi_def_cfa_offset 0
  38 001c 67800000 		jr	ra
  39              		.cfi_endproc
  40              	.LFE33:
  42              		.align	2
  43              		.globl	_ZN4KPCB13threadWrapperEv
GAS LISTING /tmp/ccFnt4CE.s 			page 2


  45              	_ZN4KPCB13threadWrapperEv:
  46              	.LFB37:
  17:src/KPCB.cpp  **** 
  18:src/KPCB.cpp  **** void KPCB::dispatch() {
  19:src/KPCB.cpp  ****     KPCB* old = running;
  20:src/KPCB.cpp  ****     if (!old->isFinished() && !old->isWaiting() && !old->isErr() && !old->isSleeping()) KScheduler:
  21:src/KPCB.cpp  ****     running = KScheduler::get();
  22:src/KPCB.cpp  ****     KPCB::timeSliceCounter = 0;
  23:src/KPCB.cpp  **** 
  24:src/KPCB.cpp  ****     if (old->isFinished()) {
  25:src/KPCB.cpp  ****         Context c = old->context;
  26:src/KPCB.cpp  ****         KMemoryAllocator::mem_free(old->stack);
  27:src/KPCB.cpp  ****         old->stack = nullptr;
  28:src/KPCB.cpp  ****         KPCB::contextSwitch(&c, &running->context);
  29:src/KPCB.cpp  ****     }
  30:src/KPCB.cpp  ****     else if (running != old) KPCB::contextSwitch(&old->context, &running->context);
  31:src/KPCB.cpp  **** }
  32:src/KPCB.cpp  **** 
  33:src/KPCB.cpp  **** KPCB *KPCB::createThread(KPCB::Body body, void* args, void* stek) {
  34:src/KPCB.cpp  ****     return new KPCB(body, args, stek);
  35:src/KPCB.cpp  **** }
  36:src/KPCB.cpp  **** 
  37:src/KPCB.cpp  **** KPCB *KPCB::createThread(KPCB::Body body) {
  38:src/KPCB.cpp  ****     return new KPCB(body);
  39:src/KPCB.cpp  **** }
  40:src/KPCB.cpp  **** 
  41:src/KPCB.cpp  **** void KPCB::threadWrapper() {
  47              		.loc 1 41 28 is_stmt 1
  48              		.cfi_startproc
  49 0020 130101FE 		addi	sp,sp,-32
  50              		.cfi_def_cfa_offset 32
  51 0024 233C1100 		sd	ra,24(sp)
  52 0028 23388100 		sd	s0,16(sp)
  53 002c 23349100 		sd	s1,8(sp)
  54              		.cfi_offset 1, -8
  55              		.cfi_offset 8, -16
  56              		.cfi_offset 9, -24
  57 0030 13040102 		addi	s0,sp,32
  58              		.cfi_def_cfa 8, 0
  42:src/KPCB.cpp  ****     KRiscv::popSppSpie();
  59              		.loc 1 42 5
  60              		.loc 1 42 23 is_stmt 0
  61 0034 97000000 		call	_ZN6KRiscv10popSppSpieEv@plt
  61      E7800000 
  62              	.LVL0:
  43:src/KPCB.cpp  ****     running->body(running->args);
  63              		.loc 1 43 5 is_stmt 1
  64              		.loc 1 43 14 is_stmt 0
  65 003c 97040000 		lla	s1,.LANCHOR0
  65      93840400 
  66 0044 83B70400 		ld	a5,0(s1)
  67 0048 03B70700 		ld	a4,0(a5)
  68              		.loc 1 43 18
  69 004c 03B50701 		ld	a0,16(a5)
  70 0050 E7000700 		jalr	a4
  71              	.LVL1:
  44:src/KPCB.cpp  ****     running->setFinished(true);
GAS LISTING /tmp/ccFnt4CE.s 			page 3


  72              		.loc 1 44 5 is_stmt 1
  73              		.loc 1 44 25 is_stmt 0
  74 0054 83B70400 		ld	a5,0(s1)
  75              	.LVL2:
  76              	.LBB22:
  77              	.LBB23:
  78              		.file 2 "src/../h/KPCB.hpp"
   1:src/../h/KPCB.hpp **** //
   2:src/../h/KPCB.hpp **** // Created by os on 6/22/22.
   3:src/../h/KPCB.hpp **** //
   4:src/../h/KPCB.hpp **** 
   5:src/../h/KPCB.hpp **** #ifndef PROJECT_BASE_V1_1_KPCB_HPP
   6:src/../h/KPCB.hpp **** #define PROJECT_BASE_V1_1_KPCB_HPP
   7:src/../h/KPCB.hpp **** 
   8:src/../h/KPCB.hpp **** #include "../lib/hw.h"
   9:src/../h/KPCB.hpp **** #include "KScheduler.hpp"
  10:src/../h/KPCB.hpp **** #include "KMemoryAllocator.hpp"
  11:src/../h/KPCB.hpp **** 
  12:src/../h/KPCB.hpp **** class KPCB {
  13:src/../h/KPCB.hpp **** public:
  14:src/../h/KPCB.hpp ****     ~KPCB() {
  15:src/../h/KPCB.hpp ****         //delete[] stack;
  16:src/../h/KPCB.hpp ****         KMemoryAllocator::mem_free(stack);
  17:src/../h/KPCB.hpp ****         stack = nullptr;
  18:src/../h/KPCB.hpp ****     }
  19:src/../h/KPCB.hpp ****     friend class KScheduler;
  20:src/../h/KPCB.hpp ****     friend class KSemaphore;
  21:src/../h/KPCB.hpp ****     friend class KRiscv;
  22:src/../h/KPCB.hpp ****     friend class KSleep;
  23:src/../h/KPCB.hpp **** 
  24:src/../h/KPCB.hpp ****     void* operator new(size_t size) {
  25:src/../h/KPCB.hpp ****         size_t sizeBlock = (size + 16) / MEM_BLOCK_SIZE + ((size + 16) % MEM_BLOCK_SIZE ? 1 : 0);
  26:src/../h/KPCB.hpp ****         return KMemoryAllocator::mem_alloc(sizeBlock);
  27:src/../h/KPCB.hpp ****         //return __mem_alloc(size);
  28:src/../h/KPCB.hpp ****     }
  29:src/../h/KPCB.hpp ****     void* operator new[](size_t size) {
  30:src/../h/KPCB.hpp ****         size_t sizeBlock = (size + 16) / MEM_BLOCK_SIZE + ((size + 16) % MEM_BLOCK_SIZE ? 1 : 0);
  31:src/../h/KPCB.hpp ****         return KMemoryAllocator::mem_alloc(sizeBlock);
  32:src/../h/KPCB.hpp ****         //return __mem_alloc(size);
  33:src/../h/KPCB.hpp ****     }
  34:src/../h/KPCB.hpp ****     void operator delete(void* addr) {
  35:src/../h/KPCB.hpp ****         KMemoryAllocator::mem_free(addr);
  36:src/../h/KPCB.hpp ****         //__mem_free(addr);
  37:src/../h/KPCB.hpp ****     }
  38:src/../h/KPCB.hpp ****     void operator delete[](void* addr) {
  39:src/../h/KPCB.hpp ****         KMemoryAllocator::mem_free(addr);
  40:src/../h/KPCB.hpp ****         //__mem_free(addr);
  41:src/../h/KPCB.hpp ****     }
  42:src/../h/KPCB.hpp **** 
  43:src/../h/KPCB.hpp ****     using Body = void (*)(void*);
  44:src/../h/KPCB.hpp ****     static KPCB* createThread(Body body, void* args, void* stek);
  45:src/../h/KPCB.hpp ****     static KPCB* createThread(Body body);
  46:src/../h/KPCB.hpp ****     static void yield();
  47:src/../h/KPCB.hpp ****     static void dispatch();
  48:src/../h/KPCB.hpp ****     static KPCB* running;
  49:src/../h/KPCB.hpp ****     static int counter;
  50:src/../h/KPCB.hpp ****     static int statID;
GAS LISTING /tmp/ccFnt4CE.s 			page 4


  51:src/../h/KPCB.hpp **** 
  52:src/../h/KPCB.hpp ****     bool isFinished() const { return finished; }
  53:src/../h/KPCB.hpp ****     bool isSleeping() const { return sleeping; }
  54:src/../h/KPCB.hpp ****     bool isWaiting() const { return waiting; }
  55:src/../h/KPCB.hpp ****     bool isErr() const { return err; }
  56:src/../h/KPCB.hpp ****     void setFinished(bool val) {
  57:src/../h/KPCB.hpp ****         if (finished) return;
  79              		.loc 2 57 9 is_stmt 1
  80              		.loc 2 57 13 is_stmt 0
  81 0058 03C70703 		lbu	a4,48(a5)
  82              		.loc 2 57 9
  83 005c 631C0700 		bnez	a4,.L4
  58:src/../h/KPCB.hpp ****         finished = val;
  84              		.loc 2 58 9 is_stmt 1
  85              		.loc 2 58 18 is_stmt 0
  86 0060 13071000 		li	a4,1
  87 0064 2388E702 		sb	a4,48(a5)
  59:src/../h/KPCB.hpp ****         counter--;
  88              		.loc 2 59 9 is_stmt 1
  89              		.loc 2 59 16 is_stmt 0
  90 0068 83A78400 		lw	a5,8(s1)
  91              	.LVL3:
  92 006c 9B87F7FF 		addiw	a5,a5,-1
  93 0070 23A4F400 		sw	a5,8(s1)
  94              	.L4:
  95              	.LVL4:
  96              	.LBE23:
  97              	.LBE22:
  45:src/KPCB.cpp  ****     KPCB::yield();
  98              		.loc 1 45 5 is_stmt 1
  99              		.loc 1 45 16 is_stmt 0
 100 0074 97000000 		call	_ZN4KPCB5yieldEv
 100      E7800000 
 101              	.LVL5:
  46:src/KPCB.cpp  **** }
 102              		.loc 1 46 1
 103 007c 83308101 		ld	ra,24(sp)
 104              		.cfi_restore 1
 105 0080 03340101 		ld	s0,16(sp)
 106              		.cfi_restore 8
 107              		.cfi_def_cfa 2, 32
 108 0084 83348100 		ld	s1,8(sp)
 109              		.cfi_restore 9
 110 0088 13010102 		addi	sp,sp,32
 111              		.cfi_def_cfa_offset 0
 112 008c 67800000 		jr	ra
 113              		.cfi_endproc
 114              	.LFE37:
 116              		.align	2
 117              		.globl	_ZN4KPCB8dispatchEv
 119              	_ZN4KPCB8dispatchEv:
 120              	.LFB34:
  18:src/KPCB.cpp  ****     KPCB* old = running;
 121              		.loc 1 18 23 is_stmt 1
 122              		.cfi_startproc
 123 0090 130101FD 		addi	sp,sp,-48
 124              		.cfi_def_cfa_offset 48
GAS LISTING /tmp/ccFnt4CE.s 			page 5


 125 0094 23341102 		sd	ra,40(sp)
 126 0098 23308102 		sd	s0,32(sp)
 127 009c 233C9100 		sd	s1,24(sp)
 128              		.cfi_offset 1, -8
 129              		.cfi_offset 8, -16
 130              		.cfi_offset 9, -24
 131 00a0 13040103 		addi	s0,sp,48
 132              		.cfi_def_cfa 8, 0
  19:src/KPCB.cpp  ****     if (!old->isFinished() && !old->isWaiting() && !old->isErr() && !old->isSleeping()) KScheduler:
 133              		.loc 1 19 5
  19:src/KPCB.cpp  ****     if (!old->isFinished() && !old->isWaiting() && !old->isErr() && !old->isSleeping()) KScheduler:
 134              		.loc 1 19 11 is_stmt 0
 135 00a4 97040000 		ld	s1,.LANCHOR0
 135      83B40400 
 136              	.LVL6:
  20:src/KPCB.cpp  ****     running = KScheduler::get();
 137              		.loc 1 20 5 is_stmt 1
 138              	.LBB24:
 139              	.LBB25:
  52:src/../h/KPCB.hpp ****     bool isSleeping() const { return sleeping; }
 140              		.loc 2 52 31
  52:src/../h/KPCB.hpp ****     bool isSleeping() const { return sleeping; }
 141              		.loc 2 52 38 is_stmt 0
 142 00ac 83C70403 		lbu	a5,48(s1)
 143              	.LVL7:
 144              	.LBE25:
 145              	.LBE24:
  20:src/KPCB.cpp  ****     running = KScheduler::get();
 146              		.loc 1 20 66
 147 00b0 639E0700 		bnez	a5,.L7
 148              	.LVL8:
 149              	.LBB26:
 150              	.LBB27:
  54:src/../h/KPCB.hpp ****     bool isErr() const { return err; }
 151              		.loc 2 54 30 is_stmt 1
  54:src/../h/KPCB.hpp ****     bool isErr() const { return err; }
 152              		.loc 2 54 37 is_stmt 0
 153 00b4 83C72403 		lbu	a5,50(s1)
 154              	.LVL9:
 155              	.LBE27:
 156              	.LBE26:
  20:src/KPCB.cpp  ****     running = KScheduler::get();
 157              		.loc 1 20 28
 158 00b8 639A0700 		bnez	a5,.L7
 159              	.LVL10:
 160              	.LBB28:
 161              	.LBB29:
  55:src/../h/KPCB.hpp ****     void setFinished(bool val) {
 162              		.loc 2 55 26 is_stmt 1
  55:src/../h/KPCB.hpp ****     void setFinished(bool val) {
 163              		.loc 2 55 33 is_stmt 0
 164 00bc 83C73403 		lbu	a5,51(s1)
 165              	.LVL11:
 166              	.LBE29:
 167              	.LBE28:
  20:src/KPCB.cpp  ****     running = KScheduler::get();
 168              		.loc 1 20 49
GAS LISTING /tmp/ccFnt4CE.s 			page 6


 169 00c0 63960700 		bnez	a5,.L7
 170              	.LVL12:
 171              	.LBB30:
 172              	.LBB31:
  53:src/../h/KPCB.hpp ****     bool isWaiting() const { return waiting; }
 173              		.loc 2 53 31 is_stmt 1
  53:src/../h/KPCB.hpp ****     bool isWaiting() const { return waiting; }
 174              		.loc 2 53 38 is_stmt 0
 175 00c4 83C71403 		lbu	a5,49(s1)
 176              	.LVL13:
 177              	.LBE31:
 178              	.LBE30:
  20:src/KPCB.cpp  ****     running = KScheduler::get();
 179              		.loc 1 20 66
 180 00c8 63860704 		beqz	a5,.L11
 181              	.L7:
  21:src/KPCB.cpp  ****     KPCB::timeSliceCounter = 0;
 182              		.loc 1 21 5 is_stmt 1
  21:src/KPCB.cpp  ****     KPCB::timeSliceCounter = 0;
 183              		.loc 1 21 30 is_stmt 0
 184 00cc 97000000 		call	_ZN10KScheduler3getEv@plt
 184      E7800000 
 185              	.LVL14:
  21:src/KPCB.cpp  ****     KPCB::timeSliceCounter = 0;
 186              		.loc 1 21 13
 187 00d4 97070000 		lla	a5,.LANCHOR0
 187      93870700 
 188 00dc 23B0A700 		sd	a0,0(a5)
  22:src/KPCB.cpp  **** 
 189              		.loc 1 22 5 is_stmt 1
  22:src/KPCB.cpp  **** 
 190              		.loc 1 22 28 is_stmt 0
 191 00e0 23B80700 		sd	zero,16(a5)
  24:src/KPCB.cpp  ****         Context c = old->context;
 192              		.loc 1 24 5 is_stmt 1
 193              	.LVL15:
 194              	.LBB32:
 195              	.LBB33:
 196              	.LBB34:
  52:src/../h/KPCB.hpp ****     bool isSleeping() const { return sleeping; }
 197              		.loc 2 52 31
  52:src/../h/KPCB.hpp ****     bool isSleeping() const { return sleeping; }
 198              		.loc 2 52 38 is_stmt 0
 199 00e4 83C70403 		lbu	a5,48(s1)
 200              	.LVL16:
 201              	.LBE34:
 202              	.LBE33:
  24:src/KPCB.cpp  ****         Context c = old->context;
 203              		.loc 1 24 5
 204 00e8 639E0702 		bnez	a5,.L12
  30:src/KPCB.cpp  **** }
 205              		.loc 1 30 10 is_stmt 1
 206 00ec 638AA400 		beq	s1,a0,.L6
  30:src/KPCB.cpp  **** }
 207              		.loc 1 30 30 discriminator 1
  30:src/KPCB.cpp  **** }
 208              		.loc 1 30 49 is_stmt 0 discriminator 1
GAS LISTING /tmp/ccFnt4CE.s 			page 7


 209 00f0 93050502 		addi	a1,a0,32
 210 00f4 13850402 		addi	a0,s1,32
 211 00f8 97000000 		call	_ZN4KPCB13contextSwitchEPNS_7ContextES1_@plt
 211      E7800000 
 212              	.LVL17:
 213              	.L6:
 214              	.LBE32:
  31:src/KPCB.cpp  **** 
 215              		.loc 1 31 1
 216 0100 83308102 		ld	ra,40(sp)
 217              		.cfi_remember_state
 218              		.cfi_restore 1
 219 0104 03340102 		ld	s0,32(sp)
 220              		.cfi_restore 8
 221              		.cfi_def_cfa 2, 48
 222 0108 83348101 		ld	s1,24(sp)
 223              		.cfi_restore 9
 224              	.LVL18:
 225 010c 13010103 		addi	sp,sp,48
 226              		.cfi_def_cfa_offset 0
 227 0110 67800000 		jr	ra
 228              	.LVL19:
 229              	.L11:
 230              		.cfi_restore_state
  20:src/KPCB.cpp  ****     running = KScheduler::get();
 231              		.loc 1 20 89 is_stmt 1
  20:src/KPCB.cpp  ****     running = KScheduler::get();
 232              		.loc 1 20 104 is_stmt 0
 233 0114 13850400 		mv	a0,s1
 234 0118 97000000 		call	_ZN10KScheduler3putEP4KPCB@plt
 234      E7800000 
 235              	.LVL20:
 236 0120 6FF0DFFA 		j	.L7
 237              	.L12:
 238              	.LBB36:
 239              	.LBB35:
  25:src/KPCB.cpp  ****         KMemoryAllocator::mem_free(old->stack);
 240              		.loc 1 25 9 is_stmt 1
  25:src/KPCB.cpp  ****         KMemoryAllocator::mem_free(old->stack);
 241              		.loc 1 25 17 is_stmt 0
 242 0124 83B70402 		ld	a5,32(s1)
 243 0128 2338F4FC 		sd	a5,-48(s0)
 244 012c 83B78402 		ld	a5,40(s1)
 245 0130 233CF4FC 		sd	a5,-40(s0)
  26:src/KPCB.cpp  ****         old->stack = nullptr;
 246              		.loc 1 26 9 is_stmt 1
  26:src/KPCB.cpp  ****         old->stack = nullptr;
 247              		.loc 1 26 35 is_stmt 0
 248 0134 03B58401 		ld	a0,24(s1)
 249 0138 97000000 		call	_ZN16KMemoryAllocator8mem_freeEPv@plt
 249      E7800000 
 250              	.LVL21:
  27:src/KPCB.cpp  ****         KPCB::contextSwitch(&c, &running->context);
 251              		.loc 1 27 9 is_stmt 1
  27:src/KPCB.cpp  ****         KPCB::contextSwitch(&c, &running->context);
 252              		.loc 1 27 20 is_stmt 0
 253 0140 23BC0400 		sd	zero,24(s1)
GAS LISTING /tmp/ccFnt4CE.s 			page 8


  28:src/KPCB.cpp  ****     }
 254              		.loc 1 28 9 is_stmt 1
  28:src/KPCB.cpp  ****     }
 255              		.loc 1 28 28 is_stmt 0
 256 0144 97050000 		ld	a1,.LANCHOR0
 256      83B50500 
 257 014c 93850502 		addi	a1,a1,32
 258 0150 130504FD 		addi	a0,s0,-48
 259 0154 97000000 		call	_ZN4KPCB13contextSwitchEPNS_7ContextES1_@plt
 259      E7800000 
 260              	.LVL22:
 261              	.LBE35:
 262 015c 6FF05FFA 		j	.L6
 263              	.LBE36:
 264              		.cfi_endproc
 265              	.LFE34:
 267              		.align	2
 268              		.globl	_ZN4KPCBC2EPFvPvES0_S0_
 270              	_ZN4KPCBC2EPFvPvES0_S0_:
 271              	.LFB39:
  47:src/KPCB.cpp  **** 
  48:src/KPCB.cpp  **** KPCB::KPCB(Body body, void* args, void* stek) :
 272              		.loc 1 48 1 is_stmt 1
 273              		.cfi_startproc
 274              	.LVL23:
 275 0160 130101FF 		addi	sp,sp,-16
 276              		.cfi_def_cfa_offset 16
 277 0164 23348100 		sd	s0,8(sp)
 278              		.cfi_offset 8, -8
 279 0168 13040101 		addi	s0,sp,16
 280              		.cfi_def_cfa 8, 0
 281              	.LBB37:
  49:src/KPCB.cpp  ****     body(body), ID(statID++), args(args), stack(body != nullptr ? (char*)stek : nullptr),
  50:src/KPCB.cpp  ****     context({body != nullptr ? /*(uint64)body*/ (uint64)&threadWrapper : 0, stack != nullptr ? (uin
 282              		.loc 1 50 127 is_stmt 0
 283 016c 2330B500 		sd	a1,0(a0)
  49:src/KPCB.cpp  ****     body(body), ID(statID++), args(args), stack(body != nullptr ? (char*)stek : nullptr),
 284              		.loc 1 49 26
 285 0170 17070000 		lla	a4,.LANCHOR0
 285      13070700 
 286 0178 83278701 		lw	a5,24(a4)
 287 017c 1B881700 		addiw	a6,a5,1
 288 0180 232C0701 		sw	a6,24(a4)
 289              		.loc 1 50 127
 290 0184 2324F500 		sw	a5,8(a0)
 291 0188 2338C500 		sd	a2,16(a0)
  49:src/KPCB.cpp  ****     body(body), ID(statID++), args(args), stack(body != nullptr ? (char*)stek : nullptr),
 292              		.loc 1 49 65
 293 018c 63880506 		beqz	a1,.L22
 294              	.LVL24:
 295              	.L14:
 296              		.loc 1 50 127
 297 0190 233CD500 		sd	a3,24(a0)
 298              		.loc 1 50 30
 299 0194 63880506 		beqz	a1,.L19
 300              		.loc 1 50 30 discriminator 1
 301 0198 97070000 		lla	a5,_ZN4KPCB13threadWrapperEv
GAS LISTING /tmp/ccFnt4CE.s 			page 9


 301      93870700 
 302              	.L15:
 303              		.loc 1 50 127 discriminator 4
 304 01a0 2330F502 		sd	a5,32(a0)
 305              		.loc 1 50 94 discriminator 4
 306 01a4 63840606 		beqz	a3,.L20
 307              		.loc 1 50 104 discriminator 5
 308 01a8 B7270000 		li	a5,8192
 309 01ac B386F600 		add	a3,a3,a5
 310              	.L16:
 311              		.loc 1 50 127 discriminator 8
 312 01b0 2334D502 		sd	a3,40(a0)
 313 01b4 23080502 		sb	zero,48(a0)
 314 01b8 A3080502 		sb	zero,49(a0)
 315 01bc 23090502 		sb	zero,50(a0)
 316 01c0 A3090502 		sb	zero,51(a0)
 317 01c4 230A0502 		sb	zero,52(a0)
 318 01c8 233C0502 		sd	zero,56(a0)
 319 01cc 23300504 		sd	zero,64(a0)
 320 01d0 23340504 		sd	zero,72(a0)
 321 01d4 23380504 		sd	zero,80(a0)
  51:src/KPCB.cpp  ****     {
  52:src/KPCB.cpp  ****         if (body != nullptr) {
 322              		.loc 1 52 9 is_stmt 1 discriminator 8
 323 01d8 638C0500 		beqz	a1,.L13
  53:src/KPCB.cpp  ****             //KScheduler::put(this);
  54:src/KPCB.cpp  ****             counter++;
 324              		.loc 1 54 13
 325              		.loc 1 54 20 is_stmt 0
 326 01dc 17070000 		lla	a4,.LANCHOR0
 326      13070700 
 327 01e4 83278700 		lw	a5,8(a4)
 328 01e8 9B871700 		addiw	a5,a5,1
 329 01ec 2324F700 		sw	a5,8(a4)
 330              	.L13:
 331              	.LBE37:
  55:src/KPCB.cpp  ****         }
  56:src/KPCB.cpp  ****     }
 332              		.loc 1 56 5
 333 01f0 03348100 		ld	s0,8(sp)
 334              		.cfi_remember_state
 335              		.cfi_restore 8
 336              		.cfi_def_cfa 2, 16
 337 01f4 13010101 		addi	sp,sp,16
 338              		.cfi_def_cfa_offset 0
 339 01f8 67800000 		jr	ra
 340              	.LVL25:
 341              	.L22:
 342              		.cfi_restore_state
 343              	.LBB38:
  49:src/KPCB.cpp  ****     context({body != nullptr ? /*(uint64)body*/ (uint64)&threadWrapper : 0, stack != nullptr ? (uin
 344              		.loc 1 49 65
 345 01fc 93060000 		li	a3,0
 346              	.LVL26:
 347 0200 6FF01FF9 		j	.L14
 348              	.L19:
  50:src/KPCB.cpp  ****     {
GAS LISTING /tmp/ccFnt4CE.s 			page 10


 349              		.loc 1 50 30
 350 0204 93070000 		li	a5,0
 351 0208 6FF09FF9 		j	.L15
 352              	.L20:
  50:src/KPCB.cpp  ****     {
 353              		.loc 1 50 94
 354 020c 93060000 		li	a3,0
 355 0210 6FF01FFA 		j	.L16
 356              	.LBE38:
 357              		.cfi_endproc
 358              	.LFE39:
 360              		.globl	_ZN4KPCBC1EPFvPvES0_S0_
 361              		.set	_ZN4KPCBC1EPFvPvES0_S0_,_ZN4KPCBC2EPFvPvES0_S0_
 362              		.align	2
 363              		.globl	_ZN4KPCB12createThreadEPFvPvES0_S0_
 365              	_ZN4KPCB12createThreadEPFvPvES0_S0_:
 366              	.LFB35:
  33:src/KPCB.cpp  ****     return new KPCB(body, args, stek);
 367              		.loc 1 33 67 is_stmt 1
 368              		.cfi_startproc
 369              	.LVL27:
 370 0214 130101FD 		addi	sp,sp,-48
 371              		.cfi_def_cfa_offset 48
 372 0218 23341102 		sd	ra,40(sp)
 373 021c 23308102 		sd	s0,32(sp)
 374 0220 233C9100 		sd	s1,24(sp)
 375 0224 23382101 		sd	s2,16(sp)
 376 0228 23343101 		sd	s3,8(sp)
 377 022c 23304101 		sd	s4,0(sp)
 378              		.cfi_offset 1, -8
 379              		.cfi_offset 8, -16
 380              		.cfi_offset 9, -24
 381              		.cfi_offset 18, -32
 382              		.cfi_offset 19, -40
 383              		.cfi_offset 20, -48
 384 0230 13040103 		addi	s0,sp,48
 385              		.cfi_def_cfa 8, 0
 386 0234 13090500 		mv	s2,a0
 387 0238 93890500 		mv	s3,a1
 388 023c 130A0600 		mv	s4,a2
  34:src/KPCB.cpp  **** }
 389              		.loc 1 34 5
 390              	.LVL28:
 391              	.LBB39:
 392              	.LBB40:
  25:src/../h/KPCB.hpp ****         return KMemoryAllocator::mem_alloc(sizeBlock);
 393              		.loc 2 25 9
  26:src/../h/KPCB.hpp ****         //return __mem_alloc(size);
 394              		.loc 2 26 9
  26:src/../h/KPCB.hpp ****         //return __mem_alloc(size);
 395              		.loc 2 26 43 is_stmt 0
 396 0240 13052000 		li	a0,2
 397              	.LVL29:
 398 0244 97000000 		call	_ZN16KMemoryAllocator9mem_allocEm@plt
 398      E7800000 
 399              	.LVL30:
 400 024c 93040500 		mv	s1,a0
GAS LISTING /tmp/ccFnt4CE.s 			page 11


 401              	.LVL31:
 402              	.LBE40:
 403              	.LBE39:
  34:src/KPCB.cpp  **** }
 404              		.loc 1 34 37
 405 0250 93060A00 		mv	a3,s4
 406 0254 13860900 		mv	a2,s3
 407 0258 93050900 		mv	a1,s2
 408 025c 97000000 		call	_ZN4KPCBC1EPFvPvES0_S0_
 408      E7800000 
 409              	.LVL32:
  35:src/KPCB.cpp  **** 
 410              		.loc 1 35 1
 411 0264 13850400 		mv	a0,s1
 412 0268 83308102 		ld	ra,40(sp)
 413              		.cfi_restore 1
 414 026c 03340102 		ld	s0,32(sp)
 415              		.cfi_restore 8
 416              		.cfi_def_cfa 2, 48
 417 0270 83348101 		ld	s1,24(sp)
 418              		.cfi_restore 9
 419 0274 03390101 		ld	s2,16(sp)
 420              		.cfi_restore 18
 421              	.LVL33:
 422 0278 83398100 		ld	s3,8(sp)
 423              		.cfi_restore 19
 424              	.LVL34:
 425 027c 033A0100 		ld	s4,0(sp)
 426              		.cfi_restore 20
 427              	.LVL35:
 428 0280 13010103 		addi	sp,sp,48
 429              		.cfi_def_cfa_offset 0
 430 0284 67800000 		jr	ra
 431              		.cfi_endproc
 432              	.LFE35:
 434              		.align	2
 435              		.globl	_ZN4KPCBC2EPFvPvE
 437              	_ZN4KPCBC2EPFvPvE:
 438              	.LFB42:
  57:src/KPCB.cpp  **** 
  58:src/KPCB.cpp  **** KPCB::KPCB(Body body) :
 439              		.loc 1 58 1 is_stmt 1
 440              		.cfi_startproc
 441              	.LVL36:
 442 0288 130101FE 		addi	sp,sp,-32
 443              		.cfi_def_cfa_offset 32
 444 028c 233C1100 		sd	ra,24(sp)
 445 0290 23388100 		sd	s0,16(sp)
 446 0294 23349100 		sd	s1,8(sp)
 447 0298 23302101 		sd	s2,0(sp)
 448              		.cfi_offset 1, -8
 449              		.cfi_offset 8, -16
 450              		.cfi_offset 9, -24
 451              		.cfi_offset 18, -32
 452 029c 13040102 		addi	s0,sp,32
 453              		.cfi_def_cfa 8, 0
 454 02a0 93040500 		mv	s1,a0
GAS LISTING /tmp/ccFnt4CE.s 			page 12


 455 02a4 13890500 		mv	s2,a1
 456              	.LBB41:
  59:src/KPCB.cpp  ****     body(body), ID(statID++), args(nullptr), stack(body != nullptr ? new char[STACK_SIZE]: nullptr)
  60:src/KPCB.cpp  ****     context({body != nullptr ? /*(uint64)body*/ (uint64)&threadWrapper : 0, stack != nullptr ? (uin
 457              		.loc 1 60 127 is_stmt 0
 458 02a8 2330B500 		sd	a1,0(a0)
  59:src/KPCB.cpp  ****     body(body), ID(statID++), args(nullptr), stack(body != nullptr ? new char[STACK_SIZE]: nullptr)
 459              		.loc 1 59 26
 460 02ac 17070000 		lla	a4,.LANCHOR0
 460      13070700 
 461 02b4 83278701 		lw	a5,24(a4)
 462 02b8 9B861700 		addiw	a3,a5,1
 463 02bc 232CD700 		sw	a3,24(a4)
 464              		.loc 1 60 127
 465 02c0 2324F500 		sw	a5,8(a0)
 466 02c4 23380500 		sd	zero,16(a0)
  59:src/KPCB.cpp  ****     body(body), ID(statID++), args(nullptr), stack(body != nullptr ? new char[STACK_SIZE]: nullptr)
 467              		.loc 1 59 68
 468 02c8 63840508 		beqz	a1,.L30
  59:src/KPCB.cpp  ****     body(body), ID(statID++), args(nullptr), stack(body != nullptr ? new char[STACK_SIZE]: nullptr)
 469              		.loc 1 59 89 discriminator 1
 470 02cc 37250000 		li	a0,8192
 471              	.LVL37:
 472 02d0 97000000 		call	_Znam@plt
 472      E7800000 
 473              	.LVL38:
 474              	.L26:
 475              		.loc 1 60 127
 476 02d8 23BCA400 		sd	a0,24(s1)
 477              		.loc 1 60 30
 478 02dc 630E0906 		beqz	s2,.L31
 479              		.loc 1 60 30 discriminator 1
 480 02e0 97070000 		lla	a5,_ZN4KPCB13threadWrapperEv
 480      93870700 
 481              	.L27:
 482              		.loc 1 60 127 discriminator 4
 483 02e8 23B0F402 		sd	a5,32(s1)
 484              		.loc 1 60 94 discriminator 4
 485 02ec 630A0506 		beqz	a0,.L32
 486              		.loc 1 60 104 discriminator 5
 487 02f0 B7270000 		li	a5,8192
 488 02f4 3305F500 		add	a0,a0,a5
 489              	.L28:
 490              		.loc 1 60 127 discriminator 8
 491 02f8 23B4A402 		sd	a0,40(s1)
 492 02fc 23880402 		sb	zero,48(s1)
 493 0300 A3880402 		sb	zero,49(s1)
 494 0304 23890402 		sb	zero,50(s1)
 495 0308 A3890402 		sb	zero,51(s1)
 496 030c 238A0402 		sb	zero,52(s1)
 497 0310 23BC0402 		sd	zero,56(s1)
 498 0314 23B00404 		sd	zero,64(s1)
 499 0318 23B40404 		sd	zero,72(s1)
 500 031c 23B80404 		sd	zero,80(s1)
  61:src/KPCB.cpp  ****     {
  62:src/KPCB.cpp  ****         if (body != nullptr) {
 501              		.loc 1 62 9 is_stmt 1 discriminator 8
GAS LISTING /tmp/ccFnt4CE.s 			page 13


 502 0320 630C0900 		beqz	s2,.L25
  63:src/KPCB.cpp  ****             //KScheduler::put(this);
  64:src/KPCB.cpp  ****             counter++;
 503              		.loc 1 64 13
 504              		.loc 1 64 20 is_stmt 0
 505 0324 17070000 		lla	a4,.LANCHOR0
 505      13070700 
 506 032c 83278700 		lw	a5,8(a4)
 507 0330 9B871700 		addiw	a5,a5,1
 508 0334 2324F700 		sw	a5,8(a4)
 509              	.L25:
 510              	.LBE41:
  65:src/KPCB.cpp  ****         }
  66:src/KPCB.cpp  ****     }...
 511              		.loc 1 66 5
 512 0338 83308101 		ld	ra,24(sp)
 513              		.cfi_remember_state
 514              		.cfi_restore 1
 515 033c 03340101 		ld	s0,16(sp)
 516              		.cfi_restore 8
 517              		.cfi_def_cfa 2, 32
 518 0340 83348100 		ld	s1,8(sp)
 519              		.cfi_restore 9
 520              	.LVL39:
 521 0344 03390100 		ld	s2,0(sp)
 522              		.cfi_restore 18
 523              	.LVL40:
 524 0348 13010102 		addi	sp,sp,32
 525              		.cfi_def_cfa_offset 0
 526 034c 67800000 		jr	ra
 527              	.LVL41:
 528              	.L30:
 529              		.cfi_restore_state
 530              	.LBB42:
  59:src/KPCB.cpp  ****     body(body), ID(statID++), args(nullptr), stack(body != nullptr ? new char[STACK_SIZE]: nullptr)
 531              		.loc 1 59 68
 532 0350 13050000 		li	a0,0
 533 0354 6FF05FF8 		j	.L26
 534              	.LVL42:
 535              	.L31:
  60:src/KPCB.cpp  ****     context({body != nullptr ? /*(uint64)body*/ (uint64)&threadWrapper : 0, stack != nullptr ? (uin
 536              		.loc 1 60 30
 537 0358 93070000 		li	a5,0
 538 035c 6FF0DFF8 		j	.L27
 539              	.L32:
  60:src/KPCB.cpp  ****     context({body != nullptr ? /*(uint64)body*/ (uint64)&threadWrapper : 0, stack != nullptr ? (uin
 540              		.loc 1 60 94
 541 0360 13050000 		li	a0,0
 542 0364 6FF05FF9 		j	.L28
 543              	.LBE42:
 544              		.cfi_endproc
 545              	.LFE42:
 547              		.globl	_ZN4KPCBC1EPFvPvE
 548              		.set	_ZN4KPCBC1EPFvPvE,_ZN4KPCBC2EPFvPvE
 549              		.align	2
 550              		.globl	_ZN4KPCB12createThreadEPFvPvE
 552              	_ZN4KPCB12createThreadEPFvPvE:
GAS LISTING /tmp/ccFnt4CE.s 			page 14


 553              	.LFB36:
  37:src/KPCB.cpp  **** KPCB *KPCB::createThread(KPCB::Body body) {
 554              		.loc 1 37 43 is_stmt 1
 555              		.cfi_startproc
 556              		.cfi_personality 0x9b,DW.ref.__gxx_personality_v0
 557              		.cfi_lsda 0x1b,.LLSDA36
 558              	.LVL43:
 559 0368 130101FE 		addi	sp,sp,-32
 560              		.cfi_def_cfa_offset 32
 561 036c 233C1100 		sd	ra,24(sp)
 562 0370 23388100 		sd	s0,16(sp)
 563 0374 23349100 		sd	s1,8(sp)
 564 0378 23302101 		sd	s2,0(sp)
 565              		.cfi_offset 1, -8
 566              		.cfi_offset 8, -16
 567              		.cfi_offset 9, -24
 568              		.cfi_offset 18, -32
 569 037c 13040102 		addi	s0,sp,32
 570              		.cfi_def_cfa 8, 0
 571 0380 13090500 		mv	s2,a0
  38:src/KPCB.cpp  ****     return new KPCB(body);
 572              		.loc 1 38 5
 573              	.LVL44:
 574              	.LBB43:
 575              	.LBB44:
  25:src/../h/KPCB.hpp ****         return KMemoryAllocator::mem_alloc(sizeBlock);
 576              		.loc 2 25 9
  26:src/../h/KPCB.hpp ****         //return __mem_alloc(size);
 577              		.loc 2 26 9
  26:src/../h/KPCB.hpp ****         //return __mem_alloc(size);
 578              		.loc 2 26 43 is_stmt 0
 579 0384 13052000 		li	a0,2
 580              	.LVL45:
 581              	.LEHB0:
 582 0388 97000000 		call	_ZN16KMemoryAllocator9mem_allocEm@plt
 582      E7800000 
 583              	.LVL46:
 584              	.LEHE0:
 585 0390 93040500 		mv	s1,a0
 586              	.LVL47:
 587              	.LBE44:
 588              	.LBE43:
  38:src/KPCB.cpp  ****     return new KPCB(body);
 589              		.loc 1 38 25
 590 0394 93050900 		mv	a1,s2
 591              	.LEHB1:
 592 0398 97000000 		call	_ZN4KPCBC1EPFvPvE
 592      E7800000 
 593              	.LVL48:
 594              	.LEHE1:
 595 03a0 6F000002 		j	.L39
 596              	.L36:
 597 03a4 13090500 		mv	s2,a0
 598              	.LVL49:
 599              	.LBB45:
 600              	.LBB46:
  35:src/../h/KPCB.hpp ****         //__mem_free(addr);
GAS LISTING /tmp/ccFnt4CE.s 			page 15


 601              		.loc 2 35 9 is_stmt 1
  35:src/../h/KPCB.hpp ****         //__mem_free(addr);
 602              		.loc 2 35 35 is_stmt 0
 603 03a8 13850400 		mv	a0,s1
 604 03ac 97000000 		call	_ZN16KMemoryAllocator8mem_freeEPv@plt
 604      E7800000 
 605              	.LVL50:
 606 03b4 13050900 		mv	a0,s2
 607              	.LEHB2:
 608 03b8 97000000 		call	_Unwind_Resume@plt
 608      E7800000 
 609              	.LVL51:
 610              	.LEHE2:
 611              	.L39:
 612              	.LBE46:
 613              	.LBE45:
  39:src/KPCB.cpp  **** }
 614              		.loc 1 39 1
 615 03c0 13850400 		mv	a0,s1
 616 03c4 83308101 		ld	ra,24(sp)
 617              		.cfi_restore 1
 618 03c8 03340101 		ld	s0,16(sp)
 619              		.cfi_restore 8
 620              		.cfi_def_cfa 2, 32
 621 03cc 83348100 		ld	s1,8(sp)
 622              		.cfi_restore 9
 623 03d0 03390100 		ld	s2,0(sp)
 624              		.cfi_restore 18
 625              	.LVL52:
 626 03d4 13010102 		addi	sp,sp,32
 627              		.cfi_def_cfa_offset 0
 628 03d8 67800000 		jr	ra
 629              		.cfi_endproc
 630              	.LFE36:
 631              		.globl	__gxx_personality_v0
 632              		.section	.gcc_except_table,"a",@progbits
 633              	.LLSDA36:
 634 0000 FF       		.byte	0xff
 635 0001 FF       		.byte	0xff
 636 0002 03       		.byte	0x3
 637 0003 27       		.byte	0x27
 638 0004 00000000 		.4byte	.LEHB0-.LFB36
 639 0008 00000000 		.4byte	.LEHE0-.LEHB0
 640 000c 00000000 		.4byte	0
 641 0010 00       		.byte	0
 642 0011 00000000 		.4byte	.LEHB1-.LFB36
 643 0015 00000000 		.4byte	.LEHE1-.LEHB1
 644 0019 00000000 		.4byte	.L36-.LFB36
 645 001d 00       		.byte	0
 646 001e 00000000 		.4byte	.LEHB2-.LFB36
 647 0022 00000000 		.4byte	.LEHE2-.LEHB2
 648 0026 00000000 		.4byte	0
 649 002a 00       		.byte	0
 650              		.text
 652              		.globl	_ZN4KPCB16timeSliceCounterE
 653              		.globl	_ZN4KPCB6statIDE
 654              		.globl	_ZN4KPCB7counterE
GAS LISTING /tmp/ccFnt4CE.s 			page 16


 655              		.globl	_ZN4KPCB7runningE
 656              		.bss
 657              		.align	3
 658              		.set	.LANCHOR0,. + 0
 661              	_ZN4KPCB7runningE:
 662 0000 00000000 		.zero	8
 662      00000000 
 665              	_ZN4KPCB7counterE:
 666 0008 00000000 		.zero	4
 667 000c 00000000 		.zero	4
 670              	_ZN4KPCB16timeSliceCounterE:
 671 0010 00000000 		.zero	8
 671      00000000 
 674              	_ZN4KPCB6statIDE:
 675 0018 00000000 		.zero	4
 676              		.text
 677              	.Letext0:
 678              		.file 3 "src/../h/../lib/hw.h"
 679              		.file 4 "src/../h/KScheduler.hpp"
 680              		.file 5 "src/../h/KMemoryAllocator.hpp"
 681              		.file 6 "src/../h/KRiscv.hpp"
 3841              		.align	3
 3844              	DW.ref.__gxx_personality_v0:
 3845 0000 00000000 		.dword	__gxx_personality_v0
 3845      00000000 
 3846              		.ident	"GCC: (Ubuntu 9.4.0-1ubuntu1~20.04) 9.4.0"
 3847              		.section	.note.GNU-stack,"",@progbits
GAS LISTING /tmp/ccFnt4CE.s 			page 17


DEFINED SYMBOLS
                            *ABS*:0000000000000000 KPCB.cpp
     /tmp/ccFnt4CE.s:9      .text:0000000000000000 _ZN4KPCB5yieldEv
     /tmp/ccFnt4CE.s:13     .text:0000000000000000 .L0 
     /tmp/ccFnt4CE.s:14     .text:0000000000000000 .L0 
     /tmp/ccFnt4CE.s:15     .text:0000000000000004 .L0 
     /tmp/ccFnt4CE.s:17     .text:0000000000000008 .L0 
     /tmp/ccFnt4CE.s:19     .text:000000000000000c .L0 
     /tmp/ccFnt4CE.s:21     .text:000000000000000c .L0 
        src/KPCB.cpp:14     .text:000000000000000c .L0 
     /tmp/ccFnt4CE.s:27     .text:0000000000000010 .L0 
        src/KPCB.cpp:15     .text:0000000000000010 .L0 
     /tmp/ccFnt4CE.s:33     .text:0000000000000014 .L0 
     /tmp/ccFnt4CE.s:34     .text:0000000000000018 .L0 
     /tmp/ccFnt4CE.s:35     .text:0000000000000018 .L0 
     /tmp/ccFnt4CE.s:37     .text:000000000000001c .L0 
     /tmp/ccFnt4CE.s:39     .text:0000000000000020 .L0 
     /tmp/ccFnt4CE.s:45     .text:0000000000000020 _ZN4KPCB13threadWrapperEv
     /tmp/ccFnt4CE.s:48     .text:0000000000000020 .L0 
     /tmp/ccFnt4CE.s:49     .text:0000000000000020 .L0 
     /tmp/ccFnt4CE.s:50     .text:0000000000000024 .L0 
     /tmp/ccFnt4CE.s:54     .text:0000000000000030 .L0 
     /tmp/ccFnt4CE.s:55     .text:0000000000000030 .L0 
     /tmp/ccFnt4CE.s:56     .text:0000000000000030 .L0 
     /tmp/ccFnt4CE.s:58     .text:0000000000000034 .L0 
     /tmp/ccFnt4CE.s:60     .text:0000000000000034 .L0 
     /tmp/ccFnt4CE.s:61     .text:0000000000000034 .L0 
     /tmp/ccFnt4CE.s:64     .text:000000000000003c .L0 
     /tmp/ccFnt4CE.s:65     .text:000000000000003c .L0 
     /tmp/ccFnt4CE.s:69     .text:000000000000004c .L0 
     /tmp/ccFnt4CE.s:73     .text:0000000000000054 .L0 
     /tmp/ccFnt4CE.s:74     .text:0000000000000054 .L0 
     /tmp/ccFnt4CE.s:80     .text:0000000000000058 .L0 
     /tmp/ccFnt4CE.s:81     .text:0000000000000058 .L0 
     /tmp/ccFnt4CE.s:83     .text:000000000000005c .L0 
     /tmp/ccFnt4CE.s:85     .text:0000000000000060 .L0 
     /tmp/ccFnt4CE.s:86     .text:0000000000000060 .L0 
     /tmp/ccFnt4CE.s:89     .text:0000000000000068 .L0 
     /tmp/ccFnt4CE.s:90     .text:0000000000000068 .L0 
     /tmp/ccFnt4CE.s:99     .text:0000000000000074 .L0 
     /tmp/ccFnt4CE.s:100    .text:0000000000000074 .L0 
     /tmp/ccFnt4CE.s:103    .text:000000000000007c .L0 
     /tmp/ccFnt4CE.s:104    .text:0000000000000080 .L0 
     /tmp/ccFnt4CE.s:106    .text:0000000000000084 .L0 
     /tmp/ccFnt4CE.s:107    .text:0000000000000084 .L0 
     /tmp/ccFnt4CE.s:109    .text:0000000000000088 .L0 
     /tmp/ccFnt4CE.s:111    .text:000000000000008c .L0 
     /tmp/ccFnt4CE.s:113    .text:0000000000000090 .L0 
     /tmp/ccFnt4CE.s:119    .text:0000000000000090 _ZN4KPCB8dispatchEv
     /tmp/ccFnt4CE.s:122    .text:0000000000000090 .L0 
     /tmp/ccFnt4CE.s:123    .text:0000000000000090 .L0 
     /tmp/ccFnt4CE.s:124    .text:0000000000000094 .L0 
     /tmp/ccFnt4CE.s:128    .text:00000000000000a0 .L0 
     /tmp/ccFnt4CE.s:129    .text:00000000000000a0 .L0 
     /tmp/ccFnt4CE.s:130    .text:00000000000000a0 .L0 
     /tmp/ccFnt4CE.s:132    .text:00000000000000a4 .L0 
     /tmp/ccFnt4CE.s:134    .text:00000000000000a4 .L0 
GAS LISTING /tmp/ccFnt4CE.s 			page 18


     /tmp/ccFnt4CE.s:135    .text:00000000000000a4 .L0 
     /tmp/ccFnt4CE.s:140    .text:00000000000000ac .L0 
     /tmp/ccFnt4CE.s:141    .text:00000000000000ac .L0 
     /tmp/ccFnt4CE.s:142    .text:00000000000000ac .L0 
     /tmp/ccFnt4CE.s:147    .text:00000000000000b0 .L0 
     /tmp/ccFnt4CE.s:152    .text:00000000000000b4 .L0 
     /tmp/ccFnt4CE.s:153    .text:00000000000000b4 .L0 
     /tmp/ccFnt4CE.s:158    .text:00000000000000b8 .L0 
     /tmp/ccFnt4CE.s:163    .text:00000000000000bc .L0 
     /tmp/ccFnt4CE.s:164    .text:00000000000000bc .L0 
     /tmp/ccFnt4CE.s:169    .text:00000000000000c0 .L0 
     /tmp/ccFnt4CE.s:174    .text:00000000000000c4 .L0 
     /tmp/ccFnt4CE.s:175    .text:00000000000000c4 .L0 
     /tmp/ccFnt4CE.s:180    .text:00000000000000c8 .L0 
     /tmp/ccFnt4CE.s:183    .text:00000000000000cc .L0 
     /tmp/ccFnt4CE.s:184    .text:00000000000000cc .L0 
     /tmp/ccFnt4CE.s:187    .text:00000000000000d4 .L0 
     /tmp/ccFnt4CE.s:190    .text:00000000000000e0 .L0 
     /tmp/ccFnt4CE.s:191    .text:00000000000000e0 .L0 
     /tmp/ccFnt4CE.s:197    .text:00000000000000e4 .L0 
     /tmp/ccFnt4CE.s:198    .text:00000000000000e4 .L0 
     /tmp/ccFnt4CE.s:199    .text:00000000000000e4 .L0 
     /tmp/ccFnt4CE.s:204    .text:00000000000000e8 .L0 
     /tmp/ccFnt4CE.s:206    .text:00000000000000ec .L0 
     /tmp/ccFnt4CE.s:208    .text:00000000000000f0 .L0 
     /tmp/ccFnt4CE.s:209    .text:00000000000000f0 .L0 
     /tmp/ccFnt4CE.s:216    .text:0000000000000100 .L0 
     /tmp/ccFnt4CE.s:217    .text:0000000000000104 .L0 
     /tmp/ccFnt4CE.s:218    .text:0000000000000104 .L0 
     /tmp/ccFnt4CE.s:220    .text:0000000000000108 .L0 
     /tmp/ccFnt4CE.s:221    .text:0000000000000108 .L0 
     /tmp/ccFnt4CE.s:223    .text:000000000000010c .L0 
     /tmp/ccFnt4CE.s:226    .text:0000000000000110 .L0 
     /tmp/ccFnt4CE.s:230    .text:0000000000000114 .L0 
     /tmp/ccFnt4CE.s:232    .text:0000000000000114 .L0 
     /tmp/ccFnt4CE.s:233    .text:0000000000000114 .L0 
     /tmp/ccFnt4CE.s:241    .text:0000000000000124 .L0 
     /tmp/ccFnt4CE.s:242    .text:0000000000000124 .L0 
     /tmp/ccFnt4CE.s:247    .text:0000000000000134 .L0 
     /tmp/ccFnt4CE.s:248    .text:0000000000000134 .L0 
     /tmp/ccFnt4CE.s:252    .text:0000000000000140 .L0 
     /tmp/ccFnt4CE.s:253    .text:0000000000000140 .L0 
     /tmp/ccFnt4CE.s:255    .text:0000000000000144 .L0 
     /tmp/ccFnt4CE.s:256    .text:0000000000000144 .L0 
     /tmp/ccFnt4CE.s:264    .text:0000000000000160 .L0 
     /tmp/ccFnt4CE.s:270    .text:0000000000000160 _ZN4KPCBC2EPFvPvES0_S0_
     /tmp/ccFnt4CE.s:273    .text:0000000000000160 .L0 
     /tmp/ccFnt4CE.s:275    .text:0000000000000160 .L0 
     /tmp/ccFnt4CE.s:276    .text:0000000000000164 .L0 
     /tmp/ccFnt4CE.s:278    .text:0000000000000168 .L0 
     /tmp/ccFnt4CE.s:280    .text:000000000000016c .L0 
     /tmp/ccFnt4CE.s:283    .text:000000000000016c .L0 
     /tmp/ccFnt4CE.s:285    .text:0000000000000170 .L0 
     /tmp/ccFnt4CE.s:290    .text:0000000000000184 .L0 
     /tmp/ccFnt4CE.s:293    .text:000000000000018c .L0 
     /tmp/ccFnt4CE.s:297    .text:0000000000000190 .L0 
     /tmp/ccFnt4CE.s:299    .text:0000000000000194 .L0 
GAS LISTING /tmp/ccFnt4CE.s 			page 19


     /tmp/ccFnt4CE.s:301    .text:0000000000000198 .L0 
     /tmp/ccFnt4CE.s:304    .text:00000000000001a0 .L0 
     /tmp/ccFnt4CE.s:306    .text:00000000000001a4 .L0 
     /tmp/ccFnt4CE.s:308    .text:00000000000001a8 .L0 
     /tmp/ccFnt4CE.s:312    .text:00000000000001b0 .L0 
     /tmp/ccFnt4CE.s:323    .text:00000000000001d8 .L0 
     /tmp/ccFnt4CE.s:325    .text:00000000000001dc .L0 
     /tmp/ccFnt4CE.s:326    .text:00000000000001dc .L0 
     /tmp/ccFnt4CE.s:333    .text:00000000000001f0 .L0 
     /tmp/ccFnt4CE.s:334    .text:00000000000001f4 .L0 
     /tmp/ccFnt4CE.s:335    .text:00000000000001f4 .L0 
     /tmp/ccFnt4CE.s:336    .text:00000000000001f4 .L0 
     /tmp/ccFnt4CE.s:338    .text:00000000000001f8 .L0 
     /tmp/ccFnt4CE.s:342    .text:00000000000001fc .L0 
     /tmp/ccFnt4CE.s:345    .text:00000000000001fc .L0 
     /tmp/ccFnt4CE.s:350    .text:0000000000000204 .L0 
     /tmp/ccFnt4CE.s:354    .text:000000000000020c .L0 
     /tmp/ccFnt4CE.s:357    .text:0000000000000214 .L0 
     /tmp/ccFnt4CE.s:270    .text:0000000000000160 _ZN4KPCBC1EPFvPvES0_S0_
     /tmp/ccFnt4CE.s:365    .text:0000000000000214 _ZN4KPCB12createThreadEPFvPvES0_S0_
     /tmp/ccFnt4CE.s:368    .text:0000000000000214 .L0 
     /tmp/ccFnt4CE.s:370    .text:0000000000000214 .L0 
     /tmp/ccFnt4CE.s:371    .text:0000000000000218 .L0 
     /tmp/ccFnt4CE.s:378    .text:0000000000000230 .L0 
     /tmp/ccFnt4CE.s:379    .text:0000000000000230 .L0 
     /tmp/ccFnt4CE.s:380    .text:0000000000000230 .L0 
     /tmp/ccFnt4CE.s:381    .text:0000000000000230 .L0 
     /tmp/ccFnt4CE.s:382    .text:0000000000000230 .L0 
     /tmp/ccFnt4CE.s:383    .text:0000000000000230 .L0 
     /tmp/ccFnt4CE.s:385    .text:0000000000000234 .L0 
     /tmp/ccFnt4CE.s:393    .text:0000000000000240 .L0 
     /tmp/ccFnt4CE.s:394    .text:0000000000000240 .L0 
     /tmp/ccFnt4CE.s:395    .text:0000000000000240 .L0 
     /tmp/ccFnt4CE.s:396    .text:0000000000000240 .L0 
     /tmp/ccFnt4CE.s:405    .text:0000000000000250 .L0 
     /tmp/ccFnt4CE.s:411    .text:0000000000000264 .L0 
     /tmp/ccFnt4CE.s:413    .text:000000000000026c .L0 
     /tmp/ccFnt4CE.s:415    .text:0000000000000270 .L0 
     /tmp/ccFnt4CE.s:416    .text:0000000000000270 .L0 
     /tmp/ccFnt4CE.s:418    .text:0000000000000274 .L0 
     /tmp/ccFnt4CE.s:420    .text:0000000000000278 .L0 
     /tmp/ccFnt4CE.s:423    .text:000000000000027c .L0 
     /tmp/ccFnt4CE.s:426    .text:0000000000000280 .L0 
     /tmp/ccFnt4CE.s:429    .text:0000000000000284 .L0 
     /tmp/ccFnt4CE.s:431    .text:0000000000000288 .L0 
     /tmp/ccFnt4CE.s:437    .text:0000000000000288 _ZN4KPCBC2EPFvPvE
     /tmp/ccFnt4CE.s:440    .text:0000000000000288 .L0 
     /tmp/ccFnt4CE.s:442    .text:0000000000000288 .L0 
     /tmp/ccFnt4CE.s:443    .text:000000000000028c .L0 
     /tmp/ccFnt4CE.s:448    .text:000000000000029c .L0 
     /tmp/ccFnt4CE.s:449    .text:000000000000029c .L0 
     /tmp/ccFnt4CE.s:450    .text:000000000000029c .L0 
     /tmp/ccFnt4CE.s:451    .text:000000000000029c .L0 
     /tmp/ccFnt4CE.s:453    .text:00000000000002a0 .L0 
     /tmp/ccFnt4CE.s:458    .text:00000000000002a8 .L0 
     /tmp/ccFnt4CE.s:460    .text:00000000000002ac .L0 
     /tmp/ccFnt4CE.s:465    .text:00000000000002c0 .L0 
GAS LISTING /tmp/ccFnt4CE.s 			page 20


     /tmp/ccFnt4CE.s:468    .text:00000000000002c8 .L0 
     /tmp/ccFnt4CE.s:470    .text:00000000000002cc .L0 
     /tmp/ccFnt4CE.s:476    .text:00000000000002d8 .L0 
     /tmp/ccFnt4CE.s:478    .text:00000000000002dc .L0 
     /tmp/ccFnt4CE.s:480    .text:00000000000002e0 .L0 
     /tmp/ccFnt4CE.s:483    .text:00000000000002e8 .L0 
     /tmp/ccFnt4CE.s:485    .text:00000000000002ec .L0 
     /tmp/ccFnt4CE.s:487    .text:00000000000002f0 .L0 
     /tmp/ccFnt4CE.s:491    .text:00000000000002f8 .L0 
     /tmp/ccFnt4CE.s:502    .text:0000000000000320 .L0 
     /tmp/ccFnt4CE.s:504    .text:0000000000000324 .L0 
     /tmp/ccFnt4CE.s:505    .text:0000000000000324 .L0 
     /tmp/ccFnt4CE.s:512    .text:0000000000000338 .L0 
     /tmp/ccFnt4CE.s:513    .text:000000000000033c .L0 
     /tmp/ccFnt4CE.s:514    .text:000000000000033c .L0 
     /tmp/ccFnt4CE.s:516    .text:0000000000000340 .L0 
     /tmp/ccFnt4CE.s:517    .text:0000000000000340 .L0 
     /tmp/ccFnt4CE.s:519    .text:0000000000000344 .L0 
     /tmp/ccFnt4CE.s:522    .text:0000000000000348 .L0 
     /tmp/ccFnt4CE.s:525    .text:000000000000034c .L0 
     /tmp/ccFnt4CE.s:529    .text:0000000000000350 .L0 
     /tmp/ccFnt4CE.s:532    .text:0000000000000350 .L0 
     /tmp/ccFnt4CE.s:537    .text:0000000000000358 .L0 
     /tmp/ccFnt4CE.s:541    .text:0000000000000360 .L0 
     /tmp/ccFnt4CE.s:544    .text:0000000000000368 .L0 
     /tmp/ccFnt4CE.s:437    .text:0000000000000288 _ZN4KPCBC1EPFvPvE
     /tmp/ccFnt4CE.s:552    .text:0000000000000368 _ZN4KPCB12createThreadEPFvPvE
     /tmp/ccFnt4CE.s:555    .text:0000000000000368 .L0 
     /tmp/ccFnt4CE.s:3844   .data.rel.local.DW.ref.__gxx_personality_v0:0000000000000000 DW.ref.__gxx_personality_v0
     /tmp/ccFnt4CE.s:559    .text:0000000000000368 .L0 
     /tmp/ccFnt4CE.s:560    .text:000000000000036c .L0 
     /tmp/ccFnt4CE.s:565    .text:000000000000037c .L0 
     /tmp/ccFnt4CE.s:566    .text:000000000000037c .L0 
     /tmp/ccFnt4CE.s:567    .text:000000000000037c .L0 
     /tmp/ccFnt4CE.s:568    .text:000000000000037c .L0 
     /tmp/ccFnt4CE.s:570    .text:0000000000000380 .L0 
     /tmp/ccFnt4CE.s:576    .text:0000000000000384 .L0 
     /tmp/ccFnt4CE.s:577    .text:0000000000000384 .L0 
     /tmp/ccFnt4CE.s:578    .text:0000000000000384 .L0 
     /tmp/ccFnt4CE.s:579    .text:0000000000000384 .L0 
     /tmp/ccFnt4CE.s:590    .text:0000000000000394 .L0 
     /tmp/ccFnt4CE.s:602    .text:00000000000003a8 .L0 
     /tmp/ccFnt4CE.s:603    .text:00000000000003a8 .L0 
     /tmp/ccFnt4CE.s:615    .text:00000000000003c0 .L0 
     /tmp/ccFnt4CE.s:617    .text:00000000000003c8 .L0 
     /tmp/ccFnt4CE.s:619    .text:00000000000003cc .L0 
     /tmp/ccFnt4CE.s:620    .text:00000000000003cc .L0 
     /tmp/ccFnt4CE.s:622    .text:00000000000003d0 .L0 
     /tmp/ccFnt4CE.s:624    .text:00000000000003d4 .L0 
     /tmp/ccFnt4CE.s:627    .text:00000000000003d8 .L0 
     /tmp/ccFnt4CE.s:629    .text:00000000000003dc .L0 
     /tmp/ccFnt4CE.s:670    .bss:0000000000000010 _ZN4KPCB16timeSliceCounterE
     /tmp/ccFnt4CE.s:674    .bss:0000000000000018 _ZN4KPCB6statIDE
     /tmp/ccFnt4CE.s:665    .bss:0000000000000008 _ZN4KPCB7counterE
     /tmp/ccFnt4CE.s:661    .bss:0000000000000000 _ZN4KPCB7runningE
     /tmp/ccFnt4CE.s:658    .bss:0000000000000000 .LANCHOR0
     /tmp/ccFnt4CE.s:682    .text:00000000000003dc .L0 
GAS LISTING /tmp/ccFnt4CE.s 			page 21


     /tmp/ccFnt4CE.s:65     .text:000000000000003c .L0 
     /tmp/ccFnt4CE.s:135    .text:00000000000000a4 .L0 
     /tmp/ccFnt4CE.s:187    .text:00000000000000d4 .L0 
     /tmp/ccFnt4CE.s:256    .text:0000000000000144 .L0 
     /tmp/ccFnt4CE.s:285    .text:0000000000000170 .L0 
     /tmp/ccFnt4CE.s:301    .text:0000000000000198 .L0 
     /tmp/ccFnt4CE.s:326    .text:00000000000001dc .L0 
     /tmp/ccFnt4CE.s:460    .text:00000000000002ac .L0 
     /tmp/ccFnt4CE.s:480    .text:00000000000002e0 .L0 
     /tmp/ccFnt4CE.s:505    .text:0000000000000324 .L0 
     /tmp/ccFnt4CE.s:94     .text:0000000000000074 .L4
     /tmp/ccFnt4CE.s:181    .text:00000000000000cc .L7
     /tmp/ccFnt4CE.s:229    .text:0000000000000114 .L11
     /tmp/ccFnt4CE.s:237    .text:0000000000000124 .L12
     /tmp/ccFnt4CE.s:213    .text:0000000000000100 .L6
     /tmp/ccFnt4CE.s:341    .text:00000000000001fc .L22
     /tmp/ccFnt4CE.s:348    .text:0000000000000204 .L19
     /tmp/ccFnt4CE.s:352    .text:000000000000020c .L20
     /tmp/ccFnt4CE.s:330    .text:00000000000001f0 .L13
     /tmp/ccFnt4CE.s:295    .text:0000000000000190 .L14
     /tmp/ccFnt4CE.s:302    .text:00000000000001a0 .L15
     /tmp/ccFnt4CE.s:310    .text:00000000000001b0 .L16
     /tmp/ccFnt4CE.s:528    .text:0000000000000350 .L30
     /tmp/ccFnt4CE.s:535    .text:0000000000000358 .L31
     /tmp/ccFnt4CE.s:539    .text:0000000000000360 .L32
     /tmp/ccFnt4CE.s:509    .text:0000000000000338 .L25
     /tmp/ccFnt4CE.s:474    .text:00000000000002d8 .L26
     /tmp/ccFnt4CE.s:481    .text:00000000000002e8 .L27
     /tmp/ccFnt4CE.s:489    .text:00000000000002f8 .L28
     /tmp/ccFnt4CE.s:611    .text:00000000000003c0 .L39
     /tmp/ccFnt4CE.s:581    .text:0000000000000388 .LEHB0
     /tmp/ccFnt4CE.s:553    .text:0000000000000368 .LFB36
     /tmp/ccFnt4CE.s:584    .text:0000000000000390 .LEHE0
     /tmp/ccFnt4CE.s:591    .text:0000000000000398 .LEHB1
     /tmp/ccFnt4CE.s:594    .text:00000000000003a0 .LEHE1
     /tmp/ccFnt4CE.s:596    .text:00000000000003a4 .L36
     /tmp/ccFnt4CE.s:607    .text:00000000000003b8 .LEHB2
     /tmp/ccFnt4CE.s:610    .text:00000000000003c0 .LEHE2
     /tmp/ccFnt4CE.s:2210   .debug_abbrev:0000000000000000 .Ldebug_abbrev0
     /tmp/ccFnt4CE.s:3776   .debug_str:0000000000000776 .LASF153
     /tmp/ccFnt4CE.s:3614   .debug_str:00000000000002d9 .LASF154
     /tmp/ccFnt4CE.s:3796   .debug_str:00000000000008dd .LASF155
     /tmp/ccFnt4CE.s:5      .text:0000000000000000 .Ltext0
     /tmp/ccFnt4CE.s:677    .text:00000000000003dc .Letext0
     /tmp/ccFnt4CE.s:3512   .debug_line:0000000000000000 .Ldebug_line0
     /tmp/ccFnt4CE.s:3682   .debug_str:00000000000004c6 .LASF0
     /tmp/ccFnt4CE.s:3710   .debug_str:00000000000005a2 .LASF1
     /tmp/ccFnt4CE.s:3660   .debug_str:0000000000000404 .LASF2
     /tmp/ccFnt4CE.s:3630   .debug_str:0000000000000341 .LASF4
     /tmp/ccFnt4CE.s:3756   .debug_str:00000000000006f0 .LASF3
     /tmp/ccFnt4CE.s:3548   .debug_str:00000000000000e7 .LASF5
     /tmp/ccFnt4CE.s:3578   .debug_str:00000000000001c0 .LASF6
     /tmp/ccFnt4CE.s:3716   .debug_str:00000000000005d1 .LASF7
     /tmp/ccFnt4CE.s:3680   .debug_str:00000000000004b3 .LASF8
     /tmp/ccFnt4CE.s:3794   .debug_str:00000000000008cd .LASF9
     /tmp/ccFnt4CE.s:3612   .debug_str:00000000000002cb .LASF10
     /tmp/ccFnt4CE.s:3732   .debug_str:0000000000000630 .LASF11
GAS LISTING /tmp/ccFnt4CE.s 			page 22


     /tmp/ccFnt4CE.s:3780   .debug_str:0000000000000848 .LASF12
     /tmp/ccFnt4CE.s:3550   .debug_str:00000000000000ee .LASF13
     /tmp/ccFnt4CE.s:3520   .debug_str:0000000000000029 .LASF14
     /tmp/ccFnt4CE.s:3566   .debug_str:000000000000016c .LASF15
     /tmp/ccFnt4CE.s:3748   .debug_str:00000000000006b3 .LASF16
     /tmp/ccFnt4CE.s:3574   .debug_str:00000000000001a5 .LASF17
     /tmp/ccFnt4CE.s:3638   .debug_str:0000000000000361 .LASF20
     /tmp/ccFnt4CE.s:3832   .debug_str:0000000000000a2c .LASF156
     /tmp/ccFnt4CE.s:3684   .debug_str:00000000000004d3 .LASF157
     /tmp/ccFnt4CE.s:3576   .debug_str:00000000000001bb .LASF18
     /tmp/ccFnt4CE.s:3654   .debug_str:00000000000003d7 .LASF19
     /tmp/ccFnt4CE.s:3836   .debug_str:0000000000000a5e .LASF21
     /tmp/ccFnt4CE.s:3528   .debug_str:000000000000005f .LASF79
     /tmp/ccFnt4CE.s:3534   .debug_str:0000000000000093 .LASF22
     /tmp/ccFnt4CE.s:3804   .debug_str:000000000000094a .LASF24
     /tmp/ccFnt4CE.s:3810   .debug_str:000000000000096d .LASF23
     /tmp/ccFnt4CE.s:3516   .debug_str:0000000000000014 .LASF25
     /tmp/ccFnt4CE.s:3608   .debug_str:00000000000002a9 .LASF26
     /tmp/ccFnt4CE.s:3544   .debug_str:00000000000000ce .LASF27
     /tmp/ccFnt4CE.s:3764   .debug_str:0000000000000725 .LASF28
     /tmp/ccFnt4CE.s:3568   .debug_str:0000000000000178 .LASF30
     /tmp/ccFnt4CE.s:3768   .debug_str:000000000000073c .LASF29
     /tmp/ccFnt4CE.s:3688   .debug_str:00000000000004f7 .LASF31
     /tmp/ccFnt4CE.s:3642   .debug_str:0000000000000385 .LASF32
     /tmp/ccFnt4CE.s:3786   .debug_str:0000000000000881 .LASF33
     /tmp/ccFnt4CE.s:3740   .debug_str:000000000000066b .LASF158
     /tmp/ccFnt4CE.s:3744   .debug_str:0000000000000683 .LASF34
     /tmp/ccFnt4CE.s:3750   .debug_str:00000000000006c9 .LASF35
     /tmp/ccFnt4CE.s:3556   .debug_str:000000000000011b .LASF37
     /tmp/ccFnt4CE.s:3686   .debug_str:00000000000004ee .LASF36
     /tmp/ccFnt4CE.s:3626   .debug_str:0000000000000323 .LASF38
     /tmp/ccFnt4CE.s:3590   .debug_str:0000000000000206 .LASF39
     /tmp/ccFnt4CE.s:3664   .debug_str:0000000000000428 .LASF40
     /tmp/ccFnt4CE.s:3724   .debug_str:0000000000000601 .LASF41
     /tmp/ccFnt4CE.s:3718   .debug_str:00000000000005e4 .LASF42
     /tmp/ccFnt4CE.s:3730   .debug_str:0000000000000618 .LASF44
     /tmp/ccFnt4CE.s:3674   .debug_str:0000000000000488 .LASF43
     /tmp/ccFnt4CE.s:3542   .debug_str:00000000000000b6 .LASF45
     /tmp/ccFnt4CE.s:3818   .debug_str:00000000000009b3 .LASF46
     /tmp/ccFnt4CE.s:3662   .debug_str:0000000000000412 .LASF47
     /tmp/ccFnt4CE.s:3644   .debug_str:0000000000000392 .LASF48
     /tmp/ccFnt4CE.s:3746   .debug_str:00000000000006a1 .LASF49
     /tmp/ccFnt4CE.s:3546   .debug_str:00000000000000db .LASF50
     /tmp/ccFnt4CE.s:3802   .debug_str:0000000000000932 .LASF51
     /tmp/ccFnt4CE.s:3588   .debug_str:00000000000001fa .LASF52
     /tmp/ccFnt4CE.s:3782   .debug_str:0000000000000857 .LASF53
     /tmp/ccFnt4CE.s:3820   .debug_str:00000000000009bd .LASF54
     /tmp/ccFnt4CE.s:3570   .debug_str:0000000000000186 .LASF55
     /tmp/ccFnt4CE.s:3704   .debug_str:000000000000057e .LASF56
     /tmp/ccFnt4CE.s:3784   .debug_str:000000000000086f .LASF57
     /tmp/ccFnt4CE.s:3572   .debug_str:000000000000019d .LASF58
     /tmp/ccFnt4CE.s:3560   .debug_str:000000000000013d .LASF59
     /tmp/ccFnt4CE.s:3536   .debug_str:0000000000000099 .LASF60
     /tmp/ccFnt4CE.s:3604   .debug_str:0000000000000280 .LASF61
     /tmp/ccFnt4CE.s:3668   .debug_str:0000000000000447 .LASF62
     /tmp/ccFnt4CE.s:3828   .debug_str:0000000000000a0f .LASF63
     /tmp/ccFnt4CE.s:3634   .debug_str:0000000000000351 .LASF64
GAS LISTING /tmp/ccFnt4CE.s 			page 23


     /tmp/ccFnt4CE.s:3692   .debug_str:000000000000050b .LASF65
     /tmp/ccFnt4CE.s:3690   .debug_str:0000000000000505 .LASF66
     /tmp/ccFnt4CE.s:3694   .debug_str:0000000000000510 .LASF67
     /tmp/ccFnt4CE.s:3632   .debug_str:0000000000000348 .LASF68
     /tmp/ccFnt4CE.s:3734   .debug_str:000000000000063f .LASF69
     /tmp/ccFnt4CE.s:3808   .debug_str:0000000000000965 .LASF70
     /tmp/ccFnt4CE.s:3706   .debug_str:0000000000000585 .LASF71
     /tmp/ccFnt4CE.s:3758   .debug_str:0000000000000702 .LASF72
     /tmp/ccFnt4CE.s:3722   .debug_str:00000000000005f4 .LASF73
     /tmp/ccFnt4CE.s:3778   .debug_str:000000000000083a .LASF74
     /tmp/ccFnt4CE.s:3554   .debug_str:000000000000010a .LASF75
     /tmp/ccFnt4CE.s:3558   .debug_str:000000000000012c .LASF76
     /tmp/ccFnt4CE.s:3622   .debug_str:0000000000000309 .LASF77
     /tmp/ccFnt4CE.s:3646   .debug_str:0000000000000398 .LASF78
     /tmp/ccFnt4CE.s:3806   .debug_str:0000000000000957 .LASF85
     /tmp/ccFnt4CE.s:3670   .debug_str:0000000000000459 .LASF87
     /tmp/ccFnt4CE.s:3648   .debug_str:00000000000003a3 .LASF159
     /tmp/ccFnt4CE.s:3738   .debug_str:0000000000000651 .LASF160
     /tmp/ccFnt4CE.s:3552   .debug_str:00000000000000fe .LASF80
     /tmp/ccFnt4CE.s:3830   .debug_str:0000000000000a27 .LASF81
     /tmp/ccFnt4CE.s:3772   .debug_str:0000000000000763 .LASF82
     /tmp/ccFnt4CE.s:3526   .debug_str:000000000000004e .LASF83
     /tmp/ccFnt4CE.s:3524   .debug_str:0000000000000042 .LASF84
     /tmp/ccFnt4CE.s:3628   .debug_str:0000000000000337 .LASF86
     /tmp/ccFnt4CE.s:3596   .debug_str:0000000000000229 .LASF88
     /tmp/ccFnt4CE.s:3658   .debug_str:00000000000003f4 .LASF89
     /tmp/ccFnt4CE.s:3826   .debug_str:00000000000009e6 .LASF90
     /tmp/ccFnt4CE.s:3760   .debug_str:0000000000000710 .LASF91
     /tmp/ccFnt4CE.s:3530   .debug_str:0000000000000067 .LASF92
     /tmp/ccFnt4CE.s:3736   .debug_str:0000000000000648 .LASF93
     /tmp/ccFnt4CE.s:3702   .debug_str:000000000000055c .LASF94
     /tmp/ccFnt4CE.s:3598   .debug_str:0000000000000258 .LASF95
     /tmp/ccFnt4CE.s:3720   .debug_str:00000000000005ef .LASF96
     /tmp/ccFnt4CE.s:3606   .debug_str:000000000000029c .LASF97
     /tmp/ccFnt4CE.s:3790   .debug_str:00000000000008af .LASF98
     /tmp/ccFnt4CE.s:3762   .debug_str:000000000000071a .LASF99
     /tmp/ccFnt4CE.s:3754   .debug_str:00000000000006d7 .LASF100
     /tmp/ccFnt4CE.s:3582   .debug_str:00000000000001d9 .LASF101
     /tmp/ccFnt4CE.s:3800   .debug_str:0000000000000913 .LASF102
     /tmp/ccFnt4CE.s:3728   .debug_str:000000000000060e .LASF103
     /tmp/ccFnt4CE.s:3564   .debug_str:0000000000000155 .LASF104
     /tmp/ccFnt4CE.s:3774   .debug_str:0000000000000768 .LASF105
     /tmp/ccFnt4CE.s:3812   .debug_str:000000000000097a .LASF106
     /tmp/ccFnt4CE.s:3600   .debug_str:000000000000025d .LASF107
     /tmp/ccFnt4CE.s:3698   .debug_str:000000000000052d .LASF108
     /tmp/ccFnt4CE.s:3522   .debug_str:0000000000000039 .LASF109
     /tmp/ccFnt4CE.s:3798   .debug_str:00000000000008fd .LASF113
     /tmp/ccFnt4CE.s:3586   .debug_str:00000000000001f1 .LASF110
     /tmp/ccFnt4CE.s:3602   .debug_str:000000000000026a .LASF111
     /tmp/ccFnt4CE.s:3584   .debug_str:00000000000001ea .LASF112
     /tmp/ccFnt4CE.s:3770   .debug_str:000000000000074f .LASF114
     /tmp/ccFnt4CE.s:3766   .debug_str:0000000000000735 .LASF115
     /tmp/ccFnt4CE.s:3700   .debug_str:0000000000000548 .LASF116
     /tmp/ccFnt4CE.s:3714   .debug_str:00000000000005c9 .LASF117
     /tmp/ccFnt4CE.s:3676   .debug_str:0000000000000493 .LASF118
     /tmp/ccFnt4CE.s:3518   .debug_str:0000000000000021 .LASF119
     /tmp/ccFnt4CE.s:3696   .debug_str:0000000000000518 .LASF120
GAS LISTING /tmp/ccFnt4CE.s 			page 24


     /tmp/ccFnt4CE.s:3592   .debug_str:000000000000020e .LASF121
     /tmp/ccFnt4CE.s:3650   .debug_str:00000000000003b1 .LASF122
     /tmp/ccFnt4CE.s:3752   .debug_str:00000000000006cf .LASF123
     /tmp/ccFnt4CE.s:3708   .debug_str:000000000000058d .LASF124
     /tmp/ccFnt4CE.s:3618   .debug_str:00000000000002f8 .LASF125
     /tmp/ccFnt4CE.s:3712   .debug_str:00000000000005b5 .LASF126
     /tmp/ccFnt4CE.s:3540   .debug_str:00000000000000af .LASF127
     /tmp/ccFnt4CE.s:3514   .debug_str:0000000000000000 .LASF128
     /tmp/ccFnt4CE.s:3672   .debug_str:0000000000000482 .LASF129
     /tmp/ccFnt4CE.s:3742   .debug_str:0000000000000670 .LASF130
     /tmp/ccFnt4CE.s:3538   .debug_str:00000000000000a9 .LASF131
     /tmp/ccFnt4CE.s:3594   .debug_str:0000000000000216 .LASF132
     /tmp/ccFnt4CE.s:3678   .debug_str:00000000000004a8 .LASF133
     /tmp/ccFnt4CE.s:3640   .debug_str:000000000000036c .LASF134
     /tmp/ccFnt4CE.s:3636   .debug_str:0000000000000356 .LASF135
     /tmp/ccFnt4CE.s:3824   .debug_str:00000000000009cd .LASF136
     /tmp/ccFnt4CE.s:3620   .debug_str:00000000000002ff .LASF137
     /tmp/ccFnt4CE.s:3792   .debug_str:00000000000008b6 .LASF138
     /tmp/ccFnt4CE.s:3532   .debug_str:0000000000000089 .LASF139
     /tmp/ccFnt4CE.s:3666   .debug_str:0000000000000430 .LASF140
     /tmp/ccFnt4CE.s:3580   .debug_str:00000000000001c7 .LASF141
     /tmp/ccFnt4CE.s:3610   .debug_str:00000000000002b9 .LASF142
     /tmp/ccFnt4CE.s:3652   .debug_str:00000000000003c6 .LASF143
     /tmp/ccFnt4CE.s:3834   .debug_str:0000000000000a42 .LASF144
     /tmp/ccFnt4CE.s:3814   .debug_str:0000000000000996 .LASF145
     /tmp/ccFnt4CE.s:3616   .debug_str:00000000000002e6 .LASF147
     /tmp/ccFnt4CE.s:438    .text:0000000000000288 .LFB42
     /tmp/ccFnt4CE.s:545    .text:0000000000000368 .LFE42
     /tmp/ccFnt4CE.s:3236   .debug_loc:0000000000000000 .LLST14
     /tmp/ccFnt4CE.s:3258   .debug_loc:000000000000005f .LLST15
     /tmp/ccFnt4CE.s:473    .text:00000000000002d8 .LVL38
     /tmp/ccFnt4CE.s:3562   .debug_str:0000000000000150 .LASF146
     /tmp/ccFnt4CE.s:3656   .debug_str:00000000000003dc .LASF148
     /tmp/ccFnt4CE.s:271    .text:0000000000000160 .LFB39
     /tmp/ccFnt4CE.s:358    .text:0000000000000214 .LFE39
     /tmp/ccFnt4CE.s:3284   .debug_loc:00000000000000d1 .LLST8
     /tmp/ccFnt4CE.s:46     .text:0000000000000020 .LFB37
     /tmp/ccFnt4CE.s:114    .text:0000000000000090 .LFE37
     /tmp/ccFnt4CE.s:76     .text:0000000000000058 .LBB22
     /tmp/ccFnt4CE.s:97     .text:0000000000000074 .LBE22
     /tmp/ccFnt4CE.s:3309   .debug_loc:0000000000000133 .LLST0
     /tmp/ccFnt4CE.s:3317   .debug_loc:0000000000000157 .LLST1
     /tmp/ccFnt4CE.s:62     .text:000000000000003c .LVL0
     /tmp/ccFnt4CE.s:101    .text:000000000000007c .LVL5
     /tmp/ccFnt4CE.s:630    .text:00000000000003dc .LFE36
     /tmp/ccFnt4CE.s:3329   .debug_loc:0000000000000195 .LLST16
     /tmp/ccFnt4CE.s:574    .text:0000000000000384 .LBB43
     /tmp/ccFnt4CE.s:588    .text:0000000000000394 .LBE43
     /tmp/ccFnt4CE.s:3358   .debug_loc:000000000000020a .LLST17
     /tmp/ccFnt4CE.s:3367   .debug_loc:000000000000022f .LLST18
     /tmp/ccFnt4CE.s:583    .text:0000000000000390 .LVL46
     /tmp/ccFnt4CE.s:599    .text:00000000000003a8 .LBB45
     /tmp/ccFnt4CE.s:613    .text:00000000000003c0 .LBE45
     /tmp/ccFnt4CE.s:3375   .debug_loc:0000000000000253 .LLST19
     /tmp/ccFnt4CE.s:605    .text:00000000000003b4 .LVL50
     /tmp/ccFnt4CE.s:593    .text:00000000000003a0 .LVL48
     /tmp/ccFnt4CE.s:609    .text:00000000000003c0 .LVL51
GAS LISTING /tmp/ccFnt4CE.s 			page 25


     /tmp/ccFnt4CE.s:366    .text:0000000000000214 .LFB35
     /tmp/ccFnt4CE.s:432    .text:0000000000000288 .LFE35
     /tmp/ccFnt4CE.s:3382   .debug_loc:0000000000000276 .LLST9
     /tmp/ccFnt4CE.s:3400   .debug_loc:00000000000002c2 .LLST10
     /tmp/ccFnt4CE.s:3418   .debug_loc:000000000000030e .LLST11
     /tmp/ccFnt4CE.s:391    .text:0000000000000240 .LBB39
     /tmp/ccFnt4CE.s:403    .text:0000000000000250 .LBE39
     /tmp/ccFnt4CE.s:3436   .debug_loc:000000000000035a .LLST12
     /tmp/ccFnt4CE.s:3445   .debug_loc:000000000000037f .LLST13
     /tmp/ccFnt4CE.s:399    .text:000000000000024c .LVL30
     /tmp/ccFnt4CE.s:409    .text:0000000000000264 .LVL32
     /tmp/ccFnt4CE.s:120    .text:0000000000000090 .LFB34
     /tmp/ccFnt4CE.s:265    .text:0000000000000160 .LFE34
     /tmp/ccFnt4CE.s:3453   .debug_loc:00000000000003a3 .LLST2
     /tmp/ccFnt4CE.s:239    .text:0000000000000124 .LBB35
     /tmp/ccFnt4CE.s:261    .text:000000000000015c .LBE35
     /tmp/ccFnt4CE.s:250    .text:0000000000000140 .LVL21
     /tmp/ccFnt4CE.s:260    .text:000000000000015c .LVL22
     /tmp/ccFnt4CE.s:138    .text:00000000000000ac .LBB24
     /tmp/ccFnt4CE.s:145    .text:00000000000000b0 .LBE24
     /tmp/ccFnt4CE.s:3464   .debug_loc:00000000000003d9 .LLST3
     /tmp/ccFnt4CE.s:149    .text:00000000000000b4 .LBB26
     /tmp/ccFnt4CE.s:156    .text:00000000000000b8 .LBE26
     /tmp/ccFnt4CE.s:3471   .debug_loc:00000000000003fc .LLST4
     /tmp/ccFnt4CE.s:160    .text:00000000000000bc .LBB28
     /tmp/ccFnt4CE.s:167    .text:00000000000000c0 .LBE28
     /tmp/ccFnt4CE.s:3478   .debug_loc:000000000000041f .LLST5
     /tmp/ccFnt4CE.s:171    .text:00000000000000c4 .LBB30
     /tmp/ccFnt4CE.s:178    .text:00000000000000c8 .LBE30
     /tmp/ccFnt4CE.s:3485   .debug_loc:0000000000000442 .LLST6
     /tmp/ccFnt4CE.s:195    .text:00000000000000e4 .LBB33
     /tmp/ccFnt4CE.s:202    .text:00000000000000e8 .LBE33
     /tmp/ccFnt4CE.s:3492   .debug_loc:0000000000000465 .LLST7
     /tmp/ccFnt4CE.s:185    .text:00000000000000d4 .LVL14
     /tmp/ccFnt4CE.s:212    .text:0000000000000100 .LVL17
     /tmp/ccFnt4CE.s:235    .text:0000000000000120 .LVL20
     /tmp/ccFnt4CE.s:10     .text:0000000000000000 .LFB33
     /tmp/ccFnt4CE.s:40     .text:0000000000000020 .LFE33
     /tmp/ccFnt4CE.s:3822   .debug_str:00000000000009c8 .LASF149
     /tmp/ccFnt4CE.s:3788   .debug_str:00000000000008a5 .LASF161
     /tmp/ccFnt4CE.s:3726   .debug_str:0000000000000608 .LASF150
     /tmp/ccFnt4CE.s:3624   .debug_str:0000000000000314 .LASF151
     /tmp/ccFnt4CE.s:3816   .debug_str:000000000000099b .LASF152
     /tmp/ccFnt4CE.s:441    .text:0000000000000288 .LVL36
     /tmp/ccFnt4CE.s:471    .text:00000000000002d0 .LVL37
     /tmp/ccFnt4CE.s:520    .text:0000000000000344 .LVL39
     /tmp/ccFnt4CE.s:527    .text:0000000000000350 .LVL41
     /tmp/ccFnt4CE.s:523    .text:0000000000000348 .LVL40
     /tmp/ccFnt4CE.s:534    .text:0000000000000358 .LVL42
     /tmp/ccFnt4CE.s:274    .text:0000000000000160 .LVL23
     /tmp/ccFnt4CE.s:294    .text:0000000000000190 .LVL24
     /tmp/ccFnt4CE.s:340    .text:00000000000001fc .LVL25
     /tmp/ccFnt4CE.s:346    .text:0000000000000200 .LVL26
     /tmp/ccFnt4CE.s:75     .text:0000000000000058 .LVL2
     /tmp/ccFnt4CE.s:95     .text:0000000000000074 .LVL4
     /tmp/ccFnt4CE.s:91     .text:000000000000006c .LVL3
     /tmp/ccFnt4CE.s:558    .text:0000000000000368 .LVL43
GAS LISTING /tmp/ccFnt4CE.s 			page 26


     /tmp/ccFnt4CE.s:580    .text:0000000000000388 .LVL45
     /tmp/ccFnt4CE.s:598    .text:00000000000003a8 .LVL49
     /tmp/ccFnt4CE.s:625    .text:00000000000003d4 .LVL52
     /tmp/ccFnt4CE.s:573    .text:0000000000000384 .LVL44
     /tmp/ccFnt4CE.s:586    .text:0000000000000394 .LVL47
     /tmp/ccFnt4CE.s:369    .text:0000000000000214 .LVL27
     /tmp/ccFnt4CE.s:397    .text:0000000000000244 .LVL29
     /tmp/ccFnt4CE.s:421    .text:0000000000000278 .LVL33
     /tmp/ccFnt4CE.s:424    .text:000000000000027c .LVL34
     /tmp/ccFnt4CE.s:427    .text:0000000000000280 .LVL35
     /tmp/ccFnt4CE.s:390    .text:0000000000000240 .LVL28
     /tmp/ccFnt4CE.s:401    .text:0000000000000250 .LVL31
     /tmp/ccFnt4CE.s:136    .text:00000000000000ac .LVL6
     /tmp/ccFnt4CE.s:224    .text:000000000000010c .LVL18
     /tmp/ccFnt4CE.s:228    .text:0000000000000114 .LVL19
     /tmp/ccFnt4CE.s:143    .text:00000000000000b0 .LVL7
     /tmp/ccFnt4CE.s:148    .text:00000000000000b4 .LVL8
     /tmp/ccFnt4CE.s:154    .text:00000000000000b8 .LVL9
     /tmp/ccFnt4CE.s:159    .text:00000000000000bc .LVL10
     /tmp/ccFnt4CE.s:165    .text:00000000000000c0 .LVL11
     /tmp/ccFnt4CE.s:170    .text:00000000000000c4 .LVL12
     /tmp/ccFnt4CE.s:176    .text:00000000000000c8 .LVL13
     /tmp/ccFnt4CE.s:193    .text:00000000000000e4 .LVL15
     /tmp/ccFnt4CE.s:200    .text:00000000000000e8 .LVL16
     /tmp/ccFnt4CE.s:683    .debug_info:0000000000000000 .Ldebug_info0
     /tmp/ccFnt4CE.s:633    .gcc_except_table:0000000000000000 .LLSDA36

UNDEFINED SYMBOLS
_ZN6KRiscv10popSppSpieEv
_ZN10KScheduler3getEv
_ZN4KPCB13contextSwitchEPNS_7ContextES1_
_ZN10KScheduler3putEP4KPCB
_ZN16KMemoryAllocator8mem_freeEPv
_ZN16KMemoryAllocator9mem_allocEm
_Znam
_Unwind_Resume
__gxx_personality_v0
