GAS LISTING /tmp/ccwcDOjU.s 			page 1


   1              		.file	"KRiscv.cpp"
   2              		.option pic
   3              		.option norelax
   4              		.text
   5              	.Ltext0:
   6              		.align	2
   7              		.globl	_ZN6KRiscv10popSppSpieEv
   9              	_ZN6KRiscv10popSppSpieEv:
  10              	.LFB50:
  11              		.file 1 "src/KRiscv.cpp"
   1:src/KRiscv.cpp **** //
   2:src/KRiscv.cpp **** // Created by os on 6/22/22.
   3:src/KRiscv.cpp **** //
   4:src/KRiscv.cpp **** 
   5:src/KRiscv.cpp **** #include "../h/KRiscv.hpp"
   6:src/KRiscv.cpp **** #include "../lib/hw.h"
   7:src/KRiscv.cpp **** #include "../h/KMemoryAllocator.hpp"
   8:src/KRiscv.cpp **** #include "../h/KPCB.hpp"
   9:src/KRiscv.cpp **** #include "../h/KSemaphore.hpp"
  10:src/KRiscv.cpp **** #include "../h/KSleep.hpp"
  11:src/KRiscv.cpp **** #include "../h/KConsole.hpp"
  12:src/KRiscv.cpp **** #include "../test/printing.hpp"
  13:src/KRiscv.cpp **** extern char cGlob;
  14:src/KRiscv.cpp **** 
  15:src/KRiscv.cpp **** constexpr uint64 TIMER = 0x8000000000000001UL;
  16:src/KRiscv.cpp **** constexpr uint64 EXT_HW = 0x8000000000000009UL;
  17:src/KRiscv.cpp **** constexpr uint64 ILL_INSTR = 2;
  18:src/KRiscv.cpp **** constexpr uint64 ERR_RD = 5;
  19:src/KRiscv.cpp **** constexpr uint64 ERR_WR = 7;
  20:src/KRiscv.cpp **** constexpr uint64 ECALL_USER = 8;
  21:src/KRiscv.cpp **** constexpr uint64 ECALL_SYS = 9;
  22:src/KRiscv.cpp **** 
  23:src/KRiscv.cpp **** constexpr uint64 MEM_ALLOC = 0x01;
  24:src/KRiscv.cpp **** constexpr uint64 MEM_FREE = 0x02;
  25:src/KRiscv.cpp **** constexpr uint64 USER_MODE = 0x05;
  26:src/KRiscv.cpp **** constexpr uint64 KERNEL_MODE = 0x06;
  27:src/KRiscv.cpp **** constexpr uint64 THREAD_CREATE_CPP = 0x10;
  28:src/KRiscv.cpp **** constexpr uint64 THREAD_CREATE = 0x11;
  29:src/KRiscv.cpp **** constexpr uint64 THREAD_EXIT = 0x12;
  30:src/KRiscv.cpp **** constexpr uint64 THREAD_DISPATCH = 0x13;
  31:src/KRiscv.cpp **** constexpr uint64 SEM_OPEN = 0x21;
  32:src/KRiscv.cpp **** constexpr uint64 SEM_CLOSE = 0x22;
  33:src/KRiscv.cpp **** constexpr uint64 SEM_WAIT = 0x23;
  34:src/KRiscv.cpp **** constexpr uint64 SEM_SIGNAL = 0x24;
  35:src/KRiscv.cpp **** constexpr uint64 TIME_SLEEP = 0x31;
  36:src/KRiscv.cpp **** constexpr uint64 GETC = 0x41;
  37:src/KRiscv.cpp **** constexpr uint64 PUTC = 0x42;
  38:src/KRiscv.cpp **** constexpr uint64 RCONS = 0x43;
  39:src/KRiscv.cpp **** 
  40:src/KRiscv.cpp **** void KRiscv::popSppSpie() {
  12              		.loc 1 40 27
  13              		.cfi_startproc
  14 0000 130101FF 		addi	sp,sp,-16
  15              		.cfi_def_cfa_offset 16
  16 0004 23348100 		sd	s0,8(sp)
  17              		.cfi_offset 8, -8
  18 0008 13040101 		addi	s0,sp,16
GAS LISTING /tmp/ccwcDOjU.s 			page 2


  19              		.cfi_def_cfa 8, 0
  41:src/KRiscv.cpp ****     asm volatile ("csrw sepc, ra");
  20              		.loc 1 41 5
  21              		.loc 1 41 35 is_stmt 0
  22              	#APP
  23              	# 41 "src/KRiscv.cpp" 1
  42              	    asm volatile ("sret");
  24              		csrw sepc, ra
  25              	# 0 "" 2
  26              		.loc 1 42 5 is_stmt 1
  27              		.loc 1 42 26 is_stmt 0
  28              	# 42 "src/KRiscv.cpp" 1
  43              	}
  29              		sret
  30              	# 0 "" 2
  31              		.loc 1 43 1
  32              	#NO_APP
  33 0014 03348100 		ld	s0,8(sp)
  34              		.cfi_restore 8
  35              		.cfi_def_cfa 2, 16
  36 0018 13010101 		addi	sp,sp,16
  37              		.cfi_def_cfa_offset 0
  38 001c 67800000 		jr	ra
  39              		.cfi_endproc
  40              	.LFE50:
  42              		.section	.rodata.str1.8,"aMS",@progbits,1
  43              		.align	3
  44              	.LC0:
  45 0000 4572726F 		.string	"Error: read\n"
  45      723A2072 
  45      6561640A 
  45      00
  46 000d 000000   		.align	3
  47              	.LC1:
  48 0010 4572726F 		.string	"Error: write\n"
  48      723A2077 
  48      72697465 
  48      0A00
  49 001e 0000     		.align	3
  50              	.LC2:
  51 0020 4572726F 		.string	"Error: illegal\n"
  51      723A2069 
  51      6C6C6567 
  51      616C0A00 
  52              		.text
  53              		.align	2
  54              		.globl	_ZN6KRiscv16interruptHandlerEv
  56              	_ZN6KRiscv16interruptHandlerEv:
  57              	.LFB51:
  44:src/KRiscv.cpp **** 
  45:src/KRiscv.cpp **** void KRiscv::interruptHandler() {
  58              		.loc 1 45 33 is_stmt 1
  59              		.cfi_startproc
  60              		.cfi_personality 0x9b,DW.ref.__gxx_personality_v0
  61              		.cfi_lsda 0x1b,.LLSDA51
  62 0020 130101F1 		addi	sp,sp,-240
  63              		.cfi_def_cfa_offset 240
GAS LISTING /tmp/ccwcDOjU.s 			page 3


  64 0024 2334110E 		sd	ra,232(sp)
  65 0028 2330810E 		sd	s0,224(sp)
  66 002c 233C910C 		sd	s1,216(sp)
  67 0030 2338210D 		sd	s2,208(sp)
  68              		.cfi_offset 1, -8
  69              		.cfi_offset 8, -16
  70              		.cfi_offset 9, -24
  71              		.cfi_offset 18, -32
  72 0034 1304010F 		addi	s0,sp,240
  73              		.cfi_def_cfa 8, 0
  46:src/KRiscv.cpp ****     uint64 scause = r_scause();
  74              		.loc 1 46 5
  75              	.LBB168:
  76              	.LBB169:
  77              		.file 2 "src/../h/KRiscv.hpp"
   1:src/../h/KRiscv.hpp **** //
   2:src/../h/KRiscv.hpp **** // Created by os on 6/22/22.
   3:src/../h/KRiscv.hpp **** //
   4:src/../h/KRiscv.hpp **** 
   5:src/../h/KRiscv.hpp **** #ifndef PROJECT_BASE_V1_1_KRISCV_HPP
   6:src/../h/KRiscv.hpp **** #define PROJECT_BASE_V1_1_KRISCV_HPP
   7:src/../h/KRiscv.hpp **** 
   8:src/../h/KRiscv.hpp **** #include "../lib/hw.h"
   9:src/../h/KRiscv.hpp **** 
  10:src/../h/KRiscv.hpp **** extern uint64 framePointer;
  11:src/../h/KRiscv.hpp **** 
  12:src/../h/KRiscv.hpp **** class KRiscv {
  13:src/../h/KRiscv.hpp **** public:
  14:src/../h/KRiscv.hpp **** 
  15:src/../h/KRiscv.hpp ****     static void popSppSpie();
  16:src/../h/KRiscv.hpp ****     static void interruptHandler();
  17:src/../h/KRiscv.hpp ****     static void interrupt();
  18:src/../h/KRiscv.hpp ****     static void pushRegisters();
  19:src/../h/KRiscv.hpp ****     static void popRegisters();
  20:src/../h/KRiscv.hpp **** 
  21:src/../h/KRiscv.hpp ****     static uint64 r_scause();
  22:src/../h/KRiscv.hpp ****     static void w_scause(uint64 scause);
  23:src/../h/KRiscv.hpp ****     static uint64 r_sepc();
  24:src/../h/KRiscv.hpp ****     static void w_sepc(uint64 sepc);
  25:src/../h/KRiscv.hpp ****     static uint64 r_stvec();
  26:src/../h/KRiscv.hpp ****     static void w_stvec(uint64 stvec);
  27:src/../h/KRiscv.hpp ****     static uint64 r_stval();
  28:src/../h/KRiscv.hpp ****     static void w_stval(uint64 stval);
  29:src/../h/KRiscv.hpp **** 
  30:src/../h/KRiscv.hpp ****     enum BitMaskSip {
  31:src/../h/KRiscv.hpp ****         SIP_SSIP = (1 << 1),
  32:src/../h/KRiscv.hpp ****         SIP_STIP = (1 << 5),
  33:src/../h/KRiscv.hpp ****         SIP_SEIP = (1 << 9)
  34:src/../h/KRiscv.hpp ****     };
  35:src/../h/KRiscv.hpp **** 
  36:src/../h/KRiscv.hpp ****     static void ms_sip(uint64 mask);
  37:src/../h/KRiscv.hpp ****     static void mc_sip(uint64 mask);
  38:src/../h/KRiscv.hpp ****     static uint64 r_sip();
  39:src/../h/KRiscv.hpp ****     static void w_sip(uint64 sip);
  40:src/../h/KRiscv.hpp **** 
  41:src/../h/KRiscv.hpp ****     enum BitMaskSstatus {
  42:src/../h/KRiscv.hpp ****         SSTATUS_SIE = (1 << 1),
GAS LISTING /tmp/ccwcDOjU.s 			page 4


  43:src/../h/KRiscv.hpp ****         SSTATUS_SPIE = (1 << 5),
  44:src/../h/KRiscv.hpp ****         SSTATUS_SPP = (1 << 8)
  45:src/../h/KRiscv.hpp ****     };
  46:src/../h/KRiscv.hpp **** 
  47:src/../h/KRiscv.hpp ****     static void ms_sstatus(uint64 mask);
  48:src/../h/KRiscv.hpp ****     static void mc_sstatus(uint64 mask);
  49:src/../h/KRiscv.hpp ****     static uint64 r_sstatus();
  50:src/../h/KRiscv.hpp ****     static void w_sstatus(uint64 sstatus);
  51:src/../h/KRiscv.hpp **** 
  52:src/../h/KRiscv.hpp **** };
  53:src/../h/KRiscv.hpp **** 
  54:src/../h/KRiscv.hpp **** inline uint64 KRiscv::r_scause() {
  55:src/../h/KRiscv.hpp ****     uint64 volatile scause;
  78              		.loc 2 55 5
  56:src/../h/KRiscv.hpp ****     asm volatile ("csrr %0, scause" : "=r"(scause));
  79              		.loc 2 56 5
  80              		.loc 2 56 52 is_stmt 0
  81              	#APP
  82              	# 56 "src/../h/KRiscv.hpp" 1
  57              	    return scause;
  83              		csrr a5, scause
  84              	# 0 "" 2
  85              	#NO_APP
  86 003c 233CF4F0 		sd	a5,-232(s0)
  87              		.loc 2 57 5 is_stmt 1
  88              		.loc 2 57 12 is_stmt 0
  89 0040 833784F1 		ld	a5,-232(s0)
  90              	.LVL0:
  91              	.LBE169:
  92              	.LBE168:
  47:src/KRiscv.cpp ****     if (scause == ECALL_SYS || scause == ECALL_USER) {
  93              		.loc 1 47 5 is_stmt 1
  94              	.LBB170:
  95              		.loc 1 47 29 is_stmt 0
  96 0044 938687FF 		addi	a3,a5,-8
  97              		.loc 1 47 5
  98 0048 13071000 		li	a4,1
  99 004c 637AD704 		bleu	a3,a4,.L47
 100              	.LBE170:
  48:src/KRiscv.cpp ****         uint64 name;
  49:src/KRiscv.cpp ****         asm volatile("mv %0, a0" : "=r" (name));
  50:src/KRiscv.cpp ****         if (name == MEM_ALLOC) {
  51:src/KRiscv.cpp ****             uint64 sizeBlock;
  52:src/KRiscv.cpp ****             asm volatile("ld a1, 11*8(%0)" :: "r"(framePointer));
  53:src/KRiscv.cpp ****             asm volatile("mv %0, a1" : "=r" (sizeBlock));
  54:src/KRiscv.cpp ****             void* res = KMemoryAllocator::mem_alloc(sizeBlock);
  55:src/KRiscv.cpp ****             asm volatile("mv a0, %0" : : "r" (res));
  56:src/KRiscv.cpp ****             asm volatile("sd a0, 10*8(%0)" :: "r"(framePointer));
  57:src/KRiscv.cpp ****             KRiscv::w_sepc(KRiscv::r_sepc() + 4);
  58:src/KRiscv.cpp ****         }
  59:src/KRiscv.cpp ****         else if (name == MEM_FREE) {
  60:src/KRiscv.cpp ****             uint64 addr;
  61:src/KRiscv.cpp ****             asm volatile("ld a1, 11*8(%0)" :: "r"(framePointer));
  62:src/KRiscv.cpp ****             asm volatile("mv %0, a1" : "=r"(addr));
  63:src/KRiscv.cpp ****             int res = KMemoryAllocator::mem_free((void*)addr);
  64:src/KRiscv.cpp ****             asm volatile("mv a0, %0" : : "r"(res));
  65:src/KRiscv.cpp ****             asm volatile("sd a0, 10*8(%0)" :: "r"(framePointer));
GAS LISTING /tmp/ccwcDOjU.s 			page 5


  66:src/KRiscv.cpp ****             KRiscv::w_sepc(KRiscv::r_sepc() + 4);
  67:src/KRiscv.cpp ****         }
  68:src/KRiscv.cpp ****         else if (name == USER_MODE) {
  69:src/KRiscv.cpp ****             KRiscv::mc_sstatus(KRiscv::SSTATUS_SPP);
  70:src/KRiscv.cpp ****             KRiscv::w_sepc(KRiscv::r_sepc() + 4);
  71:src/KRiscv.cpp ****         }
  72:src/KRiscv.cpp ****         else if (name == KERNEL_MODE) {
  73:src/KRiscv.cpp ****             KRiscv::ms_sstatus(KRiscv::SSTATUS_SPP);
  74:src/KRiscv.cpp ****             KRiscv::w_sepc(KRiscv::r_sepc() + 4);
  75:src/KRiscv.cpp ****         }
  76:src/KRiscv.cpp ****         else if (name == THREAD_CREATE_CPP) {
  77:src/KRiscv.cpp ****             KPCB** rucka = nullptr;
  78:src/KRiscv.cpp ****             void (*fja)(void*) = nullptr;
  79:src/KRiscv.cpp ****             void* args = nullptr;
  80:src/KRiscv.cpp ****             void* stack = nullptr;
  81:src/KRiscv.cpp ****             asm volatile("ld a1, 11*8(%0)" :: "r"(framePointer));
  82:src/KRiscv.cpp ****             asm volatile("mv %0, a1" : "=r"(rucka));
  83:src/KRiscv.cpp ****             asm volatile("ld a2, 12*8(%0)" :: "r"(framePointer));
  84:src/KRiscv.cpp ****             asm volatile("mv %0, a2" : "=r"(fja));
  85:src/KRiscv.cpp ****             asm volatile("ld a3, 13*8(%0)" :: "r"(framePointer));
  86:src/KRiscv.cpp ****             asm volatile("mv %0, a3" : "=r"(args));
  87:src/KRiscv.cpp ****             asm volatile("ld a4, 14*8(%0)" :: "r"(framePointer));
  88:src/KRiscv.cpp ****             asm volatile("mv %0, a4" : "=r"(stack));
  89:src/KRiscv.cpp ****             *rucka = KPCB::createThread(fja, args, stack);
  90:src/KRiscv.cpp ****             if (*rucka != nullptr) asm volatile("li a0, 0");
  91:src/KRiscv.cpp ****             else asm volatile("li a0, -1");
  92:src/KRiscv.cpp ****             asm volatile("sd a0, 10*8(%0)" :: "r"(framePointer));
  93:src/KRiscv.cpp ****             KRiscv::w_sepc(KRiscv::r_sepc() + 4);
  94:src/KRiscv.cpp ****         }
  95:src/KRiscv.cpp ****         else if (name == THREAD_CREATE) {
  96:src/KRiscv.cpp ****             KPCB** rucka = nullptr;
  97:src/KRiscv.cpp ****             void (*fja)(void*) = nullptr;
  98:src/KRiscv.cpp ****             void* args = nullptr;
  99:src/KRiscv.cpp ****             void* stack = nullptr;
 100:src/KRiscv.cpp ****             asm volatile("ld a1, 11*8(%0)" :: "r"(framePointer));
 101:src/KRiscv.cpp ****             asm volatile("mv %0, a1" : "=r"(rucka));
 102:src/KRiscv.cpp ****             asm volatile("ld a2, 12*8(%0)" :: "r"(framePointer));
 103:src/KRiscv.cpp ****             asm volatile("mv %0, a2" : "=r"(fja));
 104:src/KRiscv.cpp ****             asm volatile("ld a3, 13*8(%0)" :: "r"(framePointer));
 105:src/KRiscv.cpp ****             asm volatile("mv %0, a3" : "=r"(args));
 106:src/KRiscv.cpp ****             asm volatile("ld a4, 14*8(%0)" :: "r"(framePointer));
 107:src/KRiscv.cpp ****             asm volatile("mv %0, a4" : "=r"(stack));
 108:src/KRiscv.cpp ****             *rucka = KPCB::createThread(fja, args, stack);
 109:src/KRiscv.cpp ****             if (*rucka != nullptr) {
 110:src/KRiscv.cpp ****                 (*rucka)->startIt();
 111:src/KRiscv.cpp ****                 asm volatile("li a0, 0");
 112:src/KRiscv.cpp ****             }
 113:src/KRiscv.cpp ****             else asm volatile("li a0, -1");
 114:src/KRiscv.cpp ****             asm volatile("sd a0, 10*8(%0)" :: "r"(framePointer));
 115:src/KRiscv.cpp ****             KRiscv::w_sepc(KRiscv::r_sepc() + 4);
 116:src/KRiscv.cpp ****         }
 117:src/KRiscv.cpp ****         else if (name == THREAD_EXIT) {
 118:src/KRiscv.cpp ****             uint64 sepc = r_sepc() + 4;
 119:src/KRiscv.cpp ****             uint64 sstatus = r_sstatus();
 120:src/KRiscv.cpp ****             KPCB::running->setFinished(true);
 121:src/KRiscv.cpp ****             KPCB::dispatch();
 122:src/KRiscv.cpp ****             w_sstatus(sstatus);
GAS LISTING /tmp/ccwcDOjU.s 			page 6


 123:src/KRiscv.cpp ****             w_sepc(sepc);
 124:src/KRiscv.cpp ****         }
 125:src/KRiscv.cpp ****         else if (name == THREAD_DISPATCH) {
 126:src/KRiscv.cpp ****             uint64 sepc = r_sepc() + 4;
 127:src/KRiscv.cpp ****             uint64 sstatus = r_sstatus();
 128:src/KRiscv.cpp ****             KPCB::dispatch();
 129:src/KRiscv.cpp ****             w_sstatus(sstatus);
 130:src/KRiscv.cpp ****             w_sepc(sepc);
 131:src/KRiscv.cpp ****         }
 132:src/KRiscv.cpp ****         else if (name == SEM_OPEN) {
 133:src/KRiscv.cpp ****             KSemaphore** rucka = nullptr;
 134:src/KRiscv.cpp ****             unsigned init;
 135:src/KRiscv.cpp ****             asm volatile("ld a1, 11*8(%0)" :: "r"(framePointer));
 136:src/KRiscv.cpp ****             asm volatile("mv %0, a1" : "=r"(rucka));
 137:src/KRiscv.cpp ****             asm volatile("ld a2, 12*8(%0)" :: "r"(framePointer));
 138:src/KRiscv.cpp ****             asm volatile("mv %0, a2" : "=r"(init));
 139:src/KRiscv.cpp ****             *rucka = KSemaphore::createSemaphore(init);
 140:src/KRiscv.cpp ****             if (*rucka != nullptr) asm volatile("li a0, 0");
 141:src/KRiscv.cpp ****             else asm volatile("li a0, -1");
 142:src/KRiscv.cpp ****             asm volatile("sd a0, 10*8(%0)" :: "r"(framePointer));
 143:src/KRiscv.cpp ****             KRiscv::w_sepc(KRiscv::r_sepc() + 4);
 144:src/KRiscv.cpp ****         }
 145:src/KRiscv.cpp ****         else if (name == SEM_CLOSE) {
 146:src/KRiscv.cpp ****             KSemaphore* rucka = nullptr;
 147:src/KRiscv.cpp ****             asm volatile("ld a1, 11*8(%0)" :: "r"(framePointer));
 148:src/KRiscv.cpp ****             asm volatile("mv %0, a1" : "=r"(rucka));
 149:src/KRiscv.cpp ****             delete rucka;
 150:src/KRiscv.cpp ****             KRiscv::w_sepc(KRiscv::r_sepc() + 4);
 151:src/KRiscv.cpp ****         }
 152:src/KRiscv.cpp ****         else if (name == SEM_WAIT) {
 153:src/KRiscv.cpp ****             uint64 sepc = r_sepc() + 4;
 154:src/KRiscv.cpp ****             uint64 sstatus = r_sstatus();
 155:src/KRiscv.cpp ****             KSemaphore* rucka = nullptr;
 156:src/KRiscv.cpp ****             asm volatile("ld a1, 11*8(%0)" :: "r"(framePointer));
 157:src/KRiscv.cpp ****             asm volatile("mv %0, a1" : "=r"(rucka));
 158:src/KRiscv.cpp ****             if (rucka) rucka->wait();
 159:src/KRiscv.cpp ****             w_sstatus(sstatus);
 160:src/KRiscv.cpp ****             w_sepc(sepc);
 161:src/KRiscv.cpp ****         }
 162:src/KRiscv.cpp ****         else if (name == SEM_SIGNAL) {
 163:src/KRiscv.cpp ****             KSemaphore* rucka = nullptr;
 164:src/KRiscv.cpp ****             asm volatile("ld a1, 11*8(%0)" :: "r"(framePointer));
 165:src/KRiscv.cpp ****             asm volatile("mv %0, a1" : "=r"(rucka));
 166:src/KRiscv.cpp ****             if (rucka) rucka->signal();
 167:src/KRiscv.cpp ****             KRiscv::w_sepc(KRiscv::r_sepc() + 4);
 168:src/KRiscv.cpp ****         }
 169:src/KRiscv.cpp ****         else if (name == TIME_SLEEP) {
 170:src/KRiscv.cpp ****             time_t t;
 171:src/KRiscv.cpp ****             asm volatile("ld a1, 11*8(%0)" :: "r"(framePointer));
 172:src/KRiscv.cpp ****             asm volatile("mv %0, a1" : "=r"(t));
 173:src/KRiscv.cpp ****             KSleep::add(t);
 174:src/KRiscv.cpp ****             uint64 sepc = KRiscv::r_sepc() + 4;
 175:src/KRiscv.cpp ****             uint64 sstatus = KRiscv::r_sstatus();
 176:src/KRiscv.cpp ****             KPCB::dispatch();
 177:src/KRiscv.cpp ****             KRiscv::w_sstatus(sstatus);
 178:src/KRiscv.cpp ****             KRiscv::w_sepc(sepc);
 179:src/KRiscv.cpp ****         }
GAS LISTING /tmp/ccwcDOjU.s 			page 7


 180:src/KRiscv.cpp ****         else if (name == GETC) {
 181:src/KRiscv.cpp ****             uint64 sepc = KRiscv::r_sepc() + 4;
 182:src/KRiscv.cpp ****             uint64 sstatus = KRiscv::r_sstatus();
 183:src/KRiscv.cpp ****             char c = KConsole::inBuff->get();
 184:src/KRiscv.cpp ****             cGlob = c;
 185:src/KRiscv.cpp ****             KRiscv::w_sstatus(sstatus);
 186:src/KRiscv.cpp ****             KRiscv::w_sepc(sepc);
 187:src/KRiscv.cpp ****         }
 188:src/KRiscv.cpp ****         else if (name == PUTC) {
 189:src/KRiscv.cpp ****             char c;
 190:src/KRiscv.cpp ****             asm volatile("ld a1, 11*8(%0)" :: "r"(framePointer));
 191:src/KRiscv.cpp ****             asm volatile("mv %0, a1" : "=r"(c));
 192:src/KRiscv.cpp ****             uint64 sepc = KRiscv::r_sepc() + 4;
 193:src/KRiscv.cpp ****             uint64 sstatus = KRiscv::r_sstatus();
 194:src/KRiscv.cpp ****             KConsole::outBuff->put(c);
 195:src/KRiscv.cpp ****             while ((*(char*)CONSOLE_STATUS & CONSOLE_TX_STATUS_BIT)
 196:src/KRiscv.cpp ****                    && KConsole::outBuff->getCnt() > 0)
 197:src/KRiscv.cpp ****                 *(char*)CONSOLE_TX_DATA = KConsole::outBuff->get();
 198:src/KRiscv.cpp ****             KRiscv::w_sstatus(sstatus);
 199:src/KRiscv.cpp ****             KRiscv::w_sepc(sepc);
 200:src/KRiscv.cpp ****         }
 201:src/KRiscv.cpp ****         else if (name == RCONS) {
 202:src/KRiscv.cpp ****             while ((*(char*)CONSOLE_STATUS & CONSOLE_RX_STATUS_BIT)
 203:src/KRiscv.cpp ****                    && KConsole::inBuff->getCnt() < KConsole::BUFF_SIZE)
 204:src/KRiscv.cpp ****                 KConsole::inBuff->put(*(char*)CONSOLE_RX_DATA);
 205:src/KRiscv.cpp ****             KRiscv::w_sepc(KRiscv::r_sepc() + 4);
 206:src/KRiscv.cpp ****         }
 207:src/KRiscv.cpp ****     }
 208:src/KRiscv.cpp ****     else if (scause == TIMER) {
 101              		.loc 1 208 10 is_stmt 1
 102              	.LBB467:
 103              	.LBB171:
 104 0050 1307F0FF 		li	a4,-1
 105 0054 1317F703 		slli	a4,a4,63
 106 0058 13071700 		addi	a4,a4,1
 107 005c 638EE762 		beq	a5,a4,.L48
 108              	.LBE171:
 109              	.LBE467:
 209:src/KRiscv.cpp ****         KPCB::timeSliceCounter++;
 210:src/KRiscv.cpp ****         KSleep::remove();
 211:src/KRiscv.cpp ****         if (KPCB::timeSliceCounter >= KPCB::running->TIME_SLICE) {
 212:src/KRiscv.cpp ****             uint64 sepc = r_sepc();
 213:src/KRiscv.cpp ****             uint64 sstatus = r_sstatus();
 214:src/KRiscv.cpp ****             KPCB::dispatch();
 215:src/KRiscv.cpp ****             w_sstatus(sstatus);
 216:src/KRiscv.cpp ****             w_sepc(sepc);
 217:src/KRiscv.cpp ****         }
 218:src/KRiscv.cpp ****         mc_sip(SIP_SSIP);
 219:src/KRiscv.cpp ****     }
 220:src/KRiscv.cpp ****     else if (scause == EXT_HW) {
 110              		.loc 1 220 10
 111              	.LBB468:
 112              	.LBB190:
 113              	.LBB172:
 114 0060 1307F0FF 		li	a4,-1
 115 0064 1317F703 		slli	a4,a4,63
 116 0068 13079700 		addi	a4,a4,9
GAS LISTING /tmp/ccwcDOjU.s 			page 8


 117 006c 6386E768 		beq	a5,a4,.L49
 221:src/KRiscv.cpp ****         //console_handler();
 222:src/KRiscv.cpp ****         int consID = plic_claim();
 223:src/KRiscv.cpp ****         if (consID == CONSOLE_IRQ) {
 224:src/KRiscv.cpp ****             while ((*(char*)CONSOLE_STATUS & CONSOLE_RX_STATUS_BIT)
 225:src/KRiscv.cpp ****                 && KConsole::inBuff->getCnt() < KConsole::BUFF_SIZE)
 226:src/KRiscv.cpp ****                 KConsole::inBuff->put(*(char*)CONSOLE_RX_DATA);
 227:src/KRiscv.cpp ****         }
 228:src/KRiscv.cpp ****         plic_complete(consID);
 229:src/KRiscv.cpp ****     }
 230:src/KRiscv.cpp ****     else if (scause == ERR_RD) {
 118              		.loc 1 230 10
 119 0070 13075000 		li	a4,5
 120 0074 6382E770 		beq	a5,a4,.L50
 231:src/KRiscv.cpp ****         printString("Error: read\n");
 232:src/KRiscv.cpp ****         /*
 233:src/KRiscv.cpp ****         printIntRadi(KRiscv::r_sstatus());
 234:src/KRiscv.cpp ****         printIntRadi(KRiscv::r_sepc());
 235:src/KRiscv.cpp ****         printIntRadi(KRiscv::r_stval());
 236:src/KRiscv.cpp ****          */
 237:src/KRiscv.cpp ****     }
 238:src/KRiscv.cpp ****     else if (scause == ERR_WR) {
 121              		.loc 1 238 10
 122 0078 13077000 		li	a4,7
 123 007c 6388E770 		beq	a5,a4,.L51
 239:src/KRiscv.cpp ****         printString("Error: write\n");
 240:src/KRiscv.cpp ****         /*
 241:src/KRiscv.cpp ****         printIntRadi(KRiscv::r_sstatus());
 242:src/KRiscv.cpp ****         printIntRadi(KRiscv::r_sepc());
 243:src/KRiscv.cpp ****         printIntRadi(KRiscv::r_stval());
 244:src/KRiscv.cpp ****          */
 245:src/KRiscv.cpp ****     }
 246:src/KRiscv.cpp ****     else if (scause == ILL_INSTR) {
 124              		.loc 1 246 10
 125 0080 13072000 		li	a4,2
 126 0084 638EE770 		beq	a5,a4,.L52
 127              	.LVL1:
 128              	.L3:
 129              	.LBE172:
 130              	.LBE190:
 131              	.LBE468:
 247:src/KRiscv.cpp ****         printString("Error: illegal\n");
 248:src/KRiscv.cpp ****         /*
 249:src/KRiscv.cpp ****         printIntRadi(KRiscv::r_sstatus());
 250:src/KRiscv.cpp ****         printIntRadi(KRiscv::r_sepc());
 251:src/KRiscv.cpp ****         printIntRadi(KRiscv::r_stval());
 252:src/KRiscv.cpp ****          */
 253:src/KRiscv.cpp ****     }
 254:src/KRiscv.cpp **** 
 255:src/KRiscv.cpp **** }...
 132              		.loc 1 255 1 is_stmt 0
 133 0088 8330810E 		ld	ra,232(sp)
 134              		.cfi_remember_state
 135              		.cfi_restore 1
 136 008c 0334010E 		ld	s0,224(sp)
 137              		.cfi_restore 8
 138              		.cfi_def_cfa 2, 240
GAS LISTING /tmp/ccwcDOjU.s 			page 9


 139 0090 8334810D 		ld	s1,216(sp)
 140              		.cfi_restore 9
 141 0094 0339010D 		ld	s2,208(sp)
 142              		.cfi_restore 18
 143 0098 1301010F 		addi	sp,sp,240
 144              		.cfi_def_cfa_offset 0
 145 009c 67800000 		jr	ra
 146              	.LVL2:
 147              	.L47:
 148              		.cfi_restore_state
 149              	.LBB469:
 150              	.LBB191:
  48:src/KRiscv.cpp ****         uint64 name;
 151              		.loc 1 48 9 is_stmt 1
  49:src/KRiscv.cpp ****         asm volatile("mv %0, a0" : "=r" (name));
 152              		.loc 1 49 9
  49:src/KRiscv.cpp ****         asm volatile("mv %0, a0" : "=r" (name));
 153              		.loc 1 49 48 is_stmt 0
 154              	#APP
 155              	# 49 "src/KRiscv.cpp" 1
 156              		mv a5, a0
 157              	# 0 "" 2
 158              	.LVL3:
  50:src/KRiscv.cpp ****         if (name == MEM_ALLOC) {
 159              		.loc 1 50 9 is_stmt 1
 160              	#NO_APP
 161              	.LBB192:
 162 00a4 638CE70C 		beq	a5,a4,.L53
 163              	.LBE192:
 164              	.LBE191:
 165              	.LBE469:
  59:src/KRiscv.cpp ****         else if (name == MEM_FREE) {
 166              		.loc 1 59 14
 167              	.LBB470:
 168              	.LBB452:
 169              	.LBB438:
 170              	.LBB193:
 171 00a8 13072000 		li	a4,2
 172 00ac 6388E710 		beq	a5,a4,.L54
 173              	.LBE193:
 174              	.LBE438:
 175              	.LBE452:
 176              	.LBE470:
  68:src/KRiscv.cpp ****         else if (name == USER_MODE) {
 177              		.loc 1 68 14
 178              	.LBB471:
 179              	.LBB453:
 180              	.LBB439:
 181              	.LBB419:
 182              	.LBB194:
 183 00b0 13075000 		li	a4,5
 184 00b4 6384E714 		beq	a5,a4,.L55
 185              	.LBE194:
 186              	.LBE419:
 187              	.LBE439:
 188              	.LBE453:
 189              	.LBE471:
GAS LISTING /tmp/ccwcDOjU.s 			page 10


  72:src/KRiscv.cpp ****         else if (name == KERNEL_MODE) {
 190              		.loc 1 72 14
 191              	.LBB472:
 192              	.LBB454:
 193              	.LBB440:
 194              	.LBB420:
 195              	.LBB401:
 196              	.LBB195:
 197 00b8 13076000 		li	a4,6
 198 00bc 6380E716 		beq	a5,a4,.L56
 199              	.LBE195:
 200              	.LBE401:
 201              	.LBE420:
 202              	.LBE440:
 203              	.LBE454:
 204              	.LBE472:
  76:src/KRiscv.cpp ****         else if (name == THREAD_CREATE_CPP) {
 205              		.loc 1 76 14
 206              	.LBB473:
 207              	.LBB455:
 208              	.LBB441:
 209              	.LBB421:
 210              	.LBB402:
 211              	.LBB383:
 212              	.LBB196:
 213 00c0 13070001 		li	a4,16
 214 00c4 638CE716 		beq	a5,a4,.L57
 215              	.LBE196:
 216              	.LBE383:
 217              	.LBE402:
 218              	.LBE421:
 219              	.LBE441:
 220              	.LBE455:
 221              	.LBE473:
  95:src/KRiscv.cpp ****         else if (name == THREAD_CREATE) {
 222              		.loc 1 95 14
 223              	.LBB474:
 224              	.LBB456:
 225              	.LBB442:
 226              	.LBB422:
 227              	.LBB403:
 228              	.LBB384:
 229              	.LBB366:
 230              	.LBB197:
 231 00c8 13071001 		li	a4,17
 232 00cc 6380E71E 		beq	a5,a4,.L58
 233              	.LBE197:
 234              	.LBE366:
 235              	.LBE384:
 236              	.LBE403:
 237              	.LBE422:
 238              	.LBE442:
 239              	.LBE456:
 240              	.LBE474:
 117:src/KRiscv.cpp ****         else if (name == THREAD_EXIT) {
 241              		.loc 1 117 14
 242              	.LBB475:
GAS LISTING /tmp/ccwcDOjU.s 			page 11


 243              	.LBB457:
 244              	.LBB443:
 245              	.LBB423:
 246              	.LBB404:
 247              	.LBB385:
 248              	.LBB367:
 249              	.LBB351:
 250              	.LBB198:
 251 00d0 13072001 		li	a4,18
 252 00d4 6380E726 		beq	a5,a4,.L59
 253              	.LBE198:
 254              	.LBE351:
 255              	.LBE367:
 256              	.LBE385:
 257              	.LBE404:
 258              	.LBE423:
 259              	.LBE443:
 260              	.LBE457:
 261              	.LBE475:
 125:src/KRiscv.cpp ****         else if (name == THREAD_DISPATCH) {
 262              		.loc 1 125 14
 263              	.LBB476:
 264              	.LBB458:
 265              	.LBB444:
 266              	.LBB424:
 267              	.LBB405:
 268              	.LBB386:
 269              	.LBB368:
 270              	.LBB352:
 271              	.LBB335:
 272              	.LBB199:
 273 00d8 13073001 		li	a4,19
 274 00dc 638CE72A 		beq	a5,a4,.L60
 275              	.LBE199:
 276              	.LBE335:
 277              	.LBE352:
 278              	.LBE368:
 279              	.LBE386:
 280              	.LBE405:
 281              	.LBE424:
 282              	.LBE444:
 283              	.LBE458:
 284              	.LBE476:
 132:src/KRiscv.cpp ****         else if (name == SEM_OPEN) {
 285              		.loc 1 132 14
 286              	.LBB477:
 287              	.LBB459:
 288              	.LBB445:
 289              	.LBB425:
 290              	.LBB406:
 291              	.LBB387:
 292              	.LBB369:
 293              	.LBB353:
 294              	.LBB336:
 295              	.LBB316:
 296              	.LBB200:
 297 00e0 13071002 		li	a4,33
GAS LISTING /tmp/ccwcDOjU.s 			page 12


 298 00e4 6380E72E 		beq	a5,a4,.L61
 299              	.LBE200:
 300              	.LBE316:
 301              	.LBE336:
 302              	.LBE353:
 303              	.LBE369:
 304              	.LBE387:
 305              	.LBE406:
 306              	.LBE425:
 307              	.LBE445:
 308              	.LBE459:
 309              	.LBE477:
 145:src/KRiscv.cpp ****         else if (name == SEM_CLOSE) {
 310              		.loc 1 145 14
 311              	.LBB478:
 312              	.LBB460:
 313              	.LBB446:
 314              	.LBB426:
 315              	.LBB407:
 316              	.LBB388:
 317              	.LBB370:
 318              	.LBB354:
 319              	.LBB337:
 320              	.LBB317:
 321              	.LBB300:
 322              	.LBB201:
 323 00e8 13072002 		li	a4,34
 324 00ec 6380E734 		beq	a5,a4,.L62
 325              	.LBE201:
 326              	.LBE300:
 327              	.LBE317:
 328              	.LBE337:
 329              	.LBE354:
 330              	.LBE370:
 331              	.LBE388:
 332              	.LBE407:
 333              	.LBE426:
 334              	.LBE446:
 335              	.LBE460:
 336              	.LBE478:
 152:src/KRiscv.cpp ****         else if (name == SEM_WAIT) {
 337              		.loc 1 152 14
 338              	.LBB479:
 339              	.LBB461:
 340              	.LBB447:
 341              	.LBB427:
 342              	.LBB408:
 343              	.LBB389:
 344              	.LBB371:
 345              	.LBB355:
 346              	.LBB338:
 347              	.LBB318:
 348              	.LBB301:
 349              	.LBB289:
 350              	.LBB202:
 351 00f0 13073002 		li	a4,35
 352 00f4 6380E73A 		beq	a5,a4,.L63
GAS LISTING /tmp/ccwcDOjU.s 			page 13


 353              	.LBE202:
 354              	.LBE289:
 355              	.LBE301:
 356              	.LBE318:
 357              	.LBE338:
 358              	.LBE355:
 359              	.LBE371:
 360              	.LBE389:
 361              	.LBE408:
 362              	.LBE427:
 363              	.LBE447:
 364              	.LBE461:
 365              	.LBE479:
 162:src/KRiscv.cpp ****         else if (name == SEM_SIGNAL) {
 366              		.loc 1 162 14
 367              	.LBB480:
 368              	.LBB462:
 369              	.LBB448:
 370              	.LBB428:
 371              	.LBB409:
 372              	.LBB390:
 373              	.LBB372:
 374              	.LBB356:
 375              	.LBB339:
 376              	.LBB319:
 377              	.LBB302:
 378              	.LBB290:
 379              	.LBB270:
 380              	.LBB203:
 381 00f8 13074002 		li	a4,36
 382 00fc 638CE73E 		beq	a5,a4,.L64
 383              	.LBE203:
 384              	.LBE270:
 385              	.LBE290:
 386              	.LBE302:
 387              	.LBE319:
 388              	.LBE339:
 389              	.LBE356:
 390              	.LBE372:
 391              	.LBE390:
 392              	.LBE409:
 393              	.LBE428:
 394              	.LBE448:
 395              	.LBE462:
 396              	.LBE480:
 169:src/KRiscv.cpp ****         else if (name == TIME_SLEEP) {
 397              		.loc 1 169 14
 398              	.LBB481:
 399              	.LBB463:
 400              	.LBB449:
 401              	.LBB429:
 402              	.LBB410:
 403              	.LBB391:
 404              	.LBB373:
 405              	.LBB357:
 406              	.LBB340:
 407              	.LBB320:
GAS LISTING /tmp/ccwcDOjU.s 			page 14


 408              	.LBB303:
 409              	.LBB291:
 410              	.LBB271:
 411              	.LBB253:
 412              	.LBB204:
 413 0100 13071003 		li	a4,49
 414 0104 638EE742 		beq	a5,a4,.L65
 415              	.LBE204:
 416              	.LBE253:
 417              	.LBE271:
 418              	.LBE291:
 419              	.LBE303:
 420              	.LBE320:
 421              	.LBE340:
 422              	.LBE357:
 423              	.LBE373:
 424              	.LBE391:
 425              	.LBE410:
 426              	.LBE429:
 427              	.LBE449:
 428              	.LBE463:
 429              	.LBE481:
 180:src/KRiscv.cpp ****         else if (name == GETC) {
 430              		.loc 1 180 14
 431              	.LBB482:
 432              	.LBB464:
 433              	.LBB450:
 434              	.LBB430:
 435              	.LBB411:
 436              	.LBB392:
 437              	.LBB374:
 438              	.LBB358:
 439              	.LBB341:
 440              	.LBB321:
 441              	.LBB304:
 442              	.LBB292:
 443              	.LBB272:
 444              	.LBB254:
 445              	.LBB241:
 446              	.LBB205:
 447 0108 13071004 		li	a4,65
 448 010c 6380E748 		beq	a5,a4,.L66
 449              	.LBE205:
 450              	.LBE241:
 451              	.LBE254:
 452              	.LBE272:
 453              	.LBE292:
 454              	.LBE304:
 455              	.LBE321:
 456              	.LBE341:
 457              	.LBE358:
 458              	.LBE374:
 459              	.LBE392:
 460              	.LBE411:
 461              	.LBE430:
 462              	.LBE450:
 463              	.LBE464:
GAS LISTING /tmp/ccwcDOjU.s 			page 15


 464              	.LBE482:
 188:src/KRiscv.cpp ****         else if (name == PUTC) {
 465              		.loc 1 188 14
 466              	.LBB483:
 467              	.LBB465:
 468              	.LBB451:
 469              	.LBB431:
 470              	.LBB412:
 471              	.LBB393:
 472              	.LBB375:
 473              	.LBB359:
 474              	.LBB342:
 475              	.LBB322:
 476              	.LBB305:
 477              	.LBB293:
 478              	.LBB273:
 479              	.LBB255:
 480              	.LBB242:
 481              	.LBB230:
 482              	.LBB206:
 483 0110 13072004 		li	a4,66
 484 0114 6380E74C 		beq	a5,a4,.L67
 201:src/KRiscv.cpp ****         else if (name == RCONS) {
 485              		.loc 1 201 14
 486 0118 13073004 		li	a4,67
 487 011c E396E7F6 		bne	a5,a4,.L3
 488              	.LVL4:
 489              	.L38:
 202:src/KRiscv.cpp ****             while ((*(char*)CONSOLE_STATUS & CONSOLE_RX_STATUS_BIT)
 490              		.loc 1 202 13
 203:src/KRiscv.cpp ****                    && KConsole::inBuff->getCnt() < KConsole::BUFF_SIZE)
 491              		.loc 1 203 20
 202:src/KRiscv.cpp ****             while ((*(char*)CONSOLE_STATUS & CONSOLE_RX_STATUS_BIT)
 492              		.loc 1 202 21 is_stmt 0
 493 0120 97070000 		la	a5,CONSOLE_STATUS
 493      83B70700 
 494 0128 83B70700 		ld	a5,0(a5)
 495 012c 83C70700 		lbu	a5,0(a5)
 203:src/KRiscv.cpp ****                    && KConsole::inBuff->getCnt() < KConsole::BUFF_SIZE)
 496              		.loc 1 203 20
 497 0130 93F71700 		andi	a5,a5,1
 498 0134 63860754 		beqz	a5,.L36
 203:src/KRiscv.cpp ****                    && KConsole::inBuff->getCnt() < KConsole::BUFF_SIZE)
 499              		.loc 1 203 47 discriminator 1
 500 0138 97070000 		la	a5,_ZN8KConsole6inBuffE
 500      83B70700 
 501 0140 03B50700 		ld	a0,0(a5)
 502              	.LEHB0:
 503 0144 97000000 		call	_ZN8KConsole6getCntEv@plt
 503      E7800000 
 504              	.LVL5:
 203:src/KRiscv.cpp ****                    && KConsole::inBuff->getCnt() < KConsole::BUFF_SIZE)
 505              		.loc 1 203 20 discriminator 1
 506 014c 9307F03F 		li	a5,1023
 507 0150 63C8A752 		bgt	a0,a5,.L36
 204:src/KRiscv.cpp ****                 KConsole::inBuff->put(*(char*)CONSOLE_RX_DATA);
 508              		.loc 1 204 17 is_stmt 1
GAS LISTING /tmp/ccwcDOjU.s 			page 16


 204:src/KRiscv.cpp ****                 KConsole::inBuff->put(*(char*)CONSOLE_RX_DATA);
 509              		.loc 1 204 38 is_stmt 0
 510 0154 97070000 		la	a5,CONSOLE_RX_DATA
 510      83B70700 
 511 015c 83B70700 		ld	a5,0(a5)
 512 0160 83C50700 		lbu	a1,0(a5)
 513 0164 97070000 		la	a5,_ZN8KConsole6inBuffE
 513      83B70700 
 514 016c 03B50700 		ld	a0,0(a5)
 515 0170 97000000 		call	_ZN8KConsole3putEc@plt
 515      E7800000 
 516              	.LVL6:
 202:src/KRiscv.cpp ****             while ((*(char*)CONSOLE_STATUS & CONSOLE_RX_STATUS_BIT)
 517              		.loc 1 202 13
 518 0178 6FF09FFA 		j	.L38
 519              	.LVL7:
 520              	.L53:
 521              	.LBE206:
 522              	.LBE230:
 523              	.LBE242:
 524              	.LBE255:
 525              	.LBE273:
 526              	.LBE293:
 527              	.LBE305:
 528              	.LBE322:
 529              	.LBE342:
 530              	.LBE359:
 531              	.LBE375:
 532              	.LBE393:
 533              	.LBE412:
 534              	.LBE431:
 535              	.LBB432:
  51:src/KRiscv.cpp ****             uint64 sizeBlock;
 536              		.loc 1 51 13 is_stmt 1
  52:src/KRiscv.cpp ****             asm volatile("ld a1, 11*8(%0)" :: "r"(framePointer));
 537              		.loc 1 52 13
  52:src/KRiscv.cpp ****             asm volatile("ld a1, 11*8(%0)" :: "r"(framePointer));
 538              		.loc 1 52 65 is_stmt 0
 539 017c 97040000 		la	s1,framePointer
 539      83B40400 
 540 0184 83B70400 		ld	a5,0(s1)
 541              	.LVL8:
 542              	#APP
 543              	# 52 "src/KRiscv.cpp" 1
  53:src/KRiscv.cpp ****             asm volatile("mv %0, a1" : "=r" (sizeBlock));
 544              		ld a1, 11*8(a5)
 545              	# 0 "" 2
 546              		.loc 1 53 13 is_stmt 1
  53:src/KRiscv.cpp ****             asm volatile("mv %0, a1" : "=r" (sizeBlock));
 547              		.loc 1 53 57 is_stmt 0
 548              	# 53 "src/KRiscv.cpp" 1
 549              		mv a0, a1
 550              	# 0 "" 2
 551              	.LVL9:
  54:src/KRiscv.cpp ****             void* res = KMemoryAllocator::mem_alloc(sizeBlock);
 552              		.loc 1 54 13 is_stmt 1
  54:src/KRiscv.cpp ****             void* res = KMemoryAllocator::mem_alloc(sizeBlock);
GAS LISTING /tmp/ccwcDOjU.s 			page 17


 553              		.loc 1 54 52 is_stmt 0
 554              	#NO_APP
 555 0190 97000000 		call	_ZN16KMemoryAllocator9mem_allocEm@plt
 555      E7800000 
 556              	.LVL10:
  55:src/KRiscv.cpp ****             asm volatile("mv a0, %0" : : "r" (res));
 557              		.loc 1 55 13 is_stmt 1
  55:src/KRiscv.cpp ****             asm volatile("mv a0, %0" : : "r" (res));
 558              		.loc 1 55 52 is_stmt 0
 559              	#APP
 560              	# 55 "src/KRiscv.cpp" 1
  56:src/KRiscv.cpp ****             asm volatile("sd a0, 10*8(%0)" :: "r"(framePointer));
 561              		mv a0, a0
 562              	# 0 "" 2
 563              		.loc 1 56 13 is_stmt 1
  56:src/KRiscv.cpp ****             asm volatile("sd a0, 10*8(%0)" :: "r"(framePointer));
 564              		.loc 1 56 65 is_stmt 0
 565              	#NO_APP
 566 019c 83B70400 		ld	a5,0(s1)
 567              	#APP
 568              	# 56 "src/KRiscv.cpp" 1
  57:src/KRiscv.cpp ****             KRiscv::w_sepc(KRiscv::r_sepc() + 4);
 569              		sd a0, 10*8(a5)
 570              	# 0 "" 2
 571              		.loc 1 57 13 is_stmt 1
 572              	#NO_APP
 573              	.LBB433:
 574              	.LBB434:
  58:src/../h/KRiscv.hpp **** }
  59:src/../h/KRiscv.hpp **** 
  60:src/../h/KRiscv.hpp **** inline void KRiscv::w_scause(uint64 scause) {
  61:src/../h/KRiscv.hpp ****     asm volatile ("csrw scause, %0" :: "r"(scause));
  62:src/../h/KRiscv.hpp **** }
  63:src/../h/KRiscv.hpp **** 
  64:src/../h/KRiscv.hpp **** inline uint64 KRiscv::r_sepc() {
  65:src/../h/KRiscv.hpp ****     uint64 volatile sepc;
 575              		.loc 2 65 5
  66:src/../h/KRiscv.hpp ****     asm volatile ("csrr %0, sepc" : "=r"(sepc));
 576              		.loc 2 66 5
 577              		.loc 2 66 48 is_stmt 0
 578              	#APP
 579              	# 66 "src/../h/KRiscv.hpp" 1
  67              	    return sepc;
 580              		csrr a5, sepc
 581              	# 0 "" 2
 582              	#NO_APP
 583 01a8 2330F4F2 		sd	a5,-224(s0)
 584              		.loc 2 67 5 is_stmt 1
 585              		.loc 2 67 12 is_stmt 0
 586 01ac 833704F2 		ld	a5,-224(s0)
 587              	.LBE434:
 588              	.LBE433:
  57:src/KRiscv.cpp ****             KRiscv::w_sepc(KRiscv::r_sepc() + 4);
 589              		.loc 1 57 27
 590 01b0 93874700 		addi	a5,a5,4
 591              	.LVL11:
 592              	.LBB435:
GAS LISTING /tmp/ccwcDOjU.s 			page 18


 593              	.LBB436:
  68:src/../h/KRiscv.hpp **** }
  69:src/../h/KRiscv.hpp **** 
  70:src/../h/KRiscv.hpp **** inline void KRiscv::w_sepc(uint64 sepc) {
  71:src/../h/KRiscv.hpp ****     asm volatile ("csrw sepc, %0" :: "r"(sepc));
 594              		.loc 2 71 5 is_stmt 1
 595              		.loc 2 71 48 is_stmt 0
 596              	#APP
 597              	# 71 "src/../h/KRiscv.hpp" 1
  72              	}
 598              		csrw sepc, a5
 599              	# 0 "" 2
 600              		.loc 2 72 1
 601              	#NO_APP
 602 01b8 6FF01FED 		j	.L3
 603              	.LVL12:
 604              	.L54:
 605              	.LBE436:
 606              	.LBE435:
 607              	.LBE432:
 608              	.LBB437:
 609              	.LBB413:
  60:src/KRiscv.cpp ****             uint64 addr;
 610              		.loc 1 60 13 is_stmt 1
  61:src/KRiscv.cpp ****             asm volatile("ld a1, 11*8(%0)" :: "r"(framePointer));
 611              		.loc 1 61 13
  61:src/KRiscv.cpp ****             asm volatile("ld a1, 11*8(%0)" :: "r"(framePointer));
 612              		.loc 1 61 65 is_stmt 0
 613 01bc 97040000 		la	s1,framePointer
 613      83B40400 
 614 01c4 83B70400 		ld	a5,0(s1)
 615              	.LVL13:
 616              	#APP
 617              	# 61 "src/KRiscv.cpp" 1
  62:src/KRiscv.cpp ****             asm volatile("mv %0, a1" : "=r"(addr));
 618              		ld a1, 11*8(a5)
 619              	# 0 "" 2
 620              		.loc 1 62 13 is_stmt 1
  62:src/KRiscv.cpp ****             asm volatile("mv %0, a1" : "=r"(addr));
 621              		.loc 1 62 51 is_stmt 0
 622              	# 62 "src/KRiscv.cpp" 1
 623              		mv a0, a1
 624              	# 0 "" 2
 625              	.LVL14:
  63:src/KRiscv.cpp ****             int res = KMemoryAllocator::mem_free((void*)addr);
 626              		.loc 1 63 13 is_stmt 1
  63:src/KRiscv.cpp ****             int res = KMemoryAllocator::mem_free((void*)addr);
 627              		.loc 1 63 49 is_stmt 0
 628              	#NO_APP
 629 01d0 97000000 		call	_ZN16KMemoryAllocator8mem_freeEPv@plt
 629      E7800000 
 630              	.LVL15:
  64:src/KRiscv.cpp ****             asm volatile("mv a0, %0" : : "r"(res));
 631              		.loc 1 64 13 is_stmt 1
  64:src/KRiscv.cpp ****             asm volatile("mv a0, %0" : : "r"(res));
 632              		.loc 1 64 51 is_stmt 0
 633              	#APP
GAS LISTING /tmp/ccwcDOjU.s 			page 19


 634              	# 64 "src/KRiscv.cpp" 1
  65:src/KRiscv.cpp ****             asm volatile("sd a0, 10*8(%0)" :: "r"(framePointer));
 635              		mv a0, a0
 636              	# 0 "" 2
 637              		.loc 1 65 13 is_stmt 1
  65:src/KRiscv.cpp ****             asm volatile("sd a0, 10*8(%0)" :: "r"(framePointer));
 638              		.loc 1 65 65 is_stmt 0
 639              	#NO_APP
 640 01dc 83B70400 		ld	a5,0(s1)
 641              	#APP
 642              	# 65 "src/KRiscv.cpp" 1
  66:src/KRiscv.cpp ****             KRiscv::w_sepc(KRiscv::r_sepc() + 4);
 643              		sd a0, 10*8(a5)
 644              	# 0 "" 2
 645              		.loc 1 66 13 is_stmt 1
 646              	#NO_APP
 647              	.LBB414:
 648              	.LBB415:
  65:src/../h/KRiscv.hpp ****     asm volatile ("csrr %0, sepc" : "=r"(sepc));
 649              		.loc 2 65 5
  66:src/../h/KRiscv.hpp ****     return sepc;
 650              		.loc 2 66 5
  66:src/../h/KRiscv.hpp ****     return sepc;
 651              		.loc 2 66 48 is_stmt 0
 652              	#APP
 653              	# 66 "src/../h/KRiscv.hpp" 1
 654              		csrr a5, sepc
 655              	# 0 "" 2
 656              	#NO_APP
 657 01e8 2334F4F2 		sd	a5,-216(s0)
  67:src/../h/KRiscv.hpp **** }
 658              		.loc 2 67 5 is_stmt 1
  67:src/../h/KRiscv.hpp **** }
 659              		.loc 2 67 12 is_stmt 0
 660 01ec 833784F2 		ld	a5,-216(s0)
 661              	.LBE415:
 662              	.LBE414:
  66:src/KRiscv.cpp ****             KRiscv::w_sepc(KRiscv::r_sepc() + 4);
 663              		.loc 1 66 27
 664 01f0 93874700 		addi	a5,a5,4
 665              	.LVL16:
 666              	.LBB416:
 667              	.LBB417:
  71:src/../h/KRiscv.hpp **** }
 668              		.loc 2 71 5 is_stmt 1
  71:src/../h/KRiscv.hpp **** }
 669              		.loc 2 71 48 is_stmt 0
 670              	#APP
 671              	# 71 "src/../h/KRiscv.hpp" 1
 672              		csrw sepc, a5
 673              	# 0 "" 2
 674              		.loc 2 72 1
 675              	#NO_APP
 676 01f8 6FF01FE9 		j	.L3
 677              	.LVL17:
 678              	.L55:
 679              	.LBE417:
GAS LISTING /tmp/ccwcDOjU.s 			page 20


 680              	.LBE416:
 681              	.LBE413:
 682              	.LBB418:
  69:src/KRiscv.cpp ****             KRiscv::mc_sstatus(KRiscv::SSTATUS_SPP);
 683              		.loc 1 69 13 is_stmt 1
 684              	.LBB394:
 685              	.LBB395:
  73:src/../h/KRiscv.hpp **** 
  74:src/../h/KRiscv.hpp **** inline uint64 KRiscv::r_stvec() {
  75:src/../h/KRiscv.hpp ****     uint64 volatile stvec;
  76:src/../h/KRiscv.hpp ****     asm volatile ("csrr %0, stvec" : "=r"(stvec));
  77:src/../h/KRiscv.hpp ****     return stvec;
  78:src/../h/KRiscv.hpp **** }
  79:src/../h/KRiscv.hpp **** 
  80:src/../h/KRiscv.hpp **** inline void KRiscv::w_stvec(uint64 stvec) {
  81:src/../h/KRiscv.hpp ****     asm volatile ("csrw stvec, %0" :: "r"(stvec));
  82:src/../h/KRiscv.hpp **** }
  83:src/../h/KRiscv.hpp **** 
  84:src/../h/KRiscv.hpp **** inline uint64 KRiscv::r_stval() {
  85:src/../h/KRiscv.hpp ****     uint64 volatile stval;
  86:src/../h/KRiscv.hpp ****     asm volatile ("csrr %0, stval" : "=r"(stval));
  87:src/../h/KRiscv.hpp ****     return stval;
  88:src/../h/KRiscv.hpp **** }
  89:src/../h/KRiscv.hpp **** 
  90:src/../h/KRiscv.hpp **** inline void KRiscv::w_stval(uint64 stval) {
  91:src/../h/KRiscv.hpp ****     asm volatile ("csrw stval, %0" :: "r"(stval));
  92:src/../h/KRiscv.hpp **** }
  93:src/../h/KRiscv.hpp **** 
  94:src/../h/KRiscv.hpp **** inline void KRiscv::ms_sip(uint64 mask) {
  95:src/../h/KRiscv.hpp ****     asm volatile ("csrs sip, %0" :: "r"(mask));
  96:src/../h/KRiscv.hpp **** }
  97:src/../h/KRiscv.hpp **** 
  98:src/../h/KRiscv.hpp **** inline void KRiscv::mc_sip(uint64 mask) {
  99:src/../h/KRiscv.hpp ****     asm volatile ("csrc sip, %0" :: "r"(mask));
 100:src/../h/KRiscv.hpp **** }
 101:src/../h/KRiscv.hpp **** 
 102:src/../h/KRiscv.hpp **** inline uint64 KRiscv::r_sip() {
 103:src/../h/KRiscv.hpp ****     uint64 volatile sip;
 104:src/../h/KRiscv.hpp ****     asm volatile ("csrr %0, sip" : "=r"(sip));
 105:src/../h/KRiscv.hpp ****     return sip;
 106:src/../h/KRiscv.hpp **** }
 107:src/../h/KRiscv.hpp **** 
 108:src/../h/KRiscv.hpp **** inline void KRiscv::w_sip(uint64 sip) {
 109:src/../h/KRiscv.hpp ****     asm volatile ("csrw sip, %0" :: "r"(sip));
 110:src/../h/KRiscv.hpp **** }
 111:src/../h/KRiscv.hpp **** 
 112:src/../h/KRiscv.hpp **** inline void KRiscv::ms_sstatus(uint64 mask) {
 113:src/../h/KRiscv.hpp ****     asm volatile ("csrs sstatus, %0" :: "r"(mask));
 114:src/../h/KRiscv.hpp **** }
 115:src/../h/KRiscv.hpp **** 
 116:src/../h/KRiscv.hpp **** inline void KRiscv::mc_sstatus(uint64 mask) {
 117:src/../h/KRiscv.hpp ****     asm volatile ("csrc sstatus, %0" :: "r"(mask));
 686              		.loc 2 117 5
 687              		.loc 2 117 51 is_stmt 0
 688 01fc 93070010 		li	a5,256
 689              	.LVL18:
 690              	#APP
GAS LISTING /tmp/ccwcDOjU.s 			page 21


 691              	# 117 "src/../h/KRiscv.hpp" 1
 118              	}
 692              		csrc sstatus, a5
 693              	# 0 "" 2
 694              	.LVL19:
 695              	#NO_APP
 696              	.LBE395:
 697              	.LBE394:
  70:src/KRiscv.cpp ****             KRiscv::w_sepc(KRiscv::r_sepc() + 4);
 698              		.loc 1 70 13 is_stmt 1
 699              	.LBB396:
 700              	.LBB397:
  65:src/../h/KRiscv.hpp ****     asm volatile ("csrr %0, sepc" : "=r"(sepc));
 701              		.loc 2 65 5
  66:src/../h/KRiscv.hpp ****     return sepc;
 702              		.loc 2 66 5
  66:src/../h/KRiscv.hpp ****     return sepc;
 703              		.loc 2 66 48 is_stmt 0
 704              	#APP
 705              	# 66 "src/../h/KRiscv.hpp" 1
 706              		csrr a5, sepc
 707              	# 0 "" 2
 708              	#NO_APP
 709 0208 2338F4F2 		sd	a5,-208(s0)
  67:src/../h/KRiscv.hpp **** }
 710              		.loc 2 67 5 is_stmt 1
  67:src/../h/KRiscv.hpp **** }
 711              		.loc 2 67 12 is_stmt 0
 712 020c 833704F3 		ld	a5,-208(s0)
 713              	.LBE397:
 714              	.LBE396:
  70:src/KRiscv.cpp ****             KRiscv::w_sepc(KRiscv::r_sepc() + 4);
 715              		.loc 1 70 27
 716 0210 93874700 		addi	a5,a5,4
 717              	.LVL20:
 718              	.LBB398:
 719              	.LBB399:
  71:src/../h/KRiscv.hpp **** }
 720              		.loc 2 71 5 is_stmt 1
  71:src/../h/KRiscv.hpp **** }
 721              		.loc 2 71 48 is_stmt 0
 722              	#APP
 723              	# 71 "src/../h/KRiscv.hpp" 1
  72:src/../h/KRiscv.hpp **** 
 724              		csrw sepc, a5
 725              	# 0 "" 2
 726              		.loc 2 72 1
 727              	#NO_APP
 728 0218 6FF01FE7 		j	.L3
 729              	.LVL21:
 730              	.L56:
 731              	.LBE399:
 732              	.LBE398:
 733              	.LBB400:
  73:src/KRiscv.cpp ****             KRiscv::ms_sstatus(KRiscv::SSTATUS_SPP);
 734              		.loc 1 73 13 is_stmt 1
 735              	.LBB376:
GAS LISTING /tmp/ccwcDOjU.s 			page 22


 736              	.LBB377:
 113:src/../h/KRiscv.hpp **** }
 737              		.loc 2 113 5
 113:src/../h/KRiscv.hpp **** }
 738              		.loc 2 113 51 is_stmt 0
 739 021c 93070010 		li	a5,256
 740              	.LVL22:
 741              	#APP
 742              	# 113 "src/../h/KRiscv.hpp" 1
 743              		csrs sstatus, a5
 744              	# 0 "" 2
 745              	.LVL23:
 746              	#NO_APP
 747              	.LBE377:
 748              	.LBE376:
  74:src/KRiscv.cpp ****             KRiscv::w_sepc(KRiscv::r_sepc() + 4);
 749              		.loc 1 74 13 is_stmt 1
 750              	.LBB378:
 751              	.LBB379:
  65:src/../h/KRiscv.hpp ****     asm volatile ("csrr %0, sepc" : "=r"(sepc));
 752              		.loc 2 65 5
  66:src/../h/KRiscv.hpp ****     return sepc;
 753              		.loc 2 66 5
  66:src/../h/KRiscv.hpp ****     return sepc;
 754              		.loc 2 66 48 is_stmt 0
 755              	#APP
 756              	# 66 "src/../h/KRiscv.hpp" 1
 757              		csrr a5, sepc
 758              	# 0 "" 2
 759              	#NO_APP
 760 0228 233CF4F2 		sd	a5,-200(s0)
  67:src/../h/KRiscv.hpp **** }
 761              		.loc 2 67 5 is_stmt 1
  67:src/../h/KRiscv.hpp **** }
 762              		.loc 2 67 12 is_stmt 0
 763 022c 833784F3 		ld	a5,-200(s0)
 764              	.LBE379:
 765              	.LBE378:
  74:src/KRiscv.cpp ****             KRiscv::w_sepc(KRiscv::r_sepc() + 4);
 766              		.loc 1 74 27
 767 0230 93874700 		addi	a5,a5,4
 768              	.LVL24:
 769              	.LBB380:
 770              	.LBB381:
  71:src/../h/KRiscv.hpp **** }
 771              		.loc 2 71 5 is_stmt 1
  71:src/../h/KRiscv.hpp **** }
 772              		.loc 2 71 48 is_stmt 0
 773              	#APP
 774              	# 71 "src/../h/KRiscv.hpp" 1
  72:src/../h/KRiscv.hpp **** 
 775              		csrw sepc, a5
 776              	# 0 "" 2
 777              		.loc 2 72 1
 778              	#NO_APP
 779 0238 6FF01FE5 		j	.L3
 780              	.LVL25:
GAS LISTING /tmp/ccwcDOjU.s 			page 23


 781              	.L57:
 782              	.LBE381:
 783              	.LBE380:
 784              	.LBB382:
 785              	.LBB360:
  77:src/KRiscv.cpp ****             KPCB** rucka = nullptr;
 786              		.loc 1 77 13 is_stmt 1
  78:src/KRiscv.cpp ****             void (*fja)(void*) = nullptr;
 787              		.loc 1 78 13
  79:src/KRiscv.cpp ****             void* args = nullptr;
 788              		.loc 1 79 13
  80:src/KRiscv.cpp ****             void* stack = nullptr;
 789              		.loc 1 80 13
  81:src/KRiscv.cpp ****             asm volatile("ld a1, 11*8(%0)" :: "r"(framePointer));
 790              		.loc 1 81 13
  81:src/KRiscv.cpp ****             asm volatile("ld a1, 11*8(%0)" :: "r"(framePointer));
 791              		.loc 1 81 65 is_stmt 0
 792 023c 97070000 		la	a5,framePointer
 792      83B70700 
 793              	.LVL26:
 794 0244 83B70700 		ld	a5,0(a5)
 795              	#APP
 796              	# 81 "src/KRiscv.cpp" 1
  82:src/KRiscv.cpp ****             asm volatile("mv %0, a1" : "=r"(rucka));
 797              		ld a1, 11*8(a5)
 798              	# 0 "" 2
 799              		.loc 1 82 13 is_stmt 1
  82:src/KRiscv.cpp ****             asm volatile("mv %0, a1" : "=r"(rucka));
 800              		.loc 1 82 52 is_stmt 0
 801              	# 82 "src/KRiscv.cpp" 1
 802              		mv s1, a1
 803              	# 0 "" 2
 804              	.LVL27:
  83:src/KRiscv.cpp ****             asm volatile("ld a2, 12*8(%0)" :: "r"(framePointer));
 805              		.loc 1 83 13 is_stmt 1
  83:src/KRiscv.cpp ****             asm volatile("ld a2, 12*8(%0)" :: "r"(framePointer));
 806              		.loc 1 83 65 is_stmt 0
 807              	# 83 "src/KRiscv.cpp" 1
  84:src/KRiscv.cpp ****             asm volatile("mv %0, a2" : "=r"(fja));
 808              		ld a2, 12*8(a5)
 809              	# 0 "" 2
 810              		.loc 1 84 13 is_stmt 1
  84:src/KRiscv.cpp ****             asm volatile("mv %0, a2" : "=r"(fja));
 811              		.loc 1 84 50 is_stmt 0
 812              	# 84 "src/KRiscv.cpp" 1
 813              		mv a0, a2
 814              	# 0 "" 2
 815              	.LVL28:
  85:src/KRiscv.cpp ****             asm volatile("ld a3, 13*8(%0)" :: "r"(framePointer));
 816              		.loc 1 85 13 is_stmt 1
  85:src/KRiscv.cpp ****             asm volatile("ld a3, 13*8(%0)" :: "r"(framePointer));
 817              		.loc 1 85 65 is_stmt 0
 818              	# 85 "src/KRiscv.cpp" 1
  86:src/KRiscv.cpp ****             asm volatile("mv %0, a3" : "=r"(args));
 819              		ld a3, 13*8(a5)
 820              	# 0 "" 2
 821              		.loc 1 86 13 is_stmt 1
GAS LISTING /tmp/ccwcDOjU.s 			page 24


  86:src/KRiscv.cpp ****             asm volatile("mv %0, a3" : "=r"(args));
 822              		.loc 1 86 51 is_stmt 0
 823              	# 86 "src/KRiscv.cpp" 1
 824              		mv a1, a3
 825              	# 0 "" 2
 826              	.LVL29:
  87:src/KRiscv.cpp ****             asm volatile("ld a4, 14*8(%0)" :: "r"(framePointer));
 827              		.loc 1 87 13 is_stmt 1
  87:src/KRiscv.cpp ****             asm volatile("ld a4, 14*8(%0)" :: "r"(framePointer));
 828              		.loc 1 87 65 is_stmt 0
 829              	# 87 "src/KRiscv.cpp" 1
  88:src/KRiscv.cpp ****             asm volatile("mv %0, a4" : "=r"(stack));
 830              		ld a4, 14*8(a5)
 831              	# 0 "" 2
 832              		.loc 1 88 13 is_stmt 1
  88:src/KRiscv.cpp ****             asm volatile("mv %0, a4" : "=r"(stack));
 833              		.loc 1 88 52 is_stmt 0
 834              	# 88 "src/KRiscv.cpp" 1
 835              		mv a2, a4
 836              	# 0 "" 2
 837              	.LVL30:
  89:src/KRiscv.cpp ****             *rucka = KPCB::createThread(fja, args, stack);
 838              		.loc 1 89 13 is_stmt 1
  89:src/KRiscv.cpp ****             *rucka = KPCB::createThread(fja, args, stack);
 839              		.loc 1 89 40 is_stmt 0
 840              	#NO_APP
 841 0268 97000000 		call	_ZN4KPCB12createThreadEPFvPvES0_S0_@plt
 841      E7800000 
 842              	.LVL31:
  89:src/KRiscv.cpp ****             *rucka = KPCB::createThread(fja, args, stack);
 843              		.loc 1 89 20
 844 0270 23B0A400 		sd	a0,0(s1)
  90:src/KRiscv.cpp ****             if (*rucka != nullptr) asm volatile("li a0, 0");
 845              		.loc 1 90 13 is_stmt 1
 846 0274 63080502 		beqz	a0,.L11
  90:src/KRiscv.cpp ****             if (*rucka != nullptr) asm volatile("li a0, 0");
 847              		.loc 1 90 36 discriminator 1
  90:src/KRiscv.cpp ****             if (*rucka != nullptr) asm volatile("li a0, 0");
 848              		.loc 1 90 60 is_stmt 0 discriminator 1
 849              	#APP
 850              	# 90 "src/KRiscv.cpp" 1
 851              		li a0, 0
 852              	# 0 "" 2
 853              	#NO_APP
 854              	.L12:
  92:src/KRiscv.cpp ****             asm volatile("sd a0, 10*8(%0)" :: "r"(framePointer));
 855              		.loc 1 92 13 is_stmt 1
  92:src/KRiscv.cpp ****             asm volatile("sd a0, 10*8(%0)" :: "r"(framePointer));
 856              		.loc 1 92 65 is_stmt 0
 857 027c 97070000 		la	a5,framePointer
 857      83B70700 
 858 0284 83B70700 		ld	a5,0(a5)
 859              	#APP
 860              	# 92 "src/KRiscv.cpp" 1
  93:src/KRiscv.cpp ****             KRiscv::w_sepc(KRiscv::r_sepc() + 4);
 861              		sd a0, 10*8(a5)
 862              	# 0 "" 2
GAS LISTING /tmp/ccwcDOjU.s 			page 25


 863              		.loc 1 93 13 is_stmt 1
 864              	#NO_APP
 865              	.LBB361:
 866              	.LBB362:
  65:src/../h/KRiscv.hpp ****     asm volatile ("csrr %0, sepc" : "=r"(sepc));
 867              		.loc 2 65 5
  66:src/../h/KRiscv.hpp ****     return sepc;
 868              		.loc 2 66 5
  66:src/../h/KRiscv.hpp ****     return sepc;
 869              		.loc 2 66 48 is_stmt 0
 870              	#APP
 871              	# 66 "src/../h/KRiscv.hpp" 1
 872              		csrr a5, sepc
 873              	# 0 "" 2
 874              	#NO_APP
 875 0290 2330F4F4 		sd	a5,-192(s0)
  67:src/../h/KRiscv.hpp **** }
 876              		.loc 2 67 5 is_stmt 1
  67:src/../h/KRiscv.hpp **** }
 877              		.loc 2 67 12 is_stmt 0
 878 0294 833704F4 		ld	a5,-192(s0)
 879              	.LBE362:
 880              	.LBE361:
  93:src/KRiscv.cpp ****             KRiscv::w_sepc(KRiscv::r_sepc() + 4);
 881              		.loc 1 93 27
 882 0298 93874700 		addi	a5,a5,4
 883              	.LVL32:
 884              	.LBB363:
 885              	.LBB364:
  71:src/../h/KRiscv.hpp **** }
 886              		.loc 2 71 5 is_stmt 1
  71:src/../h/KRiscv.hpp **** }
 887              		.loc 2 71 48 is_stmt 0
 888              	#APP
 889              	# 71 "src/../h/KRiscv.hpp" 1
  72:src/../h/KRiscv.hpp **** 
 890              		csrw sepc, a5
 891              	# 0 "" 2
 892              		.loc 2 72 1
 893              	#NO_APP
 894 02a0 6FF09FDE 		j	.L3
 895              	.LVL33:
 896              	.L11:
 897              	.LBE364:
 898              	.LBE363:
  91:src/KRiscv.cpp ****             else asm volatile("li a0, -1");
 899              		.loc 1 91 18 is_stmt 1
  91:src/KRiscv.cpp ****             else asm volatile("li a0, -1");
 900              		.loc 1 91 43 is_stmt 0
 901              	#APP
 902              	# 91 "src/KRiscv.cpp" 1
 903              		li a0, -1
 904              	# 0 "" 2
 905              	#NO_APP
 906 02a8 6FF05FFD 		j	.L12
 907              	.LVL34:
 908              	.L58:
GAS LISTING /tmp/ccwcDOjU.s 			page 26


 909              	.LBE360:
 910              	.LBB365:
 911              	.LBB343:
  96:src/KRiscv.cpp ****             KPCB** rucka = nullptr;
 912              		.loc 1 96 13 is_stmt 1
  97:src/KRiscv.cpp ****             void (*fja)(void*) = nullptr;
 913              		.loc 1 97 13
  98:src/KRiscv.cpp ****             void* args = nullptr;
 914              		.loc 1 98 13
  99:src/KRiscv.cpp ****             void* stack = nullptr;
 915              		.loc 1 99 13
 100:src/KRiscv.cpp ****             asm volatile("ld a1, 11*8(%0)" :: "r"(framePointer));
 916              		.loc 1 100 13
 100:src/KRiscv.cpp ****             asm volatile("ld a1, 11*8(%0)" :: "r"(framePointer));
 917              		.loc 1 100 65 is_stmt 0
 918 02ac 97070000 		la	a5,framePointer
 918      83B70700 
 919              	.LVL35:
 920 02b4 83B70700 		ld	a5,0(a5)
 921              	#APP
 922              	# 100 "src/KRiscv.cpp" 1
 101:src/KRiscv.cpp ****             asm volatile("mv %0, a1" : "=r"(rucka));
 923              		ld a1, 11*8(a5)
 924              	# 0 "" 2
 925              		.loc 1 101 13 is_stmt 1
 101:src/KRiscv.cpp ****             asm volatile("mv %0, a1" : "=r"(rucka));
 926              		.loc 1 101 52 is_stmt 0
 927              	# 101 "src/KRiscv.cpp" 1
 928              		mv s1, a1
 929              	# 0 "" 2
 930              	.LVL36:
 102:src/KRiscv.cpp ****             asm volatile("ld a2, 12*8(%0)" :: "r"(framePointer));
 931              		.loc 1 102 13 is_stmt 1
 102:src/KRiscv.cpp ****             asm volatile("ld a2, 12*8(%0)" :: "r"(framePointer));
 932              		.loc 1 102 65 is_stmt 0
 933              	# 102 "src/KRiscv.cpp" 1
 103:src/KRiscv.cpp ****             asm volatile("mv %0, a2" : "=r"(fja));
 934              		ld a2, 12*8(a5)
 935              	# 0 "" 2
 936              		.loc 1 103 13 is_stmt 1
 103:src/KRiscv.cpp ****             asm volatile("mv %0, a2" : "=r"(fja));
 937              		.loc 1 103 50 is_stmt 0
 938              	# 103 "src/KRiscv.cpp" 1
 939              		mv a0, a2
 940              	# 0 "" 2
 941              	.LVL37:
 104:src/KRiscv.cpp ****             asm volatile("ld a3, 13*8(%0)" :: "r"(framePointer));
 942              		.loc 1 104 13 is_stmt 1
 104:src/KRiscv.cpp ****             asm volatile("ld a3, 13*8(%0)" :: "r"(framePointer));
 943              		.loc 1 104 65 is_stmt 0
 944              	# 104 "src/KRiscv.cpp" 1
 105:src/KRiscv.cpp ****             asm volatile("mv %0, a3" : "=r"(args));
 945              		ld a3, 13*8(a5)
 946              	# 0 "" 2
 947              		.loc 1 105 13 is_stmt 1
 105:src/KRiscv.cpp ****             asm volatile("mv %0, a3" : "=r"(args));
 948              		.loc 1 105 51 is_stmt 0
GAS LISTING /tmp/ccwcDOjU.s 			page 27


 949              	# 105 "src/KRiscv.cpp" 1
 950              		mv a1, a3
 951              	# 0 "" 2
 952              	.LVL38:
 106:src/KRiscv.cpp ****             asm volatile("ld a4, 14*8(%0)" :: "r"(framePointer));
 953              		.loc 1 106 13 is_stmt 1
 106:src/KRiscv.cpp ****             asm volatile("ld a4, 14*8(%0)" :: "r"(framePointer));
 954              		.loc 1 106 65 is_stmt 0
 955              	# 106 "src/KRiscv.cpp" 1
 107:src/KRiscv.cpp ****             asm volatile("mv %0, a4" : "=r"(stack));
 956              		ld a4, 14*8(a5)
 957              	# 0 "" 2
 958              		.loc 1 107 13 is_stmt 1
 107:src/KRiscv.cpp ****             asm volatile("mv %0, a4" : "=r"(stack));
 959              		.loc 1 107 52 is_stmt 0
 960              	# 107 "src/KRiscv.cpp" 1
 961              		mv a2, a4
 962              	# 0 "" 2
 963              	.LVL39:
 108:src/KRiscv.cpp ****             *rucka = KPCB::createThread(fja, args, stack);
 964              		.loc 1 108 13 is_stmt 1
 108:src/KRiscv.cpp ****             *rucka = KPCB::createThread(fja, args, stack);
 965              		.loc 1 108 40 is_stmt 0
 966              	#NO_APP
 967 02d8 97000000 		call	_ZN4KPCB12createThreadEPFvPvES0_S0_@plt
 967      E7800000 
 968              	.LVL40:
 108:src/KRiscv.cpp ****             *rucka = KPCB::createThread(fja, args, stack);
 969              		.loc 1 108 20
 970 02e0 23B0A400 		sd	a0,0(s1)
 109:src/KRiscv.cpp ****             if (*rucka != nullptr) {
 971              		.loc 1 109 13 is_stmt 1
 972 02e4 63040504 		beqz	a0,.L14
 110:src/KRiscv.cpp ****                 (*rucka)->startIt();
 973              		.loc 1 110 17
 974              	.LVL41:
 975              	.LBB344:
 976              	.LBB345:
 977              		.file 3 "src/../h/KPCB.hpp"
   1:src/../h/KPCB.hpp **** //
   2:src/../h/KPCB.hpp **** // Created by os on 6/22/22.
   3:src/../h/KPCB.hpp **** //
   4:src/../h/KPCB.hpp **** 
   5:src/../h/KPCB.hpp **** #ifndef PROJECT_BASE_V1_1_KPCB_HPP
   6:src/../h/KPCB.hpp **** #define PROJECT_BASE_V1_1_KPCB_HPP
   7:src/../h/KPCB.hpp **** 
   8:src/../h/KPCB.hpp **** #include "../lib/hw.h"
   9:src/../h/KPCB.hpp **** #include "KScheduler.hpp"
  10:src/../h/KPCB.hpp **** #include "KMemoryAllocator.hpp"
  11:src/../h/KPCB.hpp **** 
  12:src/../h/KPCB.hpp **** class KPCB {
  13:src/../h/KPCB.hpp **** public:
  14:src/../h/KPCB.hpp ****     ~KPCB() {
  15:src/../h/KPCB.hpp ****         //delete[] stack;
  16:src/../h/KPCB.hpp ****         KMemoryAllocator::mem_free(stack);
  17:src/../h/KPCB.hpp ****         stack = nullptr;
  18:src/../h/KPCB.hpp ****     }
GAS LISTING /tmp/ccwcDOjU.s 			page 28


  19:src/../h/KPCB.hpp ****     friend class KScheduler;
  20:src/../h/KPCB.hpp ****     friend class KSemaphore;
  21:src/../h/KPCB.hpp ****     friend class KRiscv;
  22:src/../h/KPCB.hpp ****     friend class KSleep;
  23:src/../h/KPCB.hpp **** 
  24:src/../h/KPCB.hpp ****     void* operator new(size_t size) {
  25:src/../h/KPCB.hpp ****         size_t sizeBlock = (size + 16) / MEM_BLOCK_SIZE + ((size + 16) % MEM_BLOCK_SIZE ? 1 : 0);
  26:src/../h/KPCB.hpp ****         return KMemoryAllocator::mem_alloc(sizeBlock);
  27:src/../h/KPCB.hpp ****         //return __mem_alloc(size);
  28:src/../h/KPCB.hpp ****     }
  29:src/../h/KPCB.hpp ****     void* operator new[](size_t size) {
  30:src/../h/KPCB.hpp ****         size_t sizeBlock = (size + 16) / MEM_BLOCK_SIZE + ((size + 16) % MEM_BLOCK_SIZE ? 1 : 0);
  31:src/../h/KPCB.hpp ****         return KMemoryAllocator::mem_alloc(sizeBlock);
  32:src/../h/KPCB.hpp ****         //return __mem_alloc(size);
  33:src/../h/KPCB.hpp ****     }
  34:src/../h/KPCB.hpp ****     void operator delete(void* addr) {
  35:src/../h/KPCB.hpp ****         KMemoryAllocator::mem_free(addr);
  36:src/../h/KPCB.hpp ****         //__mem_free(addr);
  37:src/../h/KPCB.hpp ****     }
  38:src/../h/KPCB.hpp ****     void operator delete[](void* addr) {
  39:src/../h/KPCB.hpp ****         KMemoryAllocator::mem_free(addr);
  40:src/../h/KPCB.hpp ****         //__mem_free(addr);
  41:src/../h/KPCB.hpp ****     }
  42:src/../h/KPCB.hpp **** 
  43:src/../h/KPCB.hpp ****     using Body = void (*)(void*);
  44:src/../h/KPCB.hpp ****     static KPCB* createThread(Body body, void* args, void* stek);
  45:src/../h/KPCB.hpp ****     static KPCB* createThread(Body body);
  46:src/../h/KPCB.hpp ****     static void yield();
  47:src/../h/KPCB.hpp ****     static void dispatch();
  48:src/../h/KPCB.hpp ****     static KPCB* running;
  49:src/../h/KPCB.hpp ****     static int counter;
  50:src/../h/KPCB.hpp ****     static int statID;
  51:src/../h/KPCB.hpp **** 
  52:src/../h/KPCB.hpp ****     bool isFinished() const { return finished; }
  53:src/../h/KPCB.hpp ****     bool isSleeping() const { return sleeping; }
  54:src/../h/KPCB.hpp ****     bool isWaiting() const { return waiting; }
  55:src/../h/KPCB.hpp ****     bool isErr() const { return err; }
  56:src/../h/KPCB.hpp ****     void setFinished(bool val) {
  57:src/../h/KPCB.hpp ****         if (finished) return;
  58:src/../h/KPCB.hpp ****         finished = val;
  59:src/../h/KPCB.hpp ****         counter--;
  60:src/../h/KPCB.hpp ****     }
  61:src/../h/KPCB.hpp ****     void setSleeping(bool val) { sleeping = val; }
  62:src/../h/KPCB.hpp ****     void setWaiting(bool val) { waiting = val; }
  63:src/../h/KPCB.hpp ****     void setErr(bool val) { err = val; }
  64:src/../h/KPCB.hpp ****     int startIt() {
  65:src/../h/KPCB.hpp ****         if (started) return -1;
 978              		.loc 3 65 9
 979              		.loc 3 65 13 is_stmt 0
 980 02e8 83474503 		lbu	a5,52(a0)
 981              		.loc 3 65 9
 982 02ec 639A0700 		bnez	a5,.L15
  66:src/../h/KPCB.hpp ****         started = true;
 983              		.loc 3 66 9 is_stmt 1
 984              		.loc 3 66 17 is_stmt 0
 985 02f0 93071000 		li	a5,1
 986 02f4 230AF502 		sb	a5,52(a0)
GAS LISTING /tmp/ccwcDOjU.s 			page 29


  67:src/../h/KPCB.hpp ****         KScheduler::put(this);
 987              		.loc 3 67 9 is_stmt 1
 988              		.loc 3 67 24 is_stmt 0
 989 02f8 97000000 		call	_ZN10KScheduler3putEP4KPCB@plt
 989      E7800000 
 990              	.LVL42:
  68:src/../h/KPCB.hpp ****         return 0;
 991              		.loc 3 68 9 is_stmt 1
 992              	.L15:
 993              	.LBE345:
 994              	.LBE344:
 111:src/KRiscv.cpp ****                 asm volatile("li a0, 0");
 995              		.loc 1 111 17
 111:src/KRiscv.cpp ****                 asm volatile("li a0, 0");
 996              		.loc 1 111 41 is_stmt 0
 997              	#APP
 998              	# 111 "src/KRiscv.cpp" 1
 999              		li a0, 0
 1000              	# 0 "" 2
 1001              	#NO_APP
 1002              	.L16:
 114:src/KRiscv.cpp ****             asm volatile("sd a0, 10*8(%0)" :: "r"(framePointer));
 1003              		.loc 1 114 13 is_stmt 1
 114:src/KRiscv.cpp ****             asm volatile("sd a0, 10*8(%0)" :: "r"(framePointer));
 1004              		.loc 1 114 65 is_stmt 0
 1005 0304 97070000 		la	a5,framePointer
 1005      83B70700 
 1006 030c 83B70700 		ld	a5,0(a5)
 1007              	#APP
 1008              	# 114 "src/KRiscv.cpp" 1
 115:src/KRiscv.cpp ****             KRiscv::w_sepc(KRiscv::r_sepc() + 4);
 1009              		sd a0, 10*8(a5)
 1010              	# 0 "" 2
 1011              		.loc 1 115 13 is_stmt 1
 1012              	#NO_APP
 1013              	.LBB346:
 1014              	.LBB347:
  65:src/../h/KRiscv.hpp ****     asm volatile ("csrr %0, sepc" : "=r"(sepc));
 1015              		.loc 2 65 5
  66:src/../h/KRiscv.hpp ****     return sepc;
 1016              		.loc 2 66 5
  66:src/../h/KRiscv.hpp ****     return sepc;
 1017              		.loc 2 66 48 is_stmt 0
 1018              	#APP
 1019              	# 66 "src/../h/KRiscv.hpp" 1
 1020              		csrr a5, sepc
 1021              	# 0 "" 2
 1022              	#NO_APP
 1023 0318 2334F4F4 		sd	a5,-184(s0)
  67:src/../h/KRiscv.hpp **** }
 1024              		.loc 2 67 5 is_stmt 1
  67:src/../h/KRiscv.hpp **** }
 1025              		.loc 2 67 12 is_stmt 0
 1026 031c 833784F4 		ld	a5,-184(s0)
 1027              	.LBE347:
 1028              	.LBE346:
 115:src/KRiscv.cpp ****             KRiscv::w_sepc(KRiscv::r_sepc() + 4);
GAS LISTING /tmp/ccwcDOjU.s 			page 30


 1029              		.loc 1 115 27
 1030 0320 93874700 		addi	a5,a5,4
 1031              	.LVL43:
 1032              	.LBB348:
 1033              	.LBB349:
  71:src/../h/KRiscv.hpp **** }
 1034              		.loc 2 71 5 is_stmt 1
  71:src/../h/KRiscv.hpp **** }
 1035              		.loc 2 71 48 is_stmt 0
 1036              	#APP
 1037              	# 71 "src/../h/KRiscv.hpp" 1
  72:src/../h/KRiscv.hpp **** 
 1038              		csrw sepc, a5
 1039              	# 0 "" 2
 1040              		.loc 2 72 1
 1041              	#NO_APP
 1042 0328 6FF01FD6 		j	.L3
 1043              	.LVL44:
 1044              	.L14:
 1045              	.LBE349:
 1046              	.LBE348:
 113:src/KRiscv.cpp ****             else asm volatile("li a0, -1");
 1047              		.loc 1 113 18 is_stmt 1
 113:src/KRiscv.cpp ****             else asm volatile("li a0, -1");
 1048              		.loc 1 113 43 is_stmt 0
 1049              	#APP
 1050              	# 113 "src/KRiscv.cpp" 1
 1051              		li a0, -1
 1052              	# 0 "" 2
 1053              	#NO_APP
 1054 0330 6FF05FFD 		j	.L16
 1055              	.LVL45:
 1056              	.L59:
 1057              	.LBE343:
 1058              	.LBB350:
 1059              	.LBB323:
 118:src/KRiscv.cpp ****             uint64 sepc = r_sepc() + 4;
 1060              		.loc 1 118 13 is_stmt 1
 1061              	.LBB324:
 1062              	.LBB325:
  65:src/../h/KRiscv.hpp ****     asm volatile ("csrr %0, sepc" : "=r"(sepc));
 1063              		.loc 2 65 5
  66:src/../h/KRiscv.hpp ****     return sepc;
 1064              		.loc 2 66 5
  66:src/../h/KRiscv.hpp ****     return sepc;
 1065              		.loc 2 66 48 is_stmt 0
 1066              	#APP
 1067              	# 66 "src/../h/KRiscv.hpp" 1
 1068              		csrr a5, sepc
 1069              	# 0 "" 2
 1070              	.LVL46:
 1071              	#NO_APP
 1072 0338 233CF4F4 		sd	a5,-168(s0)
  67:src/../h/KRiscv.hpp **** }
 1073              		.loc 2 67 5 is_stmt 1
  67:src/../h/KRiscv.hpp **** }
 1074              		.loc 2 67 12 is_stmt 0
GAS LISTING /tmp/ccwcDOjU.s 			page 31


 1075 033c 833484F5 		ld	s1,-168(s0)
 1076              	.LBE325:
 1077              	.LBE324:
 118:src/KRiscv.cpp ****             uint64 sepc = r_sepc() + 4;
 1078              		.loc 1 118 38
 1079 0340 93844400 		addi	s1,s1,4
 1080              	.LVL47:
 119:src/KRiscv.cpp ****             uint64 sstatus = r_sstatus();
 1081              		.loc 1 119 13 is_stmt 1
 1082              	.LBB326:
 1083              	.LBB327:
 119:src/../h/KRiscv.hpp **** 
 120:src/../h/KRiscv.hpp **** inline uint64 KRiscv::r_sstatus() {
 121:src/../h/KRiscv.hpp ****     uint64 volatile sstatus;
 1084              		.loc 2 121 5
 122:src/../h/KRiscv.hpp ****     asm volatile ("csrr %0, sstatus" : "=r"(sstatus));
 1085              		.loc 2 122 5
 1086              		.loc 2 122 54 is_stmt 0
 1087              	#APP
 1088              	# 122 "src/../h/KRiscv.hpp" 1
 123              	    return sstatus;
 1089              		csrr a5, sstatus
 1090              	# 0 "" 2
 1091              	#NO_APP
 1092 0348 2338F4F4 		sd	a5,-176(s0)
 1093              		.loc 2 123 5 is_stmt 1
 1094              		.loc 2 123 12 is_stmt 0
 1095 034c 033904F5 		ld	s2,-176(s0)
 1096              	.LVL48:
 1097              	.LBE327:
 1098              	.LBE326:
 120:src/KRiscv.cpp ****             KPCB::running->setFinished(true);
 1099              		.loc 1 120 13 is_stmt 1
 120:src/KRiscv.cpp ****             KPCB::running->setFinished(true);
 1100              		.loc 1 120 39 is_stmt 0
 1101 0350 97070000 		la	a5,_ZN4KPCB7runningE
 1101      83B70700 
 1102 0358 83B70700 		ld	a5,0(a5)
 1103              	.LVL49:
 1104              	.LBB328:
 1105              	.LBB329:
  57:src/../h/KPCB.hpp ****         finished = val;
 1106              		.loc 3 57 9 is_stmt 1
  57:src/../h/KPCB.hpp ****         finished = val;
 1107              		.loc 3 57 13 is_stmt 0
 1108 035c 03C70703 		lbu	a4,48(a5)
  57:src/../h/KPCB.hpp ****         finished = val;
 1109              		.loc 3 57 9
 1110 0360 63100702 		bnez	a4,.L18
  58:src/../h/KPCB.hpp ****         counter--;
 1111              		.loc 3 58 9 is_stmt 1
  58:src/../h/KPCB.hpp ****         counter--;
 1112              		.loc 3 58 18 is_stmt 0
 1113 0364 13071000 		li	a4,1
 1114 0368 2388E702 		sb	a4,48(a5)
  59:src/../h/KPCB.hpp ****     }
 1115              		.loc 3 59 9 is_stmt 1
GAS LISTING /tmp/ccwcDOjU.s 			page 32


  59:src/../h/KPCB.hpp ****     }
 1116              		.loc 3 59 16 is_stmt 0
 1117 036c 17070000 		la	a4,_ZN4KPCB7counterE
 1117      03370700 
 1118 0374 83270700 		lw	a5,0(a4)
 1119              	.LVL50:
 1120 0378 9B87F7FF 		addiw	a5,a5,-1
 1121 037c 2320F700 		sw	a5,0(a4)
 1122              	.L18:
 1123              	.LVL51:
 1124              	.LBE329:
 1125              	.LBE328:
 121:src/KRiscv.cpp ****             KPCB::dispatch();
 1126              		.loc 1 121 13 is_stmt 1
 121:src/KRiscv.cpp ****             KPCB::dispatch();
 1127              		.loc 1 121 27 is_stmt 0
 1128 0380 97000000 		call	_ZN4KPCB8dispatchEv@plt
 1128      E7800000 
 1129              	.LVL52:
 122:src/KRiscv.cpp ****             w_sstatus(sstatus);
 1130              		.loc 1 122 13 is_stmt 1
 1131              	.LBB330:
 1132              	.LBB331:
 124:src/../h/KRiscv.hpp **** }
 125:src/../h/KRiscv.hpp **** 
 126:src/../h/KRiscv.hpp **** inline void KRiscv::w_sstatus(uint64 sstatus) {
 127:src/../h/KRiscv.hpp ****     asm volatile ("csrw sstatus, %0" :: "r"(sstatus));
 1133              		.loc 2 127 5
 1134              		.loc 2 127 54 is_stmt 0
 1135              	#APP
 1136              	# 127 "src/../h/KRiscv.hpp" 1
 128              	}
 1137              		csrw sstatus, s2
 1138              	# 0 "" 2
 1139              	.LVL53:
 1140              	#NO_APP
 1141              	.LBE331:
 1142              	.LBE330:
 123:src/KRiscv.cpp ****             w_sepc(sepc);
 1143              		.loc 1 123 13 is_stmt 1
 1144              	.LBB332:
 1145              	.LBB333:
  71:src/../h/KRiscv.hpp **** }
 1146              		.loc 2 71 5
  71:src/../h/KRiscv.hpp **** }
 1147              		.loc 2 71 48 is_stmt 0
 1148              	#APP
 1149              	# 71 "src/../h/KRiscv.hpp" 1
  72:src/../h/KRiscv.hpp **** 
 1150              		csrw sepc, s1
 1151              	# 0 "" 2
 1152              		.loc 2 72 1
 1153              	#NO_APP
 1154 0390 6FF09FCF 		j	.L3
 1155              	.LVL54:
 1156              	.L60:
 1157              	.LBE333:
GAS LISTING /tmp/ccwcDOjU.s 			page 33


 1158              	.LBE332:
 1159              	.LBE323:
 1160              	.LBB334:
 1161              	.LBB306:
 126:src/KRiscv.cpp ****             uint64 sepc = r_sepc() + 4;
 1162              		.loc 1 126 13 is_stmt 1
 1163              	.LBB307:
 1164              	.LBB308:
  65:src/../h/KRiscv.hpp ****     asm volatile ("csrr %0, sepc" : "=r"(sepc));
 1165              		.loc 2 65 5
  66:src/../h/KRiscv.hpp ****     return sepc;
 1166              		.loc 2 66 5
  66:src/../h/KRiscv.hpp ****     return sepc;
 1167              		.loc 2 66 48 is_stmt 0
 1168              	#APP
 1169              	# 66 "src/../h/KRiscv.hpp" 1
 1170              		csrr a5, sepc
 1171              	# 0 "" 2
 1172              	.LVL55:
 1173              	#NO_APP
 1174 0398 2334F4F6 		sd	a5,-152(s0)
  67:src/../h/KRiscv.hpp **** }
 1175              		.loc 2 67 5 is_stmt 1
  67:src/../h/KRiscv.hpp **** }
 1176              		.loc 2 67 12 is_stmt 0
 1177 039c 833484F6 		ld	s1,-152(s0)
 1178              	.LBE308:
 1179              	.LBE307:
 126:src/KRiscv.cpp ****             uint64 sepc = r_sepc() + 4;
 1180              		.loc 1 126 38
 1181 03a0 93844400 		addi	s1,s1,4
 1182              	.LVL56:
 127:src/KRiscv.cpp ****             uint64 sstatus = r_sstatus();
 1183              		.loc 1 127 13 is_stmt 1
 1184              	.LBB309:
 1185              	.LBB310:
 121:src/../h/KRiscv.hpp ****     asm volatile ("csrr %0, sstatus" : "=r"(sstatus));
 1186              		.loc 2 121 5
 122:src/../h/KRiscv.hpp ****     return sstatus;
 1187              		.loc 2 122 5
 122:src/../h/KRiscv.hpp ****     return sstatus;
 1188              		.loc 2 122 54 is_stmt 0
 1189              	#APP
 1190              	# 122 "src/../h/KRiscv.hpp" 1
 1191              		csrr a5, sstatus
 1192              	# 0 "" 2
 1193              	#NO_APP
 1194 03a8 2330F4F6 		sd	a5,-160(s0)
 123:src/../h/KRiscv.hpp **** }
 1195              		.loc 2 123 5 is_stmt 1
 123:src/../h/KRiscv.hpp **** }
 1196              		.loc 2 123 12 is_stmt 0
 1197 03ac 033904F6 		ld	s2,-160(s0)
 1198              	.LVL57:
 1199              	.LBE310:
 1200              	.LBE309:
 128:src/KRiscv.cpp ****             KPCB::dispatch();
GAS LISTING /tmp/ccwcDOjU.s 			page 34


 1201              		.loc 1 128 13 is_stmt 1
 128:src/KRiscv.cpp ****             KPCB::dispatch();
 1202              		.loc 1 128 27 is_stmt 0
 1203 03b0 97000000 		call	_ZN4KPCB8dispatchEv@plt
 1203      E7800000 
 1204              	.LVL58:
 129:src/KRiscv.cpp ****             w_sstatus(sstatus);
 1205              		.loc 1 129 13 is_stmt 1
 1206              	.LBB311:
 1207              	.LBB312:
 127:src/../h/KRiscv.hpp **** }
 1208              		.loc 2 127 5
 127:src/../h/KRiscv.hpp **** }
 1209              		.loc 2 127 54 is_stmt 0
 1210              	#APP
 1211              	# 127 "src/../h/KRiscv.hpp" 1
 1212              		csrw sstatus, s2
 1213              	# 0 "" 2
 1214              	.LVL59:
 1215              	#NO_APP
 1216              	.LBE312:
 1217              	.LBE311:
 130:src/KRiscv.cpp ****             w_sepc(sepc);
 1218              		.loc 1 130 13 is_stmt 1
 1219              	.LBB313:
 1220              	.LBB314:
  71:src/../h/KRiscv.hpp **** }
 1221              		.loc 2 71 5
  71:src/../h/KRiscv.hpp **** }
 1222              		.loc 2 71 48 is_stmt 0
 1223              	#APP
 1224              	# 71 "src/../h/KRiscv.hpp" 1
  72:src/../h/KRiscv.hpp **** 
 1225              		csrw sepc, s1
 1226              	# 0 "" 2
 1227              		.loc 2 72 1
 1228              	#NO_APP
 1229 03c0 6FF09FCC 		j	.L3
 1230              	.LVL60:
 1231              	.L61:
 1232              	.LBE314:
 1233              	.LBE313:
 1234              	.LBE306:
 1235              	.LBB315:
 1236              	.LBB294:
 133:src/KRiscv.cpp ****             KSemaphore** rucka = nullptr;
 1237              		.loc 1 133 13 is_stmt 1
 134:src/KRiscv.cpp ****             unsigned init;
 1238              		.loc 1 134 13
 135:src/KRiscv.cpp ****             asm volatile("ld a1, 11*8(%0)" :: "r"(framePointer));
 1239              		.loc 1 135 13
 135:src/KRiscv.cpp ****             asm volatile("ld a1, 11*8(%0)" :: "r"(framePointer));
 1240              		.loc 1 135 65 is_stmt 0
 1241 03c4 97070000 		la	a5,framePointer
 1241      83B70700 
 1242              	.LVL61:
 1243 03cc 83B70700 		ld	a5,0(a5)
GAS LISTING /tmp/ccwcDOjU.s 			page 35


 1244              	#APP
 1245              	# 135 "src/KRiscv.cpp" 1
 136:src/KRiscv.cpp ****             asm volatile("mv %0, a1" : "=r"(rucka));
 1246              		ld a1, 11*8(a5)
 1247              	# 0 "" 2
 1248              		.loc 1 136 13 is_stmt 1
 136:src/KRiscv.cpp ****             asm volatile("mv %0, a1" : "=r"(rucka));
 1249              		.loc 1 136 52 is_stmt 0
 1250              	# 136 "src/KRiscv.cpp" 1
 1251              		mv s1, a1
 1252              	# 0 "" 2
 1253              	.LVL62:
 137:src/KRiscv.cpp ****             asm volatile("ld a2, 12*8(%0)" :: "r"(framePointer));
 1254              		.loc 1 137 13 is_stmt 1
 137:src/KRiscv.cpp ****             asm volatile("ld a2, 12*8(%0)" :: "r"(framePointer));
 1255              		.loc 1 137 65 is_stmt 0
 1256              	# 137 "src/KRiscv.cpp" 1
 138:src/KRiscv.cpp ****             asm volatile("mv %0, a2" : "=r"(init));
 1257              		ld a2, 12*8(a5)
 1258              	# 0 "" 2
 1259              		.loc 1 138 13 is_stmt 1
 138:src/KRiscv.cpp ****             asm volatile("mv %0, a2" : "=r"(init));
 1260              		.loc 1 138 51 is_stmt 0
 1261              	# 138 "src/KRiscv.cpp" 1
 1262              		mv a0, a2
 1263              	# 0 "" 2
 1264              	.LVL63:
 139:src/KRiscv.cpp ****             *rucka = KSemaphore::createSemaphore(init);
 1265              		.loc 1 139 13 is_stmt 1
 139:src/KRiscv.cpp ****             *rucka = KSemaphore::createSemaphore(init);
 1266              		.loc 1 139 49 is_stmt 0
 1267              	#NO_APP
 1268 03e0 13150502 		slli	a0,a0,32
 1269              	.LVL64:
 1270 03e4 13550502 		srli	a0,a0,32
 1271 03e8 97000000 		call	_ZN10KSemaphore15createSemaphoreEm@plt
 1271      E7800000 
 1272              	.LVL65:
 1273              	.LEHE0:
 139:src/KRiscv.cpp ****             *rucka = KSemaphore::createSemaphore(init);
 1274              		.loc 1 139 20
 1275 03f0 23B0A400 		sd	a0,0(s1)
 140:src/KRiscv.cpp ****             if (*rucka != nullptr) asm volatile("li a0, 0");
 1276              		.loc 1 140 13 is_stmt 1
 1277 03f4 63080502 		beqz	a0,.L21
 140:src/KRiscv.cpp ****             if (*rucka != nullptr) asm volatile("li a0, 0");
 1278              		.loc 1 140 36 discriminator 1
 140:src/KRiscv.cpp ****             if (*rucka != nullptr) asm volatile("li a0, 0");
 1279              		.loc 1 140 60 is_stmt 0 discriminator 1
 1280              	#APP
 1281              	# 140 "src/KRiscv.cpp" 1
 1282              		li a0, 0
 1283              	# 0 "" 2
 1284              	#NO_APP
 1285              	.L22:
 142:src/KRiscv.cpp ****             asm volatile("sd a0, 10*8(%0)" :: "r"(framePointer));
 1286              		.loc 1 142 13 is_stmt 1
GAS LISTING /tmp/ccwcDOjU.s 			page 36


 142:src/KRiscv.cpp ****             asm volatile("sd a0, 10*8(%0)" :: "r"(framePointer));
 1287              		.loc 1 142 65 is_stmt 0
 1288 03fc 97070000 		la	a5,framePointer
 1288      83B70700 
 1289 0404 83B70700 		ld	a5,0(a5)
 1290              	#APP
 1291              	# 142 "src/KRiscv.cpp" 1
 143:src/KRiscv.cpp ****             KRiscv::w_sepc(KRiscv::r_sepc() + 4);
 1292              		sd a0, 10*8(a5)
 1293              	# 0 "" 2
 1294              		.loc 1 143 13 is_stmt 1
 1295              	#NO_APP
 1296              	.LBB295:
 1297              	.LBB296:
  65:src/../h/KRiscv.hpp ****     asm volatile ("csrr %0, sepc" : "=r"(sepc));
 1298              		.loc 2 65 5
  66:src/../h/KRiscv.hpp ****     return sepc;
 1299              		.loc 2 66 5
  66:src/../h/KRiscv.hpp ****     return sepc;
 1300              		.loc 2 66 48 is_stmt 0
 1301              	#APP
 1302              	# 66 "src/../h/KRiscv.hpp" 1
 1303              		csrr a5, sepc
 1304              	# 0 "" 2
 1305              	#NO_APP
 1306 0410 2338F4F6 		sd	a5,-144(s0)
  67:src/../h/KRiscv.hpp **** }
 1307              		.loc 2 67 5 is_stmt 1
  67:src/../h/KRiscv.hpp **** }
 1308              		.loc 2 67 12 is_stmt 0
 1309 0414 833704F7 		ld	a5,-144(s0)
 1310              	.LBE296:
 1311              	.LBE295:
 143:src/KRiscv.cpp ****             KRiscv::w_sepc(KRiscv::r_sepc() + 4);
 1312              		.loc 1 143 27
 1313 0418 93874700 		addi	a5,a5,4
 1314              	.LVL66:
 1315              	.LBB297:
 1316              	.LBB298:
  71:src/../h/KRiscv.hpp **** }
 1317              		.loc 2 71 5 is_stmt 1
  71:src/../h/KRiscv.hpp **** }
 1318              		.loc 2 71 48 is_stmt 0
 1319              	#APP
 1320              	# 71 "src/../h/KRiscv.hpp" 1
  72:src/../h/KRiscv.hpp **** 
 1321              		csrw sepc, a5
 1322              	# 0 "" 2
 1323              		.loc 2 72 1
 1324              	#NO_APP
 1325 0420 6FF09FC6 		j	.L3
 1326              	.LVL67:
 1327              	.L21:
 1328              	.LBE298:
 1329              	.LBE297:
 141:src/KRiscv.cpp ****             else asm volatile("li a0, -1");
 1330              		.loc 1 141 18 is_stmt 1
GAS LISTING /tmp/ccwcDOjU.s 			page 37


 141:src/KRiscv.cpp ****             else asm volatile("li a0, -1");
 1331              		.loc 1 141 43 is_stmt 0
 1332              	#APP
 1333              	# 141 "src/KRiscv.cpp" 1
 1334              		li a0, -1
 1335              	# 0 "" 2
 1336              	#NO_APP
 1337 0428 6FF05FFD 		j	.L22
 1338              	.LVL68:
 1339              	.L62:
 1340              	.LBE294:
 1341              	.LBB299:
 1342              	.LBB274:
 146:src/KRiscv.cpp ****             KSemaphore* rucka = nullptr;
 1343              		.loc 1 146 13 is_stmt 1
 147:src/KRiscv.cpp ****             asm volatile("ld a1, 11*8(%0)" :: "r"(framePointer));
 1344              		.loc 1 147 13
 147:src/KRiscv.cpp ****             asm volatile("ld a1, 11*8(%0)" :: "r"(framePointer));
 1345              		.loc 1 147 65 is_stmt 0
 1346 042c 97070000 		la	a5,framePointer
 1346      83B70700 
 1347              	.LVL69:
 1348 0434 83B70700 		ld	a5,0(a5)
 1349              	#APP
 1350              	# 147 "src/KRiscv.cpp" 1
 148:src/KRiscv.cpp ****             asm volatile("mv %0, a1" : "=r"(rucka));
 1351              		ld a1, 11*8(a5)
 1352              	# 0 "" 2
 1353              		.loc 1 148 13 is_stmt 1
 148:src/KRiscv.cpp ****             asm volatile("mv %0, a1" : "=r"(rucka));
 1354              		.loc 1 148 52 is_stmt 0
 1355              	# 148 "src/KRiscv.cpp" 1
 1356              		mv s1, a1
 1357              	# 0 "" 2
 1358              	.LVL70:
 149:src/KRiscv.cpp ****             delete rucka;
 1359              		.loc 1 149 13 is_stmt 1
 149:src/KRiscv.cpp ****             delete rucka;
 1360              		.loc 1 149 25 is_stmt 0
 1361              	#NO_APP
 1362 0440 638E0402 		beqz	s1,.L24
 1363              	.LVL71:
 1364              	.L26:
 1365              	.LBB275:
 1366              	.LBB276:
 1367              		.file 4 "src/../h/KSemaphore.hpp"
   1:src/../h/KSemaphore.hpp **** //
   2:src/../h/KSemaphore.hpp **** // Created by os on 6/22/22.
   3:src/../h/KSemaphore.hpp **** //
   4:src/../h/KSemaphore.hpp **** 
   5:src/../h/KSemaphore.hpp **** #ifndef PROJECT_BASE_V1_1_KSEMAPHORE_HPP
   6:src/../h/KSemaphore.hpp **** #define PROJECT_BASE_V1_1_KSEMAPHORE_HPP
   7:src/../h/KSemaphore.hpp **** 
   8:src/../h/KSemaphore.hpp **** #include "../lib/hw.h"
   9:src/../h/KSemaphore.hpp **** #include "KPCB.hpp"
  10:src/../h/KSemaphore.hpp **** 
  11:src/../h/KSemaphore.hpp **** class KSemaphore {
GAS LISTING /tmp/ccwcDOjU.s 			page 38


  12:src/../h/KSemaphore.hpp **** public:
  13:src/../h/KSemaphore.hpp ****     ~KSemaphore() {
  14:src/../h/KSemaphore.hpp ****         while (head) {
 1368              		.loc 4 14 9 is_stmt 1
 1369              		.loc 4 14 16
 1370 0444 03B58400 		ld	a0,8(s1)
 1371 0448 63040502 		beqz	a0,.L25
 1372              	.LBB277:
  15:src/../h/KSemaphore.hpp ****             KPCB* old = head;
 1373              		.loc 4 15 13
 1374              	.LVL72:
  16:src/../h/KSemaphore.hpp ****             head = head->nextSemaphore;
 1375              		.loc 4 16 13
 1376              		.loc 4 16 26 is_stmt 0
 1377 044c 83378504 		ld	a5,72(a0)
 1378              		.loc 4 16 18
 1379 0450 23B4F400 		sd	a5,8(s1)
  17:src/../h/KSemaphore.hpp ****             old->nextSemaphore = nullptr;
 1380              		.loc 4 17 13 is_stmt 1
 1381              		.loc 4 17 32 is_stmt 0
 1382 0454 23340504 		sd	zero,72(a0)
  18:src/../h/KSemaphore.hpp ****             old->setErr(true);
 1383              		.loc 4 18 13 is_stmt 1
 1384              	.LVL73:
 1385              	.LBB278:
 1386              	.LBB279:
  63:src/../h/KPCB.hpp ****     int startIt() {
 1387              		.loc 3 63 29
  63:src/../h/KPCB.hpp ****     int startIt() {
 1388              		.loc 3 63 33 is_stmt 0
 1389 0458 93071000 		li	a5,1
 1390 045c A309F502 		sb	a5,51(a0)
 1391              	.LVL74:
 1392              	.LBE279:
 1393              	.LBE278:
  19:src/../h/KSemaphore.hpp ****             old->setWaiting(false);
 1394              		.loc 4 19 13 is_stmt 1
 1395              	.LBB280:
 1396              	.LBB281:
  62:src/../h/KPCB.hpp ****     void setErr(bool val) { err = val; }
 1397              		.loc 3 62 33
  62:src/../h/KPCB.hpp ****     void setErr(bool val) { err = val; }
 1398              		.loc 3 62 41 is_stmt 0
 1399 0460 23090502 		sb	zero,50(a0)
 1400              	.LVL75:
 1401              	.LBE281:
 1402              	.LBE280:
  20:src/../h/KSemaphore.hpp ****             KScheduler::put(old);
 1403              		.loc 4 20 13 is_stmt 1
 1404              		.loc 4 20 28 is_stmt 0
 1405 0464 97000000 		call	_ZN10KScheduler3putEP4KPCB@plt
 1405      E7800000 
 1406              	.LVL76:
 1407              	.LBE277:
  14:src/../h/KSemaphore.hpp ****             KPCB* old = head;
 1408              		.loc 4 14 9
 1409 046c 6FF09FFD 		j	.L26
GAS LISTING /tmp/ccwcDOjU.s 			page 39


 1410              	.L25:
 1411              	.LVL77:
 1412              	.LBE276:
 1413              	.LBE275:
 1414              	.LBB282:
 1415              	.LBB283:
  21:src/../h/KSemaphore.hpp ****         }
  22:src/../h/KSemaphore.hpp ****     }
  23:src/../h/KSemaphore.hpp **** 
  24:src/../h/KSemaphore.hpp ****     void wait() { if(--val < 0) block(); }
  25:src/../h/KSemaphore.hpp ****     void signal() { if (val++ < 0) deblock(); }
  26:src/../h/KSemaphore.hpp ****     int value() const { return val; }
  27:src/../h/KSemaphore.hpp ****     static KSemaphore* createSemaphore(uint64 init);
  28:src/../h/KSemaphore.hpp **** 
  29:src/../h/KSemaphore.hpp ****     void* operator new(size_t size) {
  30:src/../h/KSemaphore.hpp ****         size_t sizeBlock = (size + 16) / MEM_BLOCK_SIZE + ((size + 16) % MEM_BLOCK_SIZE ? 1 : 0);
  31:src/../h/KSemaphore.hpp ****         return KMemoryAllocator::mem_alloc(sizeBlock);
  32:src/../h/KSemaphore.hpp ****         //return __mem_alloc(size);
  33:src/../h/KSemaphore.hpp ****     }
  34:src/../h/KSemaphore.hpp ****     void* operator new[](size_t size) {
  35:src/../h/KSemaphore.hpp ****         size_t sizeBlock = (size + 16) / MEM_BLOCK_SIZE + ((size + 16) % MEM_BLOCK_SIZE ? 1 : 0);
  36:src/../h/KSemaphore.hpp ****         return KMemoryAllocator::mem_alloc(sizeBlock);
  37:src/../h/KSemaphore.hpp ****         //return __mem_alloc(size);
  38:src/../h/KSemaphore.hpp ****     }
  39:src/../h/KSemaphore.hpp ****     void operator delete(void* addr) {
  40:src/../h/KSemaphore.hpp ****         KMemoryAllocator::mem_free(addr);
 1416              		.loc 4 40 9 is_stmt 1
 1417              		.loc 4 40 35 is_stmt 0
 1418 0470 13850400 		mv	a0,s1
 1419              	.LEHB1:
 1420 0474 97000000 		call	_ZN16KMemoryAllocator8mem_freeEPv@plt
 1420      E7800000 
 1421              	.LVL78:
 1422              	.L24:
 1423              	.LBE283:
 1424              	.LBE282:
 150:src/KRiscv.cpp ****             KRiscv::w_sepc(KRiscv::r_sepc() + 4);
 1425              		.loc 1 150 13 is_stmt 1
 1426              	.LBB284:
 1427              	.LBB285:
  65:src/../h/KRiscv.hpp ****     asm volatile ("csrr %0, sepc" : "=r"(sepc));
 1428              		.loc 2 65 5
  66:src/../h/KRiscv.hpp ****     return sepc;
 1429              		.loc 2 66 5
  66:src/../h/KRiscv.hpp ****     return sepc;
 1430              		.loc 2 66 48 is_stmt 0
 1431              	#APP
 1432              	# 66 "src/../h/KRiscv.hpp" 1
 1433              		csrr a5, sepc
 1434              	# 0 "" 2
 1435              	#NO_APP
 1436 0480 233CF4F6 		sd	a5,-136(s0)
  67:src/../h/KRiscv.hpp **** }
 1437              		.loc 2 67 5 is_stmt 1
  67:src/../h/KRiscv.hpp **** }
 1438              		.loc 2 67 12 is_stmt 0
 1439 0484 833784F7 		ld	a5,-136(s0)
GAS LISTING /tmp/ccwcDOjU.s 			page 40


 1440              	.LBE285:
 1441              	.LBE284:
 150:src/KRiscv.cpp ****             KRiscv::w_sepc(KRiscv::r_sepc() + 4);
 1442              		.loc 1 150 27
 1443 0488 93874700 		addi	a5,a5,4
 1444              	.LVL79:
 1445              	.LBB286:
 1446              	.LBB287:
  71:src/../h/KRiscv.hpp **** }
 1447              		.loc 2 71 5 is_stmt 1
  71:src/../h/KRiscv.hpp **** }
 1448              		.loc 2 71 48 is_stmt 0
 1449              	#APP
 1450              	# 71 "src/../h/KRiscv.hpp" 1
  72:src/../h/KRiscv.hpp **** 
 1451              		csrw sepc, a5
 1452              	# 0 "" 2
 1453              		.loc 2 72 1
 1454              	#NO_APP
 1455 0490 6FF09FBF 		j	.L3
 1456              	.LVL80:
 1457              	.L63:
 1458              	.LBE287:
 1459              	.LBE286:
 1460              	.LBE274:
 1461              	.LBB288:
 1462              	.LBB256:
 153:src/KRiscv.cpp ****             uint64 sepc = r_sepc() + 4;
 1463              		.loc 1 153 13 is_stmt 1
 1464              	.LBB257:
 1465              	.LBB258:
  65:src/../h/KRiscv.hpp ****     asm volatile ("csrr %0, sepc" : "=r"(sepc));
 1466              		.loc 2 65 5
  66:src/../h/KRiscv.hpp ****     return sepc;
 1467              		.loc 2 66 5
  66:src/../h/KRiscv.hpp ****     return sepc;
 1468              		.loc 2 66 48 is_stmt 0
 1469              	#APP
 1470              	# 66 "src/../h/KRiscv.hpp" 1
 1471              		csrr a5, sepc
 1472              	# 0 "" 2
 1473              	.LVL81:
 1474              	#NO_APP
 1475 0498 2334F4F8 		sd	a5,-120(s0)
  67:src/../h/KRiscv.hpp **** }
 1476              		.loc 2 67 5 is_stmt 1
  67:src/../h/KRiscv.hpp **** }
 1477              		.loc 2 67 12 is_stmt 0
 1478 049c 833484F8 		ld	s1,-120(s0)
 1479              	.LBE258:
 1480              	.LBE257:
 153:src/KRiscv.cpp ****             uint64 sepc = r_sepc() + 4;
 1481              		.loc 1 153 38
 1482 04a0 93844400 		addi	s1,s1,4
 1483              	.LVL82:
 154:src/KRiscv.cpp ****             uint64 sstatus = r_sstatus();
 1484              		.loc 1 154 13 is_stmt 1
GAS LISTING /tmp/ccwcDOjU.s 			page 41


 1485              	.LBB259:
 1486              	.LBB260:
 121:src/../h/KRiscv.hpp ****     asm volatile ("csrr %0, sstatus" : "=r"(sstatus));
 1487              		.loc 2 121 5
 122:src/../h/KRiscv.hpp ****     return sstatus;
 1488              		.loc 2 122 5
 122:src/../h/KRiscv.hpp ****     return sstatus;
 1489              		.loc 2 122 54 is_stmt 0
 1490              	#APP
 1491              	# 122 "src/../h/KRiscv.hpp" 1
 1492              		csrr a5, sstatus
 1493              	# 0 "" 2
 1494              	#NO_APP
 1495 04a8 2330F4F8 		sd	a5,-128(s0)
 123:src/../h/KRiscv.hpp **** }
 1496              		.loc 2 123 5 is_stmt 1
 123:src/../h/KRiscv.hpp **** }
 1497              		.loc 2 123 12 is_stmt 0
 1498 04ac 033904F8 		ld	s2,-128(s0)
 1499              	.LVL83:
 1500              	.LBE260:
 1501              	.LBE259:
 155:src/KRiscv.cpp ****             KSemaphore* rucka = nullptr;
 1502              		.loc 1 155 13 is_stmt 1
 156:src/KRiscv.cpp ****             asm volatile("ld a1, 11*8(%0)" :: "r"(framePointer));
 1503              		.loc 1 156 13
 156:src/KRiscv.cpp ****             asm volatile("ld a1, 11*8(%0)" :: "r"(framePointer));
 1504              		.loc 1 156 65 is_stmt 0
 1505 04b0 97070000 		la	a5,framePointer
 1505      83B70700 
 1506 04b8 83B70700 		ld	a5,0(a5)
 1507              	#APP
 1508              	# 156 "src/KRiscv.cpp" 1
 157:src/KRiscv.cpp ****             asm volatile("mv %0, a1" : "=r"(rucka));
 1509              		ld a1, 11*8(a5)
 1510              	# 0 "" 2
 1511              		.loc 1 157 13 is_stmt 1
 157:src/KRiscv.cpp ****             asm volatile("mv %0, a1" : "=r"(rucka));
 1512              		.loc 1 157 52 is_stmt 0
 1513              	# 157 "src/KRiscv.cpp" 1
 1514              		mv a0, a1
 1515              	# 0 "" 2
 1516              	.LVL84:
 158:src/KRiscv.cpp ****             if (rucka) rucka->wait();
 1517              		.loc 1 158 13 is_stmt 1
 1518              	#NO_APP
 1519 04c4 630C0500 		beqz	a0,.L28
 158:src/KRiscv.cpp ****             if (rucka) rucka->wait();
 1520              		.loc 1 158 24
 1521              	.LVL85:
 1522              	.LBB261:
 1523              	.LBB262:
  24:src/../h/KSemaphore.hpp ****     void signal() { if (val++ < 0) deblock(); }
 1524              		.loc 4 24 19
  24:src/../h/KSemaphore.hpp ****     void signal() { if (val++ < 0) deblock(); }
 1525              		.loc 4 24 24 is_stmt 0
 1526 04c8 83270500 		lw	a5,0(a0)
GAS LISTING /tmp/ccwcDOjU.s 			page 42


  24:src/../h/KSemaphore.hpp ****     void signal() { if (val++ < 0) deblock(); }
 1527              		.loc 4 24 22
 1528 04cc 9B87F7FF 		addiw	a5,a5,-1
  24:src/../h/KSemaphore.hpp ****     void signal() { if (val++ < 0) deblock(); }
 1529              		.loc 4 24 28
 1530 04d0 2320F500 		sw	a5,0(a0)
  24:src/../h/KSemaphore.hpp ****     void signal() { if (val++ < 0) deblock(); }
 1531              		.loc 4 24 19
 1532 04d4 13970702 		slli	a4,a5,32
 1533 04d8 63480700 		bltz	a4,.L68
 1534              	.LVL86:
 1535              	.L28:
 1536              	.LBE262:
 1537              	.LBE261:
 159:src/KRiscv.cpp ****             w_sstatus(sstatus);
 1538              		.loc 1 159 13 is_stmt 1
 1539              	.LBB264:
 1540              	.LBB265:
 127:src/../h/KRiscv.hpp **** }
 1541              		.loc 2 127 5
 127:src/../h/KRiscv.hpp **** }
 1542              		.loc 2 127 54 is_stmt 0
 1543              	#APP
 1544              	# 127 "src/../h/KRiscv.hpp" 1
 1545              		csrw sstatus, s2
 1546              	# 0 "" 2
 1547              	.LVL87:
 1548              	#NO_APP
 1549              	.LBE265:
 1550              	.LBE264:
 160:src/KRiscv.cpp ****             w_sepc(sepc);
 1551              		.loc 1 160 13 is_stmt 1
 1552              	.LBB266:
 1553              	.LBB267:
  71:src/../h/KRiscv.hpp **** }
 1554              		.loc 2 71 5
  71:src/../h/KRiscv.hpp **** }
 1555              		.loc 2 71 48 is_stmt 0
 1556              	#APP
 1557              	# 71 "src/../h/KRiscv.hpp" 1
  72:src/../h/KRiscv.hpp **** 
 1558              		csrw sepc, s1
 1559              	# 0 "" 2
 1560              		.loc 2 72 1
 1561              	#NO_APP
 1562 04e4 6FF05FBA 		j	.L3
 1563              	.LVL88:
 1564              	.L68:
 1565              	.LBE267:
 1566              	.LBE266:
 1567              	.LBB268:
 1568              	.LBB263:
  24:src/../h/KSemaphore.hpp ****     void signal() { if (val++ < 0) deblock(); }
 1569              		.loc 4 24 33 is_stmt 1
  24:src/../h/KSemaphore.hpp ****     void signal() { if (val++ < 0) deblock(); }
 1570              		.loc 4 24 38 is_stmt 0
 1571 04e8 97000000 		call	_ZN10KSemaphore5blockEv@plt
GAS LISTING /tmp/ccwcDOjU.s 			page 43


 1571      E7800000 
 1572              	.LVL89:
 1573 04f0 6FF0DFFE 		j	.L28
 1574              	.LVL90:
 1575              	.L64:
 1576              	.LBE263:
 1577              	.LBE268:
 1578              	.LBE256:
 1579              	.LBB269:
 1580              	.LBB243:
 163:src/KRiscv.cpp ****             KSemaphore* rucka = nullptr;
 1581              		.loc 1 163 13 is_stmt 1
 164:src/KRiscv.cpp ****             asm volatile("ld a1, 11*8(%0)" :: "r"(framePointer));
 1582              		.loc 1 164 13
 164:src/KRiscv.cpp ****             asm volatile("ld a1, 11*8(%0)" :: "r"(framePointer));
 1583              		.loc 1 164 65 is_stmt 0
 1584 04f4 97070000 		la	a5,framePointer
 1584      83B70700 
 1585              	.LVL91:
 1586 04fc 83B70700 		ld	a5,0(a5)
 1587              	#APP
 1588              	# 164 "src/KRiscv.cpp" 1
 165:src/KRiscv.cpp ****             asm volatile("mv %0, a1" : "=r"(rucka));
 1589              		ld a1, 11*8(a5)
 1590              	# 0 "" 2
 1591              		.loc 1 165 13 is_stmt 1
 165:src/KRiscv.cpp ****             asm volatile("mv %0, a1" : "=r"(rucka));
 1592              		.loc 1 165 52 is_stmt 0
 1593              	# 165 "src/KRiscv.cpp" 1
 1594              		mv a0, a1
 1595              	# 0 "" 2
 1596              	.LVL92:
 166:src/KRiscv.cpp ****             if (rucka) rucka->signal();
 1597              		.loc 1 166 13 is_stmt 1
 1598              	#NO_APP
 1599 0508 630A0500 		beqz	a0,.L30
 166:src/KRiscv.cpp ****             if (rucka) rucka->signal();
 1600              		.loc 1 166 24
 1601              	.LVL93:
 1602              	.LBB244:
 1603              	.LBB245:
  25:src/../h/KSemaphore.hpp ****     int value() const { return val; }
 1604              		.loc 4 25 21
  25:src/../h/KSemaphore.hpp ****     int value() const { return val; }
 1605              		.loc 4 25 25 is_stmt 0
 1606 050c 83270500 		lw	a5,0(a0)
  25:src/../h/KSemaphore.hpp ****     int value() const { return val; }
 1607              		.loc 4 25 28
 1608 0510 1B871700 		addiw	a4,a5,1
 1609 0514 2320E500 		sw	a4,0(a0)
  25:src/../h/KSemaphore.hpp ****     int value() const { return val; }
 1610              		.loc 4 25 21
 1611 0518 63CE0700 		bltz	a5,.L69
 1612              	.LVL94:
 1613              	.L30:
 1614              	.LBE245:
 1615              	.LBE244:
GAS LISTING /tmp/ccwcDOjU.s 			page 44


 167:src/KRiscv.cpp ****             KRiscv::w_sepc(KRiscv::r_sepc() + 4);
 1616              		.loc 1 167 13 is_stmt 1
 1617              	.LBB247:
 1618              	.LBB248:
  65:src/../h/KRiscv.hpp ****     asm volatile ("csrr %0, sepc" : "=r"(sepc));
 1619              		.loc 2 65 5
  66:src/../h/KRiscv.hpp ****     return sepc;
 1620              		.loc 2 66 5
  66:src/../h/KRiscv.hpp ****     return sepc;
 1621              		.loc 2 66 48 is_stmt 0
 1622              	#APP
 1623              	# 66 "src/../h/KRiscv.hpp" 1
 1624              		csrr a5, sepc
 1625              	# 0 "" 2
 1626              	#NO_APP
 1627 0520 2338F4F8 		sd	a5,-112(s0)
  67:src/../h/KRiscv.hpp **** }
 1628              		.loc 2 67 5 is_stmt 1
  67:src/../h/KRiscv.hpp **** }
 1629              		.loc 2 67 12 is_stmt 0
 1630 0524 833704F9 		ld	a5,-112(s0)
 1631              	.LBE248:
 1632              	.LBE247:
 167:src/KRiscv.cpp ****             KRiscv::w_sepc(KRiscv::r_sepc() + 4);
 1633              		.loc 1 167 27
 1634 0528 93874700 		addi	a5,a5,4
 1635              	.LVL95:
 1636              	.LBB249:
 1637              	.LBB250:
  71:src/../h/KRiscv.hpp **** }
 1638              		.loc 2 71 5 is_stmt 1
  71:src/../h/KRiscv.hpp **** }
 1639              		.loc 2 71 48 is_stmt 0
 1640              	#APP
 1641              	# 71 "src/../h/KRiscv.hpp" 1
  72:src/../h/KRiscv.hpp **** 
 1642              		csrw sepc, a5
 1643              	# 0 "" 2
 1644              		.loc 2 72 1
 1645              	#NO_APP
 1646 0530 6FF09FB5 		j	.L3
 1647              	.LVL96:
 1648              	.L69:
 1649              	.LBE250:
 1650              	.LBE249:
 1651              	.LBB251:
 1652              	.LBB246:
  25:src/../h/KSemaphore.hpp ****     int value() const { return val; }
 1653              		.loc 4 25 36 is_stmt 1
  25:src/../h/KSemaphore.hpp ****     int value() const { return val; }
 1654              		.loc 4 25 43 is_stmt 0
 1655 0534 97000000 		call	_ZN10KSemaphore7deblockEv@plt
 1655      E7800000 
 1656              	.LVL97:
 1657 053c 6FF01FFE 		j	.L30
 1658              	.LVL98:
 1659              	.L65:
GAS LISTING /tmp/ccwcDOjU.s 			page 45


 1660              	.LBE246:
 1661              	.LBE251:
 1662              	.LBE243:
 1663              	.LBB252:
 1664              	.LBB231:
 170:src/KRiscv.cpp ****             time_t t;
 1665              		.loc 1 170 13 is_stmt 1
 171:src/KRiscv.cpp ****             asm volatile("ld a1, 11*8(%0)" :: "r"(framePointer));
 1666              		.loc 1 171 13
 171:src/KRiscv.cpp ****             asm volatile("ld a1, 11*8(%0)" :: "r"(framePointer));
 1667              		.loc 1 171 65 is_stmt 0
 1668 0540 97070000 		la	a5,framePointer
 1668      83B70700 
 1669              	.LVL99:
 1670 0548 83B70700 		ld	a5,0(a5)
 1671              	#APP
 1672              	# 171 "src/KRiscv.cpp" 1
 172:src/KRiscv.cpp ****             asm volatile("mv %0, a1" : "=r"(t));
 1673              		ld a1, 11*8(a5)
 1674              	# 0 "" 2
 1675              		.loc 1 172 13 is_stmt 1
 172:src/KRiscv.cpp ****             asm volatile("mv %0, a1" : "=r"(t));
 1676              		.loc 1 172 48 is_stmt 0
 1677              	# 172 "src/KRiscv.cpp" 1
 1678              		mv a0, a1
 1679              	# 0 "" 2
 1680              	.LVL100:
 173:src/KRiscv.cpp ****             KSleep::add(t);
 1681              		.loc 1 173 13 is_stmt 1
 173:src/KRiscv.cpp ****             KSleep::add(t);
 1682              		.loc 1 173 24 is_stmt 0
 1683              	#NO_APP
 1684 0554 97000000 		call	_ZN6KSleep3addEm@plt
 1684      E7800000 
 1685              	.LVL101:
 174:src/KRiscv.cpp ****             uint64 sepc = KRiscv::r_sepc() + 4;
 1686              		.loc 1 174 13 is_stmt 1
 1687              	.LBB232:
 1688              	.LBB233:
  65:src/../h/KRiscv.hpp ****     asm volatile ("csrr %0, sepc" : "=r"(sepc));
 1689              		.loc 2 65 5
  66:src/../h/KRiscv.hpp ****     return sepc;
 1690              		.loc 2 66 5
  66:src/../h/KRiscv.hpp ****     return sepc;
 1691              		.loc 2 66 48 is_stmt 0
 1692              	#APP
 1693              	# 66 "src/../h/KRiscv.hpp" 1
 1694              		csrr a5, sepc
 1695              	# 0 "" 2
 1696              	#NO_APP
 1697 0560 2330F4FA 		sd	a5,-96(s0)
  67:src/../h/KRiscv.hpp **** }
 1698              		.loc 2 67 5 is_stmt 1
  67:src/../h/KRiscv.hpp **** }
 1699              		.loc 2 67 12 is_stmt 0
 1700 0564 833404FA 		ld	s1,-96(s0)
 1701              	.LBE233:
GAS LISTING /tmp/ccwcDOjU.s 			page 46


 1702              	.LBE232:
 174:src/KRiscv.cpp ****             uint64 sepc = KRiscv::r_sepc() + 4;
 1703              		.loc 1 174 46
 1704 0568 93844400 		addi	s1,s1,4
 1705              	.LVL102:
 175:src/KRiscv.cpp ****             uint64 sstatus = KRiscv::r_sstatus();
 1706              		.loc 1 175 13 is_stmt 1
 1707              	.LBB234:
 1708              	.LBB235:
 121:src/../h/KRiscv.hpp ****     asm volatile ("csrr %0, sstatus" : "=r"(sstatus));
 1709              		.loc 2 121 5
 122:src/../h/KRiscv.hpp ****     return sstatus;
 1710              		.loc 2 122 5
 122:src/../h/KRiscv.hpp ****     return sstatus;
 1711              		.loc 2 122 54 is_stmt 0
 1712              	#APP
 1713              	# 122 "src/../h/KRiscv.hpp" 1
 1714              		csrr a5, sstatus
 1715              	# 0 "" 2
 1716              	#NO_APP
 1717 0570 233CF4F8 		sd	a5,-104(s0)
 123:src/../h/KRiscv.hpp **** }
 1718              		.loc 2 123 5 is_stmt 1
 123:src/../h/KRiscv.hpp **** }
 1719              		.loc 2 123 12 is_stmt 0
 1720 0574 033984F9 		ld	s2,-104(s0)
 1721              	.LVL103:
 1722              	.LBE235:
 1723              	.LBE234:
 176:src/KRiscv.cpp ****             KPCB::dispatch();
 1724              		.loc 1 176 13 is_stmt 1
 176:src/KRiscv.cpp ****             KPCB::dispatch();
 1725              		.loc 1 176 27 is_stmt 0
 1726 0578 97000000 		call	_ZN4KPCB8dispatchEv@plt
 1726      E7800000 
 1727              	.LVL104:
 177:src/KRiscv.cpp ****             KRiscv::w_sstatus(sstatus);
 1728              		.loc 1 177 13 is_stmt 1
 1729              	.LBB236:
 1730              	.LBB237:
 127:src/../h/KRiscv.hpp **** }
 1731              		.loc 2 127 5
 127:src/../h/KRiscv.hpp **** }
 1732              		.loc 2 127 54 is_stmt 0
 1733              	#APP
 1734              	# 127 "src/../h/KRiscv.hpp" 1
 1735              		csrw sstatus, s2
 1736              	# 0 "" 2
 1737              	.LVL105:
 1738              	#NO_APP
 1739              	.LBE237:
 1740              	.LBE236:
 178:src/KRiscv.cpp ****             KRiscv::w_sepc(sepc);
 1741              		.loc 1 178 13 is_stmt 1
 1742              	.LBB238:
 1743              	.LBB239:
  71:src/../h/KRiscv.hpp **** }
GAS LISTING /tmp/ccwcDOjU.s 			page 47


 1744              		.loc 2 71 5
  71:src/../h/KRiscv.hpp **** }
 1745              		.loc 2 71 48 is_stmt 0
 1746              	#APP
 1747              	# 71 "src/../h/KRiscv.hpp" 1
  72:src/../h/KRiscv.hpp **** 
 1748              		csrw sepc, s1
 1749              	# 0 "" 2
 1750              		.loc 2 72 1
 1751              	#NO_APP
 1752 0588 6FF01FB0 		j	.L3
 1753              	.LVL106:
 1754              	.L66:
 1755              	.LBE239:
 1756              	.LBE238:
 1757              	.LBE231:
 1758              	.LBB240:
 1759              	.LBB220:
 181:src/KRiscv.cpp ****             uint64 sepc = KRiscv::r_sepc() + 4;
 1760              		.loc 1 181 13 is_stmt 1
 1761              	.LBB221:
 1762              	.LBB222:
  65:src/../h/KRiscv.hpp ****     asm volatile ("csrr %0, sepc" : "=r"(sepc));
 1763              		.loc 2 65 5
  66:src/../h/KRiscv.hpp ****     return sepc;
 1764              		.loc 2 66 5
  66:src/../h/KRiscv.hpp ****     return sepc;
 1765              		.loc 2 66 48 is_stmt 0
 1766              	#APP
 1767              	# 66 "src/../h/KRiscv.hpp" 1
 1768              		csrr a5, sepc
 1769              	# 0 "" 2
 1770              	.LVL107:
 1771              	#NO_APP
 1772 0590 2338F4FA 		sd	a5,-80(s0)
  67:src/../h/KRiscv.hpp **** }
 1773              		.loc 2 67 5 is_stmt 1
  67:src/../h/KRiscv.hpp **** }
 1774              		.loc 2 67 12 is_stmt 0
 1775 0594 833404FB 		ld	s1,-80(s0)
 1776              	.LBE222:
 1777              	.LBE221:
 181:src/KRiscv.cpp ****             uint64 sepc = KRiscv::r_sepc() + 4;
 1778              		.loc 1 181 46
 1779 0598 93844400 		addi	s1,s1,4
 1780              	.LVL108:
 182:src/KRiscv.cpp ****             uint64 sstatus = KRiscv::r_sstatus();
 1781              		.loc 1 182 13 is_stmt 1
 1782              	.LBB223:
 1783              	.LBB224:
 121:src/../h/KRiscv.hpp ****     asm volatile ("csrr %0, sstatus" : "=r"(sstatus));
 1784              		.loc 2 121 5
 122:src/../h/KRiscv.hpp ****     return sstatus;
 1785              		.loc 2 122 5
 122:src/../h/KRiscv.hpp ****     return sstatus;
 1786              		.loc 2 122 54 is_stmt 0
 1787              	#APP
GAS LISTING /tmp/ccwcDOjU.s 			page 48


 1788              	# 122 "src/../h/KRiscv.hpp" 1
 1789              		csrr a5, sstatus
 1790              	# 0 "" 2
 1791              	#NO_APP
 1792 05a0 2334F4FA 		sd	a5,-88(s0)
 123:src/../h/KRiscv.hpp **** }
 1793              		.loc 2 123 5 is_stmt 1
 123:src/../h/KRiscv.hpp **** }
 1794              		.loc 2 123 12 is_stmt 0
 1795 05a4 033984FA 		ld	s2,-88(s0)
 1796              	.LVL109:
 1797              	.LBE224:
 1798              	.LBE223:
 183:src/KRiscv.cpp ****             char c = KConsole::inBuff->get();
 1799              		.loc 1 183 13 is_stmt 1
 183:src/KRiscv.cpp ****             char c = KConsole::inBuff->get();
 1800              		.loc 1 183 43 is_stmt 0
 1801 05a8 97070000 		la	a5,_ZN8KConsole6inBuffE
 1801      83B70700 
 1802 05b0 03B50700 		ld	a0,0(a5)
 1803 05b4 97000000 		call	_ZN8KConsole3getEv@plt
 1803      E7800000 
 1804              	.LVL110:
 184:src/KRiscv.cpp ****             cGlob = c;
 1805              		.loc 1 184 13 is_stmt 1
 184:src/KRiscv.cpp ****             cGlob = c;
 1806              		.loc 1 184 19 is_stmt 0
 1807 05bc 97070000 		la	a5,cGlob
 1807      83B70700 
 1808 05c4 2380A700 		sb	a0,0(a5)
 185:src/KRiscv.cpp ****             KRiscv::w_sstatus(sstatus);
 1809              		.loc 1 185 13 is_stmt 1
 1810              	.LVL111:
 1811              	.LBB225:
 1812              	.LBB226:
 127:src/../h/KRiscv.hpp **** }
 1813              		.loc 2 127 5
 127:src/../h/KRiscv.hpp **** }
 1814              		.loc 2 127 54 is_stmt 0
 1815              	#APP
 1816              	# 127 "src/../h/KRiscv.hpp" 1
 1817              		csrw sstatus, s2
 1818              	# 0 "" 2
 1819              	.LVL112:
 1820              	#NO_APP
 1821              	.LBE226:
 1822              	.LBE225:
 186:src/KRiscv.cpp ****             KRiscv::w_sepc(sepc);
 1823              		.loc 1 186 13 is_stmt 1
 1824              	.LBB227:
 1825              	.LBB228:
  71:src/../h/KRiscv.hpp **** }
 1826              		.loc 2 71 5
  71:src/../h/KRiscv.hpp **** }
 1827              		.loc 2 71 48 is_stmt 0
 1828              	#APP
 1829              	# 71 "src/../h/KRiscv.hpp" 1
GAS LISTING /tmp/ccwcDOjU.s 			page 49


  72:src/../h/KRiscv.hpp **** 
 1830              		csrw sepc, s1
 1831              	# 0 "" 2
 1832              		.loc 2 72 1
 1833              	#NO_APP
 1834 05d0 6FF09FAB 		j	.L3
 1835              	.LVL113:
 1836              	.L67:
 1837              	.LBE228:
 1838              	.LBE227:
 1839              	.LBE220:
 1840              	.LBB229:
 1841              	.LBB207:
 189:src/KRiscv.cpp ****             char c;
 1842              		.loc 1 189 13 is_stmt 1
 190:src/KRiscv.cpp ****             asm volatile("ld a1, 11*8(%0)" :: "r"(framePointer));
 1843              		.loc 1 190 13
 190:src/KRiscv.cpp ****             asm volatile("ld a1, 11*8(%0)" :: "r"(framePointer));
 1844              		.loc 1 190 65 is_stmt 0
 1845 05d4 97070000 		la	a5,framePointer
 1845      83B70700 
 1846              	.LVL114:
 1847 05dc 83B70700 		ld	a5,0(a5)
 1848              	#APP
 1849              	# 190 "src/KRiscv.cpp" 1
 191:src/KRiscv.cpp ****             asm volatile("mv %0, a1" : "=r"(c));
 1850              		ld a1, 11*8(a5)
 1851              	# 0 "" 2
 1852              		.loc 1 191 13 is_stmt 1
 191:src/KRiscv.cpp ****             asm volatile("mv %0, a1" : "=r"(c));
 1853              		.loc 1 191 48 is_stmt 0
 1854              	# 191 "src/KRiscv.cpp" 1
 1855              		mv a1, a1
 1856              	# 0 "" 2
 1857              	#NO_APP
 1858 05e8 93F5F50F 		andi	a1,a1,0xff
 1859              	.LVL115:
 192:src/KRiscv.cpp ****             uint64 sepc = KRiscv::r_sepc() + 4;
 1860              		.loc 1 192 13 is_stmt 1
 1861              	.LBB208:
 1862              	.LBB209:
  65:src/../h/KRiscv.hpp ****     asm volatile ("csrr %0, sepc" : "=r"(sepc));
 1863              		.loc 2 65 5
  66:src/../h/KRiscv.hpp ****     return sepc;
 1864              		.loc 2 66 5
  66:src/../h/KRiscv.hpp ****     return sepc;
 1865              		.loc 2 66 48 is_stmt 0
 1866              	#APP
 1867              	# 66 "src/../h/KRiscv.hpp" 1
 1868              		csrr a5, sepc
 1869              	# 0 "" 2
 1870              	#NO_APP
 1871 05f0 2330F4FC 		sd	a5,-64(s0)
  67:src/../h/KRiscv.hpp **** }
 1872              		.loc 2 67 5 is_stmt 1
  67:src/../h/KRiscv.hpp **** }
 1873              		.loc 2 67 12 is_stmt 0
GAS LISTING /tmp/ccwcDOjU.s 			page 50


 1874 05f4 833404FC 		ld	s1,-64(s0)
 1875              	.LBE209:
 1876              	.LBE208:
 192:src/KRiscv.cpp ****             uint64 sepc = KRiscv::r_sepc() + 4;
 1877              		.loc 1 192 46
 1878 05f8 93844400 		addi	s1,s1,4
 1879              	.LVL116:
 193:src/KRiscv.cpp ****             uint64 sstatus = KRiscv::r_sstatus();
 1880              		.loc 1 193 13 is_stmt 1
 1881              	.LBB210:
 1882              	.LBB211:
 121:src/../h/KRiscv.hpp ****     asm volatile ("csrr %0, sstatus" : "=r"(sstatus));
 1883              		.loc 2 121 5
 122:src/../h/KRiscv.hpp ****     return sstatus;
 1884              		.loc 2 122 5
 122:src/../h/KRiscv.hpp ****     return sstatus;
 1885              		.loc 2 122 54 is_stmt 0
 1886              	#APP
 1887              	# 122 "src/../h/KRiscv.hpp" 1
 1888              		csrr a5, sstatus
 1889              	# 0 "" 2
 1890              	#NO_APP
 1891 0600 233CF4FA 		sd	a5,-72(s0)
 123:src/../h/KRiscv.hpp **** }
 1892              		.loc 2 123 5 is_stmt 1
 123:src/../h/KRiscv.hpp **** }
 1893              		.loc 2 123 12 is_stmt 0
 1894 0604 033984FB 		ld	s2,-72(s0)
 1895              	.LVL117:
 1896              	.LBE211:
 1897              	.LBE210:
 194:src/KRiscv.cpp ****             KConsole::outBuff->put(c);
 1898              		.loc 1 194 13 is_stmt 1
 194:src/KRiscv.cpp ****             KConsole::outBuff->put(c);
 1899              		.loc 1 194 35 is_stmt 0
 1900 0608 97070000 		la	a5,_ZN8KConsole7outBuffE
 1900      83B70700 
 1901 0610 03B50700 		ld	a0,0(a5)
 1902 0614 97000000 		call	_ZN8KConsole3putEc@plt
 1902      E7800000 
 1903              	.LVL118:
 1904              	.L35:
 195:src/KRiscv.cpp ****             while ((*(char*)CONSOLE_STATUS & CONSOLE_TX_STATUS_BIT)
 1905              		.loc 1 195 13 is_stmt 1
 196:src/KRiscv.cpp ****                    && KConsole::outBuff->getCnt() > 0)
 1906              		.loc 1 196 20
 195:src/KRiscv.cpp ****             while ((*(char*)CONSOLE_STATUS & CONSOLE_TX_STATUS_BIT)
 1907              		.loc 1 195 21 is_stmt 0
 1908 061c 97070000 		la	a5,CONSOLE_STATUS
 1908      83B70700 
 1909 0624 83B70700 		ld	a5,0(a5)
 1910 0628 83C70700 		lbu	a5,0(a5)
 196:src/KRiscv.cpp ****                    && KConsole::outBuff->getCnt() > 0)
 1911              		.loc 1 196 20
 1912 062c 93F70702 		andi	a5,a5,32
 1913 0630 63820704 		beqz	a5,.L34
 196:src/KRiscv.cpp ****                    && KConsole::outBuff->getCnt() > 0)
GAS LISTING /tmp/ccwcDOjU.s 			page 51


 1914              		.loc 1 196 48 discriminator 1
 1915 0634 97070000 		la	a5,_ZN8KConsole7outBuffE
 1915      83B70700 
 1916 063c 03B50700 		ld	a0,0(a5)
 1917 0640 97000000 		call	_ZN8KConsole6getCntEv@plt
 1917      E7800000 
 1918              	.LVL119:
 196:src/KRiscv.cpp ****                    && KConsole::outBuff->getCnt() > 0)
 1919              		.loc 1 196 20 discriminator 1
 1920 0648 6356A002 		blez	a0,.L34
 197:src/KRiscv.cpp ****                 *(char*)CONSOLE_TX_DATA = KConsole::outBuff->get();
 1921              		.loc 1 197 17 is_stmt 1
 197:src/KRiscv.cpp ****                 *(char*)CONSOLE_TX_DATA = KConsole::outBuff->get();
 1922              		.loc 1 197 65 is_stmt 0
 1923 064c 97070000 		la	a5,_ZN8KConsole7outBuffE
 1923      83B70700 
 1924 0654 03B50700 		ld	a0,0(a5)
 1925 0658 97000000 		call	_ZN8KConsole3getEv@plt
 1925      E7800000 
 1926              	.LVL120:
 197:src/KRiscv.cpp ****                 *(char*)CONSOLE_TX_DATA = KConsole::outBuff->get();
 1927              		.loc 1 197 17
 1928 0660 97070000 		la	a5,CONSOLE_TX_DATA
 1928      83B70700 
 1929 0668 83B70700 		ld	a5,0(a5)
 197:src/KRiscv.cpp ****                 *(char*)CONSOLE_TX_DATA = KConsole::outBuff->get();
 1930              		.loc 1 197 41
 1931 066c 2380A700 		sb	a0,0(a5)
 195:src/KRiscv.cpp ****             while ((*(char*)CONSOLE_STATUS & CONSOLE_TX_STATUS_BIT)
 1932              		.loc 1 195 13
 1933 0670 6FF0DFFA 		j	.L35
 1934              	.L34:
 198:src/KRiscv.cpp ****             KRiscv::w_sstatus(sstatus);
 1935              		.loc 1 198 13 is_stmt 1 discriminator 4
 1936              	.LVL121:
 1937              	.LBB212:
 1938              	.LBB213:
 127:src/../h/KRiscv.hpp **** }
 1939              		.loc 2 127 5 discriminator 4
 127:src/../h/KRiscv.hpp **** }
 1940              		.loc 2 127 54 is_stmt 0 discriminator 4
 1941              	#APP
 1942              	# 127 "src/../h/KRiscv.hpp" 1
 1943              		csrw sstatus, s2
 1944              	# 0 "" 2
 1945              	.LVL122:
 1946              	#NO_APP
 1947              	.LBE213:
 1948              	.LBE212:
 199:src/KRiscv.cpp ****             KRiscv::w_sepc(sepc);
 1949              		.loc 1 199 13 is_stmt 1 discriminator 4
 1950              	.LBB214:
 1951              	.LBB215:
  71:src/../h/KRiscv.hpp **** }
 1952              		.loc 2 71 5 discriminator 4
  71:src/../h/KRiscv.hpp **** }
 1953              		.loc 2 71 48 is_stmt 0 discriminator 4
GAS LISTING /tmp/ccwcDOjU.s 			page 52


 1954              	#APP
 1955              	# 71 "src/../h/KRiscv.hpp" 1
  72:src/../h/KRiscv.hpp **** 
 1956              		csrw sepc, s1
 1957              	# 0 "" 2
 1958              		.loc 2 72 1 discriminator 4
 1959              	#NO_APP
 1960 067c 6FF0DFA0 		j	.L3
 1961              	.LVL123:
 1962              	.L36:
 1963              	.LBE215:
 1964              	.LBE214:
 1965              	.LBE207:
 205:src/KRiscv.cpp ****             KRiscv::w_sepc(KRiscv::r_sepc() + 4);
 1966              		.loc 1 205 13 is_stmt 1 discriminator 4
 1967              	.LBB216:
 1968              	.LBB217:
  65:src/../h/KRiscv.hpp ****     asm volatile ("csrr %0, sepc" : "=r"(sepc));
 1969              		.loc 2 65 5 discriminator 4
  66:src/../h/KRiscv.hpp ****     return sepc;
 1970              		.loc 2 66 5 discriminator 4
  66:src/../h/KRiscv.hpp ****     return sepc;
 1971              		.loc 2 66 48 is_stmt 0 discriminator 4
 1972              	#APP
 1973              	# 66 "src/../h/KRiscv.hpp" 1
 1974              		csrr a5, sepc
 1975              	# 0 "" 2
 1976              	#NO_APP
 1977 0684 2334F4FC 		sd	a5,-56(s0)
  67:src/../h/KRiscv.hpp **** }
 1978              		.loc 2 67 5 is_stmt 1 discriminator 4
  67:src/../h/KRiscv.hpp **** }
 1979              		.loc 2 67 12 is_stmt 0 discriminator 4
 1980 0688 833784FC 		ld	a5,-56(s0)
 1981              	.LBE217:
 1982              	.LBE216:
 205:src/KRiscv.cpp ****             KRiscv::w_sepc(KRiscv::r_sepc() + 4);
 1983              		.loc 1 205 27 discriminator 4
 1984 068c 93874700 		addi	a5,a5,4
 1985              	.LVL124:
 1986              	.LBB218:
 1987              	.LBB219:
  71:src/../h/KRiscv.hpp **** }
 1988              		.loc 2 71 5 is_stmt 1 discriminator 4
  71:src/../h/KRiscv.hpp **** }
 1989              		.loc 2 71 48 is_stmt 0 discriminator 4
 1990              	#APP
 1991              	# 71 "src/../h/KRiscv.hpp" 1
  72:src/../h/KRiscv.hpp **** 
 1992              		csrw sepc, a5
 1993              	# 0 "" 2
 1994              		.loc 2 72 1 discriminator 4
 1995              	#NO_APP
 1996 0694 6FF05F9F 		j	.L3
 1997              	.LVL125:
 1998              	.L48:
 1999              	.LBE219:
GAS LISTING /tmp/ccwcDOjU.s 			page 53


 2000              	.LBE218:
 2001              	.LBE229:
 2002              	.LBE240:
 2003              	.LBE252:
 2004              	.LBE269:
 2005              	.LBE288:
 2006              	.LBE299:
 2007              	.LBE315:
 2008              	.LBE334:
 2009              	.LBE350:
 2010              	.LBE365:
 2011              	.LBE382:
 2012              	.LBE400:
 2013              	.LBE418:
 2014              	.LBE437:
 2015              	.LBE451:
 2016              	.LBE465:
 2017              	.LBB466:
 2018              	.LBB175:
 209:src/KRiscv.cpp ****         KPCB::timeSliceCounter++;
 2019              		.loc 1 209 9 is_stmt 1
 209:src/KRiscv.cpp ****         KPCB::timeSliceCounter++;
 2020              		.loc 1 209 31 is_stmt 0
 2021 0698 97040000 		la	s1,_ZN4KPCB16timeSliceCounterE
 2021      83B40400 
 2022 06a0 83B70400 		ld	a5,0(s1)
 2023              	.LVL126:
 2024 06a4 93871700 		addi	a5,a5,1
 2025 06a8 23B0F400 		sd	a5,0(s1)
 210:src/KRiscv.cpp ****         KSleep::remove();
 2026              		.loc 1 210 9 is_stmt 1
 210:src/KRiscv.cpp ****         KSleep::remove();
 2027              		.loc 1 210 23 is_stmt 0
 2028 06ac 97000000 		call	_ZN6KSleep6removeEv@plt
 2028      E7800000 
 2029              	.LVL127:
 211:src/KRiscv.cpp ****         if (KPCB::timeSliceCounter >= KPCB::running->TIME_SLICE) {
 2030              		.loc 1 211 9 is_stmt 1
 2031              	.LBB176:
 211:src/KRiscv.cpp ****         if (KPCB::timeSliceCounter >= KPCB::running->TIME_SLICE) {
 2032              		.loc 1 211 36 is_stmt 0
 2033 06b4 03B70400 		ld	a4,0(s1)
 211:src/KRiscv.cpp ****         if (KPCB::timeSliceCounter >= KPCB::running->TIME_SLICE) {
 2034              		.loc 1 211 9
 2035 06b8 93071000 		li	a5,1
 2036 06bc 63E8E700 		bgtu	a4,a5,.L70
 2037              	.L40:
 2038              	.LBE176:
 218:src/KRiscv.cpp ****         mc_sip(SIP_SSIP);
 2039              		.loc 1 218 9 is_stmt 1
 2040              	.LVL128:
 2041              	.LBB186:
 2042              	.LBB187:
  99:src/../h/KRiscv.hpp **** }
 2043              		.loc 2 99 5
  99:src/../h/KRiscv.hpp **** }
 2044              		.loc 2 99 47 is_stmt 0
GAS LISTING /tmp/ccwcDOjU.s 			page 54


 2045 06c0 93072000 		li	a5,2
 2046              	#APP
 2047              	# 99 "src/../h/KRiscv.hpp" 1
 100:src/../h/KRiscv.hpp **** 
 2048              		csrc sip, a5
 2049              	# 0 "" 2
 2050              		.loc 2 100 1
 2051              	#NO_APP
 2052 06c8 6FF01F9C 		j	.L3
 2053              	.LVL129:
 2054              	.L70:
 2055              	.LBE187:
 2056              	.LBE186:
 2057              	.LBB188:
 2058              	.LBB177:
 212:src/KRiscv.cpp ****             uint64 sepc = r_sepc();
 2059              		.loc 1 212 13 is_stmt 1
 2060              	.LBB178:
 2061              	.LBB179:
  65:src/../h/KRiscv.hpp ****     asm volatile ("csrr %0, sepc" : "=r"(sepc));
 2062              		.loc 2 65 5
  66:src/../h/KRiscv.hpp ****     return sepc;
 2063              		.loc 2 66 5
  66:src/../h/KRiscv.hpp ****     return sepc;
 2064              		.loc 2 66 48 is_stmt 0
 2065              	#APP
 2066              	# 66 "src/../h/KRiscv.hpp" 1
 2067              		csrr a5, sepc
 2068              	# 0 "" 2
 2069              	#NO_APP
 2070 06d0 233CF4FC 		sd	a5,-40(s0)
  67:src/../h/KRiscv.hpp **** }
 2071              		.loc 2 67 5 is_stmt 1
  67:src/../h/KRiscv.hpp **** }
 2072              		.loc 2 67 12 is_stmt 0
 2073 06d4 833484FD 		ld	s1,-40(s0)
 2074              	.LVL130:
 2075              	.LBE179:
 2076              	.LBE178:
 213:src/KRiscv.cpp ****             uint64 sstatus = r_sstatus();
 2077              		.loc 1 213 13 is_stmt 1
 2078              	.LBB180:
 2079              	.LBB181:
 121:src/../h/KRiscv.hpp ****     asm volatile ("csrr %0, sstatus" : "=r"(sstatus));
 2080              		.loc 2 121 5
 122:src/../h/KRiscv.hpp ****     return sstatus;
 2081              		.loc 2 122 5
 122:src/../h/KRiscv.hpp ****     return sstatus;
 2082              		.loc 2 122 54 is_stmt 0
 2083              	#APP
 2084              	# 122 "src/../h/KRiscv.hpp" 1
 2085              		csrr a5, sstatus
 2086              	# 0 "" 2
 2087              	#NO_APP
 2088 06dc 2338F4FC 		sd	a5,-48(s0)
 123:src/../h/KRiscv.hpp **** }
 2089              		.loc 2 123 5 is_stmt 1
GAS LISTING /tmp/ccwcDOjU.s 			page 55


 123:src/../h/KRiscv.hpp **** }
 2090              		.loc 2 123 12 is_stmt 0
 2091 06e0 033904FD 		ld	s2,-48(s0)
 2092              	.LVL131:
 2093              	.LBE181:
 2094              	.LBE180:
 214:src/KRiscv.cpp ****             KPCB::dispatch();
 2095              		.loc 1 214 13 is_stmt 1
 214:src/KRiscv.cpp ****             KPCB::dispatch();
 2096              		.loc 1 214 27 is_stmt 0
 2097 06e4 97000000 		call	_ZN4KPCB8dispatchEv@plt
 2097      E7800000 
 2098              	.LVL132:
 215:src/KRiscv.cpp ****             w_sstatus(sstatus);
 2099              		.loc 1 215 13 is_stmt 1
 2100              	.LBB182:
 2101              	.LBB183:
 127:src/../h/KRiscv.hpp **** }
 2102              		.loc 2 127 5
 127:src/../h/KRiscv.hpp **** }
 2103              		.loc 2 127 54 is_stmt 0
 2104              	#APP
 2105              	# 127 "src/../h/KRiscv.hpp" 1
 2106              		csrw sstatus, s2
 2107              	# 0 "" 2
 2108              	.LVL133:
 2109              	#NO_APP
 2110              	.LBE183:
 2111              	.LBE182:
 216:src/KRiscv.cpp ****             w_sepc(sepc);
 2112              		.loc 1 216 13 is_stmt 1
 2113              	.LBB184:
 2114              	.LBB185:
  71:src/../h/KRiscv.hpp **** }
 2115              		.loc 2 71 5
  71:src/../h/KRiscv.hpp **** }
 2116              		.loc 2 71 48 is_stmt 0
 2117              	#APP
 2118              	# 71 "src/../h/KRiscv.hpp" 1
  72:src/../h/KRiscv.hpp **** 
 2119              		csrw sepc, s1
 2120              	# 0 "" 2
 2121              		.loc 2 72 1
 2122              	#NO_APP
 2123 06f4 6FF0DFFC 		j	.L40
 2124              	.LVL134:
 2125              	.L49:
 2126              	.LBE185:
 2127              	.LBE184:
 2128              	.LBE177:
 2129              	.LBE188:
 2130              	.LBE175:
 2131              	.LBB189:
 2132              	.LBB173:
 222:src/KRiscv.cpp ****         int consID = plic_claim();
 2133              		.loc 1 222 9 is_stmt 1
 222:src/KRiscv.cpp ****         int consID = plic_claim();
GAS LISTING /tmp/ccwcDOjU.s 			page 56


 2134              		.loc 1 222 32 is_stmt 0
 2135 06f8 97000000 		call	plic_claim@plt
 2135      E7800000 
 2136              	.LVL135:
 2137 0700 93040500 		mv	s1,a0
 2138              	.LVL136:
 223:src/KRiscv.cpp ****         if (consID == CONSOLE_IRQ) {
 2139              		.loc 1 223 9 is_stmt 1
 2140 0704 9307A000 		li	a5,10
 2141 0708 630AF500 		beq	a0,a5,.L43
 2142              	.LVL137:
 2143              	.L42:
 228:src/KRiscv.cpp ****         plic_complete(consID);
 2144              		.loc 1 228 9
 228:src/KRiscv.cpp ****         plic_complete(consID);
 2145              		.loc 1 228 22 is_stmt 0
 2146 070c 13850400 		mv	a0,s1
 2147 0710 97000000 		call	plic_complete@plt
 2147      E7800000 
 2148              	.LVL138:
 2149              	.LBE173:
 2150 0718 6FF01F97 		j	.L3
 2151              	.L43:
 2152              	.LBB174:
 224:src/KRiscv.cpp ****             while ((*(char*)CONSOLE_STATUS & CONSOLE_RX_STATUS_BIT)
 2153              		.loc 1 224 13 is_stmt 1
 225:src/KRiscv.cpp ****                 && KConsole::inBuff->getCnt() < KConsole::BUFF_SIZE)
 2154              		.loc 1 225 17
 224:src/KRiscv.cpp ****             while ((*(char*)CONSOLE_STATUS & CONSOLE_RX_STATUS_BIT)
 2155              		.loc 1 224 21 is_stmt 0
 2156 071c 97070000 		la	a5,CONSOLE_STATUS
 2156      83B70700 
 2157 0724 83B70700 		ld	a5,0(a5)
 2158 0728 83C70700 		lbu	a5,0(a5)
 225:src/KRiscv.cpp ****                 && KConsole::inBuff->getCnt() < KConsole::BUFF_SIZE)
 2159              		.loc 1 225 17
 2160 072c 93F71700 		andi	a5,a5,1
 2161 0730 E38E07FC 		beqz	a5,.L42
 225:src/KRiscv.cpp ****                 && KConsole::inBuff->getCnt() < KConsole::BUFF_SIZE)
 2162              		.loc 1 225 44 discriminator 1
 2163 0734 97070000 		la	a5,_ZN8KConsole6inBuffE
 2163      83B70700 
 2164 073c 03B50700 		ld	a0,0(a5)
 2165 0740 97000000 		call	_ZN8KConsole6getCntEv@plt
 2165      E7800000 
 2166              	.LVL139:
 225:src/KRiscv.cpp ****                 && KConsole::inBuff->getCnt() < KConsole::BUFF_SIZE)
 2167              		.loc 1 225 17 discriminator 1
 2168 0748 9307F03F 		li	a5,1023
 2169 074c E3C0A7FC 		bgt	a0,a5,.L42
 226:src/KRiscv.cpp ****                 KConsole::inBuff->put(*(char*)CONSOLE_RX_DATA);
 2170              		.loc 1 226 17 is_stmt 1
 226:src/KRiscv.cpp ****                 KConsole::inBuff->put(*(char*)CONSOLE_RX_DATA);
 2171              		.loc 1 226 38 is_stmt 0
 2172 0750 97070000 		la	a5,CONSOLE_RX_DATA
 2172      83B70700 
 2173 0758 83B70700 		ld	a5,0(a5)
GAS LISTING /tmp/ccwcDOjU.s 			page 57


 2174 075c 83C50700 		lbu	a1,0(a5)
 2175 0760 97070000 		la	a5,_ZN8KConsole6inBuffE
 2175      83B70700 
 2176 0768 03B50700 		ld	a0,0(a5)
 2177 076c 97000000 		call	_ZN8KConsole3putEc@plt
 2177      E7800000 
 2178              	.LVL140:
 224:src/KRiscv.cpp ****             while ((*(char*)CONSOLE_STATUS & CONSOLE_RX_STATUS_BIT)
 2179              		.loc 1 224 13
 2180 0774 6FF09FFA 		j	.L43
 2181              	.LVL141:
 2182              	.L50:
 2183              	.LBE174:
 231:src/KRiscv.cpp ****         printString("Error: read\n");
 2184              		.loc 1 231 9 is_stmt 1
 231:src/KRiscv.cpp ****         printString("Error: read\n");
 2185              		.loc 1 231 20 is_stmt 0
 2186 0778 17050000 		lla	a0,.LC0
 2186      13050500 
 2187 0780 97000000 		call	_Z11printStringPKc@plt
 2187      E7800000 
 2188              	.LVL142:
 2189 0788 6FF01F90 		j	.L3
 2190              	.LVL143:
 2191              	.L51:
 239:src/KRiscv.cpp ****         printString("Error: write\n");
 2192              		.loc 1 239 9 is_stmt 1
 239:src/KRiscv.cpp ****         printString("Error: write\n");
 2193              		.loc 1 239 20 is_stmt 0
 2194 078c 17050000 		lla	a0,.LC1
 2194      13050500 
 2195 0794 97000000 		call	_Z11printStringPKc@plt
 2195      E7800000 
 2196              	.LVL144:
 2197 079c 6FF0DF8E 		j	.L3
 2198              	.LVL145:
 2199              	.L52:
 247:src/KRiscv.cpp ****         printString("Error: illegal\n");
 2200              		.loc 1 247 9 is_stmt 1
 247:src/KRiscv.cpp ****         printString("Error: illegal\n");
 2201              		.loc 1 247 20 is_stmt 0
 2202 07a0 17050000 		lla	a0,.LC2
 2202      13050500 
 2203 07a8 97000000 		call	_Z11printStringPKc@plt
 2203      E7800000 
 2204              	.LVL146:
 2205              	.LEHE1:
 2206              	.LBE189:
 2207              	.LBE466:
 2208              	.LBE483:
 2209              		.loc 1 255 1
 2210 07b0 6FF09F8D 		j	.L3
 2211              		.cfi_endproc
 2212              	.LFE51:
 2213              		.globl	__gxx_personality_v0
 2214              		.section	.gcc_except_table,"a",@progbits
 2215              	.LLSDA51:
GAS LISTING /tmp/ccwcDOjU.s 			page 58


 2216 0000 FF       		.byte	0xff
 2217 0001 FF       		.byte	0xff
 2218 0002 03       		.byte	0x3
 2219 0003 1A       		.byte	0x1a
 2220 0004 00000000 		.4byte	.LEHB0-.LFB51
 2221 0008 00000000 		.4byte	.LEHE0-.LEHB0
 2222 000c 00000000 		.4byte	0
 2223 0010 00       		.byte	0
 2224 0011 00000000 		.4byte	.LEHB1-.LFB51
 2225 0015 00000000 		.4byte	.LEHE1-.LEHB1
 2226 0019 00000000 		.4byte	0
 2227 001d 00       		.byte	0
 2228              		.text
 2230              	.Letext0:
 2231              		.file 5 "src/../h/../lib/hw.h"
 2232              		.file 6 "src/../h/KMemoryAllocator.hpp"
 2233              		.file 7 "src/../h/KScheduler.hpp"
 2234              		.file 8 "src/../h/KSleep.hpp"
 2235              		.file 9 "src/../h/KConsole.hpp"
 2236              		.file 10 "src/../test/../h/syscall_c.hpp"
 2237              		.file 11 "src/../test/printing.hpp"
 7979              		.align	3
 7982              	DW.ref.__gxx_personality_v0:
 7983 0000 00000000 		.dword	__gxx_personality_v0
 7983      00000000 
 7984              		.ident	"GCC: (Ubuntu 9.4.0-1ubuntu1~20.04) 9.4.0"
 7985              		.section	.note.GNU-stack,"",@progbits
GAS LISTING /tmp/ccwcDOjU.s 			page 59


DEFINED SYMBOLS
                            *ABS*:0000000000000000 KRiscv.cpp
     /tmp/ccwcDOjU.s:9      .text:0000000000000000 _ZN6KRiscv10popSppSpieEv
     /tmp/ccwcDOjU.s:13     .text:0000000000000000 .L0 
     /tmp/ccwcDOjU.s:14     .text:0000000000000000 .L0 
     /tmp/ccwcDOjU.s:15     .text:0000000000000004 .L0 
     /tmp/ccwcDOjU.s:17     .text:0000000000000008 .L0 
     /tmp/ccwcDOjU.s:19     .text:000000000000000c .L0 
     /tmp/ccwcDOjU.s:21     .text:000000000000000c .L0 
      src/KRiscv.cpp:41     .text:000000000000000c .L0 
     /tmp/ccwcDOjU.s:27     .text:0000000000000010 .L0 
      src/KRiscv.cpp:42     .text:0000000000000010 .L0 
     /tmp/ccwcDOjU.s:33     .text:0000000000000014 .L0 
     /tmp/ccwcDOjU.s:34     .text:0000000000000018 .L0 
     /tmp/ccwcDOjU.s:35     .text:0000000000000018 .L0 
     /tmp/ccwcDOjU.s:37     .text:000000000000001c .L0 
     /tmp/ccwcDOjU.s:39     .text:0000000000000020 .L0 
     /tmp/ccwcDOjU.s:56     .text:0000000000000020 _ZN6KRiscv16interruptHandlerEv
     /tmp/ccwcDOjU.s:59     .text:0000000000000020 .L0 
     /tmp/ccwcDOjU.s:7982   .data.rel.local.DW.ref.__gxx_personality_v0:0000000000000000 DW.ref.__gxx_personality_v0
     /tmp/ccwcDOjU.s:62     .text:0000000000000020 .L0 
     /tmp/ccwcDOjU.s:63     .text:0000000000000024 .L0 
     /tmp/ccwcDOjU.s:68     .text:0000000000000034 .L0 
     /tmp/ccwcDOjU.s:69     .text:0000000000000034 .L0 
     /tmp/ccwcDOjU.s:70     .text:0000000000000034 .L0 
     /tmp/ccwcDOjU.s:71     .text:0000000000000034 .L0 
     /tmp/ccwcDOjU.s:73     .text:0000000000000038 .L0 
     /tmp/ccwcDOjU.s:78     .text:0000000000000038 .L0 
     /tmp/ccwcDOjU.s:79     .text:0000000000000038 .L0 
     /tmp/ccwcDOjU.s:80     .text:0000000000000038 .L0 
 src/../h/KRiscv.hpp:56     .text:0000000000000038 .L0 
     /tmp/ccwcDOjU.s:88     .text:0000000000000040 .L0 
     /tmp/ccwcDOjU.s:89     .text:0000000000000040 .L0 
     /tmp/ccwcDOjU.s:95     .text:0000000000000044 .L0 
     /tmp/ccwcDOjU.s:96     .text:0000000000000044 .L0 
     /tmp/ccwcDOjU.s:98     .text:0000000000000048 .L0 
     /tmp/ccwcDOjU.s:104    .text:0000000000000050 .L0 
     /tmp/ccwcDOjU.s:114    .text:0000000000000060 .L0 
     /tmp/ccwcDOjU.s:119    .text:0000000000000070 .L0 
     /tmp/ccwcDOjU.s:122    .text:0000000000000078 .L0 
     /tmp/ccwcDOjU.s:125    .text:0000000000000080 .L0 
     /tmp/ccwcDOjU.s:133    .text:0000000000000088 .L0 
     /tmp/ccwcDOjU.s:134    .text:000000000000008c .L0 
     /tmp/ccwcDOjU.s:135    .text:000000000000008c .L0 
     /tmp/ccwcDOjU.s:137    .text:0000000000000090 .L0 
     /tmp/ccwcDOjU.s:138    .text:0000000000000090 .L0 
     /tmp/ccwcDOjU.s:140    .text:0000000000000094 .L0 
     /tmp/ccwcDOjU.s:142    .text:0000000000000098 .L0 
     /tmp/ccwcDOjU.s:144    .text:000000000000009c .L0 
     /tmp/ccwcDOjU.s:148    .text:00000000000000a0 .L0 
     /tmp/ccwcDOjU.s:152    .text:00000000000000a0 .L0 
     /tmp/ccwcDOjU.s:153    .text:00000000000000a0 .L0 
      src/KRiscv.cpp:49     .text:00000000000000a0 .L0 
     /tmp/ccwcDOjU.s:162    .text:00000000000000a4 .L0 
     /tmp/ccwcDOjU.s:171    .text:00000000000000a8 .L0 
     /tmp/ccwcDOjU.s:183    .text:00000000000000b0 .L0 
     /tmp/ccwcDOjU.s:197    .text:00000000000000b8 .L0 
GAS LISTING /tmp/ccwcDOjU.s 			page 60


     /tmp/ccwcDOjU.s:213    .text:00000000000000c0 .L0 
     /tmp/ccwcDOjU.s:231    .text:00000000000000c8 .L0 
     /tmp/ccwcDOjU.s:251    .text:00000000000000d0 .L0 
     /tmp/ccwcDOjU.s:273    .text:00000000000000d8 .L0 
     /tmp/ccwcDOjU.s:297    .text:00000000000000e0 .L0 
     /tmp/ccwcDOjU.s:323    .text:00000000000000e8 .L0 
     /tmp/ccwcDOjU.s:351    .text:00000000000000f0 .L0 
     /tmp/ccwcDOjU.s:381    .text:00000000000000f8 .L0 
     /tmp/ccwcDOjU.s:413    .text:0000000000000100 .L0 
     /tmp/ccwcDOjU.s:447    .text:0000000000000108 .L0 
     /tmp/ccwcDOjU.s:483    .text:0000000000000110 .L0 
     /tmp/ccwcDOjU.s:486    .text:0000000000000118 .L0 
     /tmp/ccwcDOjU.s:491    .text:0000000000000120 .L0 
     /tmp/ccwcDOjU.s:492    .text:0000000000000120 .L0 
     /tmp/ccwcDOjU.s:493    .text:0000000000000120 .L0 
     /tmp/ccwcDOjU.s:497    .text:0000000000000130 .L0 
     /tmp/ccwcDOjU.s:500    .text:0000000000000138 .L0 
     /tmp/ccwcDOjU.s:506    .text:000000000000014c .L0 
     /tmp/ccwcDOjU.s:509    .text:0000000000000154 .L0 
     /tmp/ccwcDOjU.s:510    .text:0000000000000154 .L0 
     /tmp/ccwcDOjU.s:518    .text:0000000000000178 .L0 
     /tmp/ccwcDOjU.s:537    .text:000000000000017c .L0 
     /tmp/ccwcDOjU.s:538    .text:000000000000017c .L0 
     /tmp/ccwcDOjU.s:539    .text:000000000000017c .L0 
     /tmp/ccwcDOjU.s:547    .text:000000000000018c .L0 
      src/KRiscv.cpp:53     .text:000000000000018c .L0 
     /tmp/ccwcDOjU.s:553    .text:0000000000000190 .L0 
     /tmp/ccwcDOjU.s:555    .text:0000000000000190 .L0 
     /tmp/ccwcDOjU.s:558    .text:0000000000000198 .L0 
      src/KRiscv.cpp:55     .text:0000000000000198 .L0 
     /tmp/ccwcDOjU.s:564    .text:000000000000019c .L0 
     /tmp/ccwcDOjU.s:566    .text:000000000000019c .L0 
     /tmp/ccwcDOjU.s:575    .text:00000000000001a4 .L0 
     /tmp/ccwcDOjU.s:576    .text:00000000000001a4 .L0 
     /tmp/ccwcDOjU.s:577    .text:00000000000001a4 .L0 
 src/../h/KRiscv.hpp:66     .text:00000000000001a4 .L0 
     /tmp/ccwcDOjU.s:585    .text:00000000000001ac .L0 
     /tmp/ccwcDOjU.s:586    .text:00000000000001ac .L0 
     /tmp/ccwcDOjU.s:590    .text:00000000000001b0 .L0 
     /tmp/ccwcDOjU.s:595    .text:00000000000001b4 .L0 
 src/../h/KRiscv.hpp:71     .text:00000000000001b4 .L0 
     /tmp/ccwcDOjU.s:602    .text:00000000000001b8 .L0 
     /tmp/ccwcDOjU.s:611    .text:00000000000001bc .L0 
     /tmp/ccwcDOjU.s:612    .text:00000000000001bc .L0 
     /tmp/ccwcDOjU.s:613    .text:00000000000001bc .L0 
     /tmp/ccwcDOjU.s:621    .text:00000000000001cc .L0 
      src/KRiscv.cpp:62     .text:00000000000001cc .L0 
     /tmp/ccwcDOjU.s:627    .text:00000000000001d0 .L0 
     /tmp/ccwcDOjU.s:629    .text:00000000000001d0 .L0 
     /tmp/ccwcDOjU.s:632    .text:00000000000001d8 .L0 
      src/KRiscv.cpp:64     .text:00000000000001d8 .L0 
     /tmp/ccwcDOjU.s:638    .text:00000000000001dc .L0 
     /tmp/ccwcDOjU.s:640    .text:00000000000001dc .L0 
     /tmp/ccwcDOjU.s:649    .text:00000000000001e4 .L0 
     /tmp/ccwcDOjU.s:650    .text:00000000000001e4 .L0 
     /tmp/ccwcDOjU.s:651    .text:00000000000001e4 .L0 
 src/../h/KRiscv.hpp:66     .text:00000000000001e4 .L0 
GAS LISTING /tmp/ccwcDOjU.s 			page 61


     /tmp/ccwcDOjU.s:659    .text:00000000000001ec .L0 
     /tmp/ccwcDOjU.s:660    .text:00000000000001ec .L0 
     /tmp/ccwcDOjU.s:664    .text:00000000000001f0 .L0 
     /tmp/ccwcDOjU.s:669    .text:00000000000001f4 .L0 
 src/../h/KRiscv.hpp:71     .text:00000000000001f4 .L0 
     /tmp/ccwcDOjU.s:676    .text:00000000000001f8 .L0 
     /tmp/ccwcDOjU.s:686    .text:00000000000001fc .L0 
     /tmp/ccwcDOjU.s:687    .text:00000000000001fc .L0 
     /tmp/ccwcDOjU.s:688    .text:00000000000001fc .L0 
     /tmp/ccwcDOjU.s:701    .text:0000000000000204 .L0 
     /tmp/ccwcDOjU.s:702    .text:0000000000000204 .L0 
     /tmp/ccwcDOjU.s:703    .text:0000000000000204 .L0 
 src/../h/KRiscv.hpp:66     .text:0000000000000204 .L0 
     /tmp/ccwcDOjU.s:711    .text:000000000000020c .L0 
     /tmp/ccwcDOjU.s:712    .text:000000000000020c .L0 
     /tmp/ccwcDOjU.s:716    .text:0000000000000210 .L0 
     /tmp/ccwcDOjU.s:721    .text:0000000000000214 .L0 
 src/../h/KRiscv.hpp:71     .text:0000000000000214 .L0 
     /tmp/ccwcDOjU.s:728    .text:0000000000000218 .L0 
     /tmp/ccwcDOjU.s:737    .text:000000000000021c .L0 
     /tmp/ccwcDOjU.s:738    .text:000000000000021c .L0 
     /tmp/ccwcDOjU.s:739    .text:000000000000021c .L0 
     /tmp/ccwcDOjU.s:752    .text:0000000000000224 .L0 
     /tmp/ccwcDOjU.s:753    .text:0000000000000224 .L0 
     /tmp/ccwcDOjU.s:754    .text:0000000000000224 .L0 
 src/../h/KRiscv.hpp:66     .text:0000000000000224 .L0 
     /tmp/ccwcDOjU.s:762    .text:000000000000022c .L0 
     /tmp/ccwcDOjU.s:763    .text:000000000000022c .L0 
     /tmp/ccwcDOjU.s:767    .text:0000000000000230 .L0 
     /tmp/ccwcDOjU.s:772    .text:0000000000000234 .L0 
 src/../h/KRiscv.hpp:71     .text:0000000000000234 .L0 
     /tmp/ccwcDOjU.s:779    .text:0000000000000238 .L0 
     /tmp/ccwcDOjU.s:787    .text:000000000000023c .L0 
     /tmp/ccwcDOjU.s:788    .text:000000000000023c .L0 
     /tmp/ccwcDOjU.s:789    .text:000000000000023c .L0 
     /tmp/ccwcDOjU.s:790    .text:000000000000023c .L0 
     /tmp/ccwcDOjU.s:791    .text:000000000000023c .L0 
     /tmp/ccwcDOjU.s:792    .text:000000000000023c .L0 
     /tmp/ccwcDOjU.s:800    .text:000000000000024c .L0 
      src/KRiscv.cpp:82     .text:000000000000024c .L0 
     /tmp/ccwcDOjU.s:806    .text:0000000000000250 .L0 
      src/KRiscv.cpp:83     .text:0000000000000250 .L0 
     /tmp/ccwcDOjU.s:811    .text:0000000000000254 .L0 
      src/KRiscv.cpp:84     .text:0000000000000254 .L0 
     /tmp/ccwcDOjU.s:817    .text:0000000000000258 .L0 
      src/KRiscv.cpp:85     .text:0000000000000258 .L0 
     /tmp/ccwcDOjU.s:822    .text:000000000000025c .L0 
      src/KRiscv.cpp:86     .text:000000000000025c .L0 
     /tmp/ccwcDOjU.s:828    .text:0000000000000260 .L0 
      src/KRiscv.cpp:87     .text:0000000000000260 .L0 
     /tmp/ccwcDOjU.s:833    .text:0000000000000264 .L0 
      src/KRiscv.cpp:88     .text:0000000000000264 .L0 
     /tmp/ccwcDOjU.s:839    .text:0000000000000268 .L0 
     /tmp/ccwcDOjU.s:841    .text:0000000000000268 .L0 
     /tmp/ccwcDOjU.s:844    .text:0000000000000270 .L0 
     /tmp/ccwcDOjU.s:846    .text:0000000000000274 .L0 
     /tmp/ccwcDOjU.s:848    .text:0000000000000278 .L0 
GAS LISTING /tmp/ccwcDOjU.s 			page 62


      src/KRiscv.cpp:90     .text:0000000000000278 .L0 
     /tmp/ccwcDOjU.s:856    .text:000000000000027c .L0 
     /tmp/ccwcDOjU.s:857    .text:000000000000027c .L0 
     /tmp/ccwcDOjU.s:867    .text:000000000000028c .L0 
     /tmp/ccwcDOjU.s:868    .text:000000000000028c .L0 
     /tmp/ccwcDOjU.s:869    .text:000000000000028c .L0 
 src/../h/KRiscv.hpp:66     .text:000000000000028c .L0 
     /tmp/ccwcDOjU.s:877    .text:0000000000000294 .L0 
     /tmp/ccwcDOjU.s:878    .text:0000000000000294 .L0 
     /tmp/ccwcDOjU.s:882    .text:0000000000000298 .L0 
     /tmp/ccwcDOjU.s:887    .text:000000000000029c .L0 
 src/../h/KRiscv.hpp:71     .text:000000000000029c .L0 
     /tmp/ccwcDOjU.s:894    .text:00000000000002a0 .L0 
     /tmp/ccwcDOjU.s:900    .text:00000000000002a4 .L0 
      src/KRiscv.cpp:91     .text:00000000000002a4 .L0 
     /tmp/ccwcDOjU.s:913    .text:00000000000002ac .L0 
     /tmp/ccwcDOjU.s:914    .text:00000000000002ac .L0 
     /tmp/ccwcDOjU.s:915    .text:00000000000002ac .L0 
     /tmp/ccwcDOjU.s:916    .text:00000000000002ac .L0 
     /tmp/ccwcDOjU.s:917    .text:00000000000002ac .L0 
     /tmp/ccwcDOjU.s:918    .text:00000000000002ac .L0 
     /tmp/ccwcDOjU.s:926    .text:00000000000002bc .L0 
      src/KRiscv.cpp:101    .text:00000000000002bc .L0 
     /tmp/ccwcDOjU.s:932    .text:00000000000002c0 .L0 
      src/KRiscv.cpp:102    .text:00000000000002c0 .L0 
     /tmp/ccwcDOjU.s:937    .text:00000000000002c4 .L0 
      src/KRiscv.cpp:103    .text:00000000000002c4 .L0 
     /tmp/ccwcDOjU.s:943    .text:00000000000002c8 .L0 
      src/KRiscv.cpp:104    .text:00000000000002c8 .L0 
     /tmp/ccwcDOjU.s:948    .text:00000000000002cc .L0 
      src/KRiscv.cpp:105    .text:00000000000002cc .L0 
     /tmp/ccwcDOjU.s:954    .text:00000000000002d0 .L0 
      src/KRiscv.cpp:106    .text:00000000000002d0 .L0 
     /tmp/ccwcDOjU.s:959    .text:00000000000002d4 .L0 
      src/KRiscv.cpp:107    .text:00000000000002d4 .L0 
     /tmp/ccwcDOjU.s:965    .text:00000000000002d8 .L0 
     /tmp/ccwcDOjU.s:967    .text:00000000000002d8 .L0 
     /tmp/ccwcDOjU.s:970    .text:00000000000002e0 .L0 
     /tmp/ccwcDOjU.s:972    .text:00000000000002e4 .L0 
     /tmp/ccwcDOjU.s:978    .text:00000000000002e8 .L0 
     /tmp/ccwcDOjU.s:979    .text:00000000000002e8 .L0 
     /tmp/ccwcDOjU.s:980    .text:00000000000002e8 .L0 
     /tmp/ccwcDOjU.s:982    .text:00000000000002ec .L0 
     /tmp/ccwcDOjU.s:984    .text:00000000000002f0 .L0 
     /tmp/ccwcDOjU.s:985    .text:00000000000002f0 .L0 
     /tmp/ccwcDOjU.s:988    .text:00000000000002f8 .L0 
     /tmp/ccwcDOjU.s:989    .text:00000000000002f8 .L0 
     /tmp/ccwcDOjU.s:995    .text:0000000000000300 .L0 
     /tmp/ccwcDOjU.s:996    .text:0000000000000300 .L0 
      src/KRiscv.cpp:111    .text:0000000000000300 .L0 
     /tmp/ccwcDOjU.s:1004   .text:0000000000000304 .L0 
     /tmp/ccwcDOjU.s:1005   .text:0000000000000304 .L0 
     /tmp/ccwcDOjU.s:1015   .text:0000000000000314 .L0 
     /tmp/ccwcDOjU.s:1016   .text:0000000000000314 .L0 
     /tmp/ccwcDOjU.s:1017   .text:0000000000000314 .L0 
 src/../h/KRiscv.hpp:66     .text:0000000000000314 .L0 
     /tmp/ccwcDOjU.s:1025   .text:000000000000031c .L0 
GAS LISTING /tmp/ccwcDOjU.s 			page 63


     /tmp/ccwcDOjU.s:1026   .text:000000000000031c .L0 
     /tmp/ccwcDOjU.s:1030   .text:0000000000000320 .L0 
     /tmp/ccwcDOjU.s:1035   .text:0000000000000324 .L0 
 src/../h/KRiscv.hpp:71     .text:0000000000000324 .L0 
     /tmp/ccwcDOjU.s:1042   .text:0000000000000328 .L0 
     /tmp/ccwcDOjU.s:1048   .text:000000000000032c .L0 
      src/KRiscv.cpp:113    .text:000000000000032c .L0 
     /tmp/ccwcDOjU.s:1063   .text:0000000000000334 .L0 
     /tmp/ccwcDOjU.s:1064   .text:0000000000000334 .L0 
     /tmp/ccwcDOjU.s:1065   .text:0000000000000334 .L0 
 src/../h/KRiscv.hpp:66     .text:0000000000000334 .L0 
     /tmp/ccwcDOjU.s:1074   .text:000000000000033c .L0 
     /tmp/ccwcDOjU.s:1075   .text:000000000000033c .L0 
     /tmp/ccwcDOjU.s:1079   .text:0000000000000340 .L0 
     /tmp/ccwcDOjU.s:1084   .text:0000000000000344 .L0 
     /tmp/ccwcDOjU.s:1085   .text:0000000000000344 .L0 
     /tmp/ccwcDOjU.s:1086   .text:0000000000000344 .L0 
 src/../h/KRiscv.hpp:122    .text:0000000000000344 .L0 
     /tmp/ccwcDOjU.s:1094   .text:000000000000034c .L0 
     /tmp/ccwcDOjU.s:1095   .text:000000000000034c .L0 
     /tmp/ccwcDOjU.s:1100   .text:0000000000000350 .L0 
     /tmp/ccwcDOjU.s:1101   .text:0000000000000350 .L0 
     /tmp/ccwcDOjU.s:1107   .text:000000000000035c .L0 
     /tmp/ccwcDOjU.s:1108   .text:000000000000035c .L0 
     /tmp/ccwcDOjU.s:1110   .text:0000000000000360 .L0 
     /tmp/ccwcDOjU.s:1112   .text:0000000000000364 .L0 
     /tmp/ccwcDOjU.s:1113   .text:0000000000000364 .L0 
     /tmp/ccwcDOjU.s:1116   .text:000000000000036c .L0 
     /tmp/ccwcDOjU.s:1117   .text:000000000000036c .L0 
     /tmp/ccwcDOjU.s:1127   .text:0000000000000380 .L0 
     /tmp/ccwcDOjU.s:1128   .text:0000000000000380 .L0 
     /tmp/ccwcDOjU.s:1133   .text:0000000000000388 .L0 
     /tmp/ccwcDOjU.s:1134   .text:0000000000000388 .L0 
 src/../h/KRiscv.hpp:127    .text:0000000000000388 .L0 
     /tmp/ccwcDOjU.s:1146   .text:000000000000038c .L0 
     /tmp/ccwcDOjU.s:1147   .text:000000000000038c .L0 
 src/../h/KRiscv.hpp:71     .text:000000000000038c .L0 
     /tmp/ccwcDOjU.s:1154   .text:0000000000000390 .L0 
     /tmp/ccwcDOjU.s:1165   .text:0000000000000394 .L0 
     /tmp/ccwcDOjU.s:1166   .text:0000000000000394 .L0 
     /tmp/ccwcDOjU.s:1167   .text:0000000000000394 .L0 
 src/../h/KRiscv.hpp:66     .text:0000000000000394 .L0 
     /tmp/ccwcDOjU.s:1176   .text:000000000000039c .L0 
     /tmp/ccwcDOjU.s:1177   .text:000000000000039c .L0 
     /tmp/ccwcDOjU.s:1181   .text:00000000000003a0 .L0 
     /tmp/ccwcDOjU.s:1186   .text:00000000000003a4 .L0 
     /tmp/ccwcDOjU.s:1187   .text:00000000000003a4 .L0 
     /tmp/ccwcDOjU.s:1188   .text:00000000000003a4 .L0 
 src/../h/KRiscv.hpp:122    .text:00000000000003a4 .L0 
     /tmp/ccwcDOjU.s:1196   .text:00000000000003ac .L0 
     /tmp/ccwcDOjU.s:1197   .text:00000000000003ac .L0 
     /tmp/ccwcDOjU.s:1202   .text:00000000000003b0 .L0 
     /tmp/ccwcDOjU.s:1203   .text:00000000000003b0 .L0 
     /tmp/ccwcDOjU.s:1208   .text:00000000000003b8 .L0 
     /tmp/ccwcDOjU.s:1209   .text:00000000000003b8 .L0 
 src/../h/KRiscv.hpp:127    .text:00000000000003b8 .L0 
     /tmp/ccwcDOjU.s:1221   .text:00000000000003bc .L0 
GAS LISTING /tmp/ccwcDOjU.s 			page 64


     /tmp/ccwcDOjU.s:1222   .text:00000000000003bc .L0 
 src/../h/KRiscv.hpp:71     .text:00000000000003bc .L0 
     /tmp/ccwcDOjU.s:1229   .text:00000000000003c0 .L0 
     /tmp/ccwcDOjU.s:1238   .text:00000000000003c4 .L0 
     /tmp/ccwcDOjU.s:1239   .text:00000000000003c4 .L0 
     /tmp/ccwcDOjU.s:1240   .text:00000000000003c4 .L0 
     /tmp/ccwcDOjU.s:1241   .text:00000000000003c4 .L0 
     /tmp/ccwcDOjU.s:1249   .text:00000000000003d4 .L0 
      src/KRiscv.cpp:136    .text:00000000000003d4 .L0 
     /tmp/ccwcDOjU.s:1255   .text:00000000000003d8 .L0 
      src/KRiscv.cpp:137    .text:00000000000003d8 .L0 
     /tmp/ccwcDOjU.s:1260   .text:00000000000003dc .L0 
      src/KRiscv.cpp:138    .text:00000000000003dc .L0 
     /tmp/ccwcDOjU.s:1266   .text:00000000000003e0 .L0 
     /tmp/ccwcDOjU.s:1268   .text:00000000000003e0 .L0 
     /tmp/ccwcDOjU.s:1275   .text:00000000000003f0 .L0 
     /tmp/ccwcDOjU.s:1277   .text:00000000000003f4 .L0 
     /tmp/ccwcDOjU.s:1279   .text:00000000000003f8 .L0 
      src/KRiscv.cpp:140    .text:00000000000003f8 .L0 
     /tmp/ccwcDOjU.s:1287   .text:00000000000003fc .L0 
     /tmp/ccwcDOjU.s:1288   .text:00000000000003fc .L0 
     /tmp/ccwcDOjU.s:1298   .text:000000000000040c .L0 
     /tmp/ccwcDOjU.s:1299   .text:000000000000040c .L0 
     /tmp/ccwcDOjU.s:1300   .text:000000000000040c .L0 
 src/../h/KRiscv.hpp:66     .text:000000000000040c .L0 
     /tmp/ccwcDOjU.s:1308   .text:0000000000000414 .L0 
     /tmp/ccwcDOjU.s:1309   .text:0000000000000414 .L0 
     /tmp/ccwcDOjU.s:1313   .text:0000000000000418 .L0 
     /tmp/ccwcDOjU.s:1318   .text:000000000000041c .L0 
 src/../h/KRiscv.hpp:71     .text:000000000000041c .L0 
     /tmp/ccwcDOjU.s:1325   .text:0000000000000420 .L0 
     /tmp/ccwcDOjU.s:1331   .text:0000000000000424 .L0 
      src/KRiscv.cpp:141    .text:0000000000000424 .L0 
     /tmp/ccwcDOjU.s:1344   .text:000000000000042c .L0 
     /tmp/ccwcDOjU.s:1345   .text:000000000000042c .L0 
     /tmp/ccwcDOjU.s:1346   .text:000000000000042c .L0 
     /tmp/ccwcDOjU.s:1354   .text:000000000000043c .L0 
      src/KRiscv.cpp:148    .text:000000000000043c .L0 
     /tmp/ccwcDOjU.s:1360   .text:0000000000000440 .L0 
     /tmp/ccwcDOjU.s:1362   .text:0000000000000440 .L0 
     /tmp/ccwcDOjU.s:1369   .text:0000000000000444 .L0 
     /tmp/ccwcDOjU.s:1370   .text:0000000000000444 .L0 
     /tmp/ccwcDOjU.s:1375   .text:000000000000044c .L0 
     /tmp/ccwcDOjU.s:1376   .text:000000000000044c .L0 
     /tmp/ccwcDOjU.s:1377   .text:000000000000044c .L0 
     /tmp/ccwcDOjU.s:1379   .text:0000000000000450 .L0 
     /tmp/ccwcDOjU.s:1381   .text:0000000000000454 .L0 
     /tmp/ccwcDOjU.s:1382   .text:0000000000000454 .L0 
     /tmp/ccwcDOjU.s:1387   .text:0000000000000458 .L0 
     /tmp/ccwcDOjU.s:1388   .text:0000000000000458 .L0 
     /tmp/ccwcDOjU.s:1389   .text:0000000000000458 .L0 
     /tmp/ccwcDOjU.s:1397   .text:0000000000000460 .L0 
     /tmp/ccwcDOjU.s:1398   .text:0000000000000460 .L0 
     /tmp/ccwcDOjU.s:1399   .text:0000000000000460 .L0 
     /tmp/ccwcDOjU.s:1404   .text:0000000000000464 .L0 
     /tmp/ccwcDOjU.s:1405   .text:0000000000000464 .L0 
     /tmp/ccwcDOjU.s:1409   .text:000000000000046c .L0 
GAS LISTING /tmp/ccwcDOjU.s 			page 65


     /tmp/ccwcDOjU.s:1417   .text:0000000000000470 .L0 
     /tmp/ccwcDOjU.s:1418   .text:0000000000000470 .L0 
     /tmp/ccwcDOjU.s:1428   .text:000000000000047c .L0 
     /tmp/ccwcDOjU.s:1429   .text:000000000000047c .L0 
     /tmp/ccwcDOjU.s:1430   .text:000000000000047c .L0 
 src/../h/KRiscv.hpp:66     .text:000000000000047c .L0 
     /tmp/ccwcDOjU.s:1438   .text:0000000000000484 .L0 
     /tmp/ccwcDOjU.s:1439   .text:0000000000000484 .L0 
     /tmp/ccwcDOjU.s:1443   .text:0000000000000488 .L0 
     /tmp/ccwcDOjU.s:1448   .text:000000000000048c .L0 
 src/../h/KRiscv.hpp:71     .text:000000000000048c .L0 
     /tmp/ccwcDOjU.s:1455   .text:0000000000000490 .L0 
     /tmp/ccwcDOjU.s:1466   .text:0000000000000494 .L0 
     /tmp/ccwcDOjU.s:1467   .text:0000000000000494 .L0 
     /tmp/ccwcDOjU.s:1468   .text:0000000000000494 .L0 
 src/../h/KRiscv.hpp:66     .text:0000000000000494 .L0 
     /tmp/ccwcDOjU.s:1477   .text:000000000000049c .L0 
     /tmp/ccwcDOjU.s:1478   .text:000000000000049c .L0 
     /tmp/ccwcDOjU.s:1482   .text:00000000000004a0 .L0 
     /tmp/ccwcDOjU.s:1487   .text:00000000000004a4 .L0 
     /tmp/ccwcDOjU.s:1488   .text:00000000000004a4 .L0 
     /tmp/ccwcDOjU.s:1489   .text:00000000000004a4 .L0 
 src/../h/KRiscv.hpp:122    .text:00000000000004a4 .L0 
     /tmp/ccwcDOjU.s:1497   .text:00000000000004ac .L0 
     /tmp/ccwcDOjU.s:1498   .text:00000000000004ac .L0 
     /tmp/ccwcDOjU.s:1503   .text:00000000000004b0 .L0 
     /tmp/ccwcDOjU.s:1504   .text:00000000000004b0 .L0 
     /tmp/ccwcDOjU.s:1505   .text:00000000000004b0 .L0 
     /tmp/ccwcDOjU.s:1512   .text:00000000000004c0 .L0 
      src/KRiscv.cpp:157    .text:00000000000004c0 .L0 
     /tmp/ccwcDOjU.s:1519   .text:00000000000004c4 .L0 
     /tmp/ccwcDOjU.s:1524   .text:00000000000004c8 .L0 
     /tmp/ccwcDOjU.s:1525   .text:00000000000004c8 .L0 
     /tmp/ccwcDOjU.s:1526   .text:00000000000004c8 .L0 
     /tmp/ccwcDOjU.s:1528   .text:00000000000004cc .L0 
     /tmp/ccwcDOjU.s:1530   .text:00000000000004d0 .L0 
     /tmp/ccwcDOjU.s:1532   .text:00000000000004d4 .L0 
     /tmp/ccwcDOjU.s:1541   .text:00000000000004dc .L0 
     /tmp/ccwcDOjU.s:1542   .text:00000000000004dc .L0 
 src/../h/KRiscv.hpp:127    .text:00000000000004dc .L0 
     /tmp/ccwcDOjU.s:1554   .text:00000000000004e0 .L0 
     /tmp/ccwcDOjU.s:1555   .text:00000000000004e0 .L0 
 src/../h/KRiscv.hpp:71     .text:00000000000004e0 .L0 
     /tmp/ccwcDOjU.s:1562   .text:00000000000004e4 .L0 
     /tmp/ccwcDOjU.s:1570   .text:00000000000004e8 .L0 
     /tmp/ccwcDOjU.s:1571   .text:00000000000004e8 .L0 
     /tmp/ccwcDOjU.s:1582   .text:00000000000004f4 .L0 
     /tmp/ccwcDOjU.s:1583   .text:00000000000004f4 .L0 
     /tmp/ccwcDOjU.s:1584   .text:00000000000004f4 .L0 
     /tmp/ccwcDOjU.s:1592   .text:0000000000000504 .L0 
      src/KRiscv.cpp:165    .text:0000000000000504 .L0 
     /tmp/ccwcDOjU.s:1599   .text:0000000000000508 .L0 
     /tmp/ccwcDOjU.s:1604   .text:000000000000050c .L0 
     /tmp/ccwcDOjU.s:1605   .text:000000000000050c .L0 
     /tmp/ccwcDOjU.s:1606   .text:000000000000050c .L0 
     /tmp/ccwcDOjU.s:1608   .text:0000000000000510 .L0 
     /tmp/ccwcDOjU.s:1611   .text:0000000000000518 .L0 
GAS LISTING /tmp/ccwcDOjU.s 			page 66


     /tmp/ccwcDOjU.s:1619   .text:000000000000051c .L0 
     /tmp/ccwcDOjU.s:1620   .text:000000000000051c .L0 
     /tmp/ccwcDOjU.s:1621   .text:000000000000051c .L0 
 src/../h/KRiscv.hpp:66     .text:000000000000051c .L0 
     /tmp/ccwcDOjU.s:1629   .text:0000000000000524 .L0 
     /tmp/ccwcDOjU.s:1630   .text:0000000000000524 .L0 
     /tmp/ccwcDOjU.s:1634   .text:0000000000000528 .L0 
     /tmp/ccwcDOjU.s:1639   .text:000000000000052c .L0 
 src/../h/KRiscv.hpp:71     .text:000000000000052c .L0 
     /tmp/ccwcDOjU.s:1646   .text:0000000000000530 .L0 
     /tmp/ccwcDOjU.s:1654   .text:0000000000000534 .L0 
     /tmp/ccwcDOjU.s:1655   .text:0000000000000534 .L0 
     /tmp/ccwcDOjU.s:1666   .text:0000000000000540 .L0 
     /tmp/ccwcDOjU.s:1667   .text:0000000000000540 .L0 
     /tmp/ccwcDOjU.s:1668   .text:0000000000000540 .L0 
     /tmp/ccwcDOjU.s:1676   .text:0000000000000550 .L0 
      src/KRiscv.cpp:172    .text:0000000000000550 .L0 
     /tmp/ccwcDOjU.s:1682   .text:0000000000000554 .L0 
     /tmp/ccwcDOjU.s:1684   .text:0000000000000554 .L0 
     /tmp/ccwcDOjU.s:1689   .text:000000000000055c .L0 
     /tmp/ccwcDOjU.s:1690   .text:000000000000055c .L0 
     /tmp/ccwcDOjU.s:1691   .text:000000000000055c .L0 
 src/../h/KRiscv.hpp:66     .text:000000000000055c .L0 
     /tmp/ccwcDOjU.s:1699   .text:0000000000000564 .L0 
     /tmp/ccwcDOjU.s:1700   .text:0000000000000564 .L0 
     /tmp/ccwcDOjU.s:1704   .text:0000000000000568 .L0 
     /tmp/ccwcDOjU.s:1709   .text:000000000000056c .L0 
     /tmp/ccwcDOjU.s:1710   .text:000000000000056c .L0 
     /tmp/ccwcDOjU.s:1711   .text:000000000000056c .L0 
 src/../h/KRiscv.hpp:122    .text:000000000000056c .L0 
     /tmp/ccwcDOjU.s:1719   .text:0000000000000574 .L0 
     /tmp/ccwcDOjU.s:1720   .text:0000000000000574 .L0 
     /tmp/ccwcDOjU.s:1725   .text:0000000000000578 .L0 
     /tmp/ccwcDOjU.s:1726   .text:0000000000000578 .L0 
     /tmp/ccwcDOjU.s:1731   .text:0000000000000580 .L0 
     /tmp/ccwcDOjU.s:1732   .text:0000000000000580 .L0 
 src/../h/KRiscv.hpp:127    .text:0000000000000580 .L0 
     /tmp/ccwcDOjU.s:1744   .text:0000000000000584 .L0 
     /tmp/ccwcDOjU.s:1745   .text:0000000000000584 .L0 
 src/../h/KRiscv.hpp:71     .text:0000000000000584 .L0 
     /tmp/ccwcDOjU.s:1752   .text:0000000000000588 .L0 
     /tmp/ccwcDOjU.s:1763   .text:000000000000058c .L0 
     /tmp/ccwcDOjU.s:1764   .text:000000000000058c .L0 
     /tmp/ccwcDOjU.s:1765   .text:000000000000058c .L0 
 src/../h/KRiscv.hpp:66     .text:000000000000058c .L0 
     /tmp/ccwcDOjU.s:1774   .text:0000000000000594 .L0 
     /tmp/ccwcDOjU.s:1775   .text:0000000000000594 .L0 
     /tmp/ccwcDOjU.s:1779   .text:0000000000000598 .L0 
     /tmp/ccwcDOjU.s:1784   .text:000000000000059c .L0 
     /tmp/ccwcDOjU.s:1785   .text:000000000000059c .L0 
     /tmp/ccwcDOjU.s:1786   .text:000000000000059c .L0 
 src/../h/KRiscv.hpp:122    .text:000000000000059c .L0 
     /tmp/ccwcDOjU.s:1794   .text:00000000000005a4 .L0 
     /tmp/ccwcDOjU.s:1795   .text:00000000000005a4 .L0 
     /tmp/ccwcDOjU.s:1800   .text:00000000000005a8 .L0 
     /tmp/ccwcDOjU.s:1801   .text:00000000000005a8 .L0 
     /tmp/ccwcDOjU.s:1806   .text:00000000000005bc .L0 
GAS LISTING /tmp/ccwcDOjU.s 			page 67


     /tmp/ccwcDOjU.s:1807   .text:00000000000005bc .L0 
     /tmp/ccwcDOjU.s:1813   .text:00000000000005c8 .L0 
     /tmp/ccwcDOjU.s:1814   .text:00000000000005c8 .L0 
 src/../h/KRiscv.hpp:127    .text:00000000000005c8 .L0 
     /tmp/ccwcDOjU.s:1826   .text:00000000000005cc .L0 
     /tmp/ccwcDOjU.s:1827   .text:00000000000005cc .L0 
 src/../h/KRiscv.hpp:71     .text:00000000000005cc .L0 
     /tmp/ccwcDOjU.s:1834   .text:00000000000005d0 .L0 
     /tmp/ccwcDOjU.s:1843   .text:00000000000005d4 .L0 
     /tmp/ccwcDOjU.s:1844   .text:00000000000005d4 .L0 
     /tmp/ccwcDOjU.s:1845   .text:00000000000005d4 .L0 
     /tmp/ccwcDOjU.s:1853   .text:00000000000005e4 .L0 
      src/KRiscv.cpp:191    .text:00000000000005e4 .L0 
     /tmp/ccwcDOjU.s:1863   .text:00000000000005ec .L0 
     /tmp/ccwcDOjU.s:1864   .text:00000000000005ec .L0 
     /tmp/ccwcDOjU.s:1865   .text:00000000000005ec .L0 
 src/../h/KRiscv.hpp:66     .text:00000000000005ec .L0 
     /tmp/ccwcDOjU.s:1873   .text:00000000000005f4 .L0 
     /tmp/ccwcDOjU.s:1874   .text:00000000000005f4 .L0 
     /tmp/ccwcDOjU.s:1878   .text:00000000000005f8 .L0 
     /tmp/ccwcDOjU.s:1883   .text:00000000000005fc .L0 
     /tmp/ccwcDOjU.s:1884   .text:00000000000005fc .L0 
     /tmp/ccwcDOjU.s:1885   .text:00000000000005fc .L0 
 src/../h/KRiscv.hpp:122    .text:00000000000005fc .L0 
     /tmp/ccwcDOjU.s:1893   .text:0000000000000604 .L0 
     /tmp/ccwcDOjU.s:1894   .text:0000000000000604 .L0 
     /tmp/ccwcDOjU.s:1899   .text:0000000000000608 .L0 
     /tmp/ccwcDOjU.s:1900   .text:0000000000000608 .L0 
     /tmp/ccwcDOjU.s:1906   .text:000000000000061c .L0 
     /tmp/ccwcDOjU.s:1907   .text:000000000000061c .L0 
     /tmp/ccwcDOjU.s:1908   .text:000000000000061c .L0 
     /tmp/ccwcDOjU.s:1912   .text:000000000000062c .L0 
     /tmp/ccwcDOjU.s:1915   .text:0000000000000634 .L0 
     /tmp/ccwcDOjU.s:1920   .text:0000000000000648 .L0 
     /tmp/ccwcDOjU.s:1922   .text:000000000000064c .L0 
     /tmp/ccwcDOjU.s:1923   .text:000000000000064c .L0 
     /tmp/ccwcDOjU.s:1928   .text:0000000000000660 .L0 
     /tmp/ccwcDOjU.s:1931   .text:000000000000066c .L0 
     /tmp/ccwcDOjU.s:1933   .text:0000000000000670 .L0 
     /tmp/ccwcDOjU.s:1939   .text:0000000000000674 .L0 
     /tmp/ccwcDOjU.s:1940   .text:0000000000000674 .L0 
 src/../h/KRiscv.hpp:127    .text:0000000000000674 .L0 
     /tmp/ccwcDOjU.s:1952   .text:0000000000000678 .L0 
     /tmp/ccwcDOjU.s:1953   .text:0000000000000678 .L0 
 src/../h/KRiscv.hpp:71     .text:0000000000000678 .L0 
     /tmp/ccwcDOjU.s:1960   .text:000000000000067c .L0 
     /tmp/ccwcDOjU.s:1969   .text:0000000000000680 .L0 
     /tmp/ccwcDOjU.s:1970   .text:0000000000000680 .L0 
     /tmp/ccwcDOjU.s:1971   .text:0000000000000680 .L0 
 src/../h/KRiscv.hpp:66     .text:0000000000000680 .L0 
     /tmp/ccwcDOjU.s:1979   .text:0000000000000688 .L0 
     /tmp/ccwcDOjU.s:1980   .text:0000000000000688 .L0 
     /tmp/ccwcDOjU.s:1984   .text:000000000000068c .L0 
     /tmp/ccwcDOjU.s:1989   .text:0000000000000690 .L0 
 src/../h/KRiscv.hpp:71     .text:0000000000000690 .L0 
     /tmp/ccwcDOjU.s:1996   .text:0000000000000694 .L0 
     /tmp/ccwcDOjU.s:2020   .text:0000000000000698 .L0 
GAS LISTING /tmp/ccwcDOjU.s 			page 68


     /tmp/ccwcDOjU.s:2021   .text:0000000000000698 .L0 
     /tmp/ccwcDOjU.s:2027   .text:00000000000006ac .L0 
     /tmp/ccwcDOjU.s:2028   .text:00000000000006ac .L0 
     /tmp/ccwcDOjU.s:2032   .text:00000000000006b4 .L0 
     /tmp/ccwcDOjU.s:2033   .text:00000000000006b4 .L0 
     /tmp/ccwcDOjU.s:2035   .text:00000000000006b8 .L0 
     /tmp/ccwcDOjU.s:2043   .text:00000000000006c0 .L0 
     /tmp/ccwcDOjU.s:2044   .text:00000000000006c0 .L0 
     /tmp/ccwcDOjU.s:2045   .text:00000000000006c0 .L0 
     /tmp/ccwcDOjU.s:2052   .text:00000000000006c8 .L0 
     /tmp/ccwcDOjU.s:2062   .text:00000000000006cc .L0 
     /tmp/ccwcDOjU.s:2063   .text:00000000000006cc .L0 
     /tmp/ccwcDOjU.s:2064   .text:00000000000006cc .L0 
 src/../h/KRiscv.hpp:66     .text:00000000000006cc .L0 
     /tmp/ccwcDOjU.s:2072   .text:00000000000006d4 .L0 
     /tmp/ccwcDOjU.s:2073   .text:00000000000006d4 .L0 
     /tmp/ccwcDOjU.s:2080   .text:00000000000006d8 .L0 
     /tmp/ccwcDOjU.s:2081   .text:00000000000006d8 .L0 
     /tmp/ccwcDOjU.s:2082   .text:00000000000006d8 .L0 
 src/../h/KRiscv.hpp:122    .text:00000000000006d8 .L0 
     /tmp/ccwcDOjU.s:2090   .text:00000000000006e0 .L0 
     /tmp/ccwcDOjU.s:2091   .text:00000000000006e0 .L0 
     /tmp/ccwcDOjU.s:2096   .text:00000000000006e4 .L0 
     /tmp/ccwcDOjU.s:2097   .text:00000000000006e4 .L0 
     /tmp/ccwcDOjU.s:2102   .text:00000000000006ec .L0 
     /tmp/ccwcDOjU.s:2103   .text:00000000000006ec .L0 
 src/../h/KRiscv.hpp:127    .text:00000000000006ec .L0 
     /tmp/ccwcDOjU.s:2115   .text:00000000000006f0 .L0 
     /tmp/ccwcDOjU.s:2116   .text:00000000000006f0 .L0 
 src/../h/KRiscv.hpp:71     .text:00000000000006f0 .L0 
     /tmp/ccwcDOjU.s:2123   .text:00000000000006f4 .L0 
     /tmp/ccwcDOjU.s:2134   .text:00000000000006f8 .L0 
     /tmp/ccwcDOjU.s:2135   .text:00000000000006f8 .L0 
     /tmp/ccwcDOjU.s:2140   .text:0000000000000704 .L0 
     /tmp/ccwcDOjU.s:2145   .text:000000000000070c .L0 
     /tmp/ccwcDOjU.s:2146   .text:000000000000070c .L0 
     /tmp/ccwcDOjU.s:2154   .text:000000000000071c .L0 
     /tmp/ccwcDOjU.s:2155   .text:000000000000071c .L0 
     /tmp/ccwcDOjU.s:2156   .text:000000000000071c .L0 
     /tmp/ccwcDOjU.s:2160   .text:000000000000072c .L0 
     /tmp/ccwcDOjU.s:2163   .text:0000000000000734 .L0 
     /tmp/ccwcDOjU.s:2168   .text:0000000000000748 .L0 
     /tmp/ccwcDOjU.s:2171   .text:0000000000000750 .L0 
     /tmp/ccwcDOjU.s:2172   .text:0000000000000750 .L0 
     /tmp/ccwcDOjU.s:2180   .text:0000000000000774 .L0 
     /tmp/ccwcDOjU.s:2185   .text:0000000000000778 .L0 
     /tmp/ccwcDOjU.s:2186   .text:0000000000000778 .L0 
     /tmp/ccwcDOjU.s:2193   .text:000000000000078c .L0 
     /tmp/ccwcDOjU.s:2194   .text:000000000000078c .L0 
     /tmp/ccwcDOjU.s:2201   .text:00000000000007a0 .L0 
     /tmp/ccwcDOjU.s:2202   .text:00000000000007a0 .L0 
     /tmp/ccwcDOjU.s:2210   .text:00000000000007b0 .L0 
     /tmp/ccwcDOjU.s:2211   .text:00000000000007b4 .L0 
     /tmp/ccwcDOjU.s:2238   .text:00000000000007b4 .L0 
     /tmp/ccwcDOjU.s:493    .text:0000000000000120 .L0 
     /tmp/ccwcDOjU.s:500    .text:0000000000000138 .L0 
     /tmp/ccwcDOjU.s:510    .text:0000000000000154 .L0 
GAS LISTING /tmp/ccwcDOjU.s 			page 69


     /tmp/ccwcDOjU.s:513    .text:0000000000000164 .L0 
     /tmp/ccwcDOjU.s:539    .text:000000000000017c .L0 
     /tmp/ccwcDOjU.s:613    .text:00000000000001bc .L0 
     /tmp/ccwcDOjU.s:792    .text:000000000000023c .L0 
     /tmp/ccwcDOjU.s:857    .text:000000000000027c .L0 
     /tmp/ccwcDOjU.s:918    .text:00000000000002ac .L0 
     /tmp/ccwcDOjU.s:1005   .text:0000000000000304 .L0 
     /tmp/ccwcDOjU.s:1101   .text:0000000000000350 .L0 
     /tmp/ccwcDOjU.s:1117   .text:000000000000036c .L0 
     /tmp/ccwcDOjU.s:1241   .text:00000000000003c4 .L0 
     /tmp/ccwcDOjU.s:1288   .text:00000000000003fc .L0 
     /tmp/ccwcDOjU.s:1346   .text:000000000000042c .L0 
     /tmp/ccwcDOjU.s:1505   .text:00000000000004b0 .L0 
     /tmp/ccwcDOjU.s:1584   .text:00000000000004f4 .L0 
     /tmp/ccwcDOjU.s:1668   .text:0000000000000540 .L0 
     /tmp/ccwcDOjU.s:1801   .text:00000000000005a8 .L0 
     /tmp/ccwcDOjU.s:1807   .text:00000000000005bc .L0 
     /tmp/ccwcDOjU.s:1845   .text:00000000000005d4 .L0 
     /tmp/ccwcDOjU.s:1900   .text:0000000000000608 .L0 
     /tmp/ccwcDOjU.s:1908   .text:000000000000061c .L0 
     /tmp/ccwcDOjU.s:1915   .text:0000000000000634 .L0 
     /tmp/ccwcDOjU.s:1923   .text:000000000000064c .L0 
     /tmp/ccwcDOjU.s:1928   .text:0000000000000660 .L0 
     /tmp/ccwcDOjU.s:2021   .text:0000000000000698 .L0 
     /tmp/ccwcDOjU.s:2156   .text:000000000000071c .L0 
     /tmp/ccwcDOjU.s:2163   .text:0000000000000734 .L0 
     /tmp/ccwcDOjU.s:2172   .text:0000000000000750 .L0 
     /tmp/ccwcDOjU.s:2175   .text:0000000000000760 .L0 
     /tmp/ccwcDOjU.s:44     .rodata.str1.8:0000000000000000 .LC0
     /tmp/ccwcDOjU.s:2186   .text:0000000000000778 .L0 
     /tmp/ccwcDOjU.s:47     .rodata.str1.8:0000000000000010 .LC1
     /tmp/ccwcDOjU.s:2194   .text:000000000000078c .L0 
     /tmp/ccwcDOjU.s:50     .rodata.str1.8:0000000000000020 .LC2
     /tmp/ccwcDOjU.s:2202   .text:00000000000007a0 .L0 
     /tmp/ccwcDOjU.s:147    .text:00000000000000a0 .L47
     /tmp/ccwcDOjU.s:1998   .text:0000000000000698 .L48
     /tmp/ccwcDOjU.s:2125   .text:00000000000006f8 .L49
     /tmp/ccwcDOjU.s:2182   .text:0000000000000778 .L50
     /tmp/ccwcDOjU.s:2191   .text:000000000000078c .L51
     /tmp/ccwcDOjU.s:2199   .text:00000000000007a0 .L52
     /tmp/ccwcDOjU.s:520    .text:000000000000017c .L53
     /tmp/ccwcDOjU.s:604    .text:00000000000001bc .L54
     /tmp/ccwcDOjU.s:678    .text:00000000000001fc .L55
     /tmp/ccwcDOjU.s:730    .text:000000000000021c .L56
     /tmp/ccwcDOjU.s:781    .text:000000000000023c .L57
     /tmp/ccwcDOjU.s:908    .text:00000000000002ac .L58
     /tmp/ccwcDOjU.s:1056   .text:0000000000000334 .L59
     /tmp/ccwcDOjU.s:1156   .text:0000000000000394 .L60
     /tmp/ccwcDOjU.s:1231   .text:00000000000003c4 .L61
     /tmp/ccwcDOjU.s:1339   .text:000000000000042c .L62
     /tmp/ccwcDOjU.s:1457   .text:0000000000000494 .L63
     /tmp/ccwcDOjU.s:1575   .text:00000000000004f4 .L64
     /tmp/ccwcDOjU.s:1659   .text:0000000000000540 .L65
     /tmp/ccwcDOjU.s:1754   .text:000000000000058c .L66
     /tmp/ccwcDOjU.s:1836   .text:00000000000005d4 .L67
     /tmp/ccwcDOjU.s:128    .text:0000000000000088 .L3
     /tmp/ccwcDOjU.s:1962   .text:0000000000000680 .L36
GAS LISTING /tmp/ccwcDOjU.s 			page 70


     /tmp/ccwcDOjU.s:489    .text:0000000000000120 .L38
     /tmp/ccwcDOjU.s:896    .text:00000000000002a4 .L11
     /tmp/ccwcDOjU.s:854    .text:000000000000027c .L12
     /tmp/ccwcDOjU.s:1044   .text:000000000000032c .L14
     /tmp/ccwcDOjU.s:992    .text:0000000000000300 .L15
     /tmp/ccwcDOjU.s:1002   .text:0000000000000304 .L16
     /tmp/ccwcDOjU.s:1122   .text:0000000000000380 .L18
     /tmp/ccwcDOjU.s:1327   .text:0000000000000424 .L21
     /tmp/ccwcDOjU.s:1285   .text:00000000000003fc .L22
     /tmp/ccwcDOjU.s:1422   .text:000000000000047c .L24
     /tmp/ccwcDOjU.s:1410   .text:0000000000000470 .L25
     /tmp/ccwcDOjU.s:1364   .text:0000000000000444 .L26
     /tmp/ccwcDOjU.s:1535   .text:00000000000004dc .L28
     /tmp/ccwcDOjU.s:1564   .text:00000000000004e8 .L68
     /tmp/ccwcDOjU.s:1613   .text:000000000000051c .L30
     /tmp/ccwcDOjU.s:1648   .text:0000000000000534 .L69
     /tmp/ccwcDOjU.s:1934   .text:0000000000000674 .L34
     /tmp/ccwcDOjU.s:1904   .text:000000000000061c .L35
     /tmp/ccwcDOjU.s:2054   .text:00000000000006cc .L70
     /tmp/ccwcDOjU.s:2037   .text:00000000000006c0 .L40
     /tmp/ccwcDOjU.s:2151   .text:000000000000071c .L43
     /tmp/ccwcDOjU.s:2143   .text:000000000000070c .L42
     /tmp/ccwcDOjU.s:502    .text:0000000000000144 .LEHB0
     /tmp/ccwcDOjU.s:57     .text:0000000000000020 .LFB51
     /tmp/ccwcDOjU.s:1273   .text:00000000000003f0 .LEHE0
     /tmp/ccwcDOjU.s:1419   .text:0000000000000474 .LEHB1
     /tmp/ccwcDOjU.s:2205   .text:00000000000007b0 .LEHE1
     /tmp/ccwcDOjU.s:5384   .debug_abbrev:0000000000000000 .Ldebug_abbrev0
     /tmp/ccwcDOjU.s:7880   .debug_str:0000000000000b6c .LASF239
     /tmp/ccwcDOjU.s:7520   .debug_str:000000000000015d .LASF240
     /tmp/ccwcDOjU.s:7490   .debug_str:0000000000000060 .LASF241
     /tmp/ccwcDOjU.s:5      .text:0000000000000000 .Ltext0
     /tmp/ccwcDOjU.s:2230   .text:00000000000007b4 .Letext0
     /tmp/ccwcDOjU.s:7478   .debug_line:0000000000000000 .Ldebug_line0
     /tmp/ccwcDOjU.s:7644   .debug_str:000000000000051d .LASF0
     /tmp/ccwcDOjU.s:7674   .debug_str:0000000000000605 .LASF1
     /tmp/ccwcDOjU.s:7796   .debug_str:000000000000091c .LASF2
     /tmp/ccwcDOjU.s:7808   .debug_str:0000000000000979 .LASF4
     /tmp/ccwcDOjU.s:7654   .debug_str:000000000000055b .LASF3
     /tmp/ccwcDOjU.s:7494   .debug_str:0000000000000093 .LASF5
     /tmp/ccwcDOjU.s:7762   .debug_str:000000000000082b .LASF6
     /tmp/ccwcDOjU.s:7746   .debug_str:0000000000000795 .LASF7
     /tmp/ccwcDOjU.s:7666   .debug_str:00000000000005b3 .LASF8
     /tmp/ccwcDOjU.s:7610   .debug_str:0000000000000404 .LASF9
     /tmp/ccwcDOjU.s:7616   .debug_str:0000000000000438 .LASF10
     /tmp/ccwcDOjU.s:7540   .debug_str:00000000000001e6 .LASF11
     /tmp/ccwcDOjU.s:7600   .debug_str:00000000000003c3 .LASF12
     /tmp/ccwcDOjU.s:7558   .debug_str:0000000000000257 .LASF13
     /tmp/ccwcDOjU.s:7538   .debug_str:00000000000001d6 .LASF14
     /tmp/ccwcDOjU.s:7854   .debug_str:0000000000000aae .LASF15
     /tmp/ccwcDOjU.s:7580   .debug_str:00000000000002ef .LASF16
     /tmp/ccwcDOjU.s:7838   .debug_str:0000000000000a39 .LASF17
     /tmp/ccwcDOjU.s:7502   .debug_str:00000000000000c5 .LASF18
     /tmp/ccwcDOjU.s:7790   .debug_str:0000000000000901 .LASF70
     /tmp/ccwcDOjU.s:7774   .debug_str:000000000000087a .LASF22
     /tmp/ccwcDOjU.s:7682   .debug_str:0000000000000633 .LASF19
     /tmp/ccwcDOjU.s:7588   .debug_str:000000000000033e .LASF20
GAS LISTING /tmp/ccwcDOjU.s 			page 71


     /tmp/ccwcDOjU.s:7946   .debug_str:0000000000000de4 .LASF21
     /tmp/ccwcDOjU.s:7920   .debug_str:0000000000000d33 .LASF23
     /tmp/ccwcDOjU.s:7594   .debug_str:000000000000036a .LASF24
     /tmp/ccwcDOjU.s:7878   .debug_str:0000000000000b5f .LASF25
     /tmp/ccwcDOjU.s:7564   .debug_str:0000000000000282 .LASF26
     /tmp/ccwcDOjU.s:7632   .debug_str:00000000000004d8 .LASF27
     /tmp/ccwcDOjU.s:7776   .debug_str:0000000000000885 .LASF29
     /tmp/ccwcDOjU.s:7704   .debug_str:00000000000006a8 .LASF28
     /tmp/ccwcDOjU.s:7780   .debug_str:00000000000008a9 .LASF30
     /tmp/ccwcDOjU.s:7608   .debug_str:00000000000003fa .LASF31
     /tmp/ccwcDOjU.s:7972   .debug_str:0000000000000ea3 .LASF32
     /tmp/ccwcDOjU.s:7816   .debug_str:00000000000009a2 .LASF33
     /tmp/ccwcDOjU.s:7568   .debug_str:000000000000029e .LASF34
     /tmp/ccwcDOjU.s:7648   .debug_str:000000000000053e .LASF35
     /tmp/ccwcDOjU.s:7656   .debug_str:000000000000056d .LASF36
     /tmp/ccwcDOjU.s:7912   .debug_str:0000000000000cfb .LASF37
     /tmp/ccwcDOjU.s:7842   .debug_str:0000000000000a56 .LASF39
     /tmp/ccwcDOjU.s:7792   .debug_str:0000000000000908 .LASF41
     /tmp/ccwcDOjU.s:7844   .debug_str:0000000000000a6c .LASF43
     /tmp/ccwcDOjU.s:7768   .debug_str:0000000000000858 .LASF38
     /tmp/ccwcDOjU.s:7918   .debug_str:0000000000000d1f .LASF40
     /tmp/ccwcDOjU.s:7734   .debug_str:0000000000000759 .LASF42
     /tmp/ccwcDOjU.s:7646   .debug_str:000000000000052a .LASF44
     /tmp/ccwcDOjU.s:7942   .debug_str:0000000000000dcc .LASF45
     /tmp/ccwcDOjU.s:7626   .debug_str:00000000000004a2 .LASF46
     /tmp/ccwcDOjU.s:7730   .debug_str:000000000000074c .LASF47
     /tmp/ccwcDOjU.s:7488   .debug_str:000000000000004b .LASF48
     /tmp/ccwcDOjU.s:7686   .debug_str:0000000000000643 .LASF49
     /tmp/ccwcDOjU.s:7530   .debug_str:00000000000001a4 .LASF50
     /tmp/ccwcDOjU.s:7970   .debug_str:0000000000000e9b .LASF51
     /tmp/ccwcDOjU.s:7904   .debug_str:0000000000000cb1 .LASF52
     /tmp/ccwcDOjU.s:7850   .debug_str:0000000000000a99 .LASF53
     /tmp/ccwcDOjU.s:7782   .debug_str:00000000000008c8 .LASF54
     /tmp/ccwcDOjU.s:7812   .debug_str:000000000000098a .LASF55
     /tmp/ccwcDOjU.s:7518   .debug_str:0000000000000149 .LASF56
     /tmp/ccwcDOjU.s:7576   .debug_str:00000000000002db .LASF57
     /tmp/ccwcDOjU.s:7716   .debug_str:00000000000006ec .LASF58
     /tmp/ccwcDOjU.s:7650   .debug_str:000000000000054b .LASF59
     /tmp/ccwcDOjU.s:7492   .debug_str:0000000000000080 .LASF60
     /tmp/ccwcDOjU.s:7496   .debug_str:000000000000009a .LASF61
     /tmp/ccwcDOjU.s:7954   .debug_str:0000000000000e27 .LASF62
     /tmp/ccwcDOjU.s:7794   .debug_str:0000000000000911 .LASF63
     /tmp/ccwcDOjU.s:7750   .debug_str:00000000000007b6 .LASF64
     /tmp/ccwcDOjU.s:7934   .debug_str:0000000000000d97 .LASF65
     /tmp/ccwcDOjU.s:7906   .debug_str:0000000000000cc6 .LASF66
     /tmp/ccwcDOjU.s:7928   .debug_str:0000000000000d77 .LASF72
     /tmp/ccwcDOjU.s:7660   .debug_str:000000000000058d .LASF74
     /tmp/ccwcDOjU.s:7826   .debug_str:00000000000009f3 .LASF69
     /tmp/ccwcDOjU.s:7542   .debug_str:00000000000001f5 .LASF67
     /tmp/ccwcDOjU.s:7672   .debug_str:0000000000000600 .LASF68
     /tmp/ccwcDOjU.s:7722   .debug_str:0000000000000714 .LASF71
     /tmp/ccwcDOjU.s:7788   .debug_str:00000000000008f5 .LASF81
     /tmp/ccwcDOjU.s:7652   .debug_str:0000000000000551 .LASF73
     /tmp/ccwcDOjU.s:7864   .debug_str:0000000000000ae7 .LASF75
     /tmp/ccwcDOjU.s:7718   .debug_str:00000000000006ff .LASF76
     /tmp/ccwcDOjU.s:7480   .debug_str:0000000000000000 .LASF77
     /tmp/ccwcDOjU.s:7710   .debug_str:00000000000006d6 .LASF86
GAS LISTING /tmp/ccwcDOjU.s 			page 72


     /tmp/ccwcDOjU.s:7952   .debug_str:0000000000000e05 .LASF88
     /tmp/ccwcDOjU.s:7862   .debug_str:0000000000000ade .LASF78
     /tmp/ccwcDOjU.s:7668   .debug_str:00000000000005c6 .LASF79
     /tmp/ccwcDOjU.s:7638   .debug_str:0000000000000503 .LASF80
     /tmp/ccwcDOjU.s:7772   .debug_str:0000000000000864 .LASF242
     /tmp/ccwcDOjU.s:7924   .debug_str:0000000000000d50 .LASF172
     /tmp/ccwcDOjU.s:7846   .debug_str:0000000000000a82 .LASF82
     /tmp/ccwcDOjU.s:7732   .debug_str:0000000000000754 .LASF83
     /tmp/ccwcDOjU.s:7828   .debug_str:00000000000009ff .LASF84
     /tmp/ccwcDOjU.s:7548   .debug_str:0000000000000209 .LASF85
     /tmp/ccwcDOjU.s:7900   .debug_str:0000000000000c94 .LASF87
     /tmp/ccwcDOjU.s:7872   .debug_str:0000000000000b3e .LASF89
     /tmp/ccwcDOjU.s:7962   .debug_str:0000000000000e5b .LASF90
     /tmp/ccwcDOjU.s:7536   .debug_str:00000000000001c9 .LASF91
     /tmp/ccwcDOjU.s:7524   .debug_str:0000000000000188 .LASF92
     /tmp/ccwcDOjU.s:7938   .debug_str:0000000000000dac .LASF93
     /tmp/ccwcDOjU.s:7486   .debug_str:000000000000003b .LASF94
     /tmp/ccwcDOjU.s:7852   .debug_str:0000000000000aa0 .LASF95
     /tmp/ccwcDOjU.s:7836   .debug_str:0000000000000a26 .LASF96
     /tmp/ccwcDOjU.s:7748   .debug_str:00000000000007a8 .LASF97
     /tmp/ccwcDOjU.s:7884   .debug_str:0000000000000c48 .LASF98
     /tmp/ccwcDOjU.s:7596   .debug_str:0000000000000376 .LASF99
     /tmp/ccwcDOjU.s:7742   .debug_str:000000000000077c .LASF243
     /tmp/ccwcDOjU.s:7510   .debug_str:000000000000010f .LASF100
     /tmp/ccwcDOjU.s:7678   .debug_str:0000000000000622 .LASF101
     /tmp/ccwcDOjU.s:7602   .debug_str:00000000000003d2 .LASF102
     /tmp/ccwcDOjU.s:7572   .debug_str:00000000000002cd .LASF103
     /tmp/ccwcDOjU.s:7506   .debug_str:00000000000000e8 .LASF104
     /tmp/ccwcDOjU.s:7876   .debug_str:0000000000000b57 .LASF105
     /tmp/ccwcDOjU.s:7890   .debug_str:0000000000000c62 .LASF106
     /tmp/ccwcDOjU.s:7974   .debug_str:0000000000000eba .LASF107
     /tmp/ccwcDOjU.s:7622   .debug_str:0000000000000472 .LASF108
     /tmp/ccwcDOjU.s:7618   .debug_str:0000000000000446 .LASF110
     /tmp/ccwcDOjU.s:7936   .debug_str:0000000000000da1 .LASF109
     /tmp/ccwcDOjU.s:7612   .debug_str:0000000000000414 .LASF111
     /tmp/ccwcDOjU.s:7690   .debug_str:000000000000065f .LASF112
     /tmp/ccwcDOjU.s:7504   .debug_str:00000000000000d2 .LASF113
     /tmp/ccwcDOjU.s:7964   .debug_str:0000000000000e68 .LASF114
     /tmp/ccwcDOjU.s:7848   .debug_str:0000000000000a87 .LASF115
     /tmp/ccwcDOjU.s:7874   .debug_str:0000000000000b4b .LASF116
     /tmp/ccwcDOjU.s:7882   .debug_str:0000000000000c30 .LASF117
     /tmp/ccwcDOjU.s:7894   .debug_str:0000000000000c71 .LASF118
     /tmp/ccwcDOjU.s:7752   .debug_str:00000000000007cf .LASF119
     /tmp/ccwcDOjU.s:7740   .debug_str:0000000000000771 .LASF120
     /tmp/ccwcDOjU.s:7910   .debug_str:0000000000000ce4 .LASF121
     /tmp/ccwcDOjU.s:7708   .debug_str:00000000000006cf .LASF122
     /tmp/ccwcDOjU.s:7606   .debug_str:00000000000003e8 .LASF123
     /tmp/ccwcDOjU.s:7692   .debug_str:0000000000000669 .LASF124
     /tmp/ccwcDOjU.s:7758   .debug_str:0000000000000803 .LASF125
     /tmp/ccwcDOjU.s:7944   .debug_str:0000000000000dd4 .LASF126
     /tmp/ccwcDOjU.s:7522   .debug_str:000000000000016c .LASF127
     /tmp/ccwcDOjU.s:7834   .debug_str:0000000000000a14 .LASF128
     /tmp/ccwcDOjU.s:7670   .debug_str:00000000000005e8 .LASF129
     /tmp/ccwcDOjU.s:7484   .debug_str:0000000000000036 .LASF130
     /tmp/ccwcDOjU.s:7960   .debug_str:0000000000000e56 .LASF131
     /tmp/ccwcDOjU.s:7830   .debug_str:0000000000000a04 .LASF132
     /tmp/ccwcDOjU.s:7896   .debug_str:0000000000000c7d .LASF133
GAS LISTING /tmp/ccwcDOjU.s 			page 73


     /tmp/ccwcDOjU.s:7860   .debug_str:0000000000000ad5 .LASF134
     /tmp/ccwcDOjU.s:7562   .debug_str:0000000000000279 .LASF135
     /tmp/ccwcDOjU.s:7630   .debug_str:00000000000004d0 .LASF136
     /tmp/ccwcDOjU.s:7516   .debug_str:0000000000000141 .LASF137
     /tmp/ccwcDOjU.s:7724   .debug_str:0000000000000725 .LASF138
     /tmp/ccwcDOjU.s:7482   .debug_str:0000000000000029 .LASF139
     /tmp/ccwcDOjU.s:7578   .debug_str:00000000000002e1 .LASF140
     /tmp/ccwcDOjU.s:7948   .debug_str:0000000000000ded .LASF141
     /tmp/ccwcDOjU.s:7818   .debug_str:00000000000009b0 .LASF142
     /tmp/ccwcDOjU.s:7766   .debug_str:000000000000084d .LASF143
     /tmp/ccwcDOjU.s:7804   .debug_str:0000000000000963 .LASF144
     /tmp/ccwcDOjU.s:7956   .debug_str:0000000000000e40 .LASF145
     /tmp/ccwcDOjU.s:7598   .debug_str:000000000000039a .LASF146
     /tmp/ccwcDOjU.s:7756   .debug_str:00000000000007f5 .LASF244
     /tmp/ccwcDOjU.s:7798   .debug_str:000000000000092a .LASF245
     /tmp/ccwcDOjU.s:7700   .debug_str:000000000000068f .LASF147
     /tmp/ccwcDOjU.s:7870   .debug_str:0000000000000b39 .LASF148
     /tmp/ccwcDOjU.s:7778   .debug_str:000000000000089e .LASF149
     /tmp/ccwcDOjU.s:7800   .debug_str:0000000000000944 .LASF150
     /tmp/ccwcDOjU.s:7498   .debug_str:00000000000000a5 .LASF151
     /tmp/ccwcDOjU.s:7574   .debug_str:00000000000002d6 .LASF152
     /tmp/ccwcDOjU.s:7902   .debug_str:0000000000000c9a .LASF153
     /tmp/ccwcDOjU.s:7858   .debug_str:0000000000000ace .LASF154
     /tmp/ccwcDOjU.s:7582   .debug_str:0000000000000305 .LASF155
     /tmp/ccwcDOjU.s:7636   .debug_str:00000000000004fd .LASF156
     /tmp/ccwcDOjU.s:7628   .debug_str:00000000000004b7 .LASF157
     /tmp/ccwcDOjU.s:7726   .debug_str:0000000000000733 .LASF158
     /tmp/ccwcDOjU.s:7556   .debug_str:0000000000000234 .LASF159
     /tmp/ccwcDOjU.s:7702   .debug_str:0000000000000694 .LASF160
     /tmp/ccwcDOjU.s:7688   .debug_str:000000000000064b .LASF161
     /tmp/ccwcDOjU.s:7966   .debug_str:0000000000000e6e .LASF162
     /tmp/ccwcDOjU.s:7866   .debug_str:0000000000000b16 .LASF163
     /tmp/ccwcDOjU.s:7642   .debug_str:0000000000000517 .LASF164
     /tmp/ccwcDOjU.s:7968   .debug_str:0000000000000e83 .LASF165
     /tmp/ccwcDOjU.s:7958   .debug_str:0000000000000e4e .LASF166
     /tmp/ccwcDOjU.s:7634   .debug_str:00000000000004e3 .LASF167
     /tmp/ccwcDOjU.s:7764   .debug_str:0000000000000832 .LASF187
     /tmp/ccwcDOjU.s:7706   .debug_str:00000000000006b9 .LASF189
     /tmp/ccwcDOjU.s:7620   .debug_str:000000000000045e .LASF168
     /tmp/ccwcDOjU.s:7840   .debug_str:0000000000000a4f .LASF169
     /tmp/ccwcDOjU.s:7528   .debug_str:000000000000019d .LASF170
     /tmp/ccwcDOjU.s:7856   .debug_str:0000000000000aba .LASF171
     /tmp/ccwcDOjU.s:7914   .debug_str:0000000000000d04 .LASF173
     /tmp/ccwcDOjU.s:7694   .debug_str:0000000000000671 .LASF174
     /tmp/ccwcDOjU.s:7886   .debug_str:0000000000000c55 .LASF175
     /tmp/ccwcDOjU.s:7784   .debug_str:00000000000008dc .LASF176
     /tmp/ccwcDOjU.s:7590   .debug_str:0000000000000347 .LASF177
     /tmp/ccwcDOjU.s:7592   .debug_str:0000000000000358 .LASF178
     /tmp/ccwcDOjU.s:7550   .debug_str:0000000000000211 .LASF179
     /tmp/ccwcDOjU.s:7898   .debug_str:0000000000000c85 .LASF180
     /tmp/ccwcDOjU.s:7922   .debug_str:0000000000000d42 .LASF181
     /tmp/ccwcDOjU.s:7676   .debug_str:0000000000000618 .LASF182
     /tmp/ccwcDOjU.s:7916   .debug_str:0000000000000d15 .LASF183
     /tmp/ccwcDOjU.s:7814   .debug_str:0000000000000991 .LASF184
     /tmp/ccwcDOjU.s:7662   .debug_str:00000000000005a4 .LASF185
     /tmp/ccwcDOjU.s:7930   .debug_str:0000000000000d81 .LASF186
     /tmp/ccwcDOjU.s:7940   .debug_str:0000000000000db9 .LASF188
GAS LISTING /tmp/ccwcDOjU.s 			page 74


     /tmp/ccwcDOjU.s:7508   .debug_str:00000000000000fc .LASF190
     /tmp/ccwcDOjU.s:7908   .debug_str:0000000000000cdd .LASF191
     /tmp/ccwcDOjU.s:7586   .debug_str:0000000000000328 .LASF192
     /tmp/ccwcDOjU.s:7570   .debug_str:00000000000002ba .LASF193
     /tmp/ccwcDOjU.s:7822   .debug_str:00000000000009c8 .LASF194
     /tmp/ccwcDOjU.s:7760   .debug_str:0000000000000816 .LASF195
     /tmp/ccwcDOjU.s:7624   .debug_str:000000000000047d .LASF196
     /tmp/ccwcDOjU.s:7786   .debug_str:00000000000008ed .LASF197
     /tmp/ccwcDOjU.s:7892   .debug_str:0000000000000c6a .LASF198
     /tmp/ccwcDOjU.s:7810   .debug_str:0000000000000980 .LASF246
     /tmp/ccwcDOjU.s:7546   .debug_str:0000000000000203 .LASF199
     /tmp/ccwcDOjU.s:7736   .debug_str:0000000000000760 .LASF200
     /tmp/ccwcDOjU.s:7820   .debug_str:00000000000009c1 .LASF201
     /tmp/ccwcDOjU.s:7512   .debug_str:000000000000012d .LASF202
     /tmp/ccwcDOjU.s:7684   .debug_str:000000000000063c .LASF203
     /tmp/ccwcDOjU.s:7714   .debug_str:00000000000006e5 .LASF204
     /tmp/ccwcDOjU.s:7680   .debug_str:0000000000000628 .LASF205
     /tmp/ccwcDOjU.s:7832   .debug_str:0000000000000a0a .LASF206
     /tmp/ccwcDOjU.s:7696   .debug_str:000000000000067a .LASF207
     /tmp/ccwcDOjU.s:7640   .debug_str:000000000000050e .LASF208
     /tmp/ccwcDOjU.s:7532   .debug_str:00000000000001b9 .LASF209
     /tmp/ccwcDOjU.s:7926   .debug_str:0000000000000d6b .LASF210
     /tmp/ccwcDOjU.s:7560   .debug_str:0000000000000267 .LASF211
     /tmp/ccwcDOjU.s:7868   .debug_str:0000000000000b2b .LASF212
     /tmp/ccwcDOjU.s:7500   .debug_str:00000000000000b9 .LASF213
     /tmp/ccwcDOjU.s:7566   .debug_str:000000000000028e .LASF214
     /tmp/ccwcDOjU.s:7544   .debug_str:00000000000001fa .LASF215
     /tmp/ccwcDOjU.s:7552   .debug_str:0000000000000223 .LASF216
     /tmp/ccwcDOjU.s:7728   .debug_str:0000000000000743 .LASF217
     /tmp/ccwcDOjU.s:7806   .debug_str:000000000000096e .LASF218
     /tmp/ccwcDOjU.s:7738   .debug_str:0000000000000766 .LASF219
     /tmp/ccwcDOjU.s:7658   .debug_str:0000000000000588 .LASF220
     /tmp/ccwcDOjU.s:7720   .debug_str:000000000000070f .LASF221
     /tmp/ccwcDOjU.s:7534   .debug_str:00000000000001c3 .LASF222
     /tmp/ccwcDOjU.s:2212   .text:00000000000007b4 .LFE51
     /tmp/ccwcDOjU.s:7950   .debug_str:0000000000000dfe .LASF223
     /tmp/ccwcDOjU.s:6618   .debug_loc:0000000000000000 .LLST0
     /tmp/ccwcDOjU.s:7426   .debug_ranges:0000000000000000 .Ldebug_ranges0
     /tmp/ccwcDOjU.s:7664   .debug_str:00000000000005ae .LASF224
     /tmp/ccwcDOjU.s:6751   .debug_loc:00000000000001fa .LLST7
     /tmp/ccwcDOjU.s:535    .text:000000000000017c .LBB432
     /tmp/ccwcDOjU.s:607    .text:00000000000001bc .LBE432
     /tmp/ccwcDOjU.s:7584   .debug_str:000000000000031e .LASF225
     /tmp/ccwcDOjU.s:6818   .debug_loc:000000000000033a .LLST72
     /tmp/ccwcDOjU.s:6825   .debug_loc:000000000000035d .LLST73
     /tmp/ccwcDOjU.s:573    .text:00000000000001a4 .LBB433
     /tmp/ccwcDOjU.s:588    .text:00000000000001b0 .LBE433
     /tmp/ccwcDOjU.s:592    .text:00000000000001b4 .LBB435
     /tmp/ccwcDOjU.s:606    .text:00000000000001bc .LBE435
     /tmp/ccwcDOjU.s:6832   .debug_loc:0000000000000380 .LLST74
     /tmp/ccwcDOjU.s:556    .text:0000000000000198 .LVL10
     /tmp/ccwcDOjU.s:609    .text:00000000000001bc .LBB413
     /tmp/ccwcDOjU.s:681    .text:00000000000001fc .LBE413
     /tmp/ccwcDOjU.s:7526   .debug_str:0000000000000198 .LASF226
     /tmp/ccwcDOjU.s:6839   .debug_loc:00000000000003a3 .LLST69
     /tmp/ccwcDOjU.s:6846   .debug_loc:00000000000003c6 .LLST70
     /tmp/ccwcDOjU.s:647    .text:00000000000001e4 .LBB414
GAS LISTING /tmp/ccwcDOjU.s 			page 75


     /tmp/ccwcDOjU.s:662    .text:00000000000001f0 .LBE414
     /tmp/ccwcDOjU.s:666    .text:00000000000001f4 .LBB416
     /tmp/ccwcDOjU.s:680    .text:00000000000001fc .LBE416
     /tmp/ccwcDOjU.s:6853   .debug_loc:00000000000003e9 .LLST71
     /tmp/ccwcDOjU.s:630    .text:00000000000001d8 .LVL15
     /tmp/ccwcDOjU.s:785    .text:000000000000023c .LBB360
     /tmp/ccwcDOjU.s:909    .text:00000000000002ac .LBE360
     /tmp/ccwcDOjU.s:7888   .debug_str:0000000000000c5c .LASF227
     /tmp/ccwcDOjU.s:6860   .debug_loc:000000000000040c .LLST60
     /tmp/ccwcDOjU.s:6872   .debug_loc:0000000000000443 .LLST61
     /tmp/ccwcDOjU.s:6884   .debug_loc:000000000000047a .LLST62
     /tmp/ccwcDOjU.s:6896   .debug_loc:00000000000004b1 .LLST63
     /tmp/ccwcDOjU.s:865    .text:000000000000028c .LBB361
     /tmp/ccwcDOjU.s:880    .text:0000000000000298 .LBE361
     /tmp/ccwcDOjU.s:884    .text:000000000000029c .LBB363
     /tmp/ccwcDOjU.s:898    .text:00000000000002a4 .LBE363
     /tmp/ccwcDOjU.s:6908   .debug_loc:00000000000004e8 .LLST64
     /tmp/ccwcDOjU.s:842    .text:0000000000000270 .LVL31
     /tmp/ccwcDOjU.s:911    .text:00000000000002ac .LBB343
     /tmp/ccwcDOjU.s:1057   .text:0000000000000334 .LBE343
     /tmp/ccwcDOjU.s:6915   .debug_loc:000000000000050b .LLST54
     /tmp/ccwcDOjU.s:6927   .debug_loc:0000000000000542 .LLST55
     /tmp/ccwcDOjU.s:6939   .debug_loc:0000000000000579 .LLST56
     /tmp/ccwcDOjU.s:6951   .debug_loc:00000000000005b0 .LLST57
     /tmp/ccwcDOjU.s:975    .text:00000000000002e8 .LBB344
     /tmp/ccwcDOjU.s:994    .text:0000000000000300 .LBE344
     /tmp/ccwcDOjU.s:6963   .debug_loc:00000000000005e7 .LLST58
     /tmp/ccwcDOjU.s:990    .text:0000000000000300 .LVL42
     /tmp/ccwcDOjU.s:1013   .text:0000000000000314 .LBB346
     /tmp/ccwcDOjU.s:1028   .text:0000000000000320 .LBE346
     /tmp/ccwcDOjU.s:1032   .text:0000000000000324 .LBB348
     /tmp/ccwcDOjU.s:1046   .text:000000000000032c .LBE348
     /tmp/ccwcDOjU.s:6970   .debug_loc:000000000000060a .LLST59
     /tmp/ccwcDOjU.s:968    .text:00000000000002e0 .LVL40
     /tmp/ccwcDOjU.s:1059   .text:0000000000000334 .LBB323
     /tmp/ccwcDOjU.s:1159   .text:0000000000000394 .LBE323
     /tmp/ccwcDOjU.s:7932   .debug_str:0000000000000d92 .LASF228
     /tmp/ccwcDOjU.s:6977   .debug_loc:000000000000062d .LLST48
     /tmp/ccwcDOjU.s:7824   .debug_str:00000000000009eb .LASF229
     /tmp/ccwcDOjU.s:6984   .debug_loc:0000000000000650 .LLST49
     /tmp/ccwcDOjU.s:1061   .text:0000000000000334 .LBB324
     /tmp/ccwcDOjU.s:1077   .text:0000000000000340 .LBE324
     /tmp/ccwcDOjU.s:1082   .text:0000000000000344 .LBB326
     /tmp/ccwcDOjU.s:1098   .text:0000000000000350 .LBE326
     /tmp/ccwcDOjU.s:1104   .text:000000000000035c .LBB328
     /tmp/ccwcDOjU.s:1125   .text:0000000000000380 .LBE328
     /tmp/ccwcDOjU.s:6991   .debug_loc:0000000000000673 .LLST50
     /tmp/ccwcDOjU.s:6999   .debug_loc:0000000000000697 .LLST51
     /tmp/ccwcDOjU.s:1131   .text:0000000000000388 .LBB330
     /tmp/ccwcDOjU.s:1142   .text:000000000000038c .LBE330
     /tmp/ccwcDOjU.s:7006   .debug_loc:00000000000006ba .LLST52
     /tmp/ccwcDOjU.s:1144   .text:000000000000038c .LBB332
     /tmp/ccwcDOjU.s:1158   .text:0000000000000394 .LBE332
     /tmp/ccwcDOjU.s:7013   .debug_loc:00000000000006dd .LLST53
     /tmp/ccwcDOjU.s:1129   .text:0000000000000388 .LVL52
     /tmp/ccwcDOjU.s:1161   .text:0000000000000394 .LBB306
     /tmp/ccwcDOjU.s:1234   .text:00000000000003c4 .LBE306
GAS LISTING /tmp/ccwcDOjU.s 			page 76


     /tmp/ccwcDOjU.s:7020   .debug_loc:0000000000000700 .LLST44
     /tmp/ccwcDOjU.s:7027   .debug_loc:0000000000000723 .LLST45
     /tmp/ccwcDOjU.s:1163   .text:0000000000000394 .LBB307
     /tmp/ccwcDOjU.s:1179   .text:00000000000003a0 .LBE307
     /tmp/ccwcDOjU.s:1184   .text:00000000000003a4 .LBB309
     /tmp/ccwcDOjU.s:1200   .text:00000000000003b0 .LBE309
     /tmp/ccwcDOjU.s:1206   .text:00000000000003b8 .LBB311
     /tmp/ccwcDOjU.s:1217   .text:00000000000003bc .LBE311
     /tmp/ccwcDOjU.s:7034   .debug_loc:0000000000000746 .LLST46
     /tmp/ccwcDOjU.s:1219   .text:00000000000003bc .LBB313
     /tmp/ccwcDOjU.s:1233   .text:00000000000003c4 .LBE313
     /tmp/ccwcDOjU.s:7041   .debug_loc:0000000000000769 .LLST47
     /tmp/ccwcDOjU.s:1204   .text:00000000000003b8 .LVL58
     /tmp/ccwcDOjU.s:1236   .text:00000000000003c4 .LBB294
     /tmp/ccwcDOjU.s:1340   .text:000000000000042c .LBE294
     /tmp/ccwcDOjU.s:7048   .debug_loc:000000000000078c .LLST41
     /tmp/ccwcDOjU.s:7770   .debug_str:000000000000085f .LASF230
     /tmp/ccwcDOjU.s:7060   .debug_loc:00000000000007c3 .LLST42
     /tmp/ccwcDOjU.s:1296   .text:000000000000040c .LBB295
     /tmp/ccwcDOjU.s:1311   .text:0000000000000418 .LBE295
     /tmp/ccwcDOjU.s:1315   .text:000000000000041c .LBB297
     /tmp/ccwcDOjU.s:1329   .text:0000000000000424 .LBE297
     /tmp/ccwcDOjU.s:7067   .debug_loc:00000000000007e6 .LLST43
     /tmp/ccwcDOjU.s:1272   .text:00000000000003f0 .LVL65
     /tmp/ccwcDOjU.s:1342   .text:000000000000042c .LBB274
     /tmp/ccwcDOjU.s:1460   .text:0000000000000494 .LBE274
     /tmp/ccwcDOjU.s:7074   .debug_loc:0000000000000809 .LLST33
     /tmp/ccwcDOjU.s:1365   .text:0000000000000444 .LBB275
     /tmp/ccwcDOjU.s:1413   .text:0000000000000470 .LBE275
     /tmp/ccwcDOjU.s:1372   .text:000000000000044c .LBB277
     /tmp/ccwcDOjU.s:1407   .text:000000000000046c .LBE277
     /tmp/ccwcDOjU.s:7086   .debug_loc:0000000000000840 .LLST34
     /tmp/ccwcDOjU.s:1385   .text:0000000000000458 .LBB278
     /tmp/ccwcDOjU.s:1393   .text:0000000000000460 .LBE278
     /tmp/ccwcDOjU.s:7093   .debug_loc:0000000000000863 .LLST35
     /tmp/ccwcDOjU.s:7101   .debug_loc:0000000000000887 .LLST36
     /tmp/ccwcDOjU.s:1395   .text:0000000000000460 .LBB280
     /tmp/ccwcDOjU.s:1402   .text:0000000000000464 .LBE280
     /tmp/ccwcDOjU.s:7108   .debug_loc:00000000000008aa .LLST37
     /tmp/ccwcDOjU.s:7116   .debug_loc:00000000000008ce .LLST38
     /tmp/ccwcDOjU.s:1406   .text:000000000000046c .LVL76
     /tmp/ccwcDOjU.s:1414   .text:0000000000000470 .LBB282
     /tmp/ccwcDOjU.s:1424   .text:000000000000047c .LBE282
     /tmp/ccwcDOjU.s:7123   .debug_loc:00000000000008f1 .LLST39
     /tmp/ccwcDOjU.s:1421   .text:000000000000047c .LVL78
     /tmp/ccwcDOjU.s:1426   .text:000000000000047c .LBB284
     /tmp/ccwcDOjU.s:1441   .text:0000000000000488 .LBE284
     /tmp/ccwcDOjU.s:1445   .text:000000000000048c .LBB286
     /tmp/ccwcDOjU.s:1459   .text:0000000000000494 .LBE286
     /tmp/ccwcDOjU.s:7130   .debug_loc:0000000000000914 .LLST40
     /tmp/ccwcDOjU.s:1462   .text:0000000000000494 .LBB256
     /tmp/ccwcDOjU.s:1578   .text:00000000000004f4 .LBE256
     /tmp/ccwcDOjU.s:7137   .debug_loc:0000000000000937 .LLST27
     /tmp/ccwcDOjU.s:7144   .debug_loc:000000000000095a .LLST28
     /tmp/ccwcDOjU.s:7151   .debug_loc:000000000000097d .LLST29
     /tmp/ccwcDOjU.s:1464   .text:0000000000000494 .LBB257
     /tmp/ccwcDOjU.s:1480   .text:00000000000004a0 .LBE257
GAS LISTING /tmp/ccwcDOjU.s 			page 77


     /tmp/ccwcDOjU.s:1485   .text:00000000000004a4 .LBB259
     /tmp/ccwcDOjU.s:1501   .text:00000000000004b0 .LBE259
     /tmp/ccwcDOjU.s:1522   .text:00000000000004c8 .LBB261
     /tmp/ccwcDOjU.s:7167   .debug_loc:00000000000009c7 .LLST30
     /tmp/ccwcDOjU.s:1572   .text:00000000000004f0 .LVL89
     /tmp/ccwcDOjU.s:1539   .text:00000000000004dc .LBB264
     /tmp/ccwcDOjU.s:1550   .text:00000000000004e0 .LBE264
     /tmp/ccwcDOjU.s:7178   .debug_loc:00000000000009fd .LLST31
     /tmp/ccwcDOjU.s:1552   .text:00000000000004e0 .LBB266
     /tmp/ccwcDOjU.s:1566   .text:00000000000004e8 .LBE266
     /tmp/ccwcDOjU.s:7185   .debug_loc:0000000000000a20 .LLST32
     /tmp/ccwcDOjU.s:1580   .text:00000000000004f4 .LBB243
     /tmp/ccwcDOjU.s:1662   .text:0000000000000540 .LBE243
     /tmp/ccwcDOjU.s:7192   .debug_loc:0000000000000a43 .LLST24
     /tmp/ccwcDOjU.s:1602   .text:000000000000050c .LBB244
     /tmp/ccwcDOjU.s:7208   .debug_loc:0000000000000a8d .LLST25
     /tmp/ccwcDOjU.s:1656   .text:000000000000053c .LVL97
     /tmp/ccwcDOjU.s:1617   .text:000000000000051c .LBB247
     /tmp/ccwcDOjU.s:1632   .text:0000000000000528 .LBE247
     /tmp/ccwcDOjU.s:1636   .text:000000000000052c .LBB249
     /tmp/ccwcDOjU.s:1650   .text:0000000000000534 .LBE249
     /tmp/ccwcDOjU.s:7219   .debug_loc:0000000000000ac3 .LLST26
     /tmp/ccwcDOjU.s:1664   .text:0000000000000540 .LBB231
     /tmp/ccwcDOjU.s:1757   .text:000000000000058c .LBE231
     /tmp/ccwcDOjU.s:7226   .debug_loc:0000000000000ae6 .LLST19
     /tmp/ccwcDOjU.s:7233   .debug_loc:0000000000000b09 .LLST20
     /tmp/ccwcDOjU.s:7240   .debug_loc:0000000000000b2c .LLST21
     /tmp/ccwcDOjU.s:1687   .text:000000000000055c .LBB232
     /tmp/ccwcDOjU.s:1702   .text:0000000000000568 .LBE232
     /tmp/ccwcDOjU.s:1707   .text:000000000000056c .LBB234
     /tmp/ccwcDOjU.s:1723   .text:0000000000000578 .LBE234
     /tmp/ccwcDOjU.s:1729   .text:0000000000000580 .LBB236
     /tmp/ccwcDOjU.s:1740   .text:0000000000000584 .LBE236
     /tmp/ccwcDOjU.s:7247   .debug_loc:0000000000000b4f .LLST22
     /tmp/ccwcDOjU.s:1742   .text:0000000000000584 .LBB238
     /tmp/ccwcDOjU.s:1756   .text:000000000000058c .LBE238
     /tmp/ccwcDOjU.s:7254   .debug_loc:0000000000000b72 .LLST23
     /tmp/ccwcDOjU.s:1685   .text:000000000000055c .LVL101
     /tmp/ccwcDOjU.s:1727   .text:0000000000000580 .LVL104
     /tmp/ccwcDOjU.s:1759   .text:000000000000058c .LBB220
     /tmp/ccwcDOjU.s:1839   .text:00000000000005d4 .LBE220
     /tmp/ccwcDOjU.s:7261   .debug_loc:0000000000000b95 .LLST14
     /tmp/ccwcDOjU.s:7268   .debug_loc:0000000000000bb8 .LLST15
     /tmp/ccwcDOjU.s:7275   .debug_loc:0000000000000bdb .LLST16
     /tmp/ccwcDOjU.s:1761   .text:000000000000058c .LBB221
     /tmp/ccwcDOjU.s:1777   .text:0000000000000598 .LBE221
     /tmp/ccwcDOjU.s:1782   .text:000000000000059c .LBB223
     /tmp/ccwcDOjU.s:1798   .text:00000000000005a8 .LBE223
     /tmp/ccwcDOjU.s:1811   .text:00000000000005c8 .LBB225
     /tmp/ccwcDOjU.s:1822   .text:00000000000005cc .LBE225
     /tmp/ccwcDOjU.s:7282   .debug_loc:0000000000000bfe .LLST17
     /tmp/ccwcDOjU.s:1824   .text:00000000000005cc .LBB227
     /tmp/ccwcDOjU.s:1838   .text:00000000000005d4 .LBE227
     /tmp/ccwcDOjU.s:7289   .debug_loc:0000000000000c21 .LLST18
     /tmp/ccwcDOjU.s:1804   .text:00000000000005bc .LVL110
     /tmp/ccwcDOjU.s:1841   .text:00000000000005d4 .LBB207
     /tmp/ccwcDOjU.s:1965   .text:0000000000000680 .LBE207
GAS LISTING /tmp/ccwcDOjU.s 			page 78


     /tmp/ccwcDOjU.s:7296   .debug_loc:0000000000000c44 .LLST8
     /tmp/ccwcDOjU.s:7303   .debug_loc:0000000000000c67 .LLST9
     /tmp/ccwcDOjU.s:7310   .debug_loc:0000000000000c8a .LLST10
     /tmp/ccwcDOjU.s:1861   .text:00000000000005ec .LBB208
     /tmp/ccwcDOjU.s:1876   .text:00000000000005f8 .LBE208
     /tmp/ccwcDOjU.s:1881   .text:00000000000005fc .LBB210
     /tmp/ccwcDOjU.s:1897   .text:0000000000000608 .LBE210
     /tmp/ccwcDOjU.s:1937   .text:0000000000000674 .LBB212
     /tmp/ccwcDOjU.s:1948   .text:0000000000000678 .LBE212
     /tmp/ccwcDOjU.s:7317   .debug_loc:0000000000000cad .LLST11
     /tmp/ccwcDOjU.s:1950   .text:0000000000000678 .LBB214
     /tmp/ccwcDOjU.s:1964   .text:0000000000000680 .LBE214
     /tmp/ccwcDOjU.s:7324   .debug_loc:0000000000000cd0 .LLST12
     /tmp/ccwcDOjU.s:1903   .text:000000000000061c .LVL118
     /tmp/ccwcDOjU.s:1918   .text:0000000000000648 .LVL119
     /tmp/ccwcDOjU.s:1926   .text:0000000000000660 .LVL120
     /tmp/ccwcDOjU.s:1967   .text:0000000000000680 .LBB216
     /tmp/ccwcDOjU.s:1982   .text:000000000000068c .LBE216
     /tmp/ccwcDOjU.s:1986   .text:0000000000000690 .LBB218
     /tmp/ccwcDOjU.s:2000   .text:0000000000000698 .LBE218
     /tmp/ccwcDOjU.s:7331   .debug_loc:0000000000000cf3 .LLST13
     /tmp/ccwcDOjU.s:735    .text:000000000000021c .LBB376
     /tmp/ccwcDOjU.s:748    .text:0000000000000224 .LBE376
     /tmp/ccwcDOjU.s:7338   .debug_loc:0000000000000d16 .LLST65
     /tmp/ccwcDOjU.s:750    .text:0000000000000224 .LBB378
     /tmp/ccwcDOjU.s:765    .text:0000000000000230 .LBE378
     /tmp/ccwcDOjU.s:769    .text:0000000000000234 .LBB380
     /tmp/ccwcDOjU.s:783    .text:000000000000023c .LBE380
     /tmp/ccwcDOjU.s:7347   .debug_loc:0000000000000d3c .LLST66
     /tmp/ccwcDOjU.s:684    .text:00000000000001fc .LBB394
     /tmp/ccwcDOjU.s:697    .text:0000000000000204 .LBE394
     /tmp/ccwcDOjU.s:7354   .debug_loc:0000000000000d5f .LLST67
     /tmp/ccwcDOjU.s:699    .text:0000000000000204 .LBB396
     /tmp/ccwcDOjU.s:714    .text:0000000000000210 .LBE396
     /tmp/ccwcDOjU.s:718    .text:0000000000000214 .LBB398
     /tmp/ccwcDOjU.s:732    .text:000000000000021c .LBE398
     /tmp/ccwcDOjU.s:7363   .debug_loc:0000000000000d85 .LLST68
     /tmp/ccwcDOjU.s:504    .text:000000000000014c .LVL5
     /tmp/ccwcDOjU.s:516    .text:0000000000000178 .LVL6
     /tmp/ccwcDOjU.s:2058   .text:00000000000006cc .LBB177
     /tmp/ccwcDOjU.s:2128   .text:00000000000006f8 .LBE177
     /tmp/ccwcDOjU.s:7370   .debug_loc:0000000000000da8 .LLST2
     /tmp/ccwcDOjU.s:7377   .debug_loc:0000000000000dcb .LLST3
     /tmp/ccwcDOjU.s:2060   .text:00000000000006cc .LBB178
     /tmp/ccwcDOjU.s:2076   .text:00000000000006d8 .LBE178
     /tmp/ccwcDOjU.s:2078   .text:00000000000006d8 .LBB180
     /tmp/ccwcDOjU.s:2094   .text:00000000000006e4 .LBE180
     /tmp/ccwcDOjU.s:2100   .text:00000000000006ec .LBB182
     /tmp/ccwcDOjU.s:2111   .text:00000000000006f0 .LBE182
     /tmp/ccwcDOjU.s:7384   .debug_loc:0000000000000dee .LLST4
     /tmp/ccwcDOjU.s:2113   .text:00000000000006f0 .LBB184
     /tmp/ccwcDOjU.s:2127   .text:00000000000006f8 .LBE184
     /tmp/ccwcDOjU.s:7391   .debug_loc:0000000000000e11 .LLST5
     /tmp/ccwcDOjU.s:2098   .text:00000000000006ec .LVL132
     /tmp/ccwcDOjU.s:7554   .debug_str:000000000000022d .LASF231
     /tmp/ccwcDOjU.s:7398   .debug_loc:0000000000000e34 .LLST1
     /tmp/ccwcDOjU.s:2136   .text:0000000000000700 .LVL135
GAS LISTING /tmp/ccwcDOjU.s 			page 79


     /tmp/ccwcDOjU.s:2148   .text:0000000000000718 .LVL138
     /tmp/ccwcDOjU.s:2166   .text:0000000000000748 .LVL139
     /tmp/ccwcDOjU.s:2178   .text:0000000000000774 .LVL140
     /tmp/ccwcDOjU.s:75     .text:0000000000000038 .LBB168
     /tmp/ccwcDOjU.s:92     .text:0000000000000044 .LBE168
     /tmp/ccwcDOjU.s:2041   .text:00000000000006c0 .LBB186
     /tmp/ccwcDOjU.s:2056   .text:00000000000006cc .LBE186
     /tmp/ccwcDOjU.s:7405   .debug_loc:0000000000000e57 .LLST6
     /tmp/ccwcDOjU.s:2029   .text:00000000000006b4 .LVL127
     /tmp/ccwcDOjU.s:2188   .text:0000000000000788 .LVL142
     /tmp/ccwcDOjU.s:2196   .text:000000000000079c .LVL144
     /tmp/ccwcDOjU.s:2204   .text:00000000000007b0 .LVL146
     /tmp/ccwcDOjU.s:10     .text:0000000000000000 .LFB50
     /tmp/ccwcDOjU.s:40     .text:0000000000000020 .LFE50
     /tmp/ccwcDOjU.s:7604   .debug_str:00000000000003e3 .LASF232
     /tmp/ccwcDOjU.s:7514   .debug_str:0000000000000137 .LASF233
     /tmp/ccwcDOjU.s:7744   .debug_str:0000000000000781 .LASF247
     /tmp/ccwcDOjU.s:7712   .debug_str:00000000000006e0 .LASF234
     /tmp/ccwcDOjU.s:7698   .debug_str:0000000000000684 .LASF235
     /tmp/ccwcDOjU.s:7754   .debug_str:00000000000007e7 .LASF236
     /tmp/ccwcDOjU.s:7802   .debug_str:0000000000000950 .LASF237
     /tmp/ccwcDOjU.s:7614   .debug_str:000000000000042c .LASF238
     /tmp/ccwcDOjU.s:90     .text:0000000000000044 .LVL0
     /tmp/ccwcDOjU.s:127    .text:0000000000000088 .LVL1
     /tmp/ccwcDOjU.s:146    .text:00000000000000a0 .LVL2
     /tmp/ccwcDOjU.s:158    .text:00000000000000a4 .LVL3
     /tmp/ccwcDOjU.s:488    .text:0000000000000120 .LVL4
     /tmp/ccwcDOjU.s:519    .text:000000000000017c .LVL7
     /tmp/ccwcDOjU.s:603    .text:00000000000001bc .LVL12
     /tmp/ccwcDOjU.s:677    .text:00000000000001fc .LVL17
     /tmp/ccwcDOjU.s:907    .text:00000000000002ac .LVL34
     /tmp/ccwcDOjU.s:1055   .text:0000000000000334 .LVL45
     /tmp/ccwcDOjU.s:1155   .text:0000000000000394 .LVL54
     /tmp/ccwcDOjU.s:1230   .text:00000000000003c4 .LVL60
     /tmp/ccwcDOjU.s:1338   .text:000000000000042c .LVL68
     /tmp/ccwcDOjU.s:1363   .text:0000000000000444 .LVL71
     /tmp/ccwcDOjU.s:1456   .text:0000000000000494 .LVL80
     /tmp/ccwcDOjU.s:1534   .text:00000000000004dc .LVL86
     /tmp/ccwcDOjU.s:1563   .text:00000000000004e8 .LVL88
     /tmp/ccwcDOjU.s:1574   .text:00000000000004f4 .LVL90
     /tmp/ccwcDOjU.s:1612   .text:000000000000051c .LVL94
     /tmp/ccwcDOjU.s:1647   .text:0000000000000534 .LVL96
     /tmp/ccwcDOjU.s:1658   .text:0000000000000540 .LVL98
     /tmp/ccwcDOjU.s:1753   .text:000000000000058c .LVL106
     /tmp/ccwcDOjU.s:1835   .text:00000000000005d4 .LVL113
     /tmp/ccwcDOjU.s:1997   .text:0000000000000698 .LVL125
     /tmp/ccwcDOjU.s:2023   .text:00000000000006a4 .LVL126
     /tmp/ccwcDOjU.s:2124   .text:00000000000006f8 .LVL134
     /tmp/ccwcDOjU.s:2181   .text:0000000000000778 .LVL141
     /tmp/ccwcDOjU.s:2190   .text:000000000000078c .LVL143
     /tmp/ccwcDOjU.s:2198   .text:00000000000007a0 .LVL145
     /tmp/ccwcDOjU.s:541    .text:0000000000000188 .LVL8
     /tmp/ccwcDOjU.s:615    .text:00000000000001c8 .LVL13
     /tmp/ccwcDOjU.s:689    .text:0000000000000200 .LVL18
     /tmp/ccwcDOjU.s:729    .text:000000000000021c .LVL21
     /tmp/ccwcDOjU.s:740    .text:0000000000000220 .LVL22
     /tmp/ccwcDOjU.s:780    .text:000000000000023c .LVL25
GAS LISTING /tmp/ccwcDOjU.s 			page 80


     /tmp/ccwcDOjU.s:793    .text:0000000000000244 .LVL26
     /tmp/ccwcDOjU.s:919    .text:00000000000002b4 .LVL35
     /tmp/ccwcDOjU.s:1070   .text:0000000000000338 .LVL46
     /tmp/ccwcDOjU.s:1172   .text:0000000000000398 .LVL55
     /tmp/ccwcDOjU.s:1242   .text:00000000000003cc .LVL61
     /tmp/ccwcDOjU.s:1347   .text:0000000000000434 .LVL69
     /tmp/ccwcDOjU.s:1473   .text:0000000000000498 .LVL81
     /tmp/ccwcDOjU.s:1585   .text:00000000000004fc .LVL91
     /tmp/ccwcDOjU.s:1669   .text:0000000000000548 .LVL99
     /tmp/ccwcDOjU.s:1770   .text:0000000000000590 .LVL107
     /tmp/ccwcDOjU.s:1846   .text:00000000000005dc .LVL114
     /tmp/ccwcDOjU.s:551    .text:0000000000000190 .LVL9
     /tmp/ccwcDOjU.s:591    .text:00000000000001b4 .LVL11
     /tmp/ccwcDOjU.s:625    .text:00000000000001d0 .LVL14
     /tmp/ccwcDOjU.s:665    .text:00000000000001f4 .LVL16
     /tmp/ccwcDOjU.s:804    .text:0000000000000250 .LVL27
     /tmp/ccwcDOjU.s:815    .text:0000000000000258 .LVL28
     /tmp/ccwcDOjU.s:826    .text:0000000000000260 .LVL29
     /tmp/ccwcDOjU.s:837    .text:0000000000000268 .LVL30
     /tmp/ccwcDOjU.s:883    .text:000000000000029c .LVL32
     /tmp/ccwcDOjU.s:895    .text:00000000000002a4 .LVL33
     /tmp/ccwcDOjU.s:930    .text:00000000000002c0 .LVL36
     /tmp/ccwcDOjU.s:941    .text:00000000000002c8 .LVL37
     /tmp/ccwcDOjU.s:952    .text:00000000000002d0 .LVL38
     /tmp/ccwcDOjU.s:963    .text:00000000000002d8 .LVL39
     /tmp/ccwcDOjU.s:974    .text:00000000000002e8 .LVL41
     /tmp/ccwcDOjU.s:1031   .text:0000000000000324 .LVL43
     /tmp/ccwcDOjU.s:1043   .text:000000000000032c .LVL44
     /tmp/ccwcDOjU.s:1080   .text:0000000000000344 .LVL47
     /tmp/ccwcDOjU.s:1096   .text:0000000000000350 .LVL48
     /tmp/ccwcDOjU.s:1103   .text:000000000000035c .LVL49
     /tmp/ccwcDOjU.s:1123   .text:0000000000000380 .LVL51
     /tmp/ccwcDOjU.s:1119   .text:0000000000000378 .LVL50
     /tmp/ccwcDOjU.s:1139   .text:000000000000038c .LVL53
     /tmp/ccwcDOjU.s:1182   .text:00000000000003a4 .LVL56
     /tmp/ccwcDOjU.s:1198   .text:00000000000003b0 .LVL57
     /tmp/ccwcDOjU.s:1214   .text:00000000000003bc .LVL59
     /tmp/ccwcDOjU.s:1253   .text:00000000000003d8 .LVL62
     /tmp/ccwcDOjU.s:1264   .text:00000000000003e0 .LVL63
     /tmp/ccwcDOjU.s:1269   .text:00000000000003e4 .LVL64
     /tmp/ccwcDOjU.s:1314   .text:000000000000041c .LVL66
     /tmp/ccwcDOjU.s:1326   .text:0000000000000424 .LVL67
     /tmp/ccwcDOjU.s:1358   .text:0000000000000440 .LVL70
     /tmp/ccwcDOjU.s:1374   .text:000000000000044c .LVL72
     /tmp/ccwcDOjU.s:1384   .text:0000000000000458 .LVL73
     /tmp/ccwcDOjU.s:1391   .text:0000000000000460 .LVL74
     /tmp/ccwcDOjU.s:1400   .text:0000000000000464 .LVL75
     /tmp/ccwcDOjU.s:1411   .text:0000000000000470 .LVL77
     /tmp/ccwcDOjU.s:1444   .text:000000000000048c .LVL79
     /tmp/ccwcDOjU.s:1483   .text:00000000000004a4 .LVL82
     /tmp/ccwcDOjU.s:1499   .text:00000000000004b0 .LVL83
     /tmp/ccwcDOjU.s:1516   .text:00000000000004c4 .LVL84
     /tmp/ccwcDOjU.s:1521   .text:00000000000004c8 .LVL85
     /tmp/ccwcDOjU.s:1547   .text:00000000000004e0 .LVL87
     /tmp/ccwcDOjU.s:1596   .text:0000000000000508 .LVL92
     /tmp/ccwcDOjU.s:1601   .text:000000000000050c .LVL93
     /tmp/ccwcDOjU.s:1635   .text:000000000000052c .LVL95
GAS LISTING /tmp/ccwcDOjU.s 			page 81


     /tmp/ccwcDOjU.s:1680   .text:0000000000000554 .LVL100
     /tmp/ccwcDOjU.s:1705   .text:000000000000056c .LVL102
     /tmp/ccwcDOjU.s:1721   .text:0000000000000578 .LVL103
     /tmp/ccwcDOjU.s:1737   .text:0000000000000584 .LVL105
     /tmp/ccwcDOjU.s:1780   .text:000000000000059c .LVL108
     /tmp/ccwcDOjU.s:1796   .text:00000000000005a8 .LVL109
     /tmp/ccwcDOjU.s:1810   .text:00000000000005c8 .LVL111
     /tmp/ccwcDOjU.s:1819   .text:00000000000005cc .LVL112
     /tmp/ccwcDOjU.s:1859   .text:00000000000005ec .LVL115
     /tmp/ccwcDOjU.s:1879   .text:00000000000005fc .LVL116
     /tmp/ccwcDOjU.s:1961   .text:0000000000000680 .LVL123
     /tmp/ccwcDOjU.s:1895   .text:0000000000000608 .LVL117
     /tmp/ccwcDOjU.s:1936   .text:0000000000000674 .LVL121
     /tmp/ccwcDOjU.s:1945   .text:0000000000000678 .LVL122
     /tmp/ccwcDOjU.s:1985   .text:0000000000000690 .LVL124
     /tmp/ccwcDOjU.s:745    .text:0000000000000224 .LVL23
     /tmp/ccwcDOjU.s:768    .text:0000000000000234 .LVL24
     /tmp/ccwcDOjU.s:694    .text:0000000000000204 .LVL19
     /tmp/ccwcDOjU.s:717    .text:0000000000000214 .LVL20
     /tmp/ccwcDOjU.s:2074   .text:00000000000006d8 .LVL130
     /tmp/ccwcDOjU.s:2092   .text:00000000000006e4 .LVL131
     /tmp/ccwcDOjU.s:2108   .text:00000000000006f0 .LVL133
     /tmp/ccwcDOjU.s:2138   .text:0000000000000704 .LVL136
     /tmp/ccwcDOjU.s:2142   .text:000000000000070c .LVL137
     /tmp/ccwcDOjU.s:2040   .text:00000000000006c0 .LVL128
     /tmp/ccwcDOjU.s:2053   .text:00000000000006cc .LVL129
     /tmp/ccwcDOjU.s:2239   .debug_info:0000000000000000 .Ldebug_info0
     /tmp/ccwcDOjU.s:2132   .text:00000000000006f8 .LBB173
     /tmp/ccwcDOjU.s:2149   .text:0000000000000718 .LBE173
     /tmp/ccwcDOjU.s:2152   .text:000000000000071c .LBB174
     /tmp/ccwcDOjU.s:2183   .text:0000000000000778 .LBE174
     /tmp/ccwcDOjU.s:150    .text:00000000000000a0 .LBB191
     /tmp/ccwcDOjU.s:164    .text:00000000000000a8 .LBE191
     /tmp/ccwcDOjU.s:168    .text:00000000000000a8 .LBB452
     /tmp/ccwcDOjU.s:175    .text:00000000000000b0 .LBE452
     /tmp/ccwcDOjU.s:179    .text:00000000000000b0 .LBB453
     /tmp/ccwcDOjU.s:188    .text:00000000000000b8 .LBE453
     /tmp/ccwcDOjU.s:192    .text:00000000000000b8 .LBB454
     /tmp/ccwcDOjU.s:203    .text:00000000000000c0 .LBE454
     /tmp/ccwcDOjU.s:207    .text:00000000000000c0 .LBB455
     /tmp/ccwcDOjU.s:220    .text:00000000000000c8 .LBE455
     /tmp/ccwcDOjU.s:224    .text:00000000000000c8 .LBB456
     /tmp/ccwcDOjU.s:239    .text:00000000000000d0 .LBE456
     /tmp/ccwcDOjU.s:243    .text:00000000000000d0 .LBB457
     /tmp/ccwcDOjU.s:260    .text:00000000000000d8 .LBE457
     /tmp/ccwcDOjU.s:264    .text:00000000000000d8 .LBB458
     /tmp/ccwcDOjU.s:283    .text:00000000000000e0 .LBE458
     /tmp/ccwcDOjU.s:287    .text:00000000000000e0 .LBB459
     /tmp/ccwcDOjU.s:308    .text:00000000000000e8 .LBE459
     /tmp/ccwcDOjU.s:312    .text:00000000000000e8 .LBB460
     /tmp/ccwcDOjU.s:335    .text:00000000000000f0 .LBE460
     /tmp/ccwcDOjU.s:339    .text:00000000000000f0 .LBB461
     /tmp/ccwcDOjU.s:364    .text:00000000000000f8 .LBE461
     /tmp/ccwcDOjU.s:368    .text:00000000000000f8 .LBB462
     /tmp/ccwcDOjU.s:395    .text:0000000000000100 .LBE462
     /tmp/ccwcDOjU.s:399    .text:0000000000000100 .LBB463
     /tmp/ccwcDOjU.s:428    .text:0000000000000108 .LBE463
GAS LISTING /tmp/ccwcDOjU.s 			page 82


     /tmp/ccwcDOjU.s:432    .text:0000000000000108 .LBB464
     /tmp/ccwcDOjU.s:463    .text:0000000000000110 .LBE464
     /tmp/ccwcDOjU.s:467    .text:0000000000000110 .LBB465
     /tmp/ccwcDOjU.s:2016   .text:0000000000000698 .LBE465
     /tmp/ccwcDOjU.s:1615   .text:000000000000051c .LBE244
     /tmp/ccwcDOjU.s:1651   .text:0000000000000534 .LBB251
     /tmp/ccwcDOjU.s:1661   .text:0000000000000540 .LBE251
     /tmp/ccwcDOjU.s:1537   .text:00000000000004dc .LBE261
     /tmp/ccwcDOjU.s:1567   .text:00000000000004e8 .LBB268
     /tmp/ccwcDOjU.s:1577   .text:00000000000004f4 .LBE268
     /tmp/ccwcDOjU.s:2215   .gcc_except_table:0000000000000000 .LLSDA51

UNDEFINED SYMBOLS
CONSOLE_STATUS
_ZN8KConsole6inBuffE
_ZN8KConsole6getCntEv
CONSOLE_RX_DATA
_ZN8KConsole3putEc
framePointer
_ZN16KMemoryAllocator9mem_allocEm
_ZN16KMemoryAllocator8mem_freeEPv
_ZN4KPCB12createThreadEPFvPvES0_S0_
_ZN10KScheduler3putEP4KPCB
_ZN4KPCB7runningE
_ZN4KPCB7counterE
_ZN4KPCB8dispatchEv
_ZN10KSemaphore15createSemaphoreEm
_ZN10KSemaphore5blockEv
_ZN10KSemaphore7deblockEv
_ZN6KSleep3addEm
_ZN8KConsole3getEv
cGlob
_ZN8KConsole7outBuffE
CONSOLE_TX_DATA
_ZN4KPCB16timeSliceCounterE
_ZN6KSleep6removeEv
plic_claim
plic_complete
_Z11printStringPKc
__gxx_personality_v0
