GAS LISTING /tmp/ccBtCDKE.s 			page 1


   1              		.file	"KSemaphore.cpp"
   2              		.option pic
   3              		.option norelax
   4              		.text
   5              	.Ltext0:
   6              		.align	2
   7              		.globl	_ZN10KSemaphore3putEP4KPCB
   9              	_ZN10KSemaphore3putEP4KPCB:
  10              	.LFB32:
  11              		.file 1 "src/KSemaphore.cpp"
   1:src/KSemaphore.cpp **** //
   2:src/KSemaphore.cpp **** // Created by os on 6/22/22.
   3:src/KSemaphore.cpp **** //
   4:src/KSemaphore.cpp **** 
   5:src/KSemaphore.cpp **** #include "../h/KSemaphore.hpp"
   6:src/KSemaphore.cpp **** 
   7:src/KSemaphore.cpp **** void KSemaphore::block() {
   8:src/KSemaphore.cpp ****     put(KPCB::running);
   9:src/KSemaphore.cpp ****     KPCB::dispatch();
  10:src/KSemaphore.cpp **** }
  11:src/KSemaphore.cpp **** 
  12:src/KSemaphore.cpp **** void KSemaphore::deblock() {
  13:src/KSemaphore.cpp ****     KPCB* kpcb = KSemaphore::get();
  14:src/KSemaphore.cpp ****     if (!kpcb) return;
  15:src/KSemaphore.cpp ****     KScheduler::put(kpcb);
  16:src/KSemaphore.cpp **** }
  17:src/KSemaphore.cpp **** 
  18:src/KSemaphore.cpp **** void KSemaphore::put(KPCB* kpcb) {
  12              		.loc 1 18 34
  13              		.cfi_startproc
  14              	.LVL0:
  15 0000 130101FF 		addi	sp,sp,-16
  16              		.cfi_def_cfa_offset 16
  17 0004 23348100 		sd	s0,8(sp)
  18              		.cfi_offset 8, -8
  19 0008 13040101 		addi	s0,sp,16
  20              		.cfi_def_cfa 8, 0
  19:src/KSemaphore.cpp ****     kpcb->setWaiting(true);
  21              		.loc 1 19 5
  22              	.LVL1:
  23              	.LBB11:
  24              	.LBB12:
  25              		.file 2 "src/../h/KPCB.hpp"
   1:src/../h/KPCB.hpp **** //
   2:src/../h/KPCB.hpp **** // Created by os on 6/22/22.
   3:src/../h/KPCB.hpp **** //
   4:src/../h/KPCB.hpp **** 
   5:src/../h/KPCB.hpp **** #ifndef PROJECT_BASE_V1_1_KPCB_HPP
   6:src/../h/KPCB.hpp **** #define PROJECT_BASE_V1_1_KPCB_HPP
   7:src/../h/KPCB.hpp **** 
   8:src/../h/KPCB.hpp **** #include "../lib/hw.h"
   9:src/../h/KPCB.hpp **** #include "KScheduler.hpp"
  10:src/../h/KPCB.hpp **** #include "KMemoryAllocator.hpp"
  11:src/../h/KPCB.hpp **** 
  12:src/../h/KPCB.hpp **** class KPCB {
  13:src/../h/KPCB.hpp **** public:
  14:src/../h/KPCB.hpp ****     ~KPCB() {
GAS LISTING /tmp/ccBtCDKE.s 			page 2


  15:src/../h/KPCB.hpp ****         //delete[] stack;
  16:src/../h/KPCB.hpp ****         KMemoryAllocator::mem_free(stack);
  17:src/../h/KPCB.hpp ****         stack = nullptr;
  18:src/../h/KPCB.hpp ****     }
  19:src/../h/KPCB.hpp ****     friend class KScheduler;
  20:src/../h/KPCB.hpp ****     friend class KSemaphore;
  21:src/../h/KPCB.hpp ****     friend class KRiscv;
  22:src/../h/KPCB.hpp ****     friend class KSleep;
  23:src/../h/KPCB.hpp **** 
  24:src/../h/KPCB.hpp ****     void* operator new(size_t size) {
  25:src/../h/KPCB.hpp ****         size_t sizeBlock = (size + 16) / MEM_BLOCK_SIZE + ((size + 16) % MEM_BLOCK_SIZE ? 1 : 0);
  26:src/../h/KPCB.hpp ****         return KMemoryAllocator::mem_alloc(sizeBlock);
  27:src/../h/KPCB.hpp ****         //return __mem_alloc(size);
  28:src/../h/KPCB.hpp ****     }
  29:src/../h/KPCB.hpp ****     void* operator new[](size_t size) {
  30:src/../h/KPCB.hpp ****         size_t sizeBlock = (size + 16) / MEM_BLOCK_SIZE + ((size + 16) % MEM_BLOCK_SIZE ? 1 : 0);
  31:src/../h/KPCB.hpp ****         return KMemoryAllocator::mem_alloc(sizeBlock);
  32:src/../h/KPCB.hpp ****         //return __mem_alloc(size);
  33:src/../h/KPCB.hpp ****     }
  34:src/../h/KPCB.hpp ****     void operator delete(void* addr) {
  35:src/../h/KPCB.hpp ****         KMemoryAllocator::mem_free(addr);
  36:src/../h/KPCB.hpp ****         //__mem_free(addr);
  37:src/../h/KPCB.hpp ****     }
  38:src/../h/KPCB.hpp ****     void operator delete[](void* addr) {
  39:src/../h/KPCB.hpp ****         KMemoryAllocator::mem_free(addr);
  40:src/../h/KPCB.hpp ****         //__mem_free(addr);
  41:src/../h/KPCB.hpp ****     }
  42:src/../h/KPCB.hpp **** 
  43:src/../h/KPCB.hpp ****     using Body = void (*)(void*);
  44:src/../h/KPCB.hpp ****     static KPCB* createThread(Body body, void* args, void* stek);
  45:src/../h/KPCB.hpp ****     static KPCB* createThread(Body body);
  46:src/../h/KPCB.hpp ****     static void yield();
  47:src/../h/KPCB.hpp ****     static void dispatch();
  48:src/../h/KPCB.hpp ****     static KPCB* running;
  49:src/../h/KPCB.hpp ****     static int counter;
  50:src/../h/KPCB.hpp ****     static int statID;
  51:src/../h/KPCB.hpp **** 
  52:src/../h/KPCB.hpp ****     bool isFinished() const { return finished; }
  53:src/../h/KPCB.hpp ****     bool isSleeping() const { return sleeping; }
  54:src/../h/KPCB.hpp ****     bool isWaiting() const { return waiting; }
  55:src/../h/KPCB.hpp ****     bool isErr() const { return err; }
  56:src/../h/KPCB.hpp ****     void setFinished(bool val) {
  57:src/../h/KPCB.hpp ****         if (finished) return;
  58:src/../h/KPCB.hpp ****         finished = val;
  59:src/../h/KPCB.hpp ****         counter--;
  60:src/../h/KPCB.hpp ****     }
  61:src/../h/KPCB.hpp ****     void setSleeping(bool val) { sleeping = val; }
  62:src/../h/KPCB.hpp ****     void setWaiting(bool val) { waiting = val; }
  26              		.loc 2 62 33
  27              		.loc 2 62 41 is_stmt 0
  28 000c 93071000 		li	a5,1
  29 0010 2389F502 		sb	a5,50(a1)
  30              	.LVL2:
  31              	.LBE12:
  32              	.LBE11:
  20:src/KSemaphore.cpp ****     if (!head) head = kpcb;
  33              		.loc 1 20 5 is_stmt 1
GAS LISTING /tmp/ccBtCDKE.s 			page 3


  34              		.loc 1 20 10 is_stmt 0
  35 0014 83378500 		ld	a5,8(a0)
  36              		.loc 1 20 5
  37 0018 638E0700 		beqz	a5,.L5
  21:src/KSemaphore.cpp ****     else tail->nextSemaphore = kpcb;
  38              		.loc 1 21 10 is_stmt 1
  39 001c 83370501 		ld	a5,16(a0)
  40              		.loc 1 21 30 is_stmt 0
  41 0020 23B4B704 		sd	a1,72(a5)
  42              	.L3:
  22:src/KSemaphore.cpp ****     tail = kpcb;
  43              		.loc 1 22 5 is_stmt 1
  44              		.loc 1 22 10 is_stmt 0
  45 0024 2338B500 		sd	a1,16(a0)
  23:src/KSemaphore.cpp **** }
  46              		.loc 1 23 1
  47 0028 03348100 		ld	s0,8(sp)
  48              		.cfi_remember_state
  49              		.cfi_restore 8
  50              		.cfi_def_cfa 2, 16
  51 002c 13010101 		addi	sp,sp,16
  52              		.cfi_def_cfa_offset 0
  53 0030 67800000 		jr	ra
  54              	.L5:
  55              		.cfi_restore_state
  20:src/KSemaphore.cpp ****     else tail->nextSemaphore = kpcb;
  56              		.loc 1 20 16 is_stmt 1 discriminator 1
  20:src/KSemaphore.cpp ****     else tail->nextSemaphore = kpcb;
  57              		.loc 1 20 21 is_stmt 0 discriminator 1
  58 0034 2334B500 		sd	a1,8(a0)
  59 0038 6FF0DFFE 		j	.L3
  60              		.cfi_endproc
  61              	.LFE32:
  63              		.align	2
  64              		.globl	_ZN10KSemaphore5blockEv
  66              	_ZN10KSemaphore5blockEv:
  67              	.LFB30:
   7:src/KSemaphore.cpp ****     put(KPCB::running);
  68              		.loc 1 7 26 is_stmt 1
  69              		.cfi_startproc
  70              	.LVL3:
  71 003c 130101FF 		addi	sp,sp,-16
  72              		.cfi_def_cfa_offset 16
  73 0040 23341100 		sd	ra,8(sp)
  74 0044 23308100 		sd	s0,0(sp)
  75              		.cfi_offset 1, -8
  76              		.cfi_offset 8, -16
  77 0048 13040101 		addi	s0,sp,16
  78              		.cfi_def_cfa 8, 0
   8:src/KSemaphore.cpp ****     KPCB::dispatch();
  79              		.loc 1 8 5
   8:src/KSemaphore.cpp ****     KPCB::dispatch();
  80              		.loc 1 8 8 is_stmt 0
  81 004c 97070000 		la	a5,_ZN4KPCB7runningE
  81      83B70700 
  82 0054 83B50700 		ld	a1,0(a5)
  83 0058 97000000 		call	_ZN10KSemaphore3putEP4KPCB
GAS LISTING /tmp/ccBtCDKE.s 			page 4


  83      E7800000 
  84              	.LVL4:
   9:src/KSemaphore.cpp **** }
  85              		.loc 1 9 5 is_stmt 1
   9:src/KSemaphore.cpp **** }
  86              		.loc 1 9 19 is_stmt 0
  87 0060 97000000 		call	_ZN4KPCB8dispatchEv@plt
  87      E7800000 
  88              	.LVL5:
  10:src/KSemaphore.cpp **** 
  89              		.loc 1 10 1
  90 0068 83308100 		ld	ra,8(sp)
  91              		.cfi_restore 1
  92 006c 03340100 		ld	s0,0(sp)
  93              		.cfi_restore 8
  94              		.cfi_def_cfa 2, 16
  95 0070 13010101 		addi	sp,sp,16
  96              		.cfi_def_cfa_offset 0
  97 0074 67800000 		jr	ra
  98              		.cfi_endproc
  99              	.LFE30:
 101              		.align	2
 102              		.globl	_ZN10KSemaphore3getEv
 104              	_ZN10KSemaphore3getEv:
 105              	.LFB33:
  24:src/KSemaphore.cpp **** 
  25:src/KSemaphore.cpp **** KPCB *KSemaphore::get() {
 106              		.loc 1 25 25 is_stmt 1
 107              		.cfi_startproc
 108              	.LVL6:
 109 0078 130101FF 		addi	sp,sp,-16
 110              		.cfi_def_cfa_offset 16
 111 007c 23348100 		sd	s0,8(sp)
 112              		.cfi_offset 8, -8
 113 0080 13040101 		addi	s0,sp,16
 114              		.cfi_def_cfa 8, 0
 115 0084 93070500 		mv	a5,a0
  26:src/KSemaphore.cpp ****     if (!head) return nullptr;
 116              		.loc 1 26 5
 117              		.loc 1 26 10 is_stmt 0
 118 0088 03358500 		ld	a0,8(a0)
 119              	.LVL7:
 120              		.loc 1 26 5
 121 008c 630C0500 		beqz	a0,.L8
  27:src/KSemaphore.cpp ****     KPCB* old = head;
 122              		.loc 1 27 5 is_stmt 1
 123              	.LVL8:
  28:src/KSemaphore.cpp ****     head = head->nextSemaphore;
 124              		.loc 1 28 5
 125              		.loc 1 28 18 is_stmt 0
 126 0090 03378504 		ld	a4,72(a0)
 127              		.loc 1 28 10
 128 0094 23B4E700 		sd	a4,8(a5)
  29:src/KSemaphore.cpp ****     if (!head) tail = nullptr;
 129              		.loc 1 29 5 is_stmt 1
 130 0098 630C0700 		beqz	a4,.L12
 131              	.L10:
GAS LISTING /tmp/ccBtCDKE.s 			page 5


  30:src/KSemaphore.cpp ****     old->nextSemaphore = nullptr;
 132              		.loc 1 30 5
 133              		.loc 1 30 24 is_stmt 0
 134 009c 23340504 		sd	zero,72(a0)
  31:src/KSemaphore.cpp ****     old->setWaiting(false);
 135              		.loc 1 31 5 is_stmt 1
 136              	.LVL9:
 137              	.LBB13:
 138              	.LBB14:
 139              		.loc 2 62 33
 140              		.loc 2 62 41 is_stmt 0
 141 00a0 23090502 		sb	zero,50(a0)
 142              	.LVL10:
 143              	.LBE14:
 144              	.LBE13:
  32:src/KSemaphore.cpp ****     return old;
 145              		.loc 1 32 5 is_stmt 1
 146              	.L8:
  33:src/KSemaphore.cpp **** }
 147              		.loc 1 33 1 is_stmt 0
 148 00a4 03348100 		ld	s0,8(sp)
 149              		.cfi_remember_state
 150              		.cfi_restore 8
 151              		.cfi_def_cfa 2, 16
 152 00a8 13010101 		addi	sp,sp,16
 153              		.cfi_def_cfa_offset 0
 154 00ac 67800000 		jr	ra
 155              	.LVL11:
 156              	.L12:
 157              		.cfi_restore_state
  29:src/KSemaphore.cpp ****     old->nextSemaphore = nullptr;
 158              		.loc 1 29 16 is_stmt 1 discriminator 1
  29:src/KSemaphore.cpp ****     old->nextSemaphore = nullptr;
 159              		.loc 1 29 21 is_stmt 0 discriminator 1
 160 00b0 23B80700 		sd	zero,16(a5)
 161 00b4 6FF09FFE 		j	.L10
 162              		.cfi_endproc
 163              	.LFE33:
 165              		.align	2
 166              		.globl	_ZN10KSemaphore7deblockEv
 168              	_ZN10KSemaphore7deblockEv:
 169              	.LFB31:
  12:src/KSemaphore.cpp ****     KPCB* kpcb = KSemaphore::get();
 170              		.loc 1 12 28 is_stmt 1
 171              		.cfi_startproc
 172              	.LVL12:
 173 00b8 130101FF 		addi	sp,sp,-16
 174              		.cfi_def_cfa_offset 16
 175 00bc 23341100 		sd	ra,8(sp)
 176 00c0 23308100 		sd	s0,0(sp)
 177              		.cfi_offset 1, -8
 178              		.cfi_offset 8, -16
 179 00c4 13040101 		addi	s0,sp,16
 180              		.cfi_def_cfa 8, 0
  13:src/KSemaphore.cpp ****     if (!kpcb) return;
 181              		.loc 1 13 5
  13:src/KSemaphore.cpp ****     if (!kpcb) return;
GAS LISTING /tmp/ccBtCDKE.s 			page 6


 182              		.loc 1 13 33 is_stmt 0
 183 00c8 97000000 		call	_ZN10KSemaphore3getEv
 183      E7800000 
 184              	.LVL13:
  14:src/KSemaphore.cpp ****     KScheduler::put(kpcb);
 185              		.loc 1 14 5 is_stmt 1
 186 00d0 63060500 		beqz	a0,.L13
  15:src/KSemaphore.cpp **** }
 187              		.loc 1 15 5
  15:src/KSemaphore.cpp **** }
 188              		.loc 1 15 20 is_stmt 0
 189 00d4 97000000 		call	_ZN10KScheduler3putEP4KPCB@plt
 189      E7800000 
 190              	.LVL14:
 191              	.L13:
  16:src/KSemaphore.cpp **** 
 192              		.loc 1 16 1
 193 00dc 83308100 		ld	ra,8(sp)
 194              		.cfi_restore 1
 195 00e0 03340100 		ld	s0,0(sp)
 196              		.cfi_restore 8
 197              		.cfi_def_cfa 2, 16
 198 00e4 13010101 		addi	sp,sp,16
 199              		.cfi_def_cfa_offset 0
 200 00e8 67800000 		jr	ra
 201              		.cfi_endproc
 202              	.LFE31:
 204              		.align	2
 205              		.globl	_ZN10KSemaphore15createSemaphoreEm
 207              	_ZN10KSemaphore15createSemaphoreEm:
 208              	.LFB34:
  34:src/KSemaphore.cpp **** 
  35:src/KSemaphore.cpp **** KSemaphore *KSemaphore::createSemaphore(uint64 init) {
 209              		.loc 1 35 54 is_stmt 1
 210              		.cfi_startproc
 211              	.LVL15:
 212 00ec 130101FE 		addi	sp,sp,-32
 213              		.cfi_def_cfa_offset 32
 214 00f0 233C1100 		sd	ra,24(sp)
 215 00f4 23388100 		sd	s0,16(sp)
 216 00f8 23349100 		sd	s1,8(sp)
 217              		.cfi_offset 1, -8
 218              		.cfi_offset 8, -16
 219              		.cfi_offset 9, -24
 220 00fc 13040102 		addi	s0,sp,32
 221              		.cfi_def_cfa 8, 0
 222 0100 93040500 		mv	s1,a0
  36:src/KSemaphore.cpp ****     return new KSemaphore(init);
 223              		.loc 1 36 5
 224              	.LVL16:
 225              	.LBB15:
 226              	.LBB16:
 227              		.file 3 "src/../h/KSemaphore.hpp"
   1:src/../h/KSemaphore.hpp **** //
   2:src/../h/KSemaphore.hpp **** // Created by os on 6/22/22.
   3:src/../h/KSemaphore.hpp **** //
   4:src/../h/KSemaphore.hpp **** 
GAS LISTING /tmp/ccBtCDKE.s 			page 7


   5:src/../h/KSemaphore.hpp **** #ifndef PROJECT_BASE_V1_1_KSEMAPHORE_HPP
   6:src/../h/KSemaphore.hpp **** #define PROJECT_BASE_V1_1_KSEMAPHORE_HPP
   7:src/../h/KSemaphore.hpp **** 
   8:src/../h/KSemaphore.hpp **** #include "../lib/hw.h"
   9:src/../h/KSemaphore.hpp **** #include "KPCB.hpp"
  10:src/../h/KSemaphore.hpp **** 
  11:src/../h/KSemaphore.hpp **** class KSemaphore {
  12:src/../h/KSemaphore.hpp **** public:
  13:src/../h/KSemaphore.hpp ****     ~KSemaphore() {
  14:src/../h/KSemaphore.hpp ****         while (head) {
  15:src/../h/KSemaphore.hpp ****             KPCB* old = head;
  16:src/../h/KSemaphore.hpp ****             head = head->nextSemaphore;
  17:src/../h/KSemaphore.hpp ****             old->nextSemaphore = nullptr;
  18:src/../h/KSemaphore.hpp ****             old->setErr(true);
  19:src/../h/KSemaphore.hpp ****             old->setWaiting(false);
  20:src/../h/KSemaphore.hpp ****             KScheduler::put(old);
  21:src/../h/KSemaphore.hpp ****         }
  22:src/../h/KSemaphore.hpp ****     }
  23:src/../h/KSemaphore.hpp **** 
  24:src/../h/KSemaphore.hpp ****     void wait() { if(--val < 0) block(); }
  25:src/../h/KSemaphore.hpp ****     void signal() { if (val++ < 0) deblock(); }
  26:src/../h/KSemaphore.hpp ****     int value() const { return val; }
  27:src/../h/KSemaphore.hpp ****     static KSemaphore* createSemaphore(uint64 init);
  28:src/../h/KSemaphore.hpp **** 
  29:src/../h/KSemaphore.hpp ****     void* operator new(size_t size) {
  30:src/../h/KSemaphore.hpp ****         size_t sizeBlock = (size + 16) / MEM_BLOCK_SIZE + ((size + 16) % MEM_BLOCK_SIZE ? 1 : 0);
 228              		.loc 3 30 9
  31:src/../h/KSemaphore.hpp ****         return KMemoryAllocator::mem_alloc(sizeBlock);
 229              		.loc 3 31 9
 230              		.loc 3 31 43 is_stmt 0
 231 0104 13051000 		li	a0,1
 232              	.LVL17:
 233 0108 97000000 		call	_ZN16KMemoryAllocator9mem_allocEm@plt
 233      E7800000 
 234              	.LVL18:
 235              	.LBE16:
 236              	.LBE15:
 237              	.LBB17:
 238              	.LBB18:
  32:src/../h/KSemaphore.hpp ****         //return __mem_alloc(size);
  33:src/../h/KSemaphore.hpp ****     }
  34:src/../h/KSemaphore.hpp ****     void* operator new[](size_t size) {
  35:src/../h/KSemaphore.hpp ****         size_t sizeBlock = (size + 16) / MEM_BLOCK_SIZE + ((size + 16) % MEM_BLOCK_SIZE ? 1 : 0);
  36:src/../h/KSemaphore.hpp ****         return KMemoryAllocator::mem_alloc(sizeBlock);
  37:src/../h/KSemaphore.hpp ****         //return __mem_alloc(size);
  38:src/../h/KSemaphore.hpp ****     }
  39:src/../h/KSemaphore.hpp ****     void operator delete(void* addr) {
  40:src/../h/KSemaphore.hpp ****         KMemoryAllocator::mem_free(addr);
  41:src/../h/KSemaphore.hpp ****         //__mem_free(addr);
  42:src/../h/KSemaphore.hpp ****     }
  43:src/../h/KSemaphore.hpp ****     void operator delete[](void* addr) {
  44:src/../h/KSemaphore.hpp ****         KMemoryAllocator::mem_free(addr);
  45:src/../h/KSemaphore.hpp ****         //__mem_free(addr);
  46:src/../h/KSemaphore.hpp ****     }
  47:src/../h/KSemaphore.hpp **** protected:
  48:src/../h/KSemaphore.hpp ****     void block();
  49:src/../h/KSemaphore.hpp ****     void deblock();
GAS LISTING /tmp/ccBtCDKE.s 			page 8


  50:src/../h/KSemaphore.hpp ****     void put(KPCB* kpcb);
  51:src/../h/KSemaphore.hpp ****     KPCB* get();
  52:src/../h/KSemaphore.hpp **** private:
  53:src/../h/KSemaphore.hpp ****     explicit KSemaphore(uint64 init) : val(init) {}
 239              		.loc 3 53 48
 240 0110 23209500 		sw	s1,0(a0)
 241 0114 23340500 		sd	zero,8(a0)
 242 0118 23380500 		sd	zero,16(a0)
 243              	.LVL19:
 244              	.LBE18:
 245              	.LBE17:
  37:src/KSemaphore.cpp **** }
 246              		.loc 1 37 1
 247 011c 83308101 		ld	ra,24(sp)
 248              		.cfi_restore 1
 249 0120 03340101 		ld	s0,16(sp)
 250              		.cfi_restore 8
 251              		.cfi_def_cfa 2, 32
 252 0124 83348100 		ld	s1,8(sp)
 253              		.cfi_restore 9
 254              	.LVL20:
 255 0128 13010102 		addi	sp,sp,32
 256              		.cfi_def_cfa_offset 0
 257 012c 67800000 		jr	ra
 258              		.cfi_endproc
 259              	.LFE34:
 261              	.Letext0:
 262              		.file 4 "src/../h/../lib/hw.h"
 263              		.file 5 "src/../h/KScheduler.hpp"
 264              		.file 6 "src/../h/KMemoryAllocator.hpp"
GAS LISTING /tmp/ccBtCDKE.s 			page 9


DEFINED SYMBOLS
                            *ABS*:0000000000000000 KSemaphore.cpp
     /tmp/ccBtCDKE.s:9      .text:0000000000000000 _ZN10KSemaphore3putEP4KPCB
     /tmp/ccBtCDKE.s:13     .text:0000000000000000 .L0 
     /tmp/ccBtCDKE.s:15     .text:0000000000000000 .L0 
     /tmp/ccBtCDKE.s:16     .text:0000000000000004 .L0 
     /tmp/ccBtCDKE.s:18     .text:0000000000000008 .L0 
     /tmp/ccBtCDKE.s:20     .text:000000000000000c .L0 
     /tmp/ccBtCDKE.s:26     .text:000000000000000c .L0 
     /tmp/ccBtCDKE.s:27     .text:000000000000000c .L0 
     /tmp/ccBtCDKE.s:28     .text:000000000000000c .L0 
     /tmp/ccBtCDKE.s:34     .text:0000000000000014 .L0 
     /tmp/ccBtCDKE.s:35     .text:0000000000000014 .L0 
     /tmp/ccBtCDKE.s:37     .text:0000000000000018 .L0 
     /tmp/ccBtCDKE.s:39     .text:000000000000001c .L0 
     /tmp/ccBtCDKE.s:41     .text:0000000000000020 .L0 
     /tmp/ccBtCDKE.s:44     .text:0000000000000024 .L0 
     /tmp/ccBtCDKE.s:45     .text:0000000000000024 .L0 
     /tmp/ccBtCDKE.s:47     .text:0000000000000028 .L0 
     /tmp/ccBtCDKE.s:48     .text:000000000000002c .L0 
     /tmp/ccBtCDKE.s:49     .text:000000000000002c .L0 
     /tmp/ccBtCDKE.s:50     .text:000000000000002c .L0 
     /tmp/ccBtCDKE.s:52     .text:0000000000000030 .L0 
     /tmp/ccBtCDKE.s:55     .text:0000000000000034 .L0 
     /tmp/ccBtCDKE.s:57     .text:0000000000000034 .L0 
     /tmp/ccBtCDKE.s:58     .text:0000000000000034 .L0 
     /tmp/ccBtCDKE.s:60     .text:000000000000003c .L0 
     /tmp/ccBtCDKE.s:66     .text:000000000000003c _ZN10KSemaphore5blockEv
     /tmp/ccBtCDKE.s:69     .text:000000000000003c .L0 
     /tmp/ccBtCDKE.s:71     .text:000000000000003c .L0 
     /tmp/ccBtCDKE.s:72     .text:0000000000000040 .L0 
     /tmp/ccBtCDKE.s:75     .text:0000000000000048 .L0 
     /tmp/ccBtCDKE.s:76     .text:0000000000000048 .L0 
     /tmp/ccBtCDKE.s:78     .text:000000000000004c .L0 
     /tmp/ccBtCDKE.s:80     .text:000000000000004c .L0 
     /tmp/ccBtCDKE.s:81     .text:000000000000004c .L0 
     /tmp/ccBtCDKE.s:86     .text:0000000000000060 .L0 
     /tmp/ccBtCDKE.s:87     .text:0000000000000060 .L0 
     /tmp/ccBtCDKE.s:90     .text:0000000000000068 .L0 
     /tmp/ccBtCDKE.s:91     .text:000000000000006c .L0 
     /tmp/ccBtCDKE.s:93     .text:0000000000000070 .L0 
     /tmp/ccBtCDKE.s:94     .text:0000000000000070 .L0 
     /tmp/ccBtCDKE.s:96     .text:0000000000000074 .L0 
     /tmp/ccBtCDKE.s:98     .text:0000000000000078 .L0 
     /tmp/ccBtCDKE.s:104    .text:0000000000000078 _ZN10KSemaphore3getEv
     /tmp/ccBtCDKE.s:107    .text:0000000000000078 .L0 
     /tmp/ccBtCDKE.s:109    .text:0000000000000078 .L0 
     /tmp/ccBtCDKE.s:110    .text:000000000000007c .L0 
     /tmp/ccBtCDKE.s:112    .text:0000000000000080 .L0 
     /tmp/ccBtCDKE.s:114    .text:0000000000000084 .L0 
     /tmp/ccBtCDKE.s:117    .text:0000000000000088 .L0 
     /tmp/ccBtCDKE.s:118    .text:0000000000000088 .L0 
     /tmp/ccBtCDKE.s:121    .text:000000000000008c .L0 
     /tmp/ccBtCDKE.s:124    .text:0000000000000090 .L0 
     /tmp/ccBtCDKE.s:125    .text:0000000000000090 .L0 
     /tmp/ccBtCDKE.s:126    .text:0000000000000090 .L0 
     /tmp/ccBtCDKE.s:128    .text:0000000000000094 .L0 
GAS LISTING /tmp/ccBtCDKE.s 			page 10


     /tmp/ccBtCDKE.s:130    .text:0000000000000098 .L0 
     /tmp/ccBtCDKE.s:133    .text:000000000000009c .L0 
     /tmp/ccBtCDKE.s:134    .text:000000000000009c .L0 
     /tmp/ccBtCDKE.s:139    .text:00000000000000a0 .L0 
     /tmp/ccBtCDKE.s:140    .text:00000000000000a0 .L0 
     /tmp/ccBtCDKE.s:141    .text:00000000000000a0 .L0 
     /tmp/ccBtCDKE.s:147    .text:00000000000000a4 .L0 
     /tmp/ccBtCDKE.s:148    .text:00000000000000a4 .L0 
     /tmp/ccBtCDKE.s:149    .text:00000000000000a8 .L0 
     /tmp/ccBtCDKE.s:150    .text:00000000000000a8 .L0 
     /tmp/ccBtCDKE.s:151    .text:00000000000000a8 .L0 
     /tmp/ccBtCDKE.s:153    .text:00000000000000ac .L0 
     /tmp/ccBtCDKE.s:157    .text:00000000000000b0 .L0 
     /tmp/ccBtCDKE.s:159    .text:00000000000000b0 .L0 
     /tmp/ccBtCDKE.s:160    .text:00000000000000b0 .L0 
     /tmp/ccBtCDKE.s:162    .text:00000000000000b8 .L0 
     /tmp/ccBtCDKE.s:168    .text:00000000000000b8 _ZN10KSemaphore7deblockEv
     /tmp/ccBtCDKE.s:171    .text:00000000000000b8 .L0 
     /tmp/ccBtCDKE.s:173    .text:00000000000000b8 .L0 
     /tmp/ccBtCDKE.s:174    .text:00000000000000bc .L0 
     /tmp/ccBtCDKE.s:177    .text:00000000000000c4 .L0 
     /tmp/ccBtCDKE.s:178    .text:00000000000000c4 .L0 
     /tmp/ccBtCDKE.s:180    .text:00000000000000c8 .L0 
     /tmp/ccBtCDKE.s:182    .text:00000000000000c8 .L0 
     /tmp/ccBtCDKE.s:183    .text:00000000000000c8 .L0 
     /tmp/ccBtCDKE.s:186    .text:00000000000000d0 .L0 
     /tmp/ccBtCDKE.s:188    .text:00000000000000d4 .L0 
     /tmp/ccBtCDKE.s:189    .text:00000000000000d4 .L0 
     /tmp/ccBtCDKE.s:193    .text:00000000000000dc .L0 
     /tmp/ccBtCDKE.s:194    .text:00000000000000e0 .L0 
     /tmp/ccBtCDKE.s:196    .text:00000000000000e4 .L0 
     /tmp/ccBtCDKE.s:197    .text:00000000000000e4 .L0 
     /tmp/ccBtCDKE.s:199    .text:00000000000000e8 .L0 
     /tmp/ccBtCDKE.s:201    .text:00000000000000ec .L0 
     /tmp/ccBtCDKE.s:207    .text:00000000000000ec _ZN10KSemaphore15createSemaphoreEm
     /tmp/ccBtCDKE.s:210    .text:00000000000000ec .L0 
     /tmp/ccBtCDKE.s:212    .text:00000000000000ec .L0 
     /tmp/ccBtCDKE.s:213    .text:00000000000000f0 .L0 
     /tmp/ccBtCDKE.s:217    .text:00000000000000fc .L0 
     /tmp/ccBtCDKE.s:218    .text:00000000000000fc .L0 
     /tmp/ccBtCDKE.s:219    .text:00000000000000fc .L0 
     /tmp/ccBtCDKE.s:221    .text:0000000000000100 .L0 
     /tmp/ccBtCDKE.s:228    .text:0000000000000104 .L0 
     /tmp/ccBtCDKE.s:229    .text:0000000000000104 .L0 
     /tmp/ccBtCDKE.s:230    .text:0000000000000104 .L0 
     /tmp/ccBtCDKE.s:231    .text:0000000000000104 .L0 
     /tmp/ccBtCDKE.s:240    .text:0000000000000110 .L0 
     /tmp/ccBtCDKE.s:247    .text:000000000000011c .L0 
     /tmp/ccBtCDKE.s:248    .text:0000000000000120 .L0 
     /tmp/ccBtCDKE.s:250    .text:0000000000000124 .L0 
     /tmp/ccBtCDKE.s:251    .text:0000000000000124 .L0 
     /tmp/ccBtCDKE.s:253    .text:0000000000000128 .L0 
     /tmp/ccBtCDKE.s:256    .text:000000000000012c .L0 
     /tmp/ccBtCDKE.s:258    .text:0000000000000130 .L0 
     /tmp/ccBtCDKE.s:265    .text:0000000000000130 .L0 
     /tmp/ccBtCDKE.s:81     .text:000000000000004c .L0 
     /tmp/ccBtCDKE.s:54     .text:0000000000000034 .L5
GAS LISTING /tmp/ccBtCDKE.s 			page 11


     /tmp/ccBtCDKE.s:42     .text:0000000000000024 .L3
     /tmp/ccBtCDKE.s:146    .text:00000000000000a4 .L8
     /tmp/ccBtCDKE.s:156    .text:00000000000000b0 .L12
     /tmp/ccBtCDKE.s:131    .text:000000000000009c .L10
     /tmp/ccBtCDKE.s:191    .text:00000000000000dc .L13
     /tmp/ccBtCDKE.s:1491   .debug_abbrev:0000000000000000 .Ldebug_abbrev0
     /tmp/ccBtCDKE.s:2842   .debug_str:0000000000000615 .LASF120
     /tmp/ccBtCDKE.s:2752   .debug_str:0000000000000373 .LASF121
     /tmp/ccBtCDKE.s:2858   .debug_str:000000000000076d .LASF122
     /tmp/ccBtCDKE.s:5      .text:0000000000000000 .Ltext0
     /tmp/ccBtCDKE.s:261    .text:0000000000000130 .Letext0
     /tmp/ccBtCDKE.s:2628   .debug_line:0000000000000000 .Ldebug_line0
     /tmp/ccBtCDKE.s:2770   .debug_str:0000000000000417 .LASF0
     /tmp/ccBtCDKE.s:2792   .debug_str:00000000000004af .LASF1
     /tmp/ccBtCDKE.s:2750   .debug_str:0000000000000365 .LASF2
     /tmp/ccBtCDKE.s:2722   .debug_str:00000000000002c1 .LASF4
     /tmp/ccBtCDKE.s:2830   .debug_str:00000000000005c3 .LASF3
     /tmp/ccBtCDKE.s:2652   .debug_str:00000000000000ab .LASF5
     /tmp/ccBtCDKE.s:2686   .debug_str:000000000000019b .LASF6
     /tmp/ccBtCDKE.s:2794   .debug_str:00000000000004c2 .LASF7
     /tmp/ccBtCDKE.s:2768   .debug_str:0000000000000404 .LASF8
     /tmp/ccBtCDKE.s:2856   .debug_str:000000000000075d .LASF9
     /tmp/ccBtCDKE.s:2710   .debug_str:000000000000025b .LASF10
     /tmp/ccBtCDKE.s:2806   .debug_str:0000000000000511 .LASF11
     /tmp/ccBtCDKE.s:2846   .debug_str:00000000000006e7 .LASF12
     /tmp/ccBtCDKE.s:2654   .debug_str:00000000000000b2 .LASF13
     /tmp/ccBtCDKE.s:2632   .debug_str:000000000000000d .LASF14
     /tmp/ccBtCDKE.s:2666   .debug_str:0000000000000114 .LASF15
     /tmp/ccBtCDKE.s:2822   .debug_str:0000000000000586 .LASF16
     /tmp/ccBtCDKE.s:2678   .debug_str:0000000000000166 .LASF17
     /tmp/ccBtCDKE.s:2730   .debug_str:00000000000002ec .LASF20
     /tmp/ccBtCDKE.s:2888   .debug_str:0000000000000890 .LASF123
     /tmp/ccBtCDKE.s:2772   .debug_str:0000000000000424 .LASF124
     /tmp/ccBtCDKE.s:2682   .debug_str:0000000000000182 .LASF18
     /tmp/ccBtCDKE.s:2744   .debug_str:0000000000000346 .LASF19
     /tmp/ccBtCDKE.s:2892   .debug_str:00000000000008ab .LASF21
     /tmp/ccBtCDKE.s:2638   .debug_str:000000000000003a .LASF79
     /tmp/ccBtCDKE.s:2642   .debug_str:0000000000000064 .LASF22
     /tmp/ccBtCDKE.s:2864   .debug_str:00000000000007be .LASF24
     /tmp/ccBtCDKE.s:2870   .debug_str:00000000000007e1 .LASF23
     /tmp/ccBtCDKE.s:2630   .debug_str:0000000000000000 .LASF25
     /tmp/ccBtCDKE.s:2708   .debug_str:000000000000024b .LASF26
     /tmp/ccBtCDKE.s:2648   .debug_str:0000000000000092 .LASF27
     /tmp/ccBtCDKE.s:2836   .debug_str:00000000000005ed .LASF28
     /tmp/ccBtCDKE.s:2670   .debug_str:0000000000000134 .LASF30
     /tmp/ccBtCDKE.s:2838   .debug_str:00000000000005fd .LASF29
     /tmp/ccBtCDKE.s:2776   .debug_str:0000000000000448 .LASF31
     /tmp/ccBtCDKE.s:2732   .debug_str:00000000000002f7 .LASF32
     /tmp/ccBtCDKE.s:2852   .debug_str:0000000000000720 .LASF33
     /tmp/ccBtCDKE.s:2816   .debug_str:0000000000000551 .LASF125
     /tmp/ccBtCDKE.s:2818   .debug_str:0000000000000556 .LASF34
     /tmp/ccBtCDKE.s:2824   .debug_str:000000000000059c .LASF35
     /tmp/ccBtCDKE.s:2660   .debug_str:00000000000000df .LASF37
     /tmp/ccBtCDKE.s:2774   .debug_str:000000000000043f .LASF36
     /tmp/ccBtCDKE.s:2718   .debug_str:00000000000002a3 .LASF38
     /tmp/ccBtCDKE.s:2696   .debug_str:00000000000001d2 .LASF39
     /tmp/ccBtCDKE.s:2754   .debug_str:0000000000000386 .LASF40
GAS LISTING /tmp/ccBtCDKE.s 			page 12


     /tmp/ccBtCDKE.s:2802   .debug_str:00000000000004f2 .LASF41
     /tmp/ccBtCDKE.s:2796   .debug_str:00000000000004d5 .LASF42
     /tmp/ccBtCDKE.s:2804   .debug_str:00000000000004f9 .LASF44
     /tmp/ccBtCDKE.s:2760   .debug_str:00000000000003c9 .LASF43
     /tmp/ccBtCDKE.s:2646   .debug_str:000000000000007a .LASF45
     /tmp/ccBtCDKE.s:2878   .debug_str:0000000000000835 .LASF46
     /tmp/ccBtCDKE.s:2762   .debug_str:00000000000003d4 .LASF47
     /tmp/ccBtCDKE.s:2734   .debug_str:0000000000000304 .LASF48
     /tmp/ccBtCDKE.s:2820   .debug_str:0000000000000574 .LASF49
     /tmp/ccBtCDKE.s:2650   .debug_str:000000000000009f .LASF50
     /tmp/ccBtCDKE.s:2862   .debug_str:00000000000007a6 .LASF51
     /tmp/ccBtCDKE.s:2694   .debug_str:00000000000001c6 .LASF52
     /tmp/ccBtCDKE.s:2848   .debug_str:00000000000006f6 .LASF53
     /tmp/ccBtCDKE.s:2880   .debug_str:000000000000083f .LASF54
     /tmp/ccBtCDKE.s:2672   .debug_str:0000000000000142 .LASF55
     /tmp/ccBtCDKE.s:2788   .debug_str:00000000000004a0 .LASF56
     /tmp/ccBtCDKE.s:2850   .debug_str:000000000000070e .LASF57
     /tmp/ccBtCDKE.s:2674   .debug_str:0000000000000159 .LASF58
     /tmp/ccBtCDKE.s:2664   .debug_str:0000000000000101 .LASF59
     /tmp/ccBtCDKE.s:2644   .debug_str:000000000000006a .LASF60
     /tmp/ccBtCDKE.s:2706   .debug_str:000000000000022f .LASF61
     /tmp/ccBtCDKE.s:2756   .debug_str:000000000000038e .LASF62
     /tmp/ccBtCDKE.s:2884   .debug_str:0000000000000873 .LASF63
     /tmp/ccBtCDKE.s:2726   .debug_str:00000000000002d1 .LASF64
     /tmp/ccBtCDKE.s:2780   .debug_str:000000000000045c .LASF65
     /tmp/ccBtCDKE.s:2778   .debug_str:0000000000000456 .LASF66
     /tmp/ccBtCDKE.s:2782   .debug_str:0000000000000461 .LASF67
     /tmp/ccBtCDKE.s:2724   .debug_str:00000000000002c8 .LASF68
     /tmp/ccBtCDKE.s:2808   .debug_str:0000000000000520 .LASF69
     /tmp/ccBtCDKE.s:2868   .debug_str:00000000000007d9 .LASF70
     /tmp/ccBtCDKE.s:2790   .debug_str:00000000000004a7 .LASF71
     /tmp/ccBtCDKE.s:2832   .debug_str:00000000000005d5 .LASF72
     /tmp/ccBtCDKE.s:2800   .debug_str:00000000000004e5 .LASF73
     /tmp/ccBtCDKE.s:2844   .debug_str:00000000000006d9 .LASF74
     /tmp/ccBtCDKE.s:2658   .debug_str:00000000000000ce .LASF75
     /tmp/ccBtCDKE.s:2662   .debug_str:00000000000000f0 .LASF76
     /tmp/ccBtCDKE.s:2716   .debug_str:0000000000000298 .LASF77
     /tmp/ccBtCDKE.s:2736   .debug_str:000000000000030a .LASF78
     /tmp/ccBtCDKE.s:2866   .debug_str:00000000000007cb .LASF85
     /tmp/ccBtCDKE.s:2758   .debug_str:00000000000003a0 .LASF87
     /tmp/ccBtCDKE.s:2738   .debug_str:0000000000000315 .LASF126
     /tmp/ccBtCDKE.s:2812   .debug_str:0000000000000532 .LASF127
     /tmp/ccBtCDKE.s:2656   .debug_str:00000000000000c2 .LASF80
     /tmp/ccBtCDKE.s:2886   .debug_str:000000000000088b .LASF81
     /tmp/ccBtCDKE.s:2840   .debug_str:0000000000000610 .LASF82
     /tmp/ccBtCDKE.s:2636   .debug_str:0000000000000029 .LASF83
     /tmp/ccBtCDKE.s:2634   .debug_str:000000000000001d .LASF84
     /tmp/ccBtCDKE.s:2720   .debug_str:00000000000002b7 .LASF86
     /tmp/ccBtCDKE.s:2698   .debug_str:00000000000001da .LASF88
     /tmp/ccBtCDKE.s:2748   .debug_str:0000000000000355 .LASF89
     /tmp/ccBtCDKE.s:2882   .debug_str:000000000000084a .LASF90
     /tmp/ccBtCDKE.s:2834   .debug_str:00000000000005e3 .LASF91
     /tmp/ccBtCDKE.s:2640   .debug_str:0000000000000042 .LASF92
     /tmp/ccBtCDKE.s:2810   .debug_str:0000000000000529 .LASF93
     /tmp/ccBtCDKE.s:2786   .debug_str:000000000000047e .LASF94
     /tmp/ccBtCDKE.s:2700   .debug_str:0000000000000209 .LASF95
     /tmp/ccBtCDKE.s:2798   .debug_str:00000000000004e0 .LASF96
GAS LISTING /tmp/ccBtCDKE.s 			page 13


     /tmp/ccBtCDKE.s:2690   .debug_str:00000000000001b6 .LASF97
     /tmp/ccBtCDKE.s:2702   .debug_str:000000000000020e .LASF98
     /tmp/ccBtCDKE.s:2668   .debug_str:0000000000000120 .LASF99
     /tmp/ccBtCDKE.s:2814   .debug_str:000000000000054c .LASF100
     /tmp/ccBtCDKE.s:2714   .debug_str:0000000000000281 .LASF101
     /tmp/ccBtCDKE.s:2826   .debug_str:00000000000005a2 .LASF102
     /tmp/ccBtCDKE.s:2860   .debug_str:000000000000078d .LASF103
     /tmp/ccBtCDKE.s:2680   .debug_str:000000000000017c .LASF104
     /tmp/ccBtCDKE.s:2854   .debug_str:0000000000000744 .LASF105
     /tmp/ccBtCDKE.s:2874   .debug_str:0000000000000811 .LASF106
     /tmp/ccBtCDKE.s:2872   .debug_str:00000000000007ee .LASF107
     /tmp/ccBtCDKE.s:2684   .debug_str:0000000000000187 .LASF108
     /tmp/ccBtCDKE.s:2688   .debug_str:00000000000001a2 .LASF109
     /tmp/ccBtCDKE.s:2704   .debug_str:000000000000021a .LASF110
     /tmp/ccBtCDKE.s:2784   .debug_str:0000000000000469 .LASF111
     /tmp/ccBtCDKE.s:2766   .debug_str:00000000000003fe .LASF112
     /tmp/ccBtCDKE.s:2712   .debug_str:0000000000000269 .LASF113
     /tmp/ccBtCDKE.s:2740   .debug_str:0000000000000323 .LASF114
     /tmp/ccBtCDKE.s:2828   .debug_str:00000000000005a9 .LASF115
     /tmp/ccBtCDKE.s:2742   .debug_str:000000000000032b .LASF128
     /tmp/ccBtCDKE.s:2728   .debug_str:00000000000002d6 .LASF129
     /tmp/ccBtCDKE.s:2876   .debug_str:0000000000000821 .LASF116
     /tmp/ccBtCDKE.s:208    .text:00000000000000ec .LFB34
     /tmp/ccBtCDKE.s:259    .text:0000000000000130 .LFE34
     /tmp/ccBtCDKE.s:2890   .debug_str:00000000000008a6 .LASF118
     /tmp/ccBtCDKE.s:2480   .debug_loc:0000000000000000 .LLST9
     /tmp/ccBtCDKE.s:225    .text:0000000000000104 .LBB15
     /tmp/ccBtCDKE.s:236    .text:0000000000000110 .LBE15
     /tmp/ccBtCDKE.s:2498   .debug_loc:000000000000004c .LLST10
     /tmp/ccBtCDKE.s:2506   .debug_loc:0000000000000070 .LLST11
     /tmp/ccBtCDKE.s:234    .text:0000000000000110 .LVL18
     /tmp/ccBtCDKE.s:237    .text:0000000000000110 .LBB17
     /tmp/ccBtCDKE.s:245    .text:000000000000011c .LBE17
     /tmp/ccBtCDKE.s:2514   .debug_loc:0000000000000094 .LLST12
     /tmp/ccBtCDKE.s:2521   .debug_loc:00000000000000b7 .LLST13
     /tmp/ccBtCDKE.s:105    .text:0000000000000078 .LFB33
     /tmp/ccBtCDKE.s:163    .text:00000000000000b8 .LFE33
     /tmp/ccBtCDKE.s:2676   .debug_str:0000000000000161 .LASF117
     /tmp/ccBtCDKE.s:2528   .debug_loc:00000000000000da .LLST3
     /tmp/ccBtCDKE.s:2539   .debug_loc:0000000000000110 .LLST4
     /tmp/ccBtCDKE.s:137    .text:00000000000000a0 .LBB13
     /tmp/ccBtCDKE.s:144    .text:00000000000000a4 .LBE13
     /tmp/ccBtCDKE.s:2550   .debug_loc:0000000000000146 .LLST5
     /tmp/ccBtCDKE.s:2558   .debug_loc:000000000000016a .LLST6
     /tmp/ccBtCDKE.s:10     .text:0000000000000000 .LFB32
     /tmp/ccBtCDKE.s:61     .text:000000000000003c .LFE32
     /tmp/ccBtCDKE.s:2692   .debug_str:00000000000001c1 .LASF119
     /tmp/ccBtCDKE.s:23     .text:000000000000000c .LBB11
     /tmp/ccBtCDKE.s:32     .text:0000000000000014 .LBE11
     /tmp/ccBtCDKE.s:2565   .debug_loc:000000000000018d .LLST0
     /tmp/ccBtCDKE.s:2573   .debug_loc:00000000000001b1 .LLST1
     /tmp/ccBtCDKE.s:169    .text:00000000000000b8 .LFB31
     /tmp/ccBtCDKE.s:202    .text:00000000000000ec .LFE31
     /tmp/ccBtCDKE.s:2580   .debug_loc:00000000000001d4 .LLST7
     /tmp/ccBtCDKE.s:2594   .debug_loc:000000000000020d .LLST8
     /tmp/ccBtCDKE.s:184    .text:00000000000000d0 .LVL13
     /tmp/ccBtCDKE.s:190    .text:00000000000000dc .LVL14
GAS LISTING /tmp/ccBtCDKE.s 			page 14


     /tmp/ccBtCDKE.s:67     .text:000000000000003c .LFB30
     /tmp/ccBtCDKE.s:99     .text:0000000000000078 .LFE30
     /tmp/ccBtCDKE.s:2601   .debug_loc:0000000000000230 .LLST2
     /tmp/ccBtCDKE.s:84     .text:0000000000000060 .LVL4
     /tmp/ccBtCDKE.s:88     .text:0000000000000068 .LVL5
     /tmp/ccBtCDKE.s:2764   .debug_str:00000000000003ea .LASF130
     /tmp/ccBtCDKE.s:2746   .debug_str:000000000000034b .LASF131
     /tmp/ccBtCDKE.s:211    .text:00000000000000ec .LVL15
     /tmp/ccBtCDKE.s:232    .text:0000000000000108 .LVL17
     /tmp/ccBtCDKE.s:254    .text:0000000000000128 .LVL20
     /tmp/ccBtCDKE.s:224    .text:0000000000000104 .LVL16
     /tmp/ccBtCDKE.s:243    .text:000000000000011c .LVL19
     /tmp/ccBtCDKE.s:108    .text:0000000000000078 .LVL6
     /tmp/ccBtCDKE.s:119    .text:000000000000008c .LVL7
     /tmp/ccBtCDKE.s:123    .text:0000000000000090 .LVL8
     /tmp/ccBtCDKE.s:142    .text:00000000000000a4 .LVL10
     /tmp/ccBtCDKE.s:155    .text:00000000000000b0 .LVL11
     /tmp/ccBtCDKE.s:136    .text:00000000000000a0 .LVL9
     /tmp/ccBtCDKE.s:22     .text:000000000000000c .LVL1
     /tmp/ccBtCDKE.s:30     .text:0000000000000014 .LVL2
     /tmp/ccBtCDKE.s:172    .text:00000000000000b8 .LVL12
     /tmp/ccBtCDKE.s:70     .text:000000000000003c .LVL3
     /tmp/ccBtCDKE.s:266    .debug_info:0000000000000000 .Ldebug_info0

UNDEFINED SYMBOLS
_ZN4KPCB7runningE
_ZN4KPCB8dispatchEv
_ZN10KScheduler3putEP4KPCB
_ZN16KMemoryAllocator9mem_allocEm
