GAS LISTING /tmp/ccBtCDKE.s 			page 1


   1              		.file	"KSemaphore.cpp"
   2              		.option pic
   3              		.option norelax
   4              		.text
   5              	.Ltext0:
   6              		.align	2
   7              		.globl	_ZN10KSemaphore3putEP4KPCB
   9              	_ZN10KSemaphore3putEP4KPCB:
  10              	.LFB32:
  11              		.file 1 "src/KSemaphore.cpp"
   1:src/KSemaphore.cpp **** //
   2:src/KSemaphore.cpp **** // Created by os on 6/22/22.
   3:src/KSemaphore.cpp **** //
   4:src/KSemaphore.cpp **** 
   5:src/KSemaphore.cpp **** #include "../h/KSemaphore.hpp"
   6:src/KSemaphore.cpp **** 
   7:src/KSemaphore.cpp **** void KSemaphore::block() {
   8:src/KSemaphore.cpp ****     put(KPCB::running);
   9:src/KSemaphore.cpp ****     KPCB::dispatch();
  10:src/KSemaphore.cpp **** }
  11:src/KSemaphore.cpp **** 
  12:src/KSemaphore.cpp **** void KSemaphore::deblock() {
  13:src/KSemaphore.cpp ****     KPCB* kpcb = KSemaphore::get();
  14:src/KSemaphore.cpp ****     if (!kpcb) return;
  15:src/KSemaphore.cpp ****     KScheduler::put(kpcb);
  16:src/KSemaphore.cpp **** }
  17:src/KSemaphore.cpp **** 
  18:src/KSemaphore.cpp **** void KSemaphore::put(KPCB* kpcb) {
  12              		.loc 1 18 34
  13              		.cfi_startproc
  14              	.LVL0:
  15 0000 130101FF 		addi	sp,sp,-16
  16              		.cfi_def_cfa_offset 16
  17 0004 23348100 		sd	s0,8(sp)
  18              		.cfi_offset 8, -8
  19 0008 13040101 		addi	s0,sp,16
  20              		.cfi_def_cfa 8, 0
  19:src/KSemaphore.cpp ****     kpcb->setWaiting(true);
  21              		.loc 1 19 5
  22              	.LVL1:
  23              	.LBB11:
  24              	.LBB12:
  25              		.file 2 "src/../h/KPCB.hpp"
   1:src/../h/KPCB.hpp **** //
   2:src/../h/KPCB.hpp **** // Created by os on 6/22/22.
   3:src/../h/KPCB.hpp **** //
   4:src/../h/KPCB.hpp **** 
   5:src/../h/KPCB.hpp **** #ifndef PROJECT_BASE_V1_1_KPCB_HPP
   6:src/../h/KPCB.hpp **** #define PROJECT_BASE_V1_1_KPCB_HPP
   7:src/../h/KPCB.hpp **** 
   8:src/../h/KPCB.hpp **** #include "../lib/hw.h"
   9:src/../h/KPCB.hpp **** #include "KScheduler.hpp"
  10:src/../h/KPCB.hpp **** #include "KMemoryAllocator.hpp"
  11:src/../h/KPCB.hpp **** 
  12:src/../h/KPCB.hpp **** class KPCB {
  13:src/../h/KPCB.hpp **** public:
  14:src/../h/KPCB.hpp ****     ~KPCB() {
GAS LISTING /tmp/ccBtCDKE.s 			page 2


  15:src/../h/KPCB.hpp ****         //delete[] stack;
  16:src/../h/KPCB.hpp ****         KMemoryAllocator::mem_free(stack);
  17:src/../h/KPCB.hpp ****         stack = nullptr;
  18:src/../h/KPCB.hpp ****     }
  19:src/../h/KPCB.hpp ****     friend class KScheduler;
  20:src/../h/KPCB.hpp ****     friend class KSemaphore;
  21:src/../h/KPCB.hpp ****     friend class KRiscv;
  22:src/../h/KPCB.hpp ****     friend class KSleep;
  23:src/../h/KPCB.hpp **** 
  24:src/../h/KPCB.hpp ****     void* operator new(size_t size) {
  25:src/../h/KPCB.hpp ****         size_t sizeBlock = (size + 16) / MEM_BLOCK_SIZE + ((size + 16) % MEM_BLOCK_SIZE ? 1 : 0);
  26:src/../h/KPCB.hpp ****         return KMemoryAllocator::mem_alloc(sizeBlock);
  27:src/../h/KPCB.hpp ****         //return __mem_alloc(size);
  28:src/../h/KPCB.hpp ****     }
  29:src/../h/KPCB.hpp ****     void* operator new[](size_t size) {
  30:src/../h/KPCB.hpp ****         size_t sizeBlock = (size + 16) / MEM_BLOCK_SIZE + ((size + 16) % MEM_BLOCK_SIZE ? 1 : 0);
  31:src/../h/KPCB.hpp ****         return KMemoryAllocator::mem_alloc(sizeBlock);
  32:src/../h/KPCB.hpp ****         //return __mem_alloc(size);
  33:src/../h/KPCB.hpp ****     }
  34:src/../h/KPCB.hpp ****     void operator delete(void* addr) {
  35:src/../h/KPCB.hpp ****         KMemoryAllocator::mem_free(addr);
  36:src/../h/KPCB.hpp ****         //__mem_free(addr);
  37:src/../h/KPCB.hpp ****     }
  38:src/../h/KPCB.hpp ****     void operator delete[](void* addr) {
  39:src/../h/KPCB.hpp ****         KMemoryAllocator::mem_free(addr);
  40:src/../h/KPCB.hpp ****         //__mem_free(addr);
  41:src/../h/KPCB.hpp ****     }
  42:src/../h/KPCB.hpp **** 
  43:src/../h/KPCB.hpp ****     using Body = void (*)(void*);
  44:src/../h/KPCB.hpp ****     static KPCB* createThread(Body body, void* args, void* stek);
  45:src/../h/KPCB.hpp ****     static KPCB* createThread(Body body);
  46:src/../h/KPCB.hpp ****     static void yield();
  47:src/../h/KPCB.hpp ****     static void dispatch();
  48:src/../h/KPCB.hpp ****     static KPCB* running;
  49:src/../h/KPCB.hpp ****     static int counter;
  50:src/../h/KPCB.hpp ****     static int statID;
  51:src/../h/KPCB.hpp **** 
  52:src/../h/KPCB.hpp ****     bool isFinished() const { return finished; }
  53:src/../h/KPCB.hpp ****     bool isSleeping() const { return sleeping; }
  54:src/../h/KPCB.hpp ****     bool isWaiting() const { return waiting; }
  55:src/../h/KPCB.hpp ****     bool isErr() const { return err; }
  56:src/../h/KPCB.hpp ****     void setFinished(bool val) {
  57:src/../h/KPCB.hpp ****         if (finished) return;
  58:src/../h/KPCB.hpp ****         finished = val;
  59:src/../h/KPCB.hpp ****         counter--;
  60:src/../h/KPCB.hpp ****     }
  61:src/../h/KPCB.hpp ****     void setSleeping(bool val) { sleeping = val; }
  62:src/../h/KPCB.hpp ****     void setWaiting(bool val) { waiting = val; }
  26              		.loc 2 62 33
  27              		.loc 2 62 41 is_stmt 0
  28 000c 93071000 		li	a5,1
  29 0010 2389F502 		sb	a5,50(a1)
  30              	.LVL2:
  31              	.LBE12:
  32              	.LBE11:
  20:src/KSemaphore.cpp ****     if (!head) head = kpcb;
  33              		.loc 1 20 5 is_stmt 1
GAS LISTING /tmp/ccBtCDKE.s 			page 3


  34              		.loc 1 20 10 is_stmt 0
  35 0014 83378500 		ld	a5,8(a0)
  36              		.loc 1 20 5
  37 0018 638E0700 		beqz	a5,.L5
  21:src/KSemaphore.cpp ****     else tail->nextSemaphore = kpcb;
  38              		.loc 1 21 10 is_stmt 1
  39 001c 83370501 		ld	a5,16(a0)
  40              		.loc 1 21 30 is_stmt 0
  41 0020 23B4B704 		sd	a1,72(a5)
  42              	.L3:
  22:src/KSemaphore.cpp ****     tail = kpcb;
  43              		.loc 1 22 5 is_stmt 1
  44              		.loc 1 22 10 is_stmt 0
  45 0024 2338B500 		sd	a1,16(a0)
  23:src/KSemaphore.cpp **** }
  46              		.loc 1 23 1
  47 0028 03348100 		ld	s0,8(sp)
  48              		.cfi_remember_state
  49              		.cfi_restore 8
  50              		.cfi_def_cfa 2, 16
  51 002c 13010101 		addi	sp,sp,16
  52              		.cfi_def_cfa_offset 0
  53 0030 67800000 		jr	ra
  54              	.L5:
  55              		.cfi_restore_state
  20:src/KSemaphore.cpp ****     else tail->nextSemaphore = kpcb;
  56              		.loc 1 20 16 is_stmt 1 discriminator 1
  20:src/KSemaphore.cpp ****     else tail->nextSemaphore = kpcb;
  57              		.loc 1 20 21 is_stmt 0 discriminator 1
  58 0034 2334B500 		sd	a1,8(a0)
  59 0038 6FF0DFFE 		j	.L3
  60              		.cfi_endproc
  61              	.LFE32:
  63              		.align	2
  64              		.globl	_ZN10KSemaphore5blockEv
  66              	_ZN10KSemaphore5blockEv:
  67              	.LFB30:
   7:src/KSemaphore.cpp ****     put(KPCB::running);
  68              		.loc 1 7 26 is_stmt 1
  69              		.cfi_startproc
  70              	.LVL3:
  71 003c 130101FF 		addi	sp,sp,-16
  72              		.cfi_def_cfa_offset 16
  73 0040 23341100 		sd	ra,8(sp)
  74 0044 23308100 		sd	s0,0(sp)
  75              		.cfi_offset 1, -8
  76              		.cfi_offset 8, -16
  77 0048 13040101 		addi	s0,sp,16
  78              		.cfi_def_cfa 8, 0
   8:src/KSemaphore.cpp ****     KPCB::dispatch();
  79              		.loc 1 8 5
   8:src/KSemaphore.cpp ****     KPCB::dispatch();
  80              		.loc 1 8 8 is_stmt 0
  81 004c 97070000 		la	a5,_ZN4KPCB7runningE
  81      83B70700 
  82 0054 83B50700 		ld	a1,0(a5)
  83 0058 97000000 		call	_ZN10KSemaphore3putEP4KPCB
GAS LISTING /tmp/ccBtCDKE.s 			page 4


  83      E7800000 
  84              	.LVL4:
   9:src/KSemaphore.cpp **** }
  85              		.loc 1 9 5 is_stmt 1
   9:src/KSemaphore.cpp **** }
  86              		.loc 1 9 19 is_stmt 0
  87 0060 97000000 		call	_ZN4KPCB8dispatchEv@plt
  87      E7800000 
  88              	.LVL5:
  10:src/KSemaphore.cpp **** 
  89              		.loc 1 10 1
  90 0068 83308100 		ld	ra,8(sp)
  91              		.cfi_restore 1
  92 006c 03340100 		ld	s0,0(sp)
  93              		.cfi_restore 8
  94              		.cfi_def_cfa 2, 16
  95 0070 13010101 		addi	sp,sp,16
  96              		.cfi_def_cfa_offset 0
  97 0074 67800000 		jr	ra
  98              		.cfi_endproc
  99              	.LFE30:
 101              		.align	2
 102              		.globl	_ZN10KSemaphore3getEv
 104              	_ZN10KSemaphore3getEv:
 105              	.LFB33:
  24:src/KSemaphore.cpp **** 
  25:src/KSemaphore.cpp **** KPCB *KSemaphore::get() {
 106              		.loc 1 25 25 is_stmt 1
 107              		.cfi_startproc
 108              	.LVL6:
 109 0078 130101FF 		addi	sp,sp,-16
 110              		.cfi_def_cfa_offset 16
 111 007c 23348100 		sd	s0,8(sp)
 112              		.cfi_offset 8, -8
 113 0080 13040101 		addi	s0,sp,16
 114              		.cfi_def_cfa 8, 0
 115 0084 93070500 		mv	a5,a0
  26:src/KSemaphore.cpp ****     if (!head) return nullptr;
 116              		.loc 1 26 5
 117              		.loc 1 26 10 is_stmt 0
 118 0088 03358500 		ld	a0,8(a0)
 119              	.LVL7:
 120              		.loc 1 26 5
 121 008c 630C0500 		beqz	a0,.L8
  27:src/KSemaphore.cpp ****     KPCB* old = head;
 122              		.loc 1 27 5 is_stmt 1
 123              	.LVL8:
  28:src/KSemaphore.cpp ****     head = head->nextSemaphore;
 124              		.loc 1 28 5
 125              		.loc 1 28 18 is_stmt 0
 126 0090 03378504 		ld	a4,72(a0)
 127              		.loc 1 28 10
 128 0094 23B4E700 		sd	a4,8(a5)
  29:src/KSemaphore.cpp ****     if (!head) tail = nullptr;
 129              		.loc 1 29 5 is_stmt 1
 130 0098 630C0700 		beqz	a4,.L12
 131              	.L10:
GAS LISTING /tmp/ccBtCDKE.s 			page 5


  30:src/KSemaphore.cpp ****     old->nextSemaphore = nullptr;
 132              		.loc 1 30 5
 133              		.loc 1 30 24 is_stmt 0
 134 009c 23340504 		sd	zero,72(a0)
  31:src/KSemaphore.cpp ****     old->setWaiting(false);
 135              		.loc 1 31 5 is_stmt 1
 136              	.LVL9:
 137              	.LBB13:
 138              	.LBB14:
 139              		.loc 2 62 33
 140              		.loc 2 62 41 is_stmt 0
 141 00a0 23090502 		sb	zero,50(a0)
 142              	.LVL10:
 143              	.LBE14:
 144              	.LBE13:
  32:src/KSemaphore.cpp ****     return old;
 145              		.loc 1 32 5 is_stmt 1
 146              	.L8:
  33:src/KSemaphore.cpp **** }
 147              		.loc 1 33 1 is_stmt 0
 148 00a4 03348100 		ld	s0,8(sp)
 149              		.cfi_remember_state
 150              		.cfi_restore 8
 151              		.cfi_def_cfa 2, 16
 152 00a8 13010101 		addi	sp,sp,16
 153              		.cfi_def_cfa_offset 0
 154 00ac 67800000 		jr	ra
 155              	.LVL11:
 156              	.L12:
 157              		.cfi_restore_state
  29:src/KSemaphore.cpp ****     old->nextSemaphore = nullptr;
 158              		.loc 1 29 16 is_stmt 1 discriminator 1
  29:src/KSemaphore.cpp ****     old->nextSemaphore = nullptr;
 159              		.loc 1 29 21 is_stmt 0 discriminator 1
 160 00b0 23B80700 		sd	zero,16(a5)
 161 00b4 6FF09FFE 		j	.L10
 162              		.cfi_endproc
 163              	.LFE33:
 165              		.align	2
 166              		.globl	_ZN10KSemaphore7deblockEv
 168              	_ZN10KSemaphore7deblockEv:
 169              	.LFB31:
  12:src/KSemaphore.cpp ****     KPCB* kpcb = KSemaphore::get();
 170              		.loc 1 12 28 is_stmt 1
 171              		.cfi_startproc
 172              	.LVL12:
 173 00b8 130101FF 		addi	sp,sp,-16
 174              		.cfi_def_cfa_offset 16
 175 00bc 23341100 		sd	ra,8(sp)
 176 00c0 23308100 		sd	s0,0(sp)
 177              		.cfi_offset 1, -8
 178              		.cfi_offset 8, -16
 179 00c4 13040101 		addi	s0,sp,16
 180              		.cfi_def_cfa 8, 0
  13:src/KSemaphore.cpp ****     if (!kpcb) return;
 181              		.loc 1 13 5
  13:src/KSemaphore.cpp ****     if (!kpcb) return;
GAS LISTING /tmp/ccBtCDKE.s 			page 6


 182              		.loc 1 13 33 is_stmt 0
 183 00c8 97000000 		call	_ZN10KSemaphore3getEv
 183      E7800000 
 184              	.LVL13:
  14:src/KSemaphore.cpp ****     KScheduler::put(kpcb);
 185              		.loc 1 14 5 is_stmt 1
 186 00d0 63060500 		beqz	a0,.L13
  15:src/KSemaphore.cpp **** }
 187              		.loc 1 15 5
  15:src/KSemaphore.cpp **** }
 188              		.loc 1 15 20 is_stmt 0
 189 00d4 97000000 		call	_ZN10KScheduler3putEP4KPCB@plt
 189      E7800000 
 190              	.LVL14:
 191              	.L13:
  16:src/KSemaphore.cpp **** 
 192              		.loc 1 16 1
 193 00dc 83308100 		ld	ra,8(sp)
 194              		.cfi_restore 1
 195 00e0 03340100 		ld	s0,0(sp)
 196              		.cfi_restore 8
 197              		.cfi_def_cfa 2, 16
 198 00e4 13010101 		addi	sp,sp,16
 199              		.cfi_def_cfa_offset 0
 200 00e8 67800000 		jr	ra
 201              		.cfi_endproc
 202              	.LFE31:
 204              		.align	2
 205              		.globl	_ZN10KSemaphore15createSemaphoreEm
 207              	_ZN10KSemaphore15createSemaphoreEm:
 208              	.LFB34:
  34:src/KSemaphore.cpp **** 
  35:src/KSemaphore.cpp **** KSemaphore *KSemaphore::createSemaphore(uint64 init) {
 209              		.loc 1 35 54 is_stmt 1
 210              		.cfi_startproc
 211              	.LVL15:
 212 00ec 130101FE 		addi	sp,sp,-32
 213              		.cfi_def_cfa_offset 32
 214 00f0 233C1100 		sd	ra,24(sp)
 215 00f4 23388100 		sd	s0,16(sp)
 216 00f8 23349100 		sd	s1,8(sp)
 217              		.cfi_offset 1, -8
 218              		.cfi_offset 8, -16
 219              		.cfi_offset 9, -24
 220 00fc 13040102 		addi	s0,sp,32
 221              		.cfi_def_cfa 8, 0
 222 0100 93040500 		mv	s1,a0
  36:src/KSemaphore.cpp ****     return new KSemaphore(init);
 223              		.loc 1 36 5
 224              	.LVL16:
 225              	.LBB15:
 226              	.LBB16:
 227              		.file 3 "src/../h/KSemaphore.hpp"
   1:src/../h/KSemaphore.hpp **** //
   2:src/../h/KSemaphore.hpp **** // Created by os on 6/22/22.
   3:src/../h/KSemaphore.hpp **** //
   4:src/../h/KSemaphore.hpp **** 
GAS LISTING /tmp/ccBtCDKE.s 			page 7


   5:src/../h/KSemaphore.hpp **** #ifndef PROJECT_BASE_V1_1_KSEMAPHORE_HPP
   6:src/../h/KSemaphore.hpp **** #define PROJECT_BASE_V1_1_KSEMAPHORE_HPP
   7:src/../h/KSemaphore.hpp **** 
   8:src/../h/KSemaphore.hpp **** #include "../lib/hw.h"
   9:src/../h/KSemaphore.hpp **** #include "KPCB.hpp"
  10:src/../h/KSemaphore.hpp **** 
  11:src/../h/KSemaphore.hpp **** class KSemaphore {
  12:src/../h/KSemaphore.hpp **** public:
  13:src/../h/KSemaphore.hpp ****     ~KSemaphore() {
  14:src/../h/KSemaphore.hpp ****         while (head) {
  15:src/../h/KSemaphore.hpp ****             KPCB* old = head;
  16:src/../h/KSemaphore.hpp ****             head = head->nextSemaphore;
  17:src/../h/KSemaphore.hpp ****             old->nextSemaphore = nullptr;
  18:src/../h/KSemaphore.hpp ****             old->setErr(true);
  19:src/../h/KSemaphore.hpp ****             old->setWaiting(false);
  20:src/../h/KSemaphore.hpp ****             KScheduler::put(old);
  21:src/../h/KSemaphore.hpp ****         }
  22:src/../h/KSemaphore.hpp ****     }
  23:src/../h/KSemaphore.hpp **** 
  24:src/../h/KSemaphore.hpp ****     void wait() { if(--val < 0) block(); }
  25:src/../h/KSemaphore.hpp ****     void signal() { if (val++ < 0) deblock(); }
  26:src/../h/KSemaphore.hpp ****     int value() const { return val; }
  27:src/../h/KSemaphore.hpp ****     static KSemaphore* createSemaphore(uint64 init);
  28:src/../h/KSemaphore.hpp **** 
  29:src/../h/KSemaphore.hpp ****     void* operator new(size_t size) {
  30:src/../h/KSemaphore.hpp ****         size_t sizeBlock = (size + 16) / MEM_BLOCK_SIZE + ((size + 16) % MEM_BLOCK_SIZE ? 1 : 0);
 228              		.loc 3 30 9
  31:src/../h/KSemaphore.hpp ****         return KMemoryAllocator::mem_alloc(sizeBlock);
 229              		.loc 3 31 9
 230              		.loc 3 31 43 is_stmt 0
 231 0104 13051000 		li	a0,1
 232              	.LVL17:
 233 0108 97000000 		call	_ZN16KMemoryAllocator9mem_allocEm@plt
 233      E7800000 
 234              	.LVL18:
 235              	.LBE16:
 236              	.LBE15:
 237              	.LBB17:
 238              	.LBB18:
  32:src/../h/KSemaphore.hpp ****         //return __mem_alloc(size);
  33:src/../h/KSemaphore.hpp ****     }
  34:src/../h/KSemaphore.hpp ****     void* operator new[](size_t size) {
  35:src/../h/KSemaphore.hpp ****         size_t sizeBlock = (size + 16) / MEM_BLOCK_SIZE + ((size + 16) % MEM_BLOCK_SIZE ? 1 : 0);
  36:src/../h/KSemaphore.hpp ****         return KMemoryAllocator::mem_alloc(sizeBlock);
  37:src/../h/KSemaphore.hpp ****         //return __mem_alloc(size);
  38:src/../h/KSemaphore.hpp ****     }
  39:src/../h/KSemaphore.hpp ****     void operator delete(void* addr) {
  40:src/../h/KSemaphore.hpp ****         KMemoryAllocator::mem_free(addr);
  41:src/../h/KSemaphore.hpp ****         //__mem_free(addr);
  42:src/../h/KSemaphore.hpp ****     }
  43:src/../h/KSemaphore.hpp ****     void operator delete[](void* addr) {
  44:src/../h/KSemaphore.hpp ****         KMemoryAllocator::mem_free(addr);
  45:src/../h/KSemaphore.hpp ****         //__mem_free(addr);
  46:src/../h/KSemaphore.hpp ****     }
  47:src/../h/KSemaphore.hpp **** protected:
  48:src/../h/KSemaphore.hpp ****     void block();
  49:src/../h/KSemaphore.hpp ****     void deblock();
GAS LISTING /tmp/ccBtCDKE.s 			page 8


  50:src/../h/KSemaphore.hpp ****     void put(KPCB* kpcb);
  51:src/../h/KSemaphore.hpp ****     KPCB* get();
  52:src/../h/KSemaphore.hpp **** private:
  53:src/../h/KSemaphore.hpp ****     explicit KSemaphore(uint64 init) : val(init) {}
 239              		.loc 3 53 48
 240 0110 23209500 		sw	s1,0(a0)
 241 0114 23340500 		sd	zero,8(a0)
 242 0118 23380500 		sd	zero,16(a0)
 243              	.LVL19:
 244              	.LBE18:
 245              	.LBE17:
  37:src/KSemaphore.cpp **** }
 246              		.loc 1 37 1
 247 011c 83308101 		ld	ra,24(sp)
 248              		.cfi_restore 1
 249 0120 03340101 		ld	s0,16(sp)
 250              		.cfi_restore 8
 251              		.cfi_def_cfa 2, 32
 252 0124 83348100 		ld	s1,8(sp)
 253              		.cfi_restore 9
 254              	.LVL20:
 255 0128 13010102 		addi	sp,sp,32
 256              		.cfi_def_cfa_offset 0
 257 012c 67800000 		jr	ra
 258              		.cfi_endproc
 259              	.LFE34:
 261              	.Letext0:
 262              		.file 4 "src/../h/../lib/hw.h"
 263              		.file 5 "src/../h/KScheduler.hpp"
 264              		.file 6 "src/../h/KMemoryAllocator.hpp"
GAS LISTING /tmp/ccBtCDKE.s 			page 9

