GAS LISTING /tmp/ccyrC8nP.s 			page 1


   1              		.file	"KSleep.cpp"
   2              		.option pic
   3              		.option norelax
   4              		.text
   5              	.Ltext0:
   6              		.align	2
   7              		.globl	_ZN6KSleep6removeEv
   9              	_ZN6KSleep6removeEv:
  10              	.LFB33:
  11              		.file 1 "src/KSleep.cpp"
   1:src/KSleep.cpp **** //
   2:src/KSleep.cpp **** // Created by os on 6/22/22.
   3:src/KSleep.cpp **** //
   4:src/KSleep.cpp **** 
   5:src/KSleep.cpp **** #include "../h/KSleep.hpp"
   6:src/KSleep.cpp **** #include "../h/KPCB.hpp"
   7:src/KSleep.cpp **** #include "../h/KRiscv.hpp"
   8:src/KSleep.cpp **** 
   9:src/KSleep.cpp **** KPCB* KSleep::head = nullptr;
  10:src/KSleep.cpp **** 
  11:src/KSleep.cpp **** void KSleep::remove() {
  12              		.loc 1 11 23
  13              		.cfi_startproc
  12:src/KSleep.cpp ****     if (!head) return;
  14              		.loc 1 12 5
  15              		.loc 1 12 9 is_stmt 0
  16 0000 97070000 		ld	a5,.LANCHOR0
  16      83B70700 
  17              		.loc 1 12 5
  18 0008 638C0706 		beqz	a5,.L5
  13:src/KSleep.cpp ****     --(head->timeSleepCounter);
  19              		.loc 1 13 5 is_stmt 1
  20              		.loc 1 13 14 is_stmt 0
  21 000c 03B70705 		ld	a4,80(a5)
  22              		.loc 1 13 5
  23 0010 1307F7FF 		addi	a4,a4,-1
  24 0014 23B8E704 		sd	a4,80(a5)
  14:src/KSleep.cpp ****     while (head && !(head->timeSleepCounter)) {
  25              		.loc 1 14 5 is_stmt 1
  26              		.loc 1 14 17
  27              		.loc 1 14 44 is_stmt 0
  28 0018 17050000 		ld	a0,.LANCHOR0
  28      03350500 
  29              		.loc 1 14 17
  30 0020 63000506 		beqz	a0,.L5
  31              		.loc 1 14 28
  32 0024 83370505 		ld	a5,80(a0)
  33              		.loc 1 14 17
  34 0028 639C0704 		bnez	a5,.L5
  11:src/KSleep.cpp ****     if (!head) return;
  35              		.loc 1 11 23
  36 002c 130101FF 		addi	sp,sp,-16
  37              		.cfi_def_cfa_offset 16
  38 0030 23341100 		sd	ra,8(sp)
  39 0034 23308100 		sd	s0,0(sp)
  40              		.cfi_offset 1, -8
  41              		.cfi_offset 8, -16
GAS LISTING /tmp/ccyrC8nP.s 			page 2


  42 0038 13040101 		addi	s0,sp,16
  43              		.cfi_def_cfa 8, 0
  44 003c 6F00C000 		j	.L8
  45              	.LVL0:
  46              	.L11:
  47              		.loc 1 14 28 discriminator 1
  48 0040 83370505 		ld	a5,80(a0)
  49              		.loc 1 14 17 discriminator 1
  50 0044 63960702 		bnez	a5,.L1
  51              	.L8:
  52              	.LBB10:
  15:src/KSleep.cpp ****         KPCB* old = head;
  53              		.loc 1 15 9 is_stmt 1
  54              	.LVL1:
  16:src/KSleep.cpp ****         head = head->nextSleeping;
  55              		.loc 1 16 9
  56              		.loc 1 16 22 is_stmt 0
  57 0048 83370504 		ld	a5,64(a0)
  58              		.loc 1 16 14
  59 004c 17070000 		sd	a5,.LANCHOR0,a4
  59      2330F700 
  17:src/KSleep.cpp ****         old->nextSleeping = nullptr;
  60              		.loc 1 17 9 is_stmt 1
  61              		.loc 1 17 27 is_stmt 0
  62 0054 23300504 		sd	zero,64(a0)
  18:src/KSleep.cpp ****         old->setSleeping(false);
  63              		.loc 1 18 9 is_stmt 1
  64              	.LVL2:
  65              	.LBB11:
  66              	.LBB12:
  67              		.file 2 "src/../h/KPCB.hpp"
   1:src/../h/KPCB.hpp **** //
   2:src/../h/KPCB.hpp **** // Created by os on 6/22/22.
   3:src/../h/KPCB.hpp **** //
   4:src/../h/KPCB.hpp **** 
   5:src/../h/KPCB.hpp **** #ifndef PROJECT_BASE_V1_1_KPCB_HPP
   6:src/../h/KPCB.hpp **** #define PROJECT_BASE_V1_1_KPCB_HPP
   7:src/../h/KPCB.hpp **** 
   8:src/../h/KPCB.hpp **** #include "../lib/hw.h"
   9:src/../h/KPCB.hpp **** #include "KScheduler.hpp"
  10:src/../h/KPCB.hpp **** #include "KMemoryAllocator.hpp"
  11:src/../h/KPCB.hpp **** 
  12:src/../h/KPCB.hpp **** class KPCB {
  13:src/../h/KPCB.hpp **** public:
  14:src/../h/KPCB.hpp ****     ~KPCB() {
  15:src/../h/KPCB.hpp ****         //delete[] stack;
  16:src/../h/KPCB.hpp ****         KMemoryAllocator::mem_free(stack);
  17:src/../h/KPCB.hpp ****         stack = nullptr;
  18:src/../h/KPCB.hpp ****     }
  19:src/../h/KPCB.hpp ****     friend class KScheduler;
  20:src/../h/KPCB.hpp ****     friend class KSemaphore;
  21:src/../h/KPCB.hpp ****     friend class KRiscv;
  22:src/../h/KPCB.hpp ****     friend class KSleep;
  23:src/../h/KPCB.hpp **** 
  24:src/../h/KPCB.hpp ****     void* operator new(size_t size) {
  25:src/../h/KPCB.hpp ****         size_t sizeBlock = (size + 16) / MEM_BLOCK_SIZE + ((size + 16) % MEM_BLOCK_SIZE ? 1 : 0);
  26:src/../h/KPCB.hpp ****         return KMemoryAllocator::mem_alloc(sizeBlock);
GAS LISTING /tmp/ccyrC8nP.s 			page 3


  27:src/../h/KPCB.hpp ****         //return __mem_alloc(size);
  28:src/../h/KPCB.hpp ****     }
  29:src/../h/KPCB.hpp ****     void* operator new[](size_t size) {
  30:src/../h/KPCB.hpp ****         size_t sizeBlock = (size + 16) / MEM_BLOCK_SIZE + ((size + 16) % MEM_BLOCK_SIZE ? 1 : 0);
  31:src/../h/KPCB.hpp ****         return KMemoryAllocator::mem_alloc(sizeBlock);
  32:src/../h/KPCB.hpp ****         //return __mem_alloc(size);
  33:src/../h/KPCB.hpp ****     }
  34:src/../h/KPCB.hpp ****     void operator delete(void* addr) {
  35:src/../h/KPCB.hpp ****         KMemoryAllocator::mem_free(addr);
  36:src/../h/KPCB.hpp ****         //__mem_free(addr);
  37:src/../h/KPCB.hpp ****     }
  38:src/../h/KPCB.hpp ****     void operator delete[](void* addr) {
  39:src/../h/KPCB.hpp ****         KMemoryAllocator::mem_free(addr);
  40:src/../h/KPCB.hpp ****         //__mem_free(addr);
  41:src/../h/KPCB.hpp ****     }
  42:src/../h/KPCB.hpp **** 
  43:src/../h/KPCB.hpp ****     using Body = void (*)(void*);
  44:src/../h/KPCB.hpp ****     static KPCB* createThread(Body body, void* args, void* stek);
  45:src/../h/KPCB.hpp ****     static KPCB* createThread(Body body);
  46:src/../h/KPCB.hpp ****     static void yield();
  47:src/../h/KPCB.hpp ****     static void dispatch();
  48:src/../h/KPCB.hpp ****     static KPCB* running;
  49:src/../h/KPCB.hpp ****     static int counter;
  50:src/../h/KPCB.hpp ****     static int statID;
  51:src/../h/KPCB.hpp **** 
  52:src/../h/KPCB.hpp ****     bool isFinished() const { return finished; }
  53:src/../h/KPCB.hpp ****     bool isSleeping() const { return sleeping; }
  54:src/../h/KPCB.hpp ****     bool isWaiting() const { return waiting; }
  55:src/../h/KPCB.hpp ****     bool isErr() const { return err; }
  56:src/../h/KPCB.hpp ****     void setFinished(bool val) {
  57:src/../h/KPCB.hpp ****         if (finished) return;
  58:src/../h/KPCB.hpp ****         finished = val;
  59:src/../h/KPCB.hpp ****         counter--;
  60:src/../h/KPCB.hpp ****     }
  61:src/../h/KPCB.hpp ****     void setSleeping(bool val) { sleeping = val; }
  68              		.loc 2 61 34
  69              		.loc 2 61 43 is_stmt 0
  70 0058 A3080502 		sb	zero,49(a0)
  71              	.LVL3:
  72              	.LBE12:
  73              	.LBE11:
  19:src/KSleep.cpp ****         KScheduler::put(old);
  74              		.loc 1 19 9 is_stmt 1
  75              		.loc 1 19 24 is_stmt 0
  76 005c 97000000 		call	_ZN10KScheduler3putEP4KPCB@plt
  76      E7800000 
  77              	.LVL4:
  78              	.LBE10:
  14:src/KSleep.cpp ****         KPCB* old = head;
  79              		.loc 1 14 5 is_stmt 1
  14:src/KSleep.cpp ****         KPCB* old = head;
  80              		.loc 1 14 17
  14:src/KSleep.cpp ****         KPCB* old = head;
  81              		.loc 1 14 44 is_stmt 0
  82 0064 17050000 		ld	a0,.LANCHOR0
  82      03350500 
  14:src/KSleep.cpp ****         KPCB* old = head;
GAS LISTING /tmp/ccyrC8nP.s 			page 4


  83              		.loc 1 14 17
  84 006c E31A05FC 		bnez	a0,.L11
  85              	.L1:
  20:src/KSleep.cpp ****     }
  21:src/KSleep.cpp **** }
  86              		.loc 1 21 1
  87 0070 83308100 		ld	ra,8(sp)
  88              		.cfi_restore 1
  89 0074 03340100 		ld	s0,0(sp)
  90              		.cfi_restore 8
  91              		.cfi_def_cfa 2, 16
  92 0078 13010101 		addi	sp,sp,16
  93              		.cfi_def_cfa_offset 0
  94 007c 67800000 		jr	ra
  95              	.L5:
  96 0080 67800000 		ret
  97              		.cfi_endproc
  98              	.LFE33:
 100              		.align	2
 101              		.globl	_ZN6KSleep3addEm
 103              	_ZN6KSleep3addEm:
 104              	.LFB34:
  22:src/KSleep.cpp **** 
  23:src/KSleep.cpp **** void KSleep::add(time_t t) {
 105              		.loc 1 23 28 is_stmt 1
 106              		.cfi_startproc
 107              	.LVL5:
 108 0084 130101FF 		addi	sp,sp,-16
 109              		.cfi_def_cfa_offset 16
 110 0088 23348100 		sd	s0,8(sp)
 111              		.cfi_offset 8, -8
 112 008c 13040101 		addi	s0,sp,16
 113              		.cfi_def_cfa 8, 0
  24:src/KSleep.cpp ****     KPCB* kpcb = KPCB::running;
 114              		.loc 1 24 5
 115              		.loc 1 24 11 is_stmt 0
 116 0090 97070000 		la	a5,_ZN4KPCB7runningE
 116      83B70700 
 117 0098 03B60700 		ld	a2,0(a5)
 118              	.LVL6:
  25:src/KSleep.cpp ****     if (!kpcb || !t) return;
 119              		.loc 1 25 5 is_stmt 1
 120 009c 63040608 		beqz	a2,.L12
 121              		.loc 1 25 15 is_stmt 0 discriminator 2
 122 00a0 63020508 		beqz	a0,.L12
  26:src/KSleep.cpp ****     kpcb->setSleeping(true);
 123              		.loc 1 26 5 is_stmt 1
 124              	.LVL7:
 125              	.LBB13:
 126              	.LBB14:
 127              		.loc 2 61 34
 128              		.loc 2 61 43 is_stmt 0
 129 00a4 93071000 		li	a5,1
 130 00a8 A308F602 		sb	a5,49(a2)
 131              	.LVL8:
 132              	.LBE14:
 133              	.LBE13:
GAS LISTING /tmp/ccyrC8nP.s 			page 5


  27:src/KSleep.cpp ****     if (!head) {
 134              		.loc 1 27 5 is_stmt 1
 135              	.LBB15:
 136              		.loc 1 27 9 is_stmt 0
 137 00ac 97070000 		ld	a5,.LANCHOR0
 137      83B70700 
 138              		.loc 1 27 5
 139 00b4 63840702 		beqz	a5,.L21
 140              	.LBB16:
  28:src/KSleep.cpp ****         head = kpcb;
  29:src/KSleep.cpp ****         head->timeSleepCounter = t;
  30:src/KSleep.cpp ****         head->nextSleeping = nullptr;
  31:src/KSleep.cpp ****     }
  32:src/KSleep.cpp ****     else {
  33:src/KSleep.cpp ****         KPCB* curr = head, *prev = nullptr;
 141              		.loc 1 33 29
 142 00b8 93050000 		li	a1,0
 143              	.L14:
 144              	.LVL9:
  34:src/KSleep.cpp ****         while (curr) {
 145              		.loc 1 34 9 is_stmt 1
 146              		.loc 1 34 16
 147 00bc 638E0704 		beqz	a5,.L15
 148              	.LBB17:
  35:src/KSleep.cpp ****             long r = (long)t - (long)curr->timeSleepCounter;
 149              		.loc 1 35 13
 150              		.loc 1 35 44 is_stmt 0
 151 00c0 03B70705 		ld	a4,80(a5)
 152              		.loc 1 35 18
 153 00c4 B306E540 		sub	a3,a0,a4
 154              	.LVL10:
  36:src/KSleep.cpp ****             if (r <= 0) {
 155              		.loc 1 36 13 is_stmt 1
 156 00c8 6354D002 		blez	a3,.L22
  37:src/KSleep.cpp ****                 curr->timeSleepCounter -= t;
  38:src/KSleep.cpp ****                 kpcb->timeSleepCounter = t;
  39:src/KSleep.cpp ****                 kpcb->nextSleeping = curr;
  40:src/KSleep.cpp ****                 if (!prev) head = kpcb;
  41:src/KSleep.cpp ****                 else prev->nextSleeping = kpcb;
  42:src/KSleep.cpp ****                 return;
  43:src/KSleep.cpp ****             }
  44:src/KSleep.cpp ****             else t -= curr->timeSleepCounter;
 157              		.loc 1 44 18
 158              		.loc 1 44 20 is_stmt 0
 159 00cc 3305E540 		sub	a0,a0,a4
 160              	.LVL11:
  45:src/KSleep.cpp ****             prev = curr;
 161              		.loc 1 45 13 is_stmt 1
  46:src/KSleep.cpp ****             curr = curr->nextSleeping;
 162              		.loc 1 46 13
  45:src/KSleep.cpp ****             prev = curr;
 163              		.loc 1 45 18 is_stmt 0
 164 00d0 93850700 		mv	a1,a5
 165              		.loc 1 46 18
 166 00d4 83B70704 		ld	a5,64(a5)
 167              	.LVL12:
 168              	.LBE17:
GAS LISTING /tmp/ccyrC8nP.s 			page 6


  34:src/KSleep.cpp ****             long r = (long)t - (long)curr->timeSleepCounter;
 169              		.loc 1 34 9
 170 00d8 6FF05FFE 		j	.L14
 171              	.LVL13:
 172              	.L21:
 173              	.LBE16:
  28:src/KSleep.cpp ****         head->timeSleepCounter = t;
 174              		.loc 1 28 9 is_stmt 1
  28:src/KSleep.cpp ****         head->timeSleepCounter = t;
 175              		.loc 1 28 14 is_stmt 0
 176 00dc 97070000 		sd	a2,.LANCHOR0,a5
 176      23B0C700 
  29:src/KSleep.cpp ****         head->nextSleeping = nullptr;
 177              		.loc 1 29 9 is_stmt 1
  29:src/KSleep.cpp ****         head->nextSleeping = nullptr;
 178              		.loc 1 29 32 is_stmt 0
 179 00e4 2338A604 		sd	a0,80(a2)
  30:src/KSleep.cpp ****     }
 180              		.loc 1 30 9 is_stmt 1
  30:src/KSleep.cpp ****     }
 181              		.loc 1 30 28 is_stmt 0
 182 00e8 23300604 		sd	zero,64(a2)
 183 00ec 6F008003 		j	.L12
 184              	.LVL14:
 185              	.L22:
 186              	.LBB19:
 187              	.LBB18:
  37:src/KSleep.cpp ****                 kpcb->timeSleepCounter = t;
 188              		.loc 1 37 17 is_stmt 1
  37:src/KSleep.cpp ****                 kpcb->timeSleepCounter = t;
 189              		.loc 1 37 40 is_stmt 0
 190 00f0 3307A740 		sub	a4,a4,a0
 191 00f4 23B8E704 		sd	a4,80(a5)
  38:src/KSleep.cpp ****                 kpcb->nextSleeping = curr;
 192              		.loc 1 38 17 is_stmt 1
  38:src/KSleep.cpp ****                 kpcb->nextSleeping = curr;
 193              		.loc 1 38 40 is_stmt 0
 194 00f8 2338A604 		sd	a0,80(a2)
  39:src/KSleep.cpp ****                 if (!prev) head = kpcb;
 195              		.loc 1 39 17 is_stmt 1
  39:src/KSleep.cpp ****                 if (!prev) head = kpcb;
 196              		.loc 1 39 36 is_stmt 0
 197 00fc 2330F604 		sd	a5,64(a2)
  40:src/KSleep.cpp ****                 else prev->nextSleeping = kpcb;
 198              		.loc 1 40 17 is_stmt 1
 199 0100 63860500 		beqz	a1,.L23
  41:src/KSleep.cpp ****                 return;
 200              		.loc 1 41 22
  41:src/KSleep.cpp ****                 return;
 201              		.loc 1 41 41 is_stmt 0
 202 0104 23B0C504 		sd	a2,64(a1)
  42:src/KSleep.cpp ****             }
 203              		.loc 1 42 17 is_stmt 1
 204 0108 6F00C001 		j	.L12
 205              	.L23:
  40:src/KSleep.cpp ****                 else prev->nextSleeping = kpcb;
 206              		.loc 1 40 28 discriminator 1
GAS LISTING /tmp/ccyrC8nP.s 			page 7


  40:src/KSleep.cpp ****                 else prev->nextSleeping = kpcb;
 207              		.loc 1 40 33 is_stmt 0 discriminator 1
 208 010c 97070000 		sd	a2,.LANCHOR0,a5
 208      23B0C700 
 209              	.LVL15:
 210 0114 6F000001 		j	.L12
 211              	.LVL16:
 212              	.L15:
 213              	.LBE18:
  47:src/KSleep.cpp ****         }
  48:src/KSleep.cpp ****         kpcb->timeSleepCounter = t;
 214              		.loc 1 48 9 is_stmt 1
 215              		.loc 1 48 32 is_stmt 0
 216 0118 2338A604 		sd	a0,80(a2)
  49:src/KSleep.cpp ****         kpcb->nextSleeping = nullptr;
 217              		.loc 1 49 9 is_stmt 1
 218              		.loc 1 49 28 is_stmt 0
 219 011c 23300604 		sd	zero,64(a2)
  50:src/KSleep.cpp ****         prev->nextSleeping = kpcb;
 220              		.loc 1 50 9 is_stmt 1
 221              		.loc 1 50 28 is_stmt 0
 222 0120 23B0C504 		sd	a2,64(a1)
 223              	.LVL17:
 224              	.L12:
 225              	.LBE19:
 226              	.LBE15:
  51:src/KSleep.cpp ****     }
  52:src/KSleep.cpp **** }
 227              		.loc 1 52 1
 228 0124 03348100 		ld	s0,8(sp)
 229              		.cfi_restore 8
 230              		.cfi_def_cfa 2, 16
 231 0128 13010101 		addi	sp,sp,16
 232              		.cfi_def_cfa_offset 0
 233 012c 67800000 		jr	ra
 234              		.cfi_endproc
 235              	.LFE34:
 237              		.globl	_ZN6KSleep4headE
 238              		.bss
 239              		.align	3
 240              		.set	.LANCHOR0,. + 0
 243              	_ZN6KSleep4headE:
 244 0000 00000000 		.zero	8
 244      00000000 
 245              		.text
 246              	.Letext0:
 247              		.file 3 "src/../h/../lib/hw.h"
 248              		.file 4 "src/../h/KSleep.hpp"
 249              		.file 5 "src/../h/KScheduler.hpp"
 250              		.file 6 "src/../h/KRiscv.hpp"
GAS LISTING /tmp/ccyrC8nP.s 			page 8


DEFINED SYMBOLS
                            *ABS*:0000000000000000 KSleep.cpp
     /tmp/ccyrC8nP.s:9      .text:0000000000000000 _ZN6KSleep6removeEv
     /tmp/ccyrC8nP.s:13     .text:0000000000000000 .L0 
     /tmp/ccyrC8nP.s:14     .text:0000000000000000 .L0 
     /tmp/ccyrC8nP.s:15     .text:0000000000000000 .L0 
     /tmp/ccyrC8nP.s:16     .text:0000000000000000 .L0 
     /tmp/ccyrC8nP.s:18     .text:0000000000000008 .L0 
     /tmp/ccyrC8nP.s:20     .text:000000000000000c .L0 
     /tmp/ccyrC8nP.s:21     .text:000000000000000c .L0 
     /tmp/ccyrC8nP.s:23     .text:0000000000000010 .L0 
     /tmp/ccyrC8nP.s:26     .text:0000000000000018 .L0 
     /tmp/ccyrC8nP.s:27     .text:0000000000000018 .L0 
     /tmp/ccyrC8nP.s:28     .text:0000000000000018 .L0 
     /tmp/ccyrC8nP.s:30     .text:0000000000000020 .L0 
     /tmp/ccyrC8nP.s:32     .text:0000000000000024 .L0 
     /tmp/ccyrC8nP.s:34     .text:0000000000000028 .L0 
     /tmp/ccyrC8nP.s:36     .text:000000000000002c .L0 
     /tmp/ccyrC8nP.s:37     .text:0000000000000030 .L0 
     /tmp/ccyrC8nP.s:40     .text:0000000000000038 .L0 
     /tmp/ccyrC8nP.s:41     .text:0000000000000038 .L0 
     /tmp/ccyrC8nP.s:43     .text:000000000000003c .L0 
     /tmp/ccyrC8nP.s:48     .text:0000000000000040 .L0 
     /tmp/ccyrC8nP.s:50     .text:0000000000000044 .L0 
     /tmp/ccyrC8nP.s:55     .text:0000000000000048 .L0 
     /tmp/ccyrC8nP.s:56     .text:0000000000000048 .L0 
     /tmp/ccyrC8nP.s:57     .text:0000000000000048 .L0 
     /tmp/ccyrC8nP.s:59     .text:000000000000004c .L0 
     /tmp/ccyrC8nP.s:61     .text:0000000000000054 .L0 
     /tmp/ccyrC8nP.s:62     .text:0000000000000054 .L0 
     /tmp/ccyrC8nP.s:68     .text:0000000000000058 .L0 
     /tmp/ccyrC8nP.s:69     .text:0000000000000058 .L0 
     /tmp/ccyrC8nP.s:70     .text:0000000000000058 .L0 
     /tmp/ccyrC8nP.s:75     .text:000000000000005c .L0 
     /tmp/ccyrC8nP.s:76     .text:000000000000005c .L0 
     /tmp/ccyrC8nP.s:80     .text:0000000000000064 .L0 
     /tmp/ccyrC8nP.s:81     .text:0000000000000064 .L0 
     /tmp/ccyrC8nP.s:82     .text:0000000000000064 .L0 
     /tmp/ccyrC8nP.s:84     .text:000000000000006c .L0 
     /tmp/ccyrC8nP.s:87     .text:0000000000000070 .L0 
     /tmp/ccyrC8nP.s:88     .text:0000000000000074 .L0 
     /tmp/ccyrC8nP.s:90     .text:0000000000000078 .L0 
     /tmp/ccyrC8nP.s:91     .text:0000000000000078 .L0 
     /tmp/ccyrC8nP.s:93     .text:000000000000007c .L0 
     /tmp/ccyrC8nP.s:97     .text:0000000000000084 .L0 
     /tmp/ccyrC8nP.s:103    .text:0000000000000084 _ZN6KSleep3addEm
     /tmp/ccyrC8nP.s:106    .text:0000000000000084 .L0 
     /tmp/ccyrC8nP.s:108    .text:0000000000000084 .L0 
     /tmp/ccyrC8nP.s:109    .text:0000000000000088 .L0 
     /tmp/ccyrC8nP.s:111    .text:000000000000008c .L0 
     /tmp/ccyrC8nP.s:113    .text:0000000000000090 .L0 
     /tmp/ccyrC8nP.s:115    .text:0000000000000090 .L0 
     /tmp/ccyrC8nP.s:116    .text:0000000000000090 .L0 
     /tmp/ccyrC8nP.s:120    .text:000000000000009c .L0 
     /tmp/ccyrC8nP.s:122    .text:00000000000000a0 .L0 
     /tmp/ccyrC8nP.s:127    .text:00000000000000a4 .L0 
     /tmp/ccyrC8nP.s:128    .text:00000000000000a4 .L0 
GAS LISTING /tmp/ccyrC8nP.s 			page 9


     /tmp/ccyrC8nP.s:129    .text:00000000000000a4 .L0 
     /tmp/ccyrC8nP.s:136    .text:00000000000000ac .L0 
     /tmp/ccyrC8nP.s:137    .text:00000000000000ac .L0 
     /tmp/ccyrC8nP.s:139    .text:00000000000000b4 .L0 
     /tmp/ccyrC8nP.s:142    .text:00000000000000b8 .L0 
     /tmp/ccyrC8nP.s:146    .text:00000000000000bc .L0 
     /tmp/ccyrC8nP.s:147    .text:00000000000000bc .L0 
     /tmp/ccyrC8nP.s:150    .text:00000000000000c0 .L0 
     /tmp/ccyrC8nP.s:151    .text:00000000000000c0 .L0 
     /tmp/ccyrC8nP.s:153    .text:00000000000000c4 .L0 
     /tmp/ccyrC8nP.s:156    .text:00000000000000c8 .L0 
     /tmp/ccyrC8nP.s:158    .text:00000000000000cc .L0 
     /tmp/ccyrC8nP.s:159    .text:00000000000000cc .L0 
     /tmp/ccyrC8nP.s:162    .text:00000000000000d0 .L0 
     /tmp/ccyrC8nP.s:163    .text:00000000000000d0 .L0 
     /tmp/ccyrC8nP.s:164    .text:00000000000000d0 .L0 
     /tmp/ccyrC8nP.s:166    .text:00000000000000d4 .L0 
     /tmp/ccyrC8nP.s:170    .text:00000000000000d8 .L0 
     /tmp/ccyrC8nP.s:175    .text:00000000000000dc .L0 
     /tmp/ccyrC8nP.s:176    .text:00000000000000dc .L0 
     /tmp/ccyrC8nP.s:178    .text:00000000000000e4 .L0 
     /tmp/ccyrC8nP.s:179    .text:00000000000000e4 .L0 
     /tmp/ccyrC8nP.s:181    .text:00000000000000e8 .L0 
     /tmp/ccyrC8nP.s:182    .text:00000000000000e8 .L0 
     /tmp/ccyrC8nP.s:189    .text:00000000000000f0 .L0 
     /tmp/ccyrC8nP.s:190    .text:00000000000000f0 .L0 
     /tmp/ccyrC8nP.s:193    .text:00000000000000f8 .L0 
     /tmp/ccyrC8nP.s:194    .text:00000000000000f8 .L0 
     /tmp/ccyrC8nP.s:196    .text:00000000000000fc .L0 
     /tmp/ccyrC8nP.s:197    .text:00000000000000fc .L0 
     /tmp/ccyrC8nP.s:199    .text:0000000000000100 .L0 
     /tmp/ccyrC8nP.s:201    .text:0000000000000104 .L0 
     /tmp/ccyrC8nP.s:202    .text:0000000000000104 .L0 
     /tmp/ccyrC8nP.s:204    .text:0000000000000108 .L0 
     /tmp/ccyrC8nP.s:207    .text:000000000000010c .L0 
     /tmp/ccyrC8nP.s:208    .text:000000000000010c .L0 
     /tmp/ccyrC8nP.s:215    .text:0000000000000118 .L0 
     /tmp/ccyrC8nP.s:216    .text:0000000000000118 .L0 
     /tmp/ccyrC8nP.s:218    .text:000000000000011c .L0 
     /tmp/ccyrC8nP.s:219    .text:000000000000011c .L0 
     /tmp/ccyrC8nP.s:221    .text:0000000000000120 .L0 
     /tmp/ccyrC8nP.s:222    .text:0000000000000120 .L0 
     /tmp/ccyrC8nP.s:228    .text:0000000000000124 .L0 
     /tmp/ccyrC8nP.s:229    .text:0000000000000128 .L0 
     /tmp/ccyrC8nP.s:230    .text:0000000000000128 .L0 
     /tmp/ccyrC8nP.s:232    .text:000000000000012c .L0 
     /tmp/ccyrC8nP.s:234    .text:0000000000000130 .L0 
     /tmp/ccyrC8nP.s:243    .bss:0000000000000000 _ZN6KSleep4headE
     /tmp/ccyrC8nP.s:240    .bss:0000000000000000 .LANCHOR0
     /tmp/ccyrC8nP.s:251    .text:0000000000000130 .L0 
     /tmp/ccyrC8nP.s:16     .text:0000000000000000 .L0 
     /tmp/ccyrC8nP.s:28     .text:0000000000000018 .L0 
     /tmp/ccyrC8nP.s:59     .text:000000000000004c .L0 
     /tmp/ccyrC8nP.s:82     .text:0000000000000064 .L0 
     /tmp/ccyrC8nP.s:116    .text:0000000000000090 .L0 
     /tmp/ccyrC8nP.s:137    .text:00000000000000ac .L0 
     /tmp/ccyrC8nP.s:176    .text:00000000000000dc .L0 
GAS LISTING /tmp/ccyrC8nP.s 			page 10


     /tmp/ccyrC8nP.s:208    .text:000000000000010c .L0 
     /tmp/ccyrC8nP.s:95     .text:0000000000000080 .L5
     /tmp/ccyrC8nP.s:51     .text:0000000000000048 .L8
     /tmp/ccyrC8nP.s:85     .text:0000000000000070 .L1
     /tmp/ccyrC8nP.s:46     .text:0000000000000040 .L11
     /tmp/ccyrC8nP.s:224    .text:0000000000000124 .L12
     /tmp/ccyrC8nP.s:172    .text:00000000000000dc .L21
     /tmp/ccyrC8nP.s:212    .text:0000000000000118 .L15
     /tmp/ccyrC8nP.s:185    .text:00000000000000f0 .L22
     /tmp/ccyrC8nP.s:143    .text:00000000000000bc .L14
     /tmp/ccyrC8nP.s:205    .text:000000000000010c .L23
     /tmp/ccyrC8nP.s:1092   .debug_abbrev:0000000000000000 .Ldebug_abbrev0
     /tmp/ccyrC8nP.s:2189   .debug_str:0000000000000470 .LASF91
     /tmp/ccyrC8nP.s:2027   .debug_str:000000000000001d .LASF92
     /tmp/ccyrC8nP.s:2203   .debug_str:00000000000005af .LASF93
     /tmp/ccyrC8nP.s:5      .text:0000000000000000 .Ltext0
     /tmp/ccyrC8nP.s:246    .text:0000000000000130 .Letext0
     /tmp/ccyrC8nP.s:2021   .debug_line:0000000000000000 .Ldebug_line0
     /tmp/ccyrC8nP.s:2127   .debug_str:00000000000002c8 .LASF0
     /tmp/ccyrC8nP.s:2145   .debug_str:0000000000000334 .LASF1
     /tmp/ccyrC8nP.s:2111   .debug_str:0000000000000248 .LASF2
     /tmp/ccyrC8nP.s:2093   .debug_str:00000000000001d9 .LASF4
     /tmp/ccyrC8nP.s:2179   .debug_str:0000000000000423 .LASF3
     /tmp/ccyrC8nP.s:2039   .debug_str:000000000000006f .LASF5
     /tmp/ccyrC8nP.s:2067   .debug_str:0000000000000127 .LASF6
     /tmp/ccyrC8nP.s:2149   .debug_str:000000000000034c .LASF7
     /tmp/ccyrC8nP.s:2125   .debug_str:00000000000002b5 .LASF8
     /tmp/ccyrC8nP.s:2201   .debug_str:000000000000059f .LASF9
     /tmp/ccyrC8nP.s:2087   .debug_str:00000000000001ac .LASF10
     /tmp/ccyrC8nP.s:2161   .debug_str:00000000000003ae .LASF11
     /tmp/ccyrC8nP.s:2193   .debug_str:0000000000000542 .LASF12
     /tmp/ccyrC8nP.s:2041   .debug_str:0000000000000076 .LASF13
     /tmp/ccyrC8nP.s:2025   .debug_str:000000000000000d .LASF14
     /tmp/ccyrC8nP.s:2051   .debug_str:00000000000000c2 .LASF15
     /tmp/ccyrC8nP.s:2175   .debug_str:0000000000000407 .LASF16
     /tmp/ccyrC8nP.s:2063   .debug_str:000000000000010c .LASF17
     /tmp/ccyrC8nP.s:2043   .debug_str:0000000000000086 .LASF18
     /tmp/ccyrC8nP.s:2183   .debug_str:0000000000000446 .LASF33
     /tmp/ccyrC8nP.s:2225   .debug_str:0000000000000648 .LASF35
     /tmp/ccyrC8nP.s:2135   .debug_str:0000000000000307 .LASF81
     /tmp/ccyrC8nP.s:2065   .debug_str:0000000000000122 .LASF76
     /tmp/ccyrC8nP.s:2227   .debug_str:000000000000065c .LASF19
     /tmp/ccyrC8nP.s:2029   .debug_str:000000000000002c .LASF94
     /tmp/ccyrC8nP.s:2031   .debug_str:0000000000000034 .LASF20
     /tmp/ccyrC8nP.s:2207   .debug_str:00000000000005e7 .LASF22
     /tmp/ccyrC8nP.s:2213   .debug_str:000000000000060a .LASF21
     /tmp/ccyrC8nP.s:2023   .debug_str:0000000000000000 .LASF23
     /tmp/ccyrC8nP.s:2085   .debug_str:000000000000019c .LASF24
     /tmp/ccyrC8nP.s:2037   .debug_str:0000000000000062 .LASF25
     /tmp/ccyrC8nP.s:2185   .debug_str:000000000000044d .LASF26
     /tmp/ccyrC8nP.s:2057   .debug_str:00000000000000df .LASF28
     /tmp/ccyrC8nP.s:2187   .debug_str:000000000000045d .LASF27
     /tmp/ccyrC8nP.s:2133   .debug_str:00000000000002f9 .LASF29
     /tmp/ccyrC8nP.s:2101   .debug_str:0000000000000206 .LASF30
     /tmp/ccyrC8nP.s:2199   .debug_str:000000000000057b .LASF31
     /tmp/ccyrC8nP.s:2169   .debug_str:00000000000003d2 .LASF95
     /tmp/ccyrC8nP.s:2171   .debug_str:00000000000003d7 .LASF32
GAS LISTING /tmp/ccyrC8nP.s 			page 11


     /tmp/ccyrC8nP.s:2177   .debug_str:000000000000041d .LASF34
     /tmp/ccyrC8nP.s:2047   .debug_str:000000000000009e .LASF36
     /tmp/ccyrC8nP.s:2131   .debug_str:00000000000002f0 .LASF37
     /tmp/ccyrC8nP.s:2091   .debug_str:00000000000001c5 .LASF38
     /tmp/ccyrC8nP.s:2075   .debug_str:0000000000000150 .LASF39
     /tmp/ccyrC8nP.s:2115   .debug_str:0000000000000262 .LASF40
     /tmp/ccyrC8nP.s:2165   .debug_str:00000000000003c6 .LASF41
     /tmp/ccyrC8nP.s:2151   .debug_str:000000000000035f .LASF42
     /tmp/ccyrC8nP.s:2159   .debug_str:0000000000000396 .LASF44
     /tmp/ccyrC8nP.s:2123   .debug_str:00000000000002aa .LASF43
     /tmp/ccyrC8nP.s:2035   .debug_str:000000000000004a .LASF45
     /tmp/ccyrC8nP.s:2219   .debug_str:0000000000000625 .LASF46
     /tmp/ccyrC8nP.s:2107   .debug_str:0000000000000224 .LASF47
     /tmp/ccyrC8nP.s:2103   .debug_str:0000000000000213 .LASF48
     /tmp/ccyrC8nP.s:2173   .debug_str:00000000000003f5 .LASF49
     /tmp/ccyrC8nP.s:2113   .debug_str:0000000000000256 .LASF50
     /tmp/ccyrC8nP.s:2205   .debug_str:00000000000005cf .LASF51
     /tmp/ccyrC8nP.s:2073   .debug_str:0000000000000144 .LASF52
     /tmp/ccyrC8nP.s:2195   .debug_str:0000000000000551 .LASF53
     /tmp/ccyrC8nP.s:2221   .debug_str:000000000000062f .LASF54
     /tmp/ccyrC8nP.s:2059   .debug_str:00000000000000ed .LASF55
     /tmp/ccyrC8nP.s:2141   .debug_str:0000000000000325 .LASF56
     /tmp/ccyrC8nP.s:2197   .debug_str:0000000000000569 .LASF57
     /tmp/ccyrC8nP.s:2061   .debug_str:0000000000000104 .LASF58
     /tmp/ccyrC8nP.s:2049   .debug_str:00000000000000af .LASF59
     /tmp/ccyrC8nP.s:2033   .debug_str:000000000000003a .LASF60
     /tmp/ccyrC8nP.s:2081   .debug_str:0000000000000173 .LASF61
     /tmp/ccyrC8nP.s:2119   .debug_str:000000000000026f .LASF62
     /tmp/ccyrC8nP.s:2099   .debug_str:00000000000001ee .LASF63
     /tmp/ccyrC8nP.s:2097   .debug_str:00000000000001e9 .LASF64
     /tmp/ccyrC8nP.s:2137   .debug_str:0000000000000318 .LASF65
     /tmp/ccyrC8nP.s:2055   .debug_str:00000000000000d9 .LASF66
     /tmp/ccyrC8nP.s:2139   .debug_str:000000000000031d .LASF67
     /tmp/ccyrC8nP.s:2095   .debug_str:00000000000001e0 .LASF68
     /tmp/ccyrC8nP.s:2163   .debug_str:00000000000003bd .LASF69
     /tmp/ccyrC8nP.s:2211   .debug_str:0000000000000602 .LASF70
     /tmp/ccyrC8nP.s:2143   .debug_str:000000000000032c .LASF71
     /tmp/ccyrC8nP.s:2223   .debug_str:000000000000063a .LASF72
     /tmp/ccyrC8nP.s:2155   .debug_str:000000000000036f .LASF73
     /tmp/ccyrC8nP.s:2191   .debug_str:0000000000000534 .LASF74
     /tmp/ccyrC8nP.s:2045   .debug_str:000000000000008d .LASF75
     /tmp/ccyrC8nP.s:2181   .debug_str:0000000000000435 .LASF77
     /tmp/ccyrC8nP.s:2089   .debug_str:00000000000001ba .LASF78
     /tmp/ccyrC8nP.s:2105   .debug_str:0000000000000219 .LASF79
     /tmp/ccyrC8nP.s:2209   .debug_str:00000000000005f4 .LASF96
     /tmp/ccyrC8nP.s:2121   .debug_str:0000000000000281 .LASF97
     /tmp/ccyrC8nP.s:2109   .debug_str:000000000000023a .LASF98
     /tmp/ccyrC8nP.s:2157   .debug_str:000000000000037c .LASF99
     /tmp/ccyrC8nP.s:2053   .debug_str:00000000000000ce .LASF80
     /tmp/ccyrC8nP.s:2077   .debug_str:0000000000000158 .LASF100
     /tmp/ccyrC8nP.s:2129   .debug_str:00000000000002d5 .LASF82
     /tmp/ccyrC8nP.s:2117   .debug_str:000000000000026a .LASF83
     /tmp/ccyrC8nP.s:2079   .debug_str:000000000000016e .LASF84
     /tmp/ccyrC8nP.s:2153   .debug_str:000000000000036a .LASF85
     /tmp/ccyrC8nP.s:2083   .debug_str:000000000000018f .LASF86
     /tmp/ccyrC8nP.s:2069   .debug_str:000000000000012e .LASF101
     /tmp/ccyrC8nP.s:104    .text:0000000000000084 .LFB34
GAS LISTING /tmp/ccyrC8nP.s 			page 12


     /tmp/ccyrC8nP.s:235    .text:0000000000000130 .LFE34
     /tmp/ccyrC8nP.s:1883   .debug_loc:0000000000000000 .LLST3
     /tmp/ccyrC8nP.s:2071   .debug_str:000000000000013f .LASF87
     /tmp/ccyrC8nP.s:2007   .debug_ranges:0000000000000000 .Ldebug_ranges0
     /tmp/ccyrC8nP.s:2147   .debug_str:0000000000000347 .LASF88
     /tmp/ccyrC8nP.s:1898   .debug_loc:0000000000000049 .LLST6
     /tmp/ccyrC8nP.s:2217   .debug_str:0000000000000620 .LASF89
     /tmp/ccyrC8nP.s:1927   .debug_loc:00000000000000cf .LLST7
     /tmp/ccyrC8nP.s:1946   .debug_loc:000000000000012b .LLST8
     /tmp/ccyrC8nP.s:125    .text:00000000000000a4 .LBB13
     /tmp/ccyrC8nP.s:133    .text:00000000000000ac .LBE13
     /tmp/ccyrC8nP.s:1957   .debug_loc:0000000000000161 .LLST4
     /tmp/ccyrC8nP.s:1965   .debug_loc:0000000000000185 .LLST5
     /tmp/ccyrC8nP.s:2215   .debug_str:0000000000000617 .LASF90
     /tmp/ccyrC8nP.s:10     .text:0000000000000000 .LFB33
     /tmp/ccyrC8nP.s:98     .text:0000000000000084 .LFE33
     /tmp/ccyrC8nP.s:52     .text:0000000000000048 .LBB10
     /tmp/ccyrC8nP.s:78     .text:0000000000000064 .LBE10
     /tmp/ccyrC8nP.s:1972   .debug_loc:00000000000001a8 .LLST0
     /tmp/ccyrC8nP.s:65     .text:0000000000000058 .LBB11
     /tmp/ccyrC8nP.s:73     .text:000000000000005c .LBE11
     /tmp/ccyrC8nP.s:1979   .debug_loc:00000000000001cb .LLST1
     /tmp/ccyrC8nP.s:1987   .debug_loc:00000000000001ef .LLST2
     /tmp/ccyrC8nP.s:77     .text:0000000000000064 .LVL4
     /tmp/ccyrC8nP.s:2167   .debug_str:00000000000003cd .LASF102
     /tmp/ccyrC8nP.s:107    .text:0000000000000084 .LVL5
     /tmp/ccyrC8nP.s:160    .text:00000000000000d0 .LVL11
     /tmp/ccyrC8nP.s:171    .text:00000000000000dc .LVL13
     /tmp/ccyrC8nP.s:144    .text:00000000000000bc .LVL9
     /tmp/ccyrC8nP.s:167    .text:00000000000000d8 .LVL12
     /tmp/ccyrC8nP.s:184    .text:00000000000000f0 .LVL14
     /tmp/ccyrC8nP.s:209    .text:0000000000000114 .LVL15
     /tmp/ccyrC8nP.s:211    .text:0000000000000118 .LVL16
     /tmp/ccyrC8nP.s:223    .text:0000000000000124 .LVL17
     /tmp/ccyrC8nP.s:154    .text:00000000000000c8 .LVL10
     /tmp/ccyrC8nP.s:124    .text:00000000000000a4 .LVL7
     /tmp/ccyrC8nP.s:131    .text:00000000000000ac .LVL8
     /tmp/ccyrC8nP.s:54     .text:0000000000000048 .LVL1
     /tmp/ccyrC8nP.s:64     .text:0000000000000058 .LVL2
     /tmp/ccyrC8nP.s:71     .text:000000000000005c .LVL3
     /tmp/ccyrC8nP.s:252    .debug_info:0000000000000000 .Ldebug_info0
     /tmp/ccyrC8nP.s:140    .text:00000000000000b8 .LBB16
     /tmp/ccyrC8nP.s:173    .text:00000000000000dc .LBE16
     /tmp/ccyrC8nP.s:186    .text:00000000000000f0 .LBB19
     /tmp/ccyrC8nP.s:225    .text:0000000000000124 .LBE19
     /tmp/ccyrC8nP.s:148    .text:00000000000000c0 .LBB17
     /tmp/ccyrC8nP.s:168    .text:00000000000000d8 .LBE17
     /tmp/ccyrC8nP.s:187    .text:00000000000000f0 .LBB18
     /tmp/ccyrC8nP.s:213    .text:0000000000000118 .LBE18

UNDEFINED SYMBOLS
_ZN10KScheduler3putEP4KPCB
_ZN4KPCB7runningE
