GAS LISTING /tmp/cchALWPl.s 			page 1


   1              		.file	"main.cpp"
   2              		.option pic
   3              		.option norelax
   4              		.text
   5              	.Ltext0:
   6              		.align	2
   7              		.globl	_Z11userWrapperPv
   9              	_Z11userWrapperPv:
  10              	.LFB37:
  11              		.file 1 "src/main.cpp"
   1:src/main.cpp  **** //
   2:src/main.cpp  **** // Created by os on 6/22/22.
   3:src/main.cpp  **** //
   4:src/main.cpp  **** 
   5:src/main.cpp  **** #include "../h/KRiscv.hpp"
   6:src/main.cpp  **** #include "../h/KMemoryAllocator.hpp"
   7:src/main.cpp  **** #include "../h/KPCB.hpp"
   8:src/main.cpp  **** #include "../h/KConsole.hpp"
   9:src/main.cpp  **** #include "../h/syscall_c.hpp"
  10:src/main.cpp  **** 
  11:src/main.cpp  **** uint64 framePointer;
  12:src/main.cpp  **** void userMain();
  13:src/main.cpp  **** void userWrapper(void* arg) {
  12              		.loc 1 13 29
  13              		.cfi_startproc
  14              	.LVL0:
  15 0000 130101FF 		addi	sp,sp,-16
  16              		.cfi_def_cfa_offset 16
  17 0004 23341100 		sd	ra,8(sp)
  18 0008 23308100 		sd	s0,0(sp)
  19              		.cfi_offset 1, -8
  20              		.cfi_offset 8, -16
  21 000c 13040101 		addi	s0,sp,16
  22              		.cfi_def_cfa 8, 0
  14:src/main.cpp  ****     userMain();
  23              		.loc 1 14 5
  24              		.loc 1 14 13 is_stmt 0
  25 0010 97000000 		call	_Z8userMainv@plt
  25      E7800000 
  26              	.LVL1:
  15:src/main.cpp  **** }
  27              		.loc 1 15 1
  28 0018 83308100 		ld	ra,8(sp)
  29              		.cfi_restore 1
  30 001c 03340100 		ld	s0,0(sp)
  31              		.cfi_restore 8
  32              		.cfi_def_cfa 2, 16
  33 0020 13010101 		addi	sp,sp,16
  34              		.cfi_def_cfa_offset 0
  35 0024 67800000 		jr	ra
  36              		.cfi_endproc
  37              	.LFE37:
  39              		.align	2
  40              		.globl	main
  42              	main:
  43              	.LFB38:
  16:src/main.cpp  **** 
GAS LISTING /tmp/cchALWPl.s 			page 2


  17:src/main.cpp  **** void main() {
  44              		.loc 1 17 13 is_stmt 1
  45              		.cfi_startproc
  46              		.cfi_personality 0x9b,DW.ref.__gxx_personality_v0
  47              		.cfi_lsda 0x1b,.LLSDA38
  48 0028 130101FD 		addi	sp,sp,-48
  49              		.cfi_def_cfa_offset 48
  50 002c 23341102 		sd	ra,40(sp)
  51 0030 23308102 		sd	s0,32(sp)
  52 0034 233C9100 		sd	s1,24(sp)
  53 0038 23382101 		sd	s2,16(sp)
  54              		.cfi_offset 1, -8
  55              		.cfi_offset 8, -16
  56              		.cfi_offset 9, -24
  57              		.cfi_offset 18, -32
  58 003c 13040103 		addi	s0,sp,48
  59              		.cfi_def_cfa 8, 0
  18:src/main.cpp  ****     KRiscv::w_stvec((uint64)&KRiscv::interrupt);
  60              		.loc 1 18 5
  61              		.loc 1 18 20 is_stmt 0
  62 0040 97070000 		la	a5,_ZN6KRiscv9interruptEv
  62      83B70700 
  63              	.LVL2:
  64              	.LBB16:
  65              	.LBB17:
  66              		.file 2 "src/../h/KRiscv.hpp"
   1:src/../h/KRiscv.hpp **** //
   2:src/../h/KRiscv.hpp **** // Created by os on 6/22/22.
   3:src/../h/KRiscv.hpp **** //
   4:src/../h/KRiscv.hpp **** 
   5:src/../h/KRiscv.hpp **** #ifndef PROJECT_BASE_V1_1_KRISCV_HPP
   6:src/../h/KRiscv.hpp **** #define PROJECT_BASE_V1_1_KRISCV_HPP
   7:src/../h/KRiscv.hpp **** 
   8:src/../h/KRiscv.hpp **** #include "../lib/hw.h"
   9:src/../h/KRiscv.hpp **** 
  10:src/../h/KRiscv.hpp **** extern uint64 framePointer;
  11:src/../h/KRiscv.hpp **** 
  12:src/../h/KRiscv.hpp **** class KRiscv {
  13:src/../h/KRiscv.hpp **** public:
  14:src/../h/KRiscv.hpp **** 
  15:src/../h/KRiscv.hpp ****     static void popSppSpie();
  16:src/../h/KRiscv.hpp ****     static void interruptHandler();
  17:src/../h/KRiscv.hpp ****     static void interrupt();
  18:src/../h/KRiscv.hpp ****     static void pushRegisters();
  19:src/../h/KRiscv.hpp ****     static void popRegisters();
  20:src/../h/KRiscv.hpp **** 
  21:src/../h/KRiscv.hpp ****     static uint64 r_scause();
  22:src/../h/KRiscv.hpp ****     static void w_scause(uint64 scause);
  23:src/../h/KRiscv.hpp ****     static uint64 r_sepc();
  24:src/../h/KRiscv.hpp ****     static void w_sepc(uint64 sepc);
  25:src/../h/KRiscv.hpp ****     static uint64 r_stvec();
  26:src/../h/KRiscv.hpp ****     static void w_stvec(uint64 stvec);
  27:src/../h/KRiscv.hpp ****     static uint64 r_stval();
  28:src/../h/KRiscv.hpp ****     static void w_stval(uint64 stval);
  29:src/../h/KRiscv.hpp **** 
  30:src/../h/KRiscv.hpp ****     enum BitMaskSip {
  31:src/../h/KRiscv.hpp ****         SIP_SSIP = (1 << 1),
GAS LISTING /tmp/cchALWPl.s 			page 3


  32:src/../h/KRiscv.hpp ****         SIP_STIP = (1 << 5),
  33:src/../h/KRiscv.hpp ****         SIP_SEIP = (1 << 9)
  34:src/../h/KRiscv.hpp ****     };
  35:src/../h/KRiscv.hpp **** 
  36:src/../h/KRiscv.hpp ****     static void ms_sip(uint64 mask);
  37:src/../h/KRiscv.hpp ****     static void mc_sip(uint64 mask);
  38:src/../h/KRiscv.hpp ****     static uint64 r_sip();
  39:src/../h/KRiscv.hpp ****     static void w_sip(uint64 sip);
  40:src/../h/KRiscv.hpp **** 
  41:src/../h/KRiscv.hpp ****     enum BitMaskSstatus {
  42:src/../h/KRiscv.hpp ****         SSTATUS_SIE = (1 << 1),
  43:src/../h/KRiscv.hpp ****         SSTATUS_SPIE = (1 << 5),
  44:src/../h/KRiscv.hpp ****         SSTATUS_SPP = (1 << 8)
  45:src/../h/KRiscv.hpp ****     };
  46:src/../h/KRiscv.hpp **** 
  47:src/../h/KRiscv.hpp ****     static void ms_sstatus(uint64 mask);
  48:src/../h/KRiscv.hpp ****     static void mc_sstatus(uint64 mask);
  49:src/../h/KRiscv.hpp ****     static uint64 r_sstatus();
  50:src/../h/KRiscv.hpp ****     static void w_sstatus(uint64 sstatus);
  51:src/../h/KRiscv.hpp **** 
  52:src/../h/KRiscv.hpp **** };
  53:src/../h/KRiscv.hpp **** 
  54:src/../h/KRiscv.hpp **** inline uint64 KRiscv::r_scause() {
  55:src/../h/KRiscv.hpp ****     uint64 volatile scause;
  56:src/../h/KRiscv.hpp ****     asm volatile ("csrr %0, scause" : "=r"(scause));
  57:src/../h/KRiscv.hpp ****     return scause;
  58:src/../h/KRiscv.hpp **** }
  59:src/../h/KRiscv.hpp **** 
  60:src/../h/KRiscv.hpp **** inline void KRiscv::w_scause(uint64 scause) {
  61:src/../h/KRiscv.hpp ****     asm volatile ("csrw scause, %0" :: "r"(scause));
  62:src/../h/KRiscv.hpp **** }
  63:src/../h/KRiscv.hpp **** 
  64:src/../h/KRiscv.hpp **** inline uint64 KRiscv::r_sepc() {
  65:src/../h/KRiscv.hpp ****     uint64 volatile sepc;
  66:src/../h/KRiscv.hpp ****     asm volatile ("csrr %0, sepc" : "=r"(sepc));
  67:src/../h/KRiscv.hpp ****     return sepc;
  68:src/../h/KRiscv.hpp **** }
  69:src/../h/KRiscv.hpp **** 
  70:src/../h/KRiscv.hpp **** inline void KRiscv::w_sepc(uint64 sepc) {
  71:src/../h/KRiscv.hpp ****     asm volatile ("csrw sepc, %0" :: "r"(sepc));
  72:src/../h/KRiscv.hpp **** }
  73:src/../h/KRiscv.hpp **** 
  74:src/../h/KRiscv.hpp **** inline uint64 KRiscv::r_stvec() {
  75:src/../h/KRiscv.hpp ****     uint64 volatile stvec;
  76:src/../h/KRiscv.hpp ****     asm volatile ("csrr %0, stvec" : "=r"(stvec));
  77:src/../h/KRiscv.hpp ****     return stvec;
  78:src/../h/KRiscv.hpp **** }
  79:src/../h/KRiscv.hpp **** 
  80:src/../h/KRiscv.hpp **** inline void KRiscv::w_stvec(uint64 stvec) {
  81:src/../h/KRiscv.hpp ****     asm volatile ("csrw stvec, %0" :: "r"(stvec));
  67              		.loc 2 81 5 is_stmt 1
  68              		.loc 2 81 50 is_stmt 0
  69              	#APP
  70              	# 81 "src/../h/KRiscv.hpp" 1
  82              	}
  71              		csrw stvec, a5
  72              	# 0 "" 2
GAS LISTING /tmp/cchALWPl.s 			page 4


  73              	.LVL3:
  74              	#NO_APP
  75              	.LBE17:
  76              	.LBE16:
  19:src/main.cpp  ****     KMemoryAllocator::initBlockHeader();
  77              		.loc 1 19 5 is_stmt 1
  78              	.LEHB0:
  79              		.loc 1 19 38 is_stmt 0
  80 004c 97000000 		call	_ZN16KMemoryAllocator15initBlockHeaderEv@plt
  80      E7800000 
  81              	.LVL4:
  20:src/main.cpp  ****     KConsole::initConsoleBuffers();
  82              		.loc 1 20 5 is_stmt 1
  83              		.loc 1 20 33 is_stmt 0
  84 0054 97000000 		call	_ZN8KConsole18initConsoleBuffersEv@plt
  84      E7800000 
  85              	.LVL5:
  21:src/main.cpp  **** 
  22:src/main.cpp  ****     KPCB* main = nullptr;
  86              		.loc 1 22 5 is_stmt 1
  23:src/main.cpp  ****     main = KPCB::createThread(nullptr, nullptr, nullptr);
  87              		.loc 1 23 5
  88              		.loc 1 23 30 is_stmt 0
  89 005c 13060000 		li	a2,0
  90 0060 93050000 		li	a1,0
  91 0064 13050000 		li	a0,0
  92 0068 97000000 		call	_ZN4KPCB12createThreadEPFvPvES0_S0_@plt
  92      E7800000 
  93              	.LVL6:
  94 0070 93040500 		mv	s1,a0
  95              	.LVL7:
  24:src/main.cpp  ****     KPCB::running = main;
  96              		.loc 1 24 5 is_stmt 1
  97              		.loc 1 24 19 is_stmt 0
  98 0074 97070000 		la	a5,_ZN4KPCB7runningE
  98      83B70700 
  99 007c 23B0A700 		sd	a0,0(a5)
  25:src/main.cpp  **** 
  26:src/main.cpp  ****     KPCB* user = nullptr;
 100              		.loc 1 26 5 is_stmt 1
 101              		.loc 1 26 11 is_stmt 0
 102 0080 233C04FC 		sd	zero,-40(s0)
  27:src/main.cpp  ****     thread_create(&user, &userWrapper, nullptr);
 103              		.loc 1 27 5 is_stmt 1
 104              		.loc 1 27 18 is_stmt 0
 105 0084 13060000 		li	a2,0
 106 0088 97050000 		lla	a1,_Z11userWrapperPv
 106      93850500 
 107 0090 130584FD 		addi	a0,s0,-40
 108 0094 97000000 		call	_Z13thread_createPP4KPCBPFvPvES2_@plt
 108      E7800000 
 109              	.LVL8:
  28:src/main.cpp  **** 
  29:src/main.cpp  ****     KRiscv::ms_sstatus(KRiscv::SSTATUS_SIE);
 110              		.loc 1 29 5 is_stmt 1
 111              	.LBB18:
 112              	.LBB19:
GAS LISTING /tmp/cchALWPl.s 			page 5


  83:src/../h/KRiscv.hpp **** 
  84:src/../h/KRiscv.hpp **** inline uint64 KRiscv::r_stval() {
  85:src/../h/KRiscv.hpp ****     uint64 volatile stval;
  86:src/../h/KRiscv.hpp ****     asm volatile ("csrr %0, stval" : "=r"(stval));
  87:src/../h/KRiscv.hpp ****     return stval;
  88:src/../h/KRiscv.hpp **** }
  89:src/../h/KRiscv.hpp **** 
  90:src/../h/KRiscv.hpp **** inline void KRiscv::w_stval(uint64 stval) {
  91:src/../h/KRiscv.hpp ****     asm volatile ("csrw stval, %0" :: "r"(stval));
  92:src/../h/KRiscv.hpp **** }
  93:src/../h/KRiscv.hpp **** 
  94:src/../h/KRiscv.hpp **** inline void KRiscv::ms_sip(uint64 mask) {
  95:src/../h/KRiscv.hpp ****     asm volatile ("csrs sip, %0" :: "r"(mask));
  96:src/../h/KRiscv.hpp **** }
  97:src/../h/KRiscv.hpp **** 
  98:src/../h/KRiscv.hpp **** inline void KRiscv::mc_sip(uint64 mask) {
  99:src/../h/KRiscv.hpp ****     asm volatile ("csrc sip, %0" :: "r"(mask));
 100:src/../h/KRiscv.hpp **** }
 101:src/../h/KRiscv.hpp **** 
 102:src/../h/KRiscv.hpp **** inline uint64 KRiscv::r_sip() {
 103:src/../h/KRiscv.hpp ****     uint64 volatile sip;
 104:src/../h/KRiscv.hpp ****     asm volatile ("csrr %0, sip" : "=r"(sip));
 105:src/../h/KRiscv.hpp ****     return sip;
 106:src/../h/KRiscv.hpp **** }
 107:src/../h/KRiscv.hpp **** 
 108:src/../h/KRiscv.hpp **** inline void KRiscv::w_sip(uint64 sip) {
 109:src/../h/KRiscv.hpp ****     asm volatile ("csrw sip, %0" :: "r"(sip));
 110:src/../h/KRiscv.hpp **** }
 111:src/../h/KRiscv.hpp **** 
 112:src/../h/KRiscv.hpp **** inline void KRiscv::ms_sstatus(uint64 mask) {
 113:src/../h/KRiscv.hpp ****     asm volatile ("csrs sstatus, %0" :: "r"(mask));
 113              		.loc 2 113 5
 114              		.loc 2 113 51 is_stmt 0
 115 009c 93072000 		li	a5,2
 116              	#APP
 117              	# 113 "src/../h/KRiscv.hpp" 1
 114              	}
 118              		csrs sstatus, a5
 119              	# 0 "" 2
 120              	.LVL9:
 121              	#NO_APP
 122              	.LBE19:
 123              	.LBE18:
  30:src/main.cpp  ****     userMode();
 124              		.loc 1 30 5 is_stmt 1
 125              		.loc 1 30 13 is_stmt 0
 126 00a4 97000000 		call	_Z8userModev@plt
 126      E7800000 
 127              	.LVL10:
 128              	.L5:
  31:src/main.cpp  **** 
  32:src/main.cpp  ****     while (KPCB::counter) {
 129              		.loc 1 32 5 is_stmt 1
 130              		.loc 1 32 18
 131 00ac 97070000 		la	a5,_ZN4KPCB7counterE
 131      83B70700 
 132 00b4 83A70700 		lw	a5,0(a5)
GAS LISTING /tmp/cchALWPl.s 			page 6


 133 00b8 638C0700 		beqz	a5,.L4
  33:src/main.cpp  ****         KPCB::yield();
 134              		.loc 1 33 9
 135              		.loc 1 33 20 is_stmt 0
 136 00bc 97000000 		call	_ZN4KPCB5yieldEv@plt
 136      E7800000 
 137              	.LVL11:
  34:src/main.cpp  ****         readCons();
 138              		.loc 1 34 9 is_stmt 1
 139              		.loc 1 34 17 is_stmt 0
 140 00c4 97000000 		call	_Z8readConsv@plt
 140      E7800000 
 141              	.LVL12:
 142 00cc 6FF01FFE 		j	.L5
 143              	.L4:
  35:src/main.cpp  ****     }
  36:src/main.cpp  ****     kernelMode();
 144              		.loc 1 36 5 is_stmt 1
 145              		.loc 1 36 15 is_stmt 0
 146 00d0 97000000 		call	_Z10kernelModev@plt
 146      E7800000 
 147              	.LVL13:
 148              	.LEHE0:
  37:src/main.cpp  ****     if (user) delete user;
 149              		.loc 1 37 5 is_stmt 1
 150              		.loc 1 37 13 is_stmt 0
 151 00d8 033984FD 		ld	s2,-40(s0)
 152              		.loc 1 37 5
 153 00dc 630E0900 		beqz	s2,.L6
 154              		.loc 1 37 15 is_stmt 1
 155              	.LVL14:
 156              	.LBB20:
 157              	.LBB21:
 158              		.file 3 "src/../h/KPCB.hpp"
   1:src/../h/KPCB.hpp **** //
   2:src/../h/KPCB.hpp **** // Created by os on 6/22/22.
   3:src/../h/KPCB.hpp **** //
   4:src/../h/KPCB.hpp **** 
   5:src/../h/KPCB.hpp **** #ifndef PROJECT_BASE_V1_1_KPCB_HPP
   6:src/../h/KPCB.hpp **** #define PROJECT_BASE_V1_1_KPCB_HPP
   7:src/../h/KPCB.hpp **** 
   8:src/../h/KPCB.hpp **** #include "../lib/hw.h"
   9:src/../h/KPCB.hpp **** #include "KScheduler.hpp"
  10:src/../h/KPCB.hpp **** #include "KMemoryAllocator.hpp"
  11:src/../h/KPCB.hpp **** 
  12:src/../h/KPCB.hpp **** class KPCB {
  13:src/../h/KPCB.hpp **** public:
  14:src/../h/KPCB.hpp ****     ~KPCB() {
  15:src/../h/KPCB.hpp ****         //delete[] stack;
  16:src/../h/KPCB.hpp ****         KMemoryAllocator::mem_free(stack);
 159              		.loc 3 16 9
 160              		.loc 3 16 35 is_stmt 0
 161 00e0 03358901 		ld	a0,24(s2)
 162 00e4 97000000 		call	_ZN16KMemoryAllocator8mem_freeEPv@plt
 162      E7800000 
 163              	.LVL15:
  17:src/../h/KPCB.hpp ****         stack = nullptr;
GAS LISTING /tmp/cchALWPl.s 			page 7


 164              		.loc 3 17 9 is_stmt 1
 165              	.LBE21:
 166              	.LBE20:
 167              	.LBB22:
 168              	.LBB23:
  18:src/../h/KPCB.hpp ****     }
  19:src/../h/KPCB.hpp ****     friend class KScheduler;
  20:src/../h/KPCB.hpp ****     friend class KSemaphore;
  21:src/../h/KPCB.hpp ****     friend class KRiscv;
  22:src/../h/KPCB.hpp ****     friend class KSleep;
  23:src/../h/KPCB.hpp **** 
  24:src/../h/KPCB.hpp ****     void* operator new(size_t size) {
  25:src/../h/KPCB.hpp ****         size_t sizeBlock = (size + 16) / MEM_BLOCK_SIZE + ((size + 16) % MEM_BLOCK_SIZE ? 1 : 0);
  26:src/../h/KPCB.hpp ****         return KMemoryAllocator::mem_alloc(sizeBlock);
  27:src/../h/KPCB.hpp ****         //return __mem_alloc(size);
  28:src/../h/KPCB.hpp ****     }
  29:src/../h/KPCB.hpp ****     void* operator new[](size_t size) {
  30:src/../h/KPCB.hpp ****         size_t sizeBlock = (size + 16) / MEM_BLOCK_SIZE + ((size + 16) % MEM_BLOCK_SIZE ? 1 : 0);
  31:src/../h/KPCB.hpp ****         return KMemoryAllocator::mem_alloc(sizeBlock);
  32:src/../h/KPCB.hpp ****         //return __mem_alloc(size);
  33:src/../h/KPCB.hpp ****     }
  34:src/../h/KPCB.hpp ****     void operator delete(void* addr) {
  35:src/../h/KPCB.hpp ****         KMemoryAllocator::mem_free(addr);
 169              		.loc 3 35 9
 170              		.loc 3 35 35 is_stmt 0
 171 00ec 13050900 		mv	a0,s2
 172              	.LEHB1:
 173 00f0 97000000 		call	_ZN16KMemoryAllocator8mem_freeEPv@plt
 173      E7800000 
 174              	.LVL16:
 175              	.L6:
 176              	.LBE23:
 177              	.LBE22:
  38:src/main.cpp  ****     KConsole::deinitConsoleBuffers();
 178              		.loc 1 38 5 is_stmt 1
 179              		.loc 1 38 35 is_stmt 0
 180 00f8 97000000 		call	_ZN8KConsole20deinitConsoleBuffersEv@plt
 180      E7800000 
 181              	.LVL17:
 182              	.LEHE1:
  39:src/main.cpp  ****     delete main;
 183              		.loc 1 39 5 is_stmt 1
 184              		.loc 1 39 16 is_stmt 0
 185 0100 638E0400 		beqz	s1,.L3
 186              	.LVL18:
 187              	.LBB24:
 188              	.LBB25:
  16:src/../h/KPCB.hpp ****         stack = nullptr;
 189              		.loc 3 16 9 is_stmt 1
  16:src/../h/KPCB.hpp ****         stack = nullptr;
 190              		.loc 3 16 35 is_stmt 0
 191 0104 03B58401 		ld	a0,24(s1)
 192 0108 97000000 		call	_ZN16KMemoryAllocator8mem_freeEPv@plt
 192      E7800000 
 193              	.LVL19:
  17:src/../h/KPCB.hpp ****     }
 194              		.loc 3 17 9 is_stmt 1
GAS LISTING /tmp/cchALWPl.s 			page 8


 195              	.LBE25:
 196              	.LBE24:
 197              	.LBB26:
 198              	.LBB27:
 199              		.loc 3 35 9
 200              		.loc 3 35 35 is_stmt 0
 201 0110 13850400 		mv	a0,s1
 202              	.LEHB2:
 203 0114 97000000 		call	_ZN16KMemoryAllocator8mem_freeEPv@plt
 203      E7800000 
 204              	.LVL20:
 205              	.LEHE2:
 206              	.L3:
 207              	.LBE27:
 208              	.LBE26:
  40:src/main.cpp  **** }
 209              		.loc 1 40 1
 210 011c 83308102 		ld	ra,40(sp)
 211              		.cfi_restore 1
 212 0120 03340102 		ld	s0,32(sp)
 213              		.cfi_restore 8
 214              		.cfi_def_cfa 2, 48
 215 0124 83348101 		ld	s1,24(sp)
 216              		.cfi_restore 9
 217              	.LVL21:
 218 0128 03390101 		ld	s2,16(sp)
 219              		.cfi_restore 18
 220 012c 13010103 		addi	sp,sp,48
 221              		.cfi_def_cfa_offset 0
 222 0130 67800000 		jr	ra
 223              		.cfi_endproc
 224              	.LFE38:
 225              		.globl	__gxx_personality_v0
 226              		.section	.gcc_except_table,"a",@progbits
 227              	.LLSDA38:
 228 0000 FF       		.byte	0xff
 229 0001 FF       		.byte	0xff
 230 0002 03       		.byte	0x3
 231 0003 27       		.byte	0x27
 232 0004 00000000 		.4byte	.LEHB0-.LFB38
 233 0008 00000000 		.4byte	.LEHE0-.LEHB0
 234 000c 00000000 		.4byte	0
 235 0010 00       		.byte	0
 236 0011 00000000 		.4byte	.LEHB1-.LFB38
 237 0015 00000000 		.4byte	.LEHE1-.LEHB1
 238 0019 00000000 		.4byte	0
 239 001d 00       		.byte	0
 240 001e 00000000 		.4byte	.LEHB2-.LFB38
 241 0022 00000000 		.4byte	.LEHE2-.LEHB2
 242 0026 00000000 		.4byte	0
 243 002a 00       		.byte	0
 244              		.text
 246              		.globl	framePointer
 247              		.bss
 248              		.align	3
 251              	framePointer:
 252 0000 00000000 		.zero	8
GAS LISTING /tmp/cchALWPl.s 			page 9


 252      00000000 
 253              		.text
 254              	.Letext0:
 255              		.file 4 "src/../h/../lib/hw.h"
 256              		.file 5 "src/../h/KMemoryAllocator.hpp"
 257              		.file 6 "src/../h/KConsole.hpp"
 258              		.file 7 "src/../h/syscall_c.hpp"
 3246              		.align	3
 3249              	DW.ref.__gxx_personality_v0:
 3250 0000 00000000 		.dword	__gxx_personality_v0
 3250      00000000 
 3251              		.ident	"GCC: (Ubuntu 9.4.0-1ubuntu1~20.04) 9.4.0"
 3252              		.section	.note.GNU-stack,"",@progbits
GAS LISTING /tmp/cchALWPl.s 			page 10

