GAS LISTING /tmp/cc0OjXQ1.s 			page 1


   1              		.file	"KConsole.cpp"
   2              		.option pic
   3              		.option norelax
   4              		.text
   5              	.Ltext0:
   6              		.align	2
   7              		.globl	_ZN8KConsoleC2Ei
   9              	_ZN8KConsoleC2Ei:
  10              	.LFB35:
  11              		.file 1 "src/KConsole.cpp"
   1:src/KConsole.cpp **** //
   2:src/KConsole.cpp **** // Created by os on 6/22/22.
   3:src/KConsole.cpp **** //
   4:src/KConsole.cpp **** 
   5:src/KConsole.cpp **** #include "../h/KConsole.hpp"
   6:src/KConsole.cpp **** #include "../h/KSemaphore.hpp"
   7:src/KConsole.cpp **** 
   8:src/KConsole.cpp **** KConsole* KConsole::inBuff = nullptr;
   9:src/KConsole.cpp **** KConsole* KConsole::outBuff = nullptr;
  10:src/KConsole.cpp **** 
  11:src/KConsole.cpp **** KConsole::KConsole(int _cap) : cap(_cap + 1), head(0), tail(0) {
  12              		.loc 1 11 1
  13              		.cfi_startproc
  14              	.LVL0:
  15 0000 130101FE 		addi	sp,sp,-32
  16              		.cfi_def_cfa_offset 32
  17 0004 233C1100 		sd	ra,24(sp)
  18 0008 23388100 		sd	s0,16(sp)
  19 000c 23349100 		sd	s1,8(sp)
  20 0010 23302101 		sd	s2,0(sp)
  21              		.cfi_offset 1, -8
  22              		.cfi_offset 8, -16
  23              		.cfi_offset 9, -24
  24              		.cfi_offset 18, -32
  25 0014 13040102 		addi	s0,sp,32
  26              		.cfi_def_cfa 8, 0
  27 0018 93040500 		mv	s1,a0
  28 001c 13890500 		mv	s2,a1
  29              	.LBB86:
  30              		.loc 1 11 41 is_stmt 0
  31 0020 1B871500 		addiw	a4,a1,1
  32 0024 9B070700 		sext.w	a5,a4
  33              		.loc 1 11 62
  34 0028 2320E500 		sw	a4,0(a0)
  35 002c 23280500 		sw	zero,16(a0)
  36 0030 232A0500 		sw	zero,20(a0)
  37              	.LBB87:
  12:src/KConsole.cpp ****     size_t sizeBlock = (sizeof(char)*cap + 16) / MEM_BLOCK_SIZE + ((sizeof(char)*cap + 16) % MEM_BL
  38              		.loc 1 12 5 is_stmt 1
  39              		.loc 1 12 42 is_stmt 0
  40 0034 93870701 		addi	a5,a5,16
  41              		.loc 1 12 48
  42 0038 13D56700 		srli	a0,a5,6
  43              	.LVL1:
  44              		.loc 1 12 92
  45 003c 93F7F703 		andi	a5,a5,63
  46              		.loc 1 12 109
GAS LISTING /tmp/cc0OjXQ1.s 			page 2


  47 0040 63840700 		beqz	a5,.L2
  48 0044 93071000 		li	a5,1
  49              	.L2:
  50              	.LVL2:
  13:src/KConsole.cpp ****     buffer = (char*)KMemoryAllocator::mem_alloc(sizeBlock);
  51              		.loc 1 13 5 is_stmt 1 discriminator 4
  52              		.loc 1 13 48 is_stmt 0 discriminator 4
  53 0048 3305F500 		add	a0,a0,a5
  54              	.LVL3:
  55 004c 97000000 		call	_ZN16KMemoryAllocator9mem_allocEm@plt
  55      E7800000 
  56              	.LVL4:
  57              		.loc 1 13 12 discriminator 4
  58 0054 23B4A400 		sd	a0,8(s1)
  14:src/KConsole.cpp ****     itemAvailable = KSemaphore::createSemaphore(0);
  59              		.loc 1 14 5 is_stmt 1 discriminator 4
  60              		.loc 1 14 48 is_stmt 0 discriminator 4
  61 0058 13050000 		li	a0,0
  62 005c 97000000 		call	_ZN10KSemaphore15createSemaphoreEm@plt
  62      E7800000 
  63              	.LVL5:
  64              		.loc 1 14 19 discriminator 4
  65 0064 23B0A402 		sd	a0,32(s1)
  15:src/KConsole.cpp ****     spaceAvailable = KSemaphore::createSemaphore(_cap);
  66              		.loc 1 15 5 is_stmt 1 discriminator 4
  67              		.loc 1 15 49 is_stmt 0 discriminator 4
  68 0068 13050900 		mv	a0,s2
  69 006c 97000000 		call	_ZN10KSemaphore15createSemaphoreEm@plt
  69      E7800000 
  70              	.LVL6:
  71              		.loc 1 15 20 discriminator 4
  72 0074 23BCA400 		sd	a0,24(s1)
  16:src/KConsole.cpp ****     mutexHead = KSemaphore::createSemaphore(1);
  73              		.loc 1 16 5 is_stmt 1 discriminator 4
  74              		.loc 1 16 44 is_stmt 0 discriminator 4
  75 0078 13051000 		li	a0,1
  76 007c 97000000 		call	_ZN10KSemaphore15createSemaphoreEm@plt
  76      E7800000 
  77              	.LVL7:
  78              		.loc 1 16 15 discriminator 4
  79 0084 23B4A402 		sd	a0,40(s1)
  17:src/KConsole.cpp ****     mutexTail = KSemaphore::createSemaphore(1);
  80              		.loc 1 17 5 is_stmt 1 discriminator 4
  81              		.loc 1 17 44 is_stmt 0 discriminator 4
  82 0088 13051000 		li	a0,1
  83 008c 97000000 		call	_ZN10KSemaphore15createSemaphoreEm@plt
  83      E7800000 
  84              	.LVL8:
  85              		.loc 1 17 15 discriminator 4
  86 0094 23B8A402 		sd	a0,48(s1)
  87              	.LBE87:
  88              	.LBE86:
  18:src/KConsole.cpp **** }
  89              		.loc 1 18 1 discriminator 4
  90 0098 83308101 		ld	ra,24(sp)
  91              		.cfi_restore 1
  92 009c 03340101 		ld	s0,16(sp)
GAS LISTING /tmp/cc0OjXQ1.s 			page 3


  93              		.cfi_restore 8
  94              		.cfi_def_cfa 2, 32
  95 00a0 83348100 		ld	s1,8(sp)
  96              		.cfi_restore 9
  97              	.LVL9:
  98 00a4 03390100 		ld	s2,0(sp)
  99              		.cfi_restore 18
 100 00a8 13010102 		addi	sp,sp,32
 101              		.cfi_def_cfa_offset 0
 102 00ac 67800000 		jr	ra
 103              		.cfi_endproc
 104              	.LFE35:
 106              		.globl	_ZN8KConsoleC1Ei
 107              		.set	_ZN8KConsoleC1Ei,_ZN8KConsoleC2Ei
 108              		.align	2
 109              		.globl	_ZN8KConsoleD2Ev
 111              	_ZN8KConsoleD2Ev:
 112              	.LFB38:
  19:src/KConsole.cpp **** 
  20:src/KConsole.cpp **** KConsole::~KConsole() {
 113              		.loc 1 20 1 is_stmt 1
 114              		.cfi_startproc
 115              		.cfi_personality 0x9b,DW.ref.__gxx_personality_v0
 116              		.cfi_lsda 0x1b,.LLSDA38
 117              	.LVL10:
 118 00b0 130101FE 		addi	sp,sp,-32
 119              		.cfi_def_cfa_offset 32
 120 00b4 233C1100 		sd	ra,24(sp)
 121 00b8 23388100 		sd	s0,16(sp)
 122 00bc 23349100 		sd	s1,8(sp)
 123 00c0 23302101 		sd	s2,0(sp)
 124              		.cfi_offset 1, -8
 125              		.cfi_offset 8, -16
 126              		.cfi_offset 9, -24
 127              		.cfi_offset 18, -32
 128 00c4 13040102 		addi	s0,sp,32
 129              		.cfi_def_cfa 8, 0
 130 00c8 13090500 		mv	s2,a0
 131              	.LBB88:
  21:src/KConsole.cpp ****     KMemoryAllocator::mem_free(buffer);
 132              		.loc 1 21 5
 133              		.loc 1 21 31 is_stmt 0
 134 00cc 03358500 		ld	a0,8(a0)
 135              	.LVL11:
 136 00d0 97000000 		call	_ZN16KMemoryAllocator8mem_freeEPv@plt
 136      E7800000 
 137              	.LVL12:
  22:src/KConsole.cpp ****     delete itemAvailable;
 138              		.loc 1 22 5 is_stmt 1
 139              		.loc 1 22 12 is_stmt 0
 140 00d8 83340902 		ld	s1,32(s2)
 141              		.loc 1 22 25
 142 00dc 638E0402 		beqz	s1,.L5
 143              	.L7:
 144              	.LBB89:
 145              	.LBB90:
 146              		.file 2 "src/../h/KSemaphore.hpp"
GAS LISTING /tmp/cc0OjXQ1.s 			page 4


   1:src/../h/KSemaphore.hpp **** //
   2:src/../h/KSemaphore.hpp **** // Created by os on 6/22/22.
   3:src/../h/KSemaphore.hpp **** //
   4:src/../h/KSemaphore.hpp **** 
   5:src/../h/KSemaphore.hpp **** #ifndef PROJECT_BASE_V1_1_KSEMAPHORE_HPP
   6:src/../h/KSemaphore.hpp **** #define PROJECT_BASE_V1_1_KSEMAPHORE_HPP
   7:src/../h/KSemaphore.hpp **** 
   8:src/../h/KSemaphore.hpp **** #include "../lib/hw.h"
   9:src/../h/KSemaphore.hpp **** #include "KPCB.hpp"
  10:src/../h/KSemaphore.hpp **** 
  11:src/../h/KSemaphore.hpp **** class KSemaphore {
  12:src/../h/KSemaphore.hpp **** public:
  13:src/../h/KSemaphore.hpp ****     ~KSemaphore() {
  14:src/../h/KSemaphore.hpp ****         while (head) {
 147              		.loc 2 14 9 is_stmt 1
 148              		.loc 2 14 16
 149 00e0 03B58400 		ld	a0,8(s1)
 150 00e4 63040502 		beqz	a0,.L6
 151              	.LBB91:
  15:src/../h/KSemaphore.hpp ****             KPCB* old = head;
 152              		.loc 2 15 13
 153              	.LVL13:
  16:src/../h/KSemaphore.hpp ****             head = head->nextSemaphore;
 154              		.loc 2 16 13
 155              		.loc 2 16 26 is_stmt 0
 156 00e8 83378504 		ld	a5,72(a0)
 157              		.loc 2 16 18
 158 00ec 23B4F400 		sd	a5,8(s1)
  17:src/../h/KSemaphore.hpp ****             old->nextSemaphore = nullptr;
 159              		.loc 2 17 13 is_stmt 1
 160              		.loc 2 17 32 is_stmt 0
 161 00f0 23340504 		sd	zero,72(a0)
  18:src/../h/KSemaphore.hpp ****             old->setErr(true);
 162              		.loc 2 18 13 is_stmt 1
 163              	.LVL14:
 164              	.LBB92:
 165              	.LBB93:
 166              		.file 3 "src/../h/KPCB.hpp"
   1:src/../h/KPCB.hpp **** //
   2:src/../h/KPCB.hpp **** // Created by os on 6/22/22.
   3:src/../h/KPCB.hpp **** //
   4:src/../h/KPCB.hpp **** 
   5:src/../h/KPCB.hpp **** #ifndef PROJECT_BASE_V1_1_KPCB_HPP
   6:src/../h/KPCB.hpp **** #define PROJECT_BASE_V1_1_KPCB_HPP
   7:src/../h/KPCB.hpp **** 
   8:src/../h/KPCB.hpp **** #include "../lib/hw.h"
   9:src/../h/KPCB.hpp **** #include "../lib/mem.h"
  10:src/../h/KPCB.hpp **** #include "KScheduler.hpp"
  11:src/../h/KPCB.hpp **** #include "KMemoryAllocator.hpp"
  12:src/../h/KPCB.hpp **** 
  13:src/../h/KPCB.hpp **** class KPCB {
  14:src/../h/KPCB.hpp **** public:
  15:src/../h/KPCB.hpp ****     ~KPCB() { delete[] stack; }
  16:src/../h/KPCB.hpp ****     friend class KScheduler;
  17:src/../h/KPCB.hpp ****     friend class KSemaphore;
  18:src/../h/KPCB.hpp ****     friend class KRiscv;
  19:src/../h/KPCB.hpp ****     friend class KSleep;
GAS LISTING /tmp/cc0OjXQ1.s 			page 5


  20:src/../h/KPCB.hpp **** 
  21:src/../h/KPCB.hpp ****     void* operator new(size_t size) {
  22:src/../h/KPCB.hpp ****         size_t sizeBlock = (size + 16) / MEM_BLOCK_SIZE + ((size + 16) % MEM_BLOCK_SIZE ? 1 : 0);
  23:src/../h/KPCB.hpp ****         return KMemoryAllocator::mem_alloc(sizeBlock);
  24:src/../h/KPCB.hpp ****         //return __mem_alloc(size);
  25:src/../h/KPCB.hpp ****     }
  26:src/../h/KPCB.hpp ****     void* operator new[](size_t size) {
  27:src/../h/KPCB.hpp ****         size_t sizeBlock = (size + 16) / MEM_BLOCK_SIZE + ((size + 16) % MEM_BLOCK_SIZE ? 1 : 0);
  28:src/../h/KPCB.hpp ****         return KMemoryAllocator::mem_alloc(sizeBlock);
  29:src/../h/KPCB.hpp ****         //return __mem_alloc(size);
  30:src/../h/KPCB.hpp ****     }
  31:src/../h/KPCB.hpp ****     void operator delete(void* addr) {
  32:src/../h/KPCB.hpp ****         KMemoryAllocator::mem_free(addr);
  33:src/../h/KPCB.hpp ****         //__mem_free(addr);
  34:src/../h/KPCB.hpp ****     }
  35:src/../h/KPCB.hpp ****     void operator delete[](void* addr) {
  36:src/../h/KPCB.hpp ****         KMemoryAllocator::mem_free(addr);
  37:src/../h/KPCB.hpp ****         //__mem_free(addr);
  38:src/../h/KPCB.hpp ****     }
  39:src/../h/KPCB.hpp **** 
  40:src/../h/KPCB.hpp ****     using Body = void (*)(void*);
  41:src/../h/KPCB.hpp ****     static KPCB* createThread(Body body, void* args, void* stek);
  42:src/../h/KPCB.hpp ****     static KPCB* createThread(Body body);
  43:src/../h/KPCB.hpp ****     static void yield();
  44:src/../h/KPCB.hpp ****     static void dispatch();
  45:src/../h/KPCB.hpp ****     static KPCB* running;
  46:src/../h/KPCB.hpp ****     static int counter;
  47:src/../h/KPCB.hpp ****     static int statID;
  48:src/../h/KPCB.hpp **** 
  49:src/../h/KPCB.hpp ****     bool isFinished() const { return finished; }
  50:src/../h/KPCB.hpp ****     bool isSleeping() const { return sleeping; }
  51:src/../h/KPCB.hpp ****     bool isWaiting() const { return waiting; }
  52:src/../h/KPCB.hpp ****     bool isErr() const { return err; }
  53:src/../h/KPCB.hpp ****     void setFinished(bool val) {
  54:src/../h/KPCB.hpp ****         if (finished) return;
  55:src/../h/KPCB.hpp ****         finished = val;
  56:src/../h/KPCB.hpp ****         counter--;
  57:src/../h/KPCB.hpp ****     }
  58:src/../h/KPCB.hpp ****     void setSleeping(bool val) { sleeping = val; }
  59:src/../h/KPCB.hpp ****     void setWaiting(bool val) { waiting = val; }
  60:src/../h/KPCB.hpp ****     void setErr(bool val) { err = val; }
 167              		.loc 3 60 29
 168              		.loc 3 60 33 is_stmt 0
 169 00f4 93071000 		li	a5,1
 170 00f8 A309F502 		sb	a5,51(a0)
 171              	.LVL15:
 172              	.LBE93:
 173              	.LBE92:
  19:src/../h/KSemaphore.hpp ****             old->setWaiting(false);
 174              		.loc 2 19 13 is_stmt 1
 175              	.LBB94:
 176              	.LBB95:
  59:src/../h/KPCB.hpp ****     void setErr(bool val) { err = val; }
 177              		.loc 3 59 33
  59:src/../h/KPCB.hpp ****     void setErr(bool val) { err = val; }
 178              		.loc 3 59 41 is_stmt 0
 179 00fc 23090502 		sb	zero,50(a0)
GAS LISTING /tmp/cc0OjXQ1.s 			page 6


 180              	.LVL16:
 181              	.LBE95:
 182              	.LBE94:
  20:src/../h/KSemaphore.hpp ****             KScheduler::put(old);
 183              		.loc 2 20 13 is_stmt 1
 184              		.loc 2 20 28 is_stmt 0
 185 0100 97000000 		call	_ZN10KScheduler3putEP4KPCB@plt
 185      E7800000 
 186              	.LVL17:
 187              	.LBE91:
  14:src/../h/KSemaphore.hpp ****             KPCB* old = head;
 188              		.loc 2 14 9
 189 0108 6FF09FFD 		j	.L7
 190              	.L6:
 191              	.LVL18:
 192              	.LBE90:
 193              	.LBE89:
 194              	.LBB96:
 195              	.LBB97:
  21:src/../h/KSemaphore.hpp ****         }
  22:src/../h/KSemaphore.hpp ****     }
  23:src/../h/KSemaphore.hpp **** 
  24:src/../h/KSemaphore.hpp ****     void wait() { if(--val < 0) block(); }
  25:src/../h/KSemaphore.hpp ****     void signal() { if (val++ < 0) deblock(); }
  26:src/../h/KSemaphore.hpp ****     int value() const { return val; }
  27:src/../h/KSemaphore.hpp ****     static KSemaphore* createSemaphore(uint64 init);
  28:src/../h/KSemaphore.hpp **** 
  29:src/../h/KSemaphore.hpp ****     void* operator new(size_t size) {
  30:src/../h/KSemaphore.hpp ****         size_t sizeBlock = (size + 16) / MEM_BLOCK_SIZE + ((size + 16) % MEM_BLOCK_SIZE ? 1 : 0);
  31:src/../h/KSemaphore.hpp ****         return KMemoryAllocator::mem_alloc(sizeBlock);
  32:src/../h/KSemaphore.hpp ****         //return __mem_alloc(size);
  33:src/../h/KSemaphore.hpp ****     }
  34:src/../h/KSemaphore.hpp ****     void* operator new[](size_t size) {
  35:src/../h/KSemaphore.hpp ****         size_t sizeBlock = (size + 16) / MEM_BLOCK_SIZE + ((size + 16) % MEM_BLOCK_SIZE ? 1 : 0);
  36:src/../h/KSemaphore.hpp ****         return KMemoryAllocator::mem_alloc(sizeBlock);
  37:src/../h/KSemaphore.hpp ****         //return __mem_alloc(size);
  38:src/../h/KSemaphore.hpp ****     }
  39:src/../h/KSemaphore.hpp ****     void operator delete(void* addr) {
  40:src/../h/KSemaphore.hpp ****         KMemoryAllocator::mem_free(addr);
 196              		.loc 2 40 9 is_stmt 1
 197              		.loc 2 40 35 is_stmt 0
 198 010c 13850400 		mv	a0,s1
 199 0110 97000000 		call	_ZN16KMemoryAllocator8mem_freeEPv@plt
 199      E7800000 
 200              	.LVL19:
 201              	.L5:
 202              	.LBE97:
 203              	.LBE96:
  23:src/KConsole.cpp ****     delete spaceAvailable;
 204              		.loc 1 23 5 is_stmt 1
 205              		.loc 1 23 12 is_stmt 0
 206 0118 83348901 		ld	s1,24(s2)
 207              		.loc 1 23 26
 208 011c 638E0402 		beqz	s1,.L8
 209              	.L10:
 210              	.LBB98:
 211              	.LBB99:
GAS LISTING /tmp/cc0OjXQ1.s 			page 7


  14:src/../h/KSemaphore.hpp ****             KPCB* old = head;
 212              		.loc 2 14 9 is_stmt 1
  14:src/../h/KSemaphore.hpp ****             KPCB* old = head;
 213              		.loc 2 14 16
 214 0120 03B58400 		ld	a0,8(s1)
 215 0124 63040502 		beqz	a0,.L9
 216              	.LBB100:
  15:src/../h/KSemaphore.hpp ****             head = head->nextSemaphore;
 217              		.loc 2 15 13
 218              	.LVL20:
  16:src/../h/KSemaphore.hpp ****             old->nextSemaphore = nullptr;
 219              		.loc 2 16 13
  16:src/../h/KSemaphore.hpp ****             old->nextSemaphore = nullptr;
 220              		.loc 2 16 26 is_stmt 0
 221 0128 83378504 		ld	a5,72(a0)
  16:src/../h/KSemaphore.hpp ****             old->nextSemaphore = nullptr;
 222              		.loc 2 16 18
 223 012c 23B4F400 		sd	a5,8(s1)
  17:src/../h/KSemaphore.hpp ****             old->setErr(true);
 224              		.loc 2 17 13 is_stmt 1
  17:src/../h/KSemaphore.hpp ****             old->setErr(true);
 225              		.loc 2 17 32 is_stmt 0
 226 0130 23340504 		sd	zero,72(a0)
  18:src/../h/KSemaphore.hpp ****             old->setWaiting(false);
 227              		.loc 2 18 13 is_stmt 1
 228              	.LVL21:
 229              	.LBB101:
 230              	.LBB102:
 231              		.loc 3 60 29
 232              		.loc 3 60 33 is_stmt 0
 233 0134 93071000 		li	a5,1
 234 0138 A309F502 		sb	a5,51(a0)
 235              	.LVL22:
 236              	.LBE102:
 237              	.LBE101:
  19:src/../h/KSemaphore.hpp ****             KScheduler::put(old);
 238              		.loc 2 19 13 is_stmt 1
 239              	.LBB103:
 240              	.LBB104:
  59:src/../h/KPCB.hpp ****     void setErr(bool val) { err = val; }
 241              		.loc 3 59 33
  59:src/../h/KPCB.hpp ****     void setErr(bool val) { err = val; }
 242              		.loc 3 59 41 is_stmt 0
 243 013c 23090502 		sb	zero,50(a0)
 244              	.LVL23:
 245              	.LBE104:
 246              	.LBE103:
  20:src/../h/KSemaphore.hpp ****         }
 247              		.loc 2 20 13 is_stmt 1
  20:src/../h/KSemaphore.hpp ****         }
 248              		.loc 2 20 28 is_stmt 0
 249 0140 97000000 		call	_ZN10KScheduler3putEP4KPCB@plt
 249      E7800000 
 250              	.LVL24:
 251              	.LBE100:
  14:src/../h/KSemaphore.hpp ****             KPCB* old = head;
 252              		.loc 2 14 9
GAS LISTING /tmp/cc0OjXQ1.s 			page 8


 253 0148 6FF09FFD 		j	.L10
 254              	.L9:
 255              	.LVL25:
 256              	.LBE99:
 257              	.LBE98:
 258              	.LBB105:
 259              	.LBB106:
 260              		.loc 2 40 9 is_stmt 1
 261              		.loc 2 40 35 is_stmt 0
 262 014c 13850400 		mv	a0,s1
 263 0150 97000000 		call	_ZN16KMemoryAllocator8mem_freeEPv@plt
 263      E7800000 
 264              	.LVL26:
 265              	.L8:
 266              	.LBE106:
 267              	.LBE105:
  24:src/KConsole.cpp ****     delete mutexTail;
 268              		.loc 1 24 5 is_stmt 1
 269              		.loc 1 24 12 is_stmt 0
 270 0158 83340903 		ld	s1,48(s2)
 271              		.loc 1 24 21
 272 015c 638E0402 		beqz	s1,.L11
 273              	.L13:
 274              	.LBB107:
 275              	.LBB108:
  14:src/../h/KSemaphore.hpp ****             KPCB* old = head;
 276              		.loc 2 14 9 is_stmt 1
  14:src/../h/KSemaphore.hpp ****             KPCB* old = head;
 277              		.loc 2 14 16
 278 0160 03B58400 		ld	a0,8(s1)
 279 0164 63040502 		beqz	a0,.L12
 280              	.LBB109:
  15:src/../h/KSemaphore.hpp ****             head = head->nextSemaphore;
 281              		.loc 2 15 13
 282              	.LVL27:
  16:src/../h/KSemaphore.hpp ****             old->nextSemaphore = nullptr;
 283              		.loc 2 16 13
  16:src/../h/KSemaphore.hpp ****             old->nextSemaphore = nullptr;
 284              		.loc 2 16 26 is_stmt 0
 285 0168 83378504 		ld	a5,72(a0)
  16:src/../h/KSemaphore.hpp ****             old->nextSemaphore = nullptr;
 286              		.loc 2 16 18
 287 016c 23B4F400 		sd	a5,8(s1)
  17:src/../h/KSemaphore.hpp ****             old->setErr(true);
 288              		.loc 2 17 13 is_stmt 1
  17:src/../h/KSemaphore.hpp ****             old->setErr(true);
 289              		.loc 2 17 32 is_stmt 0
 290 0170 23340504 		sd	zero,72(a0)
  18:src/../h/KSemaphore.hpp ****             old->setWaiting(false);
 291              		.loc 2 18 13 is_stmt 1
 292              	.LVL28:
 293              	.LBB110:
 294              	.LBB111:
 295              		.loc 3 60 29
 296              		.loc 3 60 33 is_stmt 0
 297 0174 93071000 		li	a5,1
 298 0178 A309F502 		sb	a5,51(a0)
GAS LISTING /tmp/cc0OjXQ1.s 			page 9


 299              	.LVL29:
 300              	.LBE111:
 301              	.LBE110:
  19:src/../h/KSemaphore.hpp ****             KScheduler::put(old);
 302              		.loc 2 19 13 is_stmt 1
 303              	.LBB112:
 304              	.LBB113:
  59:src/../h/KPCB.hpp ****     void setErr(bool val) { err = val; }
 305              		.loc 3 59 33
  59:src/../h/KPCB.hpp ****     void setErr(bool val) { err = val; }
 306              		.loc 3 59 41 is_stmt 0
 307 017c 23090502 		sb	zero,50(a0)
 308              	.LVL30:
 309              	.LBE113:
 310              	.LBE112:
  20:src/../h/KSemaphore.hpp ****         }
 311              		.loc 2 20 13 is_stmt 1
  20:src/../h/KSemaphore.hpp ****         }
 312              		.loc 2 20 28 is_stmt 0
 313 0180 97000000 		call	_ZN10KScheduler3putEP4KPCB@plt
 313      E7800000 
 314              	.LVL31:
 315              	.LBE109:
  14:src/../h/KSemaphore.hpp ****             KPCB* old = head;
 316              		.loc 2 14 9
 317 0188 6FF09FFD 		j	.L13
 318              	.L12:
 319              	.LVL32:
 320              	.LBE108:
 321              	.LBE107:
 322              	.LBB114:
 323              	.LBB115:
 324              		.loc 2 40 9 is_stmt 1
 325              		.loc 2 40 35 is_stmt 0
 326 018c 13850400 		mv	a0,s1
 327 0190 97000000 		call	_ZN16KMemoryAllocator8mem_freeEPv@plt
 327      E7800000 
 328              	.LVL33:
 329              	.L11:
 330              	.LBE115:
 331              	.LBE114:
  25:src/KConsole.cpp ****     delete mutexHead;
 332              		.loc 1 25 5 is_stmt 1
 333              		.loc 1 25 12 is_stmt 0
 334 0198 83348902 		ld	s1,40(s2)
 335              		.loc 1 25 21
 336 019c 638E0402 		beqz	s1,.L4
 337              	.L16:
 338              	.LBB116:
 339              	.LBB117:
  14:src/../h/KSemaphore.hpp ****             KPCB* old = head;
 340              		.loc 2 14 9 is_stmt 1
  14:src/../h/KSemaphore.hpp ****             KPCB* old = head;
 341              		.loc 2 14 16
 342 01a0 03B58400 		ld	a0,8(s1)
 343 01a4 63040502 		beqz	a0,.L15
 344              	.LBB118:
GAS LISTING /tmp/cc0OjXQ1.s 			page 10


  15:src/../h/KSemaphore.hpp ****             head = head->nextSemaphore;
 345              		.loc 2 15 13
 346              	.LVL34:
  16:src/../h/KSemaphore.hpp ****             old->nextSemaphore = nullptr;
 347              		.loc 2 16 13
  16:src/../h/KSemaphore.hpp ****             old->nextSemaphore = nullptr;
 348              		.loc 2 16 26 is_stmt 0
 349 01a8 83378504 		ld	a5,72(a0)
  16:src/../h/KSemaphore.hpp ****             old->nextSemaphore = nullptr;
 350              		.loc 2 16 18
 351 01ac 23B4F400 		sd	a5,8(s1)
  17:src/../h/KSemaphore.hpp ****             old->setErr(true);
 352              		.loc 2 17 13 is_stmt 1
  17:src/../h/KSemaphore.hpp ****             old->setErr(true);
 353              		.loc 2 17 32 is_stmt 0
 354 01b0 23340504 		sd	zero,72(a0)
  18:src/../h/KSemaphore.hpp ****             old->setWaiting(false);
 355              		.loc 2 18 13 is_stmt 1
 356              	.LVL35:
 357              	.LBB119:
 358              	.LBB120:
 359              		.loc 3 60 29
 360              		.loc 3 60 33 is_stmt 0
 361 01b4 93071000 		li	a5,1
 362 01b8 A309F502 		sb	a5,51(a0)
 363              	.LVL36:
 364              	.LBE120:
 365              	.LBE119:
  19:src/../h/KSemaphore.hpp ****             KScheduler::put(old);
 366              		.loc 2 19 13 is_stmt 1
 367              	.LBB121:
 368              	.LBB122:
  59:src/../h/KPCB.hpp ****     void setErr(bool val) { err = val; }
 369              		.loc 3 59 33
  59:src/../h/KPCB.hpp ****     void setErr(bool val) { err = val; }
 370              		.loc 3 59 41 is_stmt 0
 371 01bc 23090502 		sb	zero,50(a0)
 372              	.LVL37:
 373              	.LBE122:
 374              	.LBE121:
  20:src/../h/KSemaphore.hpp ****         }
 375              		.loc 2 20 13 is_stmt 1
  20:src/../h/KSemaphore.hpp ****         }
 376              		.loc 2 20 28 is_stmt 0
 377 01c0 97000000 		call	_ZN10KScheduler3putEP4KPCB@plt
 377      E7800000 
 378              	.LVL38:
 379              	.LBE118:
  14:src/../h/KSemaphore.hpp ****             KPCB* old = head;
 380              		.loc 2 14 9
 381 01c8 6FF09FFD 		j	.L16
 382              	.L15:
 383              	.LVL39:
 384              	.LBE117:
 385              	.LBE116:
 386              	.LBB123:
 387              	.LBB124:
GAS LISTING /tmp/cc0OjXQ1.s 			page 11


 388              		.loc 2 40 9 is_stmt 1
 389              		.loc 2 40 35 is_stmt 0
 390 01cc 13850400 		mv	a0,s1
 391 01d0 97000000 		call	_ZN16KMemoryAllocator8mem_freeEPv@plt
 391      E7800000 
 392              	.LVL40:
 393              	.L4:
 394              	.LBE124:
 395              	.LBE123:
 396              	.LBE88:
  26:src/KConsole.cpp **** }
 397              		.loc 1 26 1
 398 01d8 83308101 		ld	ra,24(sp)
 399              		.cfi_restore 1
 400 01dc 03340101 		ld	s0,16(sp)
 401              		.cfi_restore 8
 402              		.cfi_def_cfa 2, 32
 403 01e0 83348100 		ld	s1,8(sp)
 404              		.cfi_restore 9
 405 01e4 03390100 		ld	s2,0(sp)
 406              		.cfi_restore 18
 407              	.LVL41:
 408 01e8 13010102 		addi	sp,sp,32
 409              		.cfi_def_cfa_offset 0
 410 01ec 67800000 		jr	ra
 411              		.cfi_endproc
 412              	.LFE38:
 413              		.globl	__gxx_personality_v0
 414              		.section	.gcc_except_table,"a",@progbits
 415              	.LLSDA38:
 416 0000 FF       		.byte	0xff
 417 0001 FF       		.byte	0xff
 418 0002 03       		.byte	0x3
 419 0003 00       		.byte	0
 420              		.text
 422              		.globl	_ZN8KConsoleD1Ev
 423              		.set	_ZN8KConsoleD1Ev,_ZN8KConsoleD2Ev
 424              		.align	2
 425              		.globl	_ZN8KConsole3putEc
 427              	_ZN8KConsole3putEc:
 428              	.LFB40:
  27:src/KConsole.cpp **** 
  28:src/KConsole.cpp **** void KConsole::put(char val) {
 429              		.loc 1 28 30 is_stmt 1
 430              		.cfi_startproc
 431              	.LVL42:
 432 01f0 130101FE 		addi	sp,sp,-32
 433              		.cfi_def_cfa_offset 32
 434 01f4 233C1100 		sd	ra,24(sp)
 435 01f8 23388100 		sd	s0,16(sp)
 436 01fc 23349100 		sd	s1,8(sp)
 437 0200 23302101 		sd	s2,0(sp)
 438              		.cfi_offset 1, -8
 439              		.cfi_offset 8, -16
 440              		.cfi_offset 9, -24
 441              		.cfi_offset 18, -32
 442 0204 13040102 		addi	s0,sp,32
GAS LISTING /tmp/cc0OjXQ1.s 			page 12


 443              		.cfi_def_cfa 8, 0
 444 0208 93040500 		mv	s1,a0
 445 020c 13890500 		mv	s2,a1
  29:src/KConsole.cpp ****     spaceAvailable->wait();
 446              		.loc 1 29 5
 447 0210 03358501 		ld	a0,24(a0)
 448              	.LVL43:
 449              	.LBB125:
 450              	.LBB126:
  24:src/../h/KSemaphore.hpp ****     void signal() { if (val++ < 0) deblock(); }
 451              		.loc 2 24 19
  24:src/../h/KSemaphore.hpp ****     void signal() { if (val++ < 0) deblock(); }
 452              		.loc 2 24 24 is_stmt 0
 453 0214 83270500 		lw	a5,0(a0)
  24:src/../h/KSemaphore.hpp ****     void signal() { if (val++ < 0) deblock(); }
 454              		.loc 2 24 22
 455 0218 9B87F7FF 		addiw	a5,a5,-1
  24:src/../h/KSemaphore.hpp ****     void signal() { if (val++ < 0) deblock(); }
 456              		.loc 2 24 28
 457 021c 2320F500 		sw	a5,0(a0)
  24:src/../h/KSemaphore.hpp ****     void signal() { if (val++ < 0) deblock(); }
 458              		.loc 2 24 19
 459 0220 13970702 		slli	a4,a5,32
 460 0224 63400708 		bltz	a4,.L24
 461              	.LVL44:
 462              	.L19:
 463              	.LBE126:
 464              	.LBE125:
  30:src/KConsole.cpp ****     mutexTail->wait();
 465              		.loc 1 30 5 is_stmt 1
 466 0228 03B50403 		ld	a0,48(s1)
 467              	.LVL45:
 468              	.LBB128:
 469              	.LBB129:
  24:src/../h/KSemaphore.hpp ****     void signal() { if (val++ < 0) deblock(); }
 470              		.loc 2 24 19
  24:src/../h/KSemaphore.hpp ****     void signal() { if (val++ < 0) deblock(); }
 471              		.loc 2 24 24 is_stmt 0
 472 022c 83270500 		lw	a5,0(a0)
  24:src/../h/KSemaphore.hpp ****     void signal() { if (val++ < 0) deblock(); }
 473              		.loc 2 24 22
 474 0230 9B87F7FF 		addiw	a5,a5,-1
  24:src/../h/KSemaphore.hpp ****     void signal() { if (val++ < 0) deblock(); }
 475              		.loc 2 24 28
 476 0234 2320F500 		sw	a5,0(a0)
  24:src/../h/KSemaphore.hpp ****     void signal() { if (val++ < 0) deblock(); }
 477              		.loc 2 24 19
 478 0238 13970702 		slli	a4,a5,32
 479 023c 634A0706 		bltz	a4,.L25
 480              	.LVL46:
 481              	.L20:
 482              	.LBE129:
 483              	.LBE128:
  31:src/KConsole.cpp **** 
  32:src/KConsole.cpp ****     buffer[tail] = val;
 484              		.loc 1 32 5 is_stmt 1
 485 0240 83B78400 		ld	a5,8(s1)
GAS LISTING /tmp/cc0OjXQ1.s 			page 13


 486              		.loc 1 32 12 is_stmt 0
 487 0244 03A74401 		lw	a4,20(s1)
 488              		.loc 1 32 16
 489 0248 B387E700 		add	a5,a5,a4
 490              		.loc 1 32 18
 491 024c 23802701 		sb	s2,0(a5)
  33:src/KConsole.cpp ****     tail = (tail + 1) % cap;
 492              		.loc 1 33 5 is_stmt 1
 493              		.loc 1 33 13 is_stmt 0
 494 0250 83A74401 		lw	a5,20(s1)
 495              		.loc 1 33 18
 496 0254 9B871700 		addiw	a5,a5,1
 497              		.loc 1 33 25
 498 0258 03A70400 		lw	a4,0(s1)
 499              		.loc 1 33 23
 500 025c BBE7E702 		remw	a5,a5,a4
 501              		.loc 1 33 10
 502 0260 23AAF400 		sw	a5,20(s1)
  34:src/KConsole.cpp **** 
  35:src/KConsole.cpp ****     mutexTail->signal();
 503              		.loc 1 35 5 is_stmt 1
 504 0264 03B50403 		ld	a0,48(s1)
 505              	.LVL47:
 506              	.LBB131:
 507              	.LBB132:
  25:src/../h/KSemaphore.hpp ****     int value() const { return val; }
 508              		.loc 2 25 21
  25:src/../h/KSemaphore.hpp ****     int value() const { return val; }
 509              		.loc 2 25 25 is_stmt 0
 510 0268 83270500 		lw	a5,0(a0)
  25:src/../h/KSemaphore.hpp ****     int value() const { return val; }
 511              		.loc 2 25 28
 512 026c 1B871700 		addiw	a4,a5,1
 513 0270 2320E500 		sw	a4,0(a0)
  25:src/../h/KSemaphore.hpp ****     int value() const { return val; }
 514              		.loc 2 25 21
 515 0274 63C40704 		bltz	a5,.L26
 516              	.LVL48:
 517              	.L21:
 518              	.LBE132:
 519              	.LBE131:
  36:src/KConsole.cpp ****     itemAvailable->signal();
 520              		.loc 1 36 5 is_stmt 1
 521 0278 03B50402 		ld	a0,32(s1)
 522              	.LVL49:
 523              	.LBB134:
 524              	.LBB135:
  25:src/../h/KSemaphore.hpp ****     int value() const { return val; }
 525              		.loc 2 25 21
  25:src/../h/KSemaphore.hpp ****     int value() const { return val; }
 526              		.loc 2 25 25 is_stmt 0
 527 027c 83270500 		lw	a5,0(a0)
  25:src/../h/KSemaphore.hpp ****     int value() const { return val; }
 528              		.loc 2 25 28
 529 0280 1B871700 		addiw	a4,a5,1
 530 0284 2320E500 		sw	a4,0(a0)
  25:src/../h/KSemaphore.hpp ****     int value() const { return val; }
GAS LISTING /tmp/cc0OjXQ1.s 			page 14


 531              		.loc 2 25 21
 532 0288 63C00704 		bltz	a5,.L27
 533              	.LVL50:
 534              	.L18:
 535              	.LBE135:
 536              	.LBE134:
  37:src/KConsole.cpp **** 
  38:src/KConsole.cpp **** }
 537              		.loc 1 38 1
 538 028c 83308101 		ld	ra,24(sp)
 539              		.cfi_remember_state
 540              		.cfi_restore 1
 541 0290 03340101 		ld	s0,16(sp)
 542              		.cfi_restore 8
 543              		.cfi_def_cfa 2, 32
 544 0294 83348100 		ld	s1,8(sp)
 545              		.cfi_restore 9
 546              	.LVL51:
 547 0298 03390100 		ld	s2,0(sp)
 548              		.cfi_restore 18
 549 029c 13010102 		addi	sp,sp,32
 550              		.cfi_def_cfa_offset 0
 551 02a0 67800000 		jr	ra
 552              	.LVL52:
 553              	.L24:
 554              		.cfi_restore_state
 555              	.LBB137:
 556              	.LBB127:
  24:src/../h/KSemaphore.hpp ****     void signal() { if (val++ < 0) deblock(); }
 557              		.loc 2 24 33 is_stmt 1
  24:src/../h/KSemaphore.hpp ****     void signal() { if (val++ < 0) deblock(); }
 558              		.loc 2 24 38 is_stmt 0
 559 02a4 97000000 		call	_ZN10KSemaphore5blockEv@plt
 559      E7800000 
 560              	.LVL53:
 561 02ac 6FF0DFF7 		j	.L19
 562              	.LVL54:
 563              	.L25:
 564              	.LBE127:
 565              	.LBE137:
 566              	.LBB138:
 567              	.LBB130:
  24:src/../h/KSemaphore.hpp ****     void signal() { if (val++ < 0) deblock(); }
 568              		.loc 2 24 33 is_stmt 1
  24:src/../h/KSemaphore.hpp ****     void signal() { if (val++ < 0) deblock(); }
 569              		.loc 2 24 38 is_stmt 0
 570 02b0 97000000 		call	_ZN10KSemaphore5blockEv@plt
 570      E7800000 
 571              	.LVL55:
 572 02b8 6FF09FF8 		j	.L20
 573              	.LVL56:
 574              	.L26:
 575              	.LBE130:
 576              	.LBE138:
 577              	.LBB139:
 578              	.LBB133:
  25:src/../h/KSemaphore.hpp ****     int value() const { return val; }
GAS LISTING /tmp/cc0OjXQ1.s 			page 15


 579              		.loc 2 25 36 is_stmt 1
  25:src/../h/KSemaphore.hpp ****     int value() const { return val; }
 580              		.loc 2 25 43 is_stmt 0
 581 02bc 97000000 		call	_ZN10KSemaphore7deblockEv@plt
 581      E7800000 
 582              	.LVL57:
 583 02c4 6FF05FFB 		j	.L21
 584              	.LVL58:
 585              	.L27:
 586              	.LBE133:
 587              	.LBE139:
 588              	.LBB140:
 589              	.LBB136:
  25:src/../h/KSemaphore.hpp ****     int value() const { return val; }
 590              		.loc 2 25 36 is_stmt 1
  25:src/../h/KSemaphore.hpp ****     int value() const { return val; }
 591              		.loc 2 25 43 is_stmt 0
 592 02c8 97000000 		call	_ZN10KSemaphore7deblockEv@plt
 592      E7800000 
 593              	.LVL59:
 594              	.LBE136:
 595              	.LBE140:
 596              		.loc 1 38 1
 597 02d0 6FF0DFFB 		j	.L18
 598              		.cfi_endproc
 599              	.LFE40:
 601              		.align	2
 602              		.globl	_ZN8KConsole3getEv
 604              	_ZN8KConsole3getEv:
 605              	.LFB41:
  39:src/KConsole.cpp **** 
  40:src/KConsole.cpp **** int KConsole::get() {
 606              		.loc 1 40 21 is_stmt 1
 607              		.cfi_startproc
 608              	.LVL60:
 609 02d4 130101FE 		addi	sp,sp,-32
 610              		.cfi_def_cfa_offset 32
 611 02d8 233C1100 		sd	ra,24(sp)
 612 02dc 23388100 		sd	s0,16(sp)
 613 02e0 23349100 		sd	s1,8(sp)
 614 02e4 23302101 		sd	s2,0(sp)
 615              		.cfi_offset 1, -8
 616              		.cfi_offset 8, -16
 617              		.cfi_offset 9, -24
 618              		.cfi_offset 18, -32
 619 02e8 13040102 		addi	s0,sp,32
 620              		.cfi_def_cfa 8, 0
 621 02ec 93040500 		mv	s1,a0
  41:src/KConsole.cpp ****     itemAvailable->wait();
 622              		.loc 1 41 5
 623 02f0 03350502 		ld	a0,32(a0)
 624              	.LVL61:
 625              	.LBB141:
 626              	.LBB142:
  24:src/../h/KSemaphore.hpp ****     void signal() { if (val++ < 0) deblock(); }
 627              		.loc 2 24 19
  24:src/../h/KSemaphore.hpp ****     void signal() { if (val++ < 0) deblock(); }
GAS LISTING /tmp/cc0OjXQ1.s 			page 16


 628              		.loc 2 24 24 is_stmt 0
 629 02f4 83270500 		lw	a5,0(a0)
  24:src/../h/KSemaphore.hpp ****     void signal() { if (val++ < 0) deblock(); }
 630              		.loc 2 24 22
 631 02f8 9B87F7FF 		addiw	a5,a5,-1
  24:src/../h/KSemaphore.hpp ****     void signal() { if (val++ < 0) deblock(); }
 632              		.loc 2 24 28
 633 02fc 2320F500 		sw	a5,0(a0)
  24:src/../h/KSemaphore.hpp ****     void signal() { if (val++ < 0) deblock(); }
 634              		.loc 2 24 19
 635 0300 13970702 		slli	a4,a5,32
 636 0304 63400708 		bltz	a4,.L34
 637              	.LVL62:
 638              	.L29:
 639              	.LBE142:
 640              	.LBE141:
  42:src/KConsole.cpp ****     mutexHead->wait();
 641              		.loc 1 42 5 is_stmt 1
 642 0308 03B58402 		ld	a0,40(s1)
 643              	.LVL63:
 644              	.LBB144:
 645              	.LBB145:
  24:src/../h/KSemaphore.hpp ****     void signal() { if (val++ < 0) deblock(); }
 646              		.loc 2 24 19
  24:src/../h/KSemaphore.hpp ****     void signal() { if (val++ < 0) deblock(); }
 647              		.loc 2 24 24 is_stmt 0
 648 030c 83270500 		lw	a5,0(a0)
  24:src/../h/KSemaphore.hpp ****     void signal() { if (val++ < 0) deblock(); }
 649              		.loc 2 24 22
 650 0310 9B87F7FF 		addiw	a5,a5,-1
  24:src/../h/KSemaphore.hpp ****     void signal() { if (val++ < 0) deblock(); }
 651              		.loc 2 24 28
 652 0314 2320F500 		sw	a5,0(a0)
  24:src/../h/KSemaphore.hpp ****     void signal() { if (val++ < 0) deblock(); }
 653              		.loc 2 24 19
 654 0318 13970702 		slli	a4,a5,32
 655 031c 634A0706 		bltz	a4,.L35
 656              	.LVL64:
 657              	.L30:
 658              	.LBE145:
 659              	.LBE144:
  43:src/KConsole.cpp **** 
  44:src/KConsole.cpp ****     char ret = buffer[head];
 660              		.loc 1 44 5 is_stmt 1
 661              		.loc 1 44 16 is_stmt 0
 662 0320 03B78400 		ld	a4,8(s1)
 663              		.loc 1 44 23
 664 0324 83A70401 		lw	a5,16(s1)
 665              		.loc 1 44 27
 666 0328 3307F700 		add	a4,a4,a5
 667              		.loc 1 44 10
 668 032c 03490700 		lbu	s2,0(a4)
 669              	.LVL65:
  45:src/KConsole.cpp ****     head = (head + 1) % cap;
 670              		.loc 1 45 5 is_stmt 1
 671              		.loc 1 45 18 is_stmt 0
 672 0330 9B871700 		addiw	a5,a5,1
GAS LISTING /tmp/cc0OjXQ1.s 			page 17


 673              		.loc 1 45 25
 674 0334 03A70400 		lw	a4,0(s1)
 675              		.loc 1 45 23
 676 0338 BBE7E702 		remw	a5,a5,a4
 677              		.loc 1 45 10
 678 033c 23A8F400 		sw	a5,16(s1)
  46:src/KConsole.cpp **** 
  47:src/KConsole.cpp ****     mutexHead->signal();
 679              		.loc 1 47 5 is_stmt 1
 680 0340 03B58402 		ld	a0,40(s1)
 681              	.LVL66:
 682              	.LBB147:
 683              	.LBB148:
  25:src/../h/KSemaphore.hpp ****     int value() const { return val; }
 684              		.loc 2 25 21
  25:src/../h/KSemaphore.hpp ****     int value() const { return val; }
 685              		.loc 2 25 25 is_stmt 0
 686 0344 83270500 		lw	a5,0(a0)
  25:src/../h/KSemaphore.hpp ****     int value() const { return val; }
 687              		.loc 2 25 28
 688 0348 1B871700 		addiw	a4,a5,1
 689 034c 2320E500 		sw	a4,0(a0)
  25:src/../h/KSemaphore.hpp ****     int value() const { return val; }
 690              		.loc 2 25 21
 691 0350 63C60704 		bltz	a5,.L36
 692              	.LVL67:
 693              	.L31:
 694              	.LBE148:
 695              	.LBE147:
  48:src/KConsole.cpp ****     spaceAvailable->signal();
 696              		.loc 1 48 5 is_stmt 1
 697 0354 03B58401 		ld	a0,24(s1)
 698              	.LVL68:
 699              	.LBB150:
 700              	.LBB151:
  25:src/../h/KSemaphore.hpp ****     int value() const { return val; }
 701              		.loc 2 25 21
  25:src/../h/KSemaphore.hpp ****     int value() const { return val; }
 702              		.loc 2 25 25 is_stmt 0
 703 0358 83270500 		lw	a5,0(a0)
  25:src/../h/KSemaphore.hpp ****     int value() const { return val; }
 704              		.loc 2 25 28
 705 035c 1B871700 		addiw	a4,a5,1
 706 0360 2320E500 		sw	a4,0(a0)
  25:src/../h/KSemaphore.hpp ****     int value() const { return val; }
 707              		.loc 2 25 21
 708 0364 63C20704 		bltz	a5,.L37
 709              	.LVL69:
 710              	.L32:
 711              	.LBE151:
 712              	.LBE150:
  49:src/KConsole.cpp ****     return ret;
 713              		.loc 1 49 5 is_stmt 1
  50:src/KConsole.cpp **** }
 714              		.loc 1 50 1 is_stmt 0
 715 0368 13050900 		mv	a0,s2
 716 036c 83308101 		ld	ra,24(sp)
GAS LISTING /tmp/cc0OjXQ1.s 			page 18


 717              		.cfi_remember_state
 718              		.cfi_restore 1
 719 0370 03340101 		ld	s0,16(sp)
 720              		.cfi_restore 8
 721              		.cfi_def_cfa 2, 32
 722 0374 83348100 		ld	s1,8(sp)
 723              		.cfi_restore 9
 724              	.LVL70:
 725 0378 03390100 		ld	s2,0(sp)
 726              		.cfi_restore 18
 727              	.LVL71:
 728 037c 13010102 		addi	sp,sp,32
 729              		.cfi_def_cfa_offset 0
 730 0380 67800000 		jr	ra
 731              	.LVL72:
 732              	.L34:
 733              		.cfi_restore_state
 734              	.LBB153:
 735              	.LBB143:
  24:src/../h/KSemaphore.hpp ****     void signal() { if (val++ < 0) deblock(); }
 736              		.loc 2 24 33 is_stmt 1
  24:src/../h/KSemaphore.hpp ****     void signal() { if (val++ < 0) deblock(); }
 737              		.loc 2 24 38 is_stmt 0
 738 0384 97000000 		call	_ZN10KSemaphore5blockEv@plt
 738      E7800000 
 739              	.LVL73:
 740 038c 6FF0DFF7 		j	.L29
 741              	.LVL74:
 742              	.L35:
 743              	.LBE143:
 744              	.LBE153:
 745              	.LBB154:
 746              	.LBB146:
  24:src/../h/KSemaphore.hpp ****     void signal() { if (val++ < 0) deblock(); }
 747              		.loc 2 24 33 is_stmt 1
  24:src/../h/KSemaphore.hpp ****     void signal() { if (val++ < 0) deblock(); }
 748              		.loc 2 24 38 is_stmt 0
 749 0390 97000000 		call	_ZN10KSemaphore5blockEv@plt
 749      E7800000 
 750              	.LVL75:
 751 0398 6FF09FF8 		j	.L30
 752              	.LVL76:
 753              	.L36:
 754              	.LBE146:
 755              	.LBE154:
 756              	.LBB155:
 757              	.LBB149:
  25:src/../h/KSemaphore.hpp ****     int value() const { return val; }
 758              		.loc 2 25 36 is_stmt 1
  25:src/../h/KSemaphore.hpp ****     int value() const { return val; }
 759              		.loc 2 25 43 is_stmt 0
 760 039c 97000000 		call	_ZN10KSemaphore7deblockEv@plt
 760      E7800000 
 761              	.LVL77:
 762 03a4 6FF01FFB 		j	.L31
 763              	.LVL78:
 764              	.L37:
GAS LISTING /tmp/cc0OjXQ1.s 			page 19


 765              	.LBE149:
 766              	.LBE155:
 767              	.LBB156:
 768              	.LBB152:
  25:src/../h/KSemaphore.hpp ****     int value() const { return val; }
 769              		.loc 2 25 36 is_stmt 1
  25:src/../h/KSemaphore.hpp ****     int value() const { return val; }
 770              		.loc 2 25 43 is_stmt 0
 771 03a8 97000000 		call	_ZN10KSemaphore7deblockEv@plt
 771      E7800000 
 772              	.LVL79:
 773 03b0 6FF09FFB 		j	.L32
 774              	.LBE152:
 775              	.LBE156:
 776              		.cfi_endproc
 777              	.LFE41:
 779              		.align	2
 780              		.globl	_ZN8KConsole6getCntEv
 782              	_ZN8KConsole6getCntEv:
 783              	.LFB42:
  51:src/KConsole.cpp **** 
  52:src/KConsole.cpp **** int KConsole::getCnt() {
 784              		.loc 1 52 24 is_stmt 1
 785              		.cfi_startproc
 786              	.LVL80:
 787 03b4 130101FE 		addi	sp,sp,-32
 788              		.cfi_def_cfa_offset 32
 789 03b8 233C1100 		sd	ra,24(sp)
 790 03bc 23388100 		sd	s0,16(sp)
 791 03c0 23349100 		sd	s1,8(sp)
 792 03c4 23302101 		sd	s2,0(sp)
 793              		.cfi_offset 1, -8
 794              		.cfi_offset 8, -16
 795              		.cfi_offset 9, -24
 796              		.cfi_offset 18, -32
 797 03c8 13040102 		addi	s0,sp,32
 798              		.cfi_def_cfa 8, 0
 799 03cc 93040500 		mv	s1,a0
  53:src/KConsole.cpp ****     int ret;
 800              		.loc 1 53 5
  54:src/KConsole.cpp **** 
  55:src/KConsole.cpp ****     mutexHead->wait();
 801              		.loc 1 55 5
 802 03d0 03358502 		ld	a0,40(a0)
 803              	.LVL81:
 804              	.LBB157:
 805              	.LBB158:
  24:src/../h/KSemaphore.hpp ****     void signal() { if (val++ < 0) deblock(); }
 806              		.loc 2 24 19
  24:src/../h/KSemaphore.hpp ****     void signal() { if (val++ < 0) deblock(); }
 807              		.loc 2 24 24 is_stmt 0
 808 03d4 83270500 		lw	a5,0(a0)
  24:src/../h/KSemaphore.hpp ****     void signal() { if (val++ < 0) deblock(); }
 809              		.loc 2 24 22
 810 03d8 9B87F7FF 		addiw	a5,a5,-1
  24:src/../h/KSemaphore.hpp ****     void signal() { if (val++ < 0) deblock(); }
 811              		.loc 2 24 28
GAS LISTING /tmp/cc0OjXQ1.s 			page 20


 812 03dc 2320F500 		sw	a5,0(a0)
  24:src/../h/KSemaphore.hpp ****     void signal() { if (val++ < 0) deblock(); }
 813              		.loc 2 24 19
 814 03e0 13970702 		slli	a4,a5,32
 815 03e4 63480706 		bltz	a4,.L46
 816              	.LVL82:
 817              	.L39:
 818              	.LBE158:
 819              	.LBE157:
  56:src/KConsole.cpp ****     mutexTail->wait();
 820              		.loc 1 56 5 is_stmt 1
 821 03e8 03B50403 		ld	a0,48(s1)
 822              	.LVL83:
 823              	.LBB160:
 824              	.LBB161:
  24:src/../h/KSemaphore.hpp ****     void signal() { if (val++ < 0) deblock(); }
 825              		.loc 2 24 19
  24:src/../h/KSemaphore.hpp ****     void signal() { if (val++ < 0) deblock(); }
 826              		.loc 2 24 24 is_stmt 0
 827 03ec 83270500 		lw	a5,0(a0)
  24:src/../h/KSemaphore.hpp ****     void signal() { if (val++ < 0) deblock(); }
 828              		.loc 2 24 22
 829 03f0 9B87F7FF 		addiw	a5,a5,-1
  24:src/../h/KSemaphore.hpp ****     void signal() { if (val++ < 0) deblock(); }
 830              		.loc 2 24 28
 831 03f4 2320F500 		sw	a5,0(a0)
  24:src/../h/KSemaphore.hpp ****     void signal() { if (val++ < 0) deblock(); }
 832              		.loc 2 24 19
 833 03f8 13970702 		slli	a4,a5,32
 834 03fc 63420706 		bltz	a4,.L47
 835              	.LVL84:
 836              	.L40:
 837              	.LBE161:
 838              	.LBE160:
  57:src/KConsole.cpp **** 
  58:src/KConsole.cpp ****     if (tail >= head) {
 839              		.loc 1 58 5 is_stmt 1
 840              		.loc 1 58 9 is_stmt 0
 841 0400 83A74401 		lw	a5,20(s1)
 842              		.loc 1 58 17
 843 0404 03A90401 		lw	s2,16(s1)
 844              		.loc 1 58 5
 845 0408 63C22707 		blt	a5,s2,.L41
  59:src/KConsole.cpp ****         ret = tail - head;
 846              		.loc 1 59 9 is_stmt 1
 847              		.loc 1 59 13 is_stmt 0
 848 040c 3B892741 		subw	s2,a5,s2
 849              	.LVL85:
 850              	.L42:
  60:src/KConsole.cpp ****     } else {
  61:src/KConsole.cpp ****         ret = cap - head + tail;
  62:src/KConsole.cpp ****     }
  63:src/KConsole.cpp **** 
  64:src/KConsole.cpp ****     mutexTail->signal();
 851              		.loc 1 64 5 is_stmt 1
 852 0410 03B50403 		ld	a0,48(s1)
 853              	.LVL86:
GAS LISTING /tmp/cc0OjXQ1.s 			page 21


 854              	.LBB163:
 855              	.LBB164:
  25:src/../h/KSemaphore.hpp ****     int value() const { return val; }
 856              		.loc 2 25 21
  25:src/../h/KSemaphore.hpp ****     int value() const { return val; }
 857              		.loc 2 25 25 is_stmt 0
 858 0414 83270500 		lw	a5,0(a0)
  25:src/../h/KSemaphore.hpp ****     int value() const { return val; }
 859              		.loc 2 25 28
 860 0418 1B871700 		addiw	a4,a5,1
 861 041c 2320E500 		sw	a4,0(a0)
  25:src/../h/KSemaphore.hpp ****     int value() const { return val; }
 862              		.loc 2 25 21
 863 0420 63CE0704 		bltz	a5,.L48
 864              	.LVL87:
 865              	.L43:
 866              	.LBE164:
 867              	.LBE163:
  65:src/KConsole.cpp ****     mutexHead->signal();
 868              		.loc 1 65 5 is_stmt 1
 869 0424 03B58402 		ld	a0,40(s1)
 870              	.LVL88:
 871              	.LBB166:
 872              	.LBB167:
  25:src/../h/KSemaphore.hpp ****     int value() const { return val; }
 873              		.loc 2 25 21
  25:src/../h/KSemaphore.hpp ****     int value() const { return val; }
 874              		.loc 2 25 25 is_stmt 0
 875 0428 83270500 		lw	a5,0(a0)
  25:src/../h/KSemaphore.hpp ****     int value() const { return val; }
 876              		.loc 2 25 28
 877 042c 1B871700 		addiw	a4,a5,1
 878 0430 2320E500 		sw	a4,0(a0)
  25:src/../h/KSemaphore.hpp ****     int value() const { return val; }
 879              		.loc 2 25 21
 880 0434 63CA0704 		bltz	a5,.L49
 881              	.LVL89:
 882              	.L44:
 883              	.LBE167:
 884              	.LBE166:
  66:src/KConsole.cpp ****     return ret;
 885              		.loc 1 66 5 is_stmt 1
  67:src/KConsole.cpp **** }
 886              		.loc 1 67 1 is_stmt 0
 887 0438 13050900 		mv	a0,s2
 888 043c 83308101 		ld	ra,24(sp)
 889              		.cfi_remember_state
 890              		.cfi_restore 1
 891 0440 03340101 		ld	s0,16(sp)
 892              		.cfi_restore 8
 893              		.cfi_def_cfa 2, 32
 894 0444 83348100 		ld	s1,8(sp)
 895              		.cfi_restore 9
 896              	.LVL90:
 897 0448 03390100 		ld	s2,0(sp)
 898              		.cfi_restore 18
 899              	.LVL91:
GAS LISTING /tmp/cc0OjXQ1.s 			page 22


 900 044c 13010102 		addi	sp,sp,32
 901              		.cfi_def_cfa_offset 0
 902 0450 67800000 		jr	ra
 903              	.LVL92:
 904              	.L46:
 905              		.cfi_restore_state
 906              	.LBB169:
 907              	.LBB159:
  24:src/../h/KSemaphore.hpp ****     void signal() { if (val++ < 0) deblock(); }
 908              		.loc 2 24 33 is_stmt 1
  24:src/../h/KSemaphore.hpp ****     void signal() { if (val++ < 0) deblock(); }
 909              		.loc 2 24 38 is_stmt 0
 910 0454 97000000 		call	_ZN10KSemaphore5blockEv@plt
 910      E7800000 
 911              	.LVL93:
 912 045c 6FF0DFF8 		j	.L39
 913              	.LVL94:
 914              	.L47:
 915              	.LBE159:
 916              	.LBE169:
 917              	.LBB170:
 918              	.LBB162:
  24:src/../h/KSemaphore.hpp ****     void signal() { if (val++ < 0) deblock(); }
 919              		.loc 2 24 33 is_stmt 1
  24:src/../h/KSemaphore.hpp ****     void signal() { if (val++ < 0) deblock(); }
 920              		.loc 2 24 38 is_stmt 0
 921 0460 97000000 		call	_ZN10KSemaphore5blockEv@plt
 921      E7800000 
 922              	.LVL95:
 923 0468 6FF09FF9 		j	.L40
 924              	.L41:
 925              	.LBE162:
 926              	.LBE170:
  61:src/KConsole.cpp ****     }
 927              		.loc 1 61 9 is_stmt 1
  61:src/KConsole.cpp ****     }
 928              		.loc 1 61 15 is_stmt 0
 929 046c 03A70400 		lw	a4,0(s1)
  61:src/KConsole.cpp ****     }
 930              		.loc 1 61 19
 931 0470 3B092741 		subw	s2,a4,s2
  61:src/KConsole.cpp ****     }
 932              		.loc 1 61 13
 933 0474 3B09F900 		addw	s2,s2,a5
 934 0478 6FF09FF9 		j	.L42
 935              	.LVL96:
 936              	.L48:
 937              	.LBB171:
 938              	.LBB165:
  25:src/../h/KSemaphore.hpp ****     int value() const { return val; }
 939              		.loc 2 25 36 is_stmt 1
  25:src/../h/KSemaphore.hpp ****     int value() const { return val; }
 940              		.loc 2 25 43 is_stmt 0
 941 047c 97000000 		call	_ZN10KSemaphore7deblockEv@plt
 941      E7800000 
 942              	.LVL97:
 943 0484 6FF01FFA 		j	.L43
GAS LISTING /tmp/cc0OjXQ1.s 			page 23


 944              	.LVL98:
 945              	.L49:
 946              	.LBE165:
 947              	.LBE171:
 948              	.LBB172:
 949              	.LBB168:
  25:src/../h/KSemaphore.hpp ****     int value() const { return val; }
 950              		.loc 2 25 36 is_stmt 1
  25:src/../h/KSemaphore.hpp ****     int value() const { return val; }
 951              		.loc 2 25 43 is_stmt 0
 952 0488 97000000 		call	_ZN10KSemaphore7deblockEv@plt
 952      E7800000 
 953              	.LVL99:
 954 0490 6FF09FFA 		j	.L44
 955              	.LBE168:
 956              	.LBE172:
 957              		.cfi_endproc
 958              	.LFE42:
 960              		.align	2
 961              		.globl	_ZN8KConsole18initConsoleBuffersEv
 963              	_ZN8KConsole18initConsoleBuffersEv:
 964              	.LFB43:
  68:src/KConsole.cpp **** 
  69:src/KConsole.cpp **** void KConsole::initConsoleBuffers() {
 965              		.loc 1 69 37 is_stmt 1
 966              		.cfi_startproc
 967              		.cfi_personality 0x9b,DW.ref.__gxx_personality_v0
 968              		.cfi_lsda 0x1b,.LLSDA43
 969 0494 130101FE 		addi	sp,sp,-32
 970              		.cfi_def_cfa_offset 32
 971 0498 233C1100 		sd	ra,24(sp)
 972 049c 23388100 		sd	s0,16(sp)
 973 04a0 23349100 		sd	s1,8(sp)
 974 04a4 23302101 		sd	s2,0(sp)
 975              		.cfi_offset 1, -8
 976              		.cfi_offset 8, -16
 977              		.cfi_offset 9, -24
 978              		.cfi_offset 18, -32
 979 04a8 13040102 		addi	s0,sp,32
 980              		.cfi_def_cfa 8, 0
  70:src/KConsole.cpp ****     inBuff = new KConsole(BUFF_SIZE);
 981              		.loc 1 70 5
 982              	.LVL100:
 983              	.LBB173:
 984              	.LBB174:
 985              		.file 4 "src/../h/KConsole.hpp"
   1:src/../h/KConsole.hpp **** //
   2:src/../h/KConsole.hpp **** // Created by os on 6/22/22.
   3:src/../h/KConsole.hpp **** //
   4:src/../h/KConsole.hpp **** 
   5:src/../h/KConsole.hpp **** #ifndef PROJECT_BASE_V1_1_KCONSOLE_HPP
   6:src/../h/KConsole.hpp **** #define PROJECT_BASE_V1_1_KCONSOLE_HPP
   7:src/../h/KConsole.hpp **** 
   8:src/../h/KConsole.hpp **** #include "../lib/hw.h"
   9:src/../h/KConsole.hpp **** #include "../h/KMemoryAllocator.hpp"
  10:src/../h/KConsole.hpp **** class KSemaphore;
  11:src/../h/KConsole.hpp **** 
GAS LISTING /tmp/cc0OjXQ1.s 			page 24


  12:src/../h/KConsole.hpp **** class KConsole {
  13:src/../h/KConsole.hpp **** private:
  14:src/../h/KConsole.hpp ****     int cap;
  15:src/../h/KConsole.hpp ****     char* buffer;
  16:src/../h/KConsole.hpp ****     int head, tail;
  17:src/../h/KConsole.hpp **** 
  18:src/../h/KConsole.hpp ****     void* operator new(size_t size) {
  19:src/../h/KConsole.hpp ****         size_t sizeBlock = (size + 16) / MEM_BLOCK_SIZE + ((size + 16) % MEM_BLOCK_SIZE ? 1 : 0);
 986              		.loc 4 19 9
  20:src/../h/KConsole.hpp ****         return KMemoryAllocator::mem_alloc(sizeBlock);
 987              		.loc 4 20 9
 988              		.loc 4 20 43 is_stmt 0
 989 04ac 13052000 		li	a0,2
 990              	.LEHB0:
 991 04b0 97000000 		call	_ZN16KMemoryAllocator9mem_allocEm@plt
 991      E7800000 
 992              	.LVL101:
 993              	.LEHE0:
 994 04b8 93040500 		mv	s1,a0
 995              	.LVL102:
 996              	.LBE174:
 997              	.LBE173:
 998              		.loc 1 70 36
 999 04bc 93050040 		li	a1,1024
 1000              	.LEHB1:
 1001 04c0 97000000 		call	_ZN8KConsoleC1Ei
 1001      E7800000 
 1002              	.LVL103:
 1003              	.LEHE1:
 1004              		.loc 1 70 12 discriminator 2
 1005 04c8 97070000 		sd	s1,.LANCHOR0,a5
 1005      23B09700 
  71:src/KConsole.cpp ****     outBuff = new KConsole(BUFF_SIZE);
 1006              		.loc 1 71 5 is_stmt 1 discriminator 2
 1007              	.LVL104:
 1008              	.LBB175:
 1009              	.LBB176:
  19:src/../h/KConsole.hpp ****         return KMemoryAllocator::mem_alloc(sizeBlock);
 1010              		.loc 4 19 9 discriminator 2
 1011              		.loc 4 20 9 discriminator 2
 1012              		.loc 4 20 43 is_stmt 0 discriminator 2
 1013 04d0 13052000 		li	a0,2
 1014              	.LEHB2:
 1015 04d4 97000000 		call	_ZN16KMemoryAllocator9mem_allocEm@plt
 1015      E7800000 
 1016              	.LVL105:
 1017              	.LEHE2:
 1018 04dc 93040500 		mv	s1,a0
 1019              	.LVL106:
 1020              	.LBE176:
 1021              	.LBE175:
 1022              		.loc 1 71 37 discriminator 2
 1023 04e0 93050040 		li	a1,1024
 1024              	.LEHB3:
 1025 04e4 97000000 		call	_ZN8KConsoleC1Ei
 1025      E7800000 
 1026              	.LVL107:
GAS LISTING /tmp/cc0OjXQ1.s 			page 25


 1027              	.LEHE3:
 1028              		.loc 1 71 13 discriminator 2
 1029 04ec 97070000 		sd	s1,.LANCHOR0+8,a5
 1029      23B09700 
  72:src/KConsole.cpp **** }
 1030              		.loc 1 72 1 discriminator 2
 1031 04f4 83308101 		ld	ra,24(sp)
 1032              		.cfi_remember_state
 1033              		.cfi_restore 1
 1034 04f8 03340101 		ld	s0,16(sp)
 1035              		.cfi_restore 8
 1036              		.cfi_def_cfa 2, 32
 1037 04fc 83348100 		ld	s1,8(sp)
 1038              		.cfi_restore 9
 1039 0500 03390100 		ld	s2,0(sp)
 1040              		.cfi_restore 18
 1041 0504 13010102 		addi	sp,sp,32
 1042              		.cfi_def_cfa_offset 0
 1043 0508 67800000 		jr	ra
 1044              	.L53:
 1045              		.cfi_restore_state
 1046 050c 13090500 		mv	s2,a0
 1047              	.LVL108:
 1048              	.LBB177:
 1049              	.LBB178:
  21:src/../h/KConsole.hpp ****         //return __mem_alloc(size);
  22:src/../h/KConsole.hpp ****     }
  23:src/../h/KConsole.hpp ****     void* operator new[](size_t size) {
  24:src/../h/KConsole.hpp ****         size_t sizeBlock = (size + 16) / MEM_BLOCK_SIZE + ((size + 16) % MEM_BLOCK_SIZE ? 1 : 0);
  25:src/../h/KConsole.hpp ****         return KMemoryAllocator::mem_alloc(sizeBlock);
  26:src/../h/KConsole.hpp ****         //return __mem_alloc(size);
  27:src/../h/KConsole.hpp ****     }
  28:src/../h/KConsole.hpp ****     void operator delete(void* addr) {
  29:src/../h/KConsole.hpp ****         KMemoryAllocator::mem_free(addr);
 1050              		.loc 4 29 9 is_stmt 1
 1051              		.loc 4 29 35 is_stmt 0
 1052 0510 13850400 		mv	a0,s1
 1053 0514 97000000 		call	_ZN16KMemoryAllocator8mem_freeEPv@plt
 1053      E7800000 
 1054              	.LVL109:
 1055 051c 13050900 		mv	a0,s2
 1056              	.LEHB4:
 1057 0520 97000000 		call	_Unwind_Resume@plt
 1057      E7800000 
 1058              	.LVL110:
 1059              	.LEHE4:
 1060              	.L54:
 1061 0528 13090500 		mv	s2,a0
 1062              	.LVL111:
 1063              	.LBE178:
 1064              	.LBE177:
 1065              	.LBB179:
 1066              	.LBB180:
 1067              		.loc 4 29 9 is_stmt 1
 1068              		.loc 4 29 35 is_stmt 0
 1069 052c 13850400 		mv	a0,s1
 1070 0530 97000000 		call	_ZN16KMemoryAllocator8mem_freeEPv@plt
GAS LISTING /tmp/cc0OjXQ1.s 			page 26


 1070      E7800000 
 1071              	.LVL112:
 1072 0538 13050900 		mv	a0,s2
 1073              	.LEHB5:
 1074 053c 97000000 		call	_Unwind_Resume@plt
 1074      E7800000 
 1075              	.LVL113:
 1076              	.LEHE5:
 1077              	.LBE180:
 1078              	.LBE179:
 1079              		.cfi_endproc
 1080              	.LFE43:
 1081              		.section	.gcc_except_table
 1082              	.LLSDA43:
 1083 0004 FF       		.byte	0xff
 1084 0005 FF       		.byte	0xff
 1085 0006 03       		.byte	0x3
 1086 0007 4E       		.byte	0x4e
 1087 0008 00000000 		.4byte	.LEHB0-.LFB43
 1088 000c 00000000 		.4byte	.LEHE0-.LEHB0
 1089 0010 00000000 		.4byte	0
 1090 0014 00       		.byte	0
 1091 0015 00000000 		.4byte	.LEHB1-.LFB43
 1092 0019 00000000 		.4byte	.LEHE1-.LEHB1
 1093 001d 00000000 		.4byte	.L53-.LFB43
 1094 0021 00       		.byte	0
 1095 0022 00000000 		.4byte	.LEHB2-.LFB43
 1096 0026 00000000 		.4byte	.LEHE2-.LEHB2
 1097 002a 00000000 		.4byte	0
 1098 002e 00       		.byte	0
 1099 002f 00000000 		.4byte	.LEHB3-.LFB43
 1100 0033 00000000 		.4byte	.LEHE3-.LEHB3
 1101 0037 00000000 		.4byte	.L54-.LFB43
 1102 003b 00       		.byte	0
 1103 003c 00000000 		.4byte	.LEHB4-.LFB43
 1104 0040 00000000 		.4byte	.LEHE4-.LEHB4
 1105 0044 00000000 		.4byte	0
 1106 0048 00       		.byte	0
 1107 0049 00000000 		.4byte	.LEHB5-.LFB43
 1108 004d 00000000 		.4byte	.LEHE5-.LEHB5
 1109 0051 00000000 		.4byte	0
 1110 0055 00       		.byte	0
 1111              		.text
 1113              		.globl	_ZN8KConsole7outBuffE
 1114              		.globl	_ZN8KConsole6inBuffE
 1115              		.bss
 1116              		.align	3
 1117              		.set	.LANCHOR0,. + 0
 1120              	_ZN8KConsole6inBuffE:
 1121 0000 00000000 		.zero	8
 1121      00000000 
 1124              	_ZN8KConsole7outBuffE:
 1125 0008 00000000 		.zero	8
 1125      00000000 
 1126              		.text
 1127              	.Letext0:
 1128              		.file 5 "src/../h/../lib/hw.h"
GAS LISTING /tmp/cc0OjXQ1.s 			page 27


 1129              		.file 6 "src/../h/../h/KMemoryAllocator.hpp"
 1130              		.file 7 "src/../h/KScheduler.hpp"
 5377              		.align	3
 5380              	DW.ref.__gxx_personality_v0:
 5381 0000 00000000 		.dword	__gxx_personality_v0
 5381      00000000 
 5382              		.ident	"GCC: (Ubuntu 9.4.0-1ubuntu1~20.04) 9.4.0"
 5383              		.section	.note.GNU-stack,"",@progbits
GAS LISTING /tmp/cc0OjXQ1.s 			page 28

