GAS LISTING /tmp/ccFM9BIj.s 			page 1


   1              		.file	"KPCB.cpp"
   2              		.option pic
   3              		.option norelax
   4              		.text
   5              	.Ltext0:
   6              		.align	2
   7              		.globl	_ZN4KPCB5yieldEv
   9              	_ZN4KPCB5yieldEv:
  10              	.LFB33:
  11              		.file 1 "src/KPCB.cpp"
   1:src/KPCB.cpp  **** //
   2:src/KPCB.cpp  **** // Created by os on 6/22/22.
   3:src/KPCB.cpp  **** //
   4:src/KPCB.cpp  **** 
   5:src/KPCB.cpp  **** #include "../h/KPCB.hpp"
   6:src/KPCB.cpp  **** #include "../h/KRiscv.hpp"
   7:src/KPCB.cpp  **** 
   8:src/KPCB.cpp  **** KPCB* KPCB::running = nullptr;
   9:src/KPCB.cpp  **** int KPCB::counter = 0;
  10:src/KPCB.cpp  **** int KPCB::statID = 0;
  11:src/KPCB.cpp  **** time_t KPCB::timeSliceCounter = 0;
  12:src/KPCB.cpp  **** 
  13:src/KPCB.cpp  **** void KPCB::yield() {
  12              		.loc 1 13 20
  13              		.cfi_startproc
  14 0000 130101FF 		addi	sp,sp,-16
  15              		.cfi_def_cfa_offset 16
  16 0004 23348100 		sd	s0,8(sp)
  17              		.cfi_offset 8, -8
  18 0008 13040101 		addi	s0,sp,16
  19              		.cfi_def_cfa 8, 0
  14:src/KPCB.cpp  ****     asm volatile ("li a0, 0x13");
  20              		.loc 1 14 5
  21              		.loc 1 14 33 is_stmt 0
  22              	#APP
  23              	# 14 "src/KPCB.cpp" 1
  15              	    asm volatile ("ecall");
  24              		li a0, 0x13
  25              	# 0 "" 2
  26              		.loc 1 15 5 is_stmt 1
  27              		.loc 1 15 27 is_stmt 0
  28              	# 15 "src/KPCB.cpp" 1
  16              	}
  29              		ecall
  30              	# 0 "" 2
  31              		.loc 1 16 1
  32              	#NO_APP
  33 0014 03348100 		ld	s0,8(sp)
  34              		.cfi_restore 8
  35              		.cfi_def_cfa 2, 16
  36 0018 13010101 		addi	sp,sp,16
  37              		.cfi_def_cfa_offset 0
  38 001c 67800000 		jr	ra
  39              		.cfi_endproc
  40              	.LFE33:
  42              		.align	2
  43              		.globl	_ZN4KPCB13threadWrapperEv
GAS LISTING /tmp/ccFM9BIj.s 			page 2


  45              	_ZN4KPCB13threadWrapperEv:
  46              	.LFB37:
  17:src/KPCB.cpp  **** 
  18:src/KPCB.cpp  **** void KPCB::dispatch() {
  19:src/KPCB.cpp  ****     KPCB* old = running;
  20:src/KPCB.cpp  ****     if (!old->isFinished() && !old->isWaiting() && !old->isErr() && !old->isSleeping()) KScheduler:
  21:src/KPCB.cpp  ****     running = KScheduler::get();
  22:src/KPCB.cpp  ****     KPCB::timeSliceCounter = 0;
  23:src/KPCB.cpp  **** 
  24:src/KPCB.cpp  ****     /*if (old->isFinished()) {
  25:src/KPCB.cpp  ****         delete old; Context c;
  26:src/KPCB.cpp  ****         KPCB::contextSwitch(&c, &running->context);
  27:src/KPCB.cpp  ****     }
  28:src/KPCB.cpp  ****     else*/ if (running != old) KPCB::contextSwitch(&old->context, &running->context);
  29:src/KPCB.cpp  **** }
  30:src/KPCB.cpp  **** 
  31:src/KPCB.cpp  **** KPCB *KPCB::createThread(KPCB::Body body, void* args, void* stek) {
  32:src/KPCB.cpp  ****     return new KPCB(body, args, stek);
  33:src/KPCB.cpp  **** }
  34:src/KPCB.cpp  **** 
  35:src/KPCB.cpp  **** KPCB *KPCB::createThread(KPCB::Body body) {
  36:src/KPCB.cpp  ****     return new KPCB(body);
  37:src/KPCB.cpp  **** }
  38:src/KPCB.cpp  **** 
  39:src/KPCB.cpp  **** void KPCB::threadWrapper() {
  47              		.loc 1 39 28 is_stmt 1
  48              		.cfi_startproc
  49 0020 130101FE 		addi	sp,sp,-32
  50              		.cfi_def_cfa_offset 32
  51 0024 233C1100 		sd	ra,24(sp)
  52 0028 23388100 		sd	s0,16(sp)
  53 002c 23349100 		sd	s1,8(sp)
  54              		.cfi_offset 1, -8
  55              		.cfi_offset 8, -16
  56              		.cfi_offset 9, -24
  57 0030 13040102 		addi	s0,sp,32
  58              		.cfi_def_cfa 8, 0
  40:src/KPCB.cpp  ****     KRiscv::popSppSpie();
  59              		.loc 1 40 5
  60              		.loc 1 40 23 is_stmt 0
  61 0034 97000000 		call	_ZN6KRiscv10popSppSpieEv@plt
  61      E7800000 
  62              	.LVL0:
  41:src/KPCB.cpp  ****     running->body(running->args);
  63              		.loc 1 41 5 is_stmt 1
  64              		.loc 1 41 14 is_stmt 0
  65 003c 97040000 		lla	s1,.LANCHOR0
  65      93840400 
  66 0044 83B70400 		ld	a5,0(s1)
  67 0048 03B70700 		ld	a4,0(a5)
  68              		.loc 1 41 18
  69 004c 03B50701 		ld	a0,16(a5)
  70 0050 E7000700 		jalr	a4
  71              	.LVL1:
  42:src/KPCB.cpp  ****     running->setFinished(true);
  72              		.loc 1 42 5 is_stmt 1
  73              		.loc 1 42 25 is_stmt 0
GAS LISTING /tmp/ccFM9BIj.s 			page 3


  74 0054 83B70400 		ld	a5,0(s1)
  75              	.LVL2:
  76              	.LBB18:
  77              	.LBB19:
  78              		.file 2 "src/../h/KPCB.hpp"
   1:src/../h/KPCB.hpp **** //
   2:src/../h/KPCB.hpp **** // Created by os on 6/22/22.
   3:src/../h/KPCB.hpp **** //
   4:src/../h/KPCB.hpp **** 
   5:src/../h/KPCB.hpp **** #ifndef PROJECT_BASE_V1_1_KPCB_HPP
   6:src/../h/KPCB.hpp **** #define PROJECT_BASE_V1_1_KPCB_HPP
   7:src/../h/KPCB.hpp **** 
   8:src/../h/KPCB.hpp **** #include "../lib/hw.h"
   9:src/../h/KPCB.hpp **** #include "../lib/mem.h"
  10:src/../h/KPCB.hpp **** #include "KScheduler.hpp"
  11:src/../h/KPCB.hpp **** #include "KMemoryAllocator.hpp"
  12:src/../h/KPCB.hpp **** 
  13:src/../h/KPCB.hpp **** class KPCB {
  14:src/../h/KPCB.hpp **** public:
  15:src/../h/KPCB.hpp ****     ~KPCB() { delete[] stack; }
  16:src/../h/KPCB.hpp ****     friend class KScheduler;
  17:src/../h/KPCB.hpp ****     friend class KSemaphore;
  18:src/../h/KPCB.hpp ****     friend class KRiscv;
  19:src/../h/KPCB.hpp ****     friend class KSleep;
  20:src/../h/KPCB.hpp **** 
  21:src/../h/KPCB.hpp ****     void* operator new(size_t size) {
  22:src/../h/KPCB.hpp ****         size_t sizeBlock = (size + 16) / MEM_BLOCK_SIZE + ((size + 16) % MEM_BLOCK_SIZE ? 1 : 0);
  23:src/../h/KPCB.hpp ****         return KMemoryAllocator::mem_alloc(sizeBlock);
  24:src/../h/KPCB.hpp ****         //return __mem_alloc(size);
  25:src/../h/KPCB.hpp ****     }
  26:src/../h/KPCB.hpp ****     void* operator new[](size_t size) {
  27:src/../h/KPCB.hpp ****         size_t sizeBlock = (size + 16) / MEM_BLOCK_SIZE + ((size + 16) % MEM_BLOCK_SIZE ? 1 : 0);
  28:src/../h/KPCB.hpp ****         return KMemoryAllocator::mem_alloc(sizeBlock);
  29:src/../h/KPCB.hpp ****         //return __mem_alloc(size);
  30:src/../h/KPCB.hpp ****     }
  31:src/../h/KPCB.hpp ****     void operator delete(void* addr) {
  32:src/../h/KPCB.hpp ****         KMemoryAllocator::mem_free(addr);
  33:src/../h/KPCB.hpp ****         //__mem_free(addr);
  34:src/../h/KPCB.hpp ****     }
  35:src/../h/KPCB.hpp ****     void operator delete[](void* addr) {
  36:src/../h/KPCB.hpp ****         KMemoryAllocator::mem_free(addr);
  37:src/../h/KPCB.hpp ****         //__mem_free(addr);
  38:src/../h/KPCB.hpp ****     }
  39:src/../h/KPCB.hpp **** 
  40:src/../h/KPCB.hpp ****     using Body = void (*)(void*);
  41:src/../h/KPCB.hpp ****     static KPCB* createThread(Body body, void* args, void* stek);
  42:src/../h/KPCB.hpp ****     static KPCB* createThread(Body body);
  43:src/../h/KPCB.hpp ****     static void yield();
  44:src/../h/KPCB.hpp ****     static void dispatch();
  45:src/../h/KPCB.hpp ****     static KPCB* running;
  46:src/../h/KPCB.hpp ****     static int counter;
  47:src/../h/KPCB.hpp ****     static int statID;
  48:src/../h/KPCB.hpp **** 
  49:src/../h/KPCB.hpp ****     bool isFinished() const { return finished; }
  50:src/../h/KPCB.hpp ****     bool isSleeping() const { return sleeping; }
  51:src/../h/KPCB.hpp ****     bool isWaiting() const { return waiting; }
  52:src/../h/KPCB.hpp ****     bool isErr() const { return err; }
GAS LISTING /tmp/ccFM9BIj.s 			page 4


  53:src/../h/KPCB.hpp ****     void setFinished(bool val) {
  54:src/../h/KPCB.hpp ****         if (finished) return;
  79              		.loc 2 54 9 is_stmt 1
  80              		.loc 2 54 13 is_stmt 0
  81 0058 03C70703 		lbu	a4,48(a5)
  82              		.loc 2 54 9
  83 005c 631C0700 		bnez	a4,.L4
  55:src/../h/KPCB.hpp ****         finished = val;
  84              		.loc 2 55 9 is_stmt 1
  85              		.loc 2 55 18 is_stmt 0
  86 0060 13071000 		li	a4,1
  87 0064 2388E702 		sb	a4,48(a5)
  56:src/../h/KPCB.hpp ****         counter--;
  88              		.loc 2 56 9 is_stmt 1
  89              		.loc 2 56 16 is_stmt 0
  90 0068 83A78400 		lw	a5,8(s1)
  91              	.LVL3:
  92 006c 9B87F7FF 		addiw	a5,a5,-1
  93 0070 23A4F400 		sw	a5,8(s1)
  94              	.L4:
  95              	.LVL4:
  96              	.LBE19:
  97              	.LBE18:
  43:src/KPCB.cpp  ****     KPCB::yield();
  98              		.loc 1 43 5 is_stmt 1
  99              		.loc 1 43 16 is_stmt 0
 100 0074 97000000 		call	_ZN4KPCB5yieldEv
 100      E7800000 
 101              	.LVL5:
  44:src/KPCB.cpp  **** }
 102              		.loc 1 44 1
 103 007c 83308101 		ld	ra,24(sp)
 104              		.cfi_restore 1
 105 0080 03340101 		ld	s0,16(sp)
 106              		.cfi_restore 8
 107              		.cfi_def_cfa 2, 32
 108 0084 83348100 		ld	s1,8(sp)
 109              		.cfi_restore 9
 110 0088 13010102 		addi	sp,sp,32
 111              		.cfi_def_cfa_offset 0
 112 008c 67800000 		jr	ra
 113              		.cfi_endproc
 114              	.LFE37:
 116              		.align	2
 117              		.globl	_ZN4KPCB8dispatchEv
 119              	_ZN4KPCB8dispatchEv:
 120              	.LFB34:
  18:src/KPCB.cpp  ****     KPCB* old = running;
 121              		.loc 1 18 23 is_stmt 1
 122              		.cfi_startproc
 123 0090 130101FE 		addi	sp,sp,-32
 124              		.cfi_def_cfa_offset 32
 125 0094 233C1100 		sd	ra,24(sp)
 126 0098 23388100 		sd	s0,16(sp)
 127 009c 23349100 		sd	s1,8(sp)
 128              		.cfi_offset 1, -8
 129              		.cfi_offset 8, -16
GAS LISTING /tmp/ccFM9BIj.s 			page 5


 130              		.cfi_offset 9, -24
 131 00a0 13040102 		addi	s0,sp,32
 132              		.cfi_def_cfa 8, 0
  19:src/KPCB.cpp  ****     if (!old->isFinished() && !old->isWaiting() && !old->isErr() && !old->isSleeping()) KScheduler:
 133              		.loc 1 19 5
  19:src/KPCB.cpp  ****     if (!old->isFinished() && !old->isWaiting() && !old->isErr() && !old->isSleeping()) KScheduler:
 134              		.loc 1 19 11 is_stmt 0
 135 00a4 97040000 		ld	s1,.LANCHOR0
 135      83B40400 
 136              	.LVL6:
  20:src/KPCB.cpp  ****     running = KScheduler::get();
 137              		.loc 1 20 5 is_stmt 1
 138              	.LBB20:
 139              	.LBB21:
  49:src/../h/KPCB.hpp ****     bool isSleeping() const { return sleeping; }
 140              		.loc 2 49 31
  49:src/../h/KPCB.hpp ****     bool isSleeping() const { return sleeping; }
 141              		.loc 2 49 38 is_stmt 0
 142 00ac 83C70403 		lbu	a5,48(s1)
 143              	.LVL7:
 144              	.LBE21:
 145              	.LBE20:
  20:src/KPCB.cpp  ****     running = KScheduler::get();
 146              		.loc 1 20 66
 147 00b0 639E0700 		bnez	a5,.L7
 148              	.LVL8:
 149              	.LBB22:
 150              	.LBB23:
  51:src/../h/KPCB.hpp ****     bool isErr() const { return err; }
 151              		.loc 2 51 30 is_stmt 1
  51:src/../h/KPCB.hpp ****     bool isErr() const { return err; }
 152              		.loc 2 51 37 is_stmt 0
 153 00b4 83C72403 		lbu	a5,50(s1)
 154              	.LVL9:
 155              	.LBE23:
 156              	.LBE22:
  20:src/KPCB.cpp  ****     running = KScheduler::get();
 157              		.loc 1 20 28
 158 00b8 639A0700 		bnez	a5,.L7
 159              	.LVL10:
 160              	.LBB24:
 161              	.LBB25:
  52:src/../h/KPCB.hpp ****     void setFinished(bool val) {
 162              		.loc 2 52 26 is_stmt 1
  52:src/../h/KPCB.hpp ****     void setFinished(bool val) {
 163              		.loc 2 52 33 is_stmt 0
 164 00bc 83C73403 		lbu	a5,51(s1)
 165              	.LVL11:
 166              	.LBE25:
 167              	.LBE24:
  20:src/KPCB.cpp  ****     running = KScheduler::get();
 168              		.loc 1 20 49
 169 00c0 63960700 		bnez	a5,.L7
 170              	.LVL12:
 171              	.LBB26:
 172              	.LBB27:
  50:src/../h/KPCB.hpp ****     bool isWaiting() const { return waiting; }
GAS LISTING /tmp/ccFM9BIj.s 			page 6


 173              		.loc 2 50 31 is_stmt 1
  50:src/../h/KPCB.hpp ****     bool isWaiting() const { return waiting; }
 174              		.loc 2 50 38 is_stmt 0
 175 00c4 83C71403 		lbu	a5,49(s1)
 176              	.LVL13:
 177              	.LBE27:
 178              	.LBE26:
  20:src/KPCB.cpp  ****     running = KScheduler::get();
 179              		.loc 1 20 66
 180 00c8 63820704 		beqz	a5,.L10
 181              	.L7:
  21:src/KPCB.cpp  ****     KPCB::timeSliceCounter = 0;
 182              		.loc 1 21 5 is_stmt 1
  21:src/KPCB.cpp  ****     KPCB::timeSliceCounter = 0;
 183              		.loc 1 21 30 is_stmt 0
 184 00cc 97000000 		call	_ZN10KScheduler3getEv@plt
 184      E7800000 
 185              	.LVL14:
  21:src/KPCB.cpp  ****     KPCB::timeSliceCounter = 0;
 186              		.loc 1 21 13
 187 00d4 97070000 		lla	a5,.LANCHOR0
 187      93870700 
 188 00dc 23B0A700 		sd	a0,0(a5)
  22:src/KPCB.cpp  **** 
 189              		.loc 1 22 5 is_stmt 1
  22:src/KPCB.cpp  **** 
 190              		.loc 1 22 28 is_stmt 0
 191 00e0 23B80700 		sd	zero,16(a5)
  28:src/KPCB.cpp  **** }
 192              		.loc 1 28 12 is_stmt 1
 193 00e4 638AA400 		beq	s1,a0,.L6
  28:src/KPCB.cpp  **** }
 194              		.loc 1 28 32 discriminator 1
  28:src/KPCB.cpp  **** }
 195              		.loc 1 28 51 is_stmt 0 discriminator 1
 196 00e8 93050502 		addi	a1,a0,32
 197 00ec 13850402 		addi	a0,s1,32
 198 00f0 97000000 		call	_ZN4KPCB13contextSwitchEPNS_7ContextES1_@plt
 198      E7800000 
 199              	.LVL15:
 200              	.L6:
  29:src/KPCB.cpp  **** 
 201              		.loc 1 29 1
 202 00f8 83308101 		ld	ra,24(sp)
 203              		.cfi_remember_state
 204              		.cfi_restore 1
 205 00fc 03340101 		ld	s0,16(sp)
 206              		.cfi_restore 8
 207              		.cfi_def_cfa 2, 32
 208 0100 83348100 		ld	s1,8(sp)
 209              		.cfi_restore 9
 210              	.LVL16:
 211 0104 13010102 		addi	sp,sp,32
 212              		.cfi_def_cfa_offset 0
 213 0108 67800000 		jr	ra
 214              	.LVL17:
 215              	.L10:
GAS LISTING /tmp/ccFM9BIj.s 			page 7


 216              		.cfi_restore_state
  20:src/KPCB.cpp  ****     running = KScheduler::get();
 217              		.loc 1 20 89 is_stmt 1
  20:src/KPCB.cpp  ****     running = KScheduler::get();
 218              		.loc 1 20 104 is_stmt 0
 219 010c 13850400 		mv	a0,s1
 220 0110 97000000 		call	_ZN10KScheduler3putEP4KPCB@plt
 220      E7800000 
 221              	.LVL18:
 222 0118 6FF05FFB 		j	.L7
 223              		.cfi_endproc
 224              	.LFE34:
 226              		.align	2
 227              		.globl	_ZN4KPCBC2EPFvPvES0_S0_
 229              	_ZN4KPCBC2EPFvPvES0_S0_:
 230              	.LFB39:
  45:src/KPCB.cpp  **** 
  46:src/KPCB.cpp  **** KPCB::KPCB(Body body, void* args, void* stek) :
 231              		.loc 1 46 1 is_stmt 1
 232              		.cfi_startproc
 233              	.LVL19:
 234 011c 130101FF 		addi	sp,sp,-16
 235              		.cfi_def_cfa_offset 16
 236 0120 23348100 		sd	s0,8(sp)
 237              		.cfi_offset 8, -8
 238 0124 13040101 		addi	s0,sp,16
 239              		.cfi_def_cfa 8, 0
 240              	.LBB28:
  47:src/KPCB.cpp  ****     body(body), ID(statID++), args(args), stack(body != nullptr ? (uint64*)stek : nullptr),
  48:src/KPCB.cpp  ****     context({body != nullptr ? /*(uint64)body*/ (uint64)&threadWrapper : 0, stack != nullptr ? (uin
 241              		.loc 1 48 127 is_stmt 0
 242 0128 2330B500 		sd	a1,0(a0)
  47:src/KPCB.cpp  ****     body(body), ID(statID++), args(args), stack(body != nullptr ? (uint64*)stek : nullptr),
 243              		.loc 1 47 26
 244 012c 17070000 		lla	a4,.LANCHOR0
 244      13070700 
 245 0134 83278701 		lw	a5,24(a4)
 246 0138 1B881700 		addiw	a6,a5,1
 247 013c 232C0701 		sw	a6,24(a4)
 248              		.loc 1 48 127
 249 0140 2324F500 		sw	a5,8(a0)
 250 0144 2338C500 		sd	a2,16(a0)
  47:src/KPCB.cpp  ****     body(body), ID(statID++), args(args), stack(body != nullptr ? (uint64*)stek : nullptr),
 251              		.loc 1 47 65
 252 0148 63880506 		beqz	a1,.L20
 253              	.LVL20:
 254              	.L12:
 255              		.loc 1 48 127
 256 014c 233CD500 		sd	a3,24(a0)
 257              		.loc 1 48 30
 258 0150 63880506 		beqz	a1,.L17
 259              		.loc 1 48 30 discriminator 1
 260 0154 97070000 		lla	a5,_ZN4KPCB13threadWrapperEv
 260      93870700 
 261              	.L13:
 262              		.loc 1 48 127 discriminator 4
 263 015c 2330F502 		sd	a5,32(a0)
GAS LISTING /tmp/ccFM9BIj.s 			page 8


 264              		.loc 1 48 94 discriminator 4
 265 0160 63840606 		beqz	a3,.L18
 266              		.loc 1 48 104 discriminator 5
 267 0164 B7070100 		li	a5,65536
 268 0168 B386F600 		add	a3,a3,a5
 269              	.L14:
 270              		.loc 1 48 127 discriminator 8
 271 016c 2334D502 		sd	a3,40(a0)
 272 0170 23080502 		sb	zero,48(a0)
 273 0174 A3080502 		sb	zero,49(a0)
 274 0178 23090502 		sb	zero,50(a0)
 275 017c A3090502 		sb	zero,51(a0)
 276 0180 230A0502 		sb	zero,52(a0)
 277 0184 233C0502 		sd	zero,56(a0)
 278 0188 23300504 		sd	zero,64(a0)
 279 018c 23340504 		sd	zero,72(a0)
 280 0190 23380504 		sd	zero,80(a0)
  49:src/KPCB.cpp  ****     {
  50:src/KPCB.cpp  ****         if (body != nullptr) {
 281              		.loc 1 50 9 is_stmt 1 discriminator 8
 282 0194 638C0500 		beqz	a1,.L11
  51:src/KPCB.cpp  ****             //KScheduler::put(this);
  52:src/KPCB.cpp  ****             counter++;
 283              		.loc 1 52 13
 284              		.loc 1 52 20 is_stmt 0
 285 0198 17070000 		lla	a4,.LANCHOR0
 285      13070700 
 286 01a0 83278700 		lw	a5,8(a4)
 287 01a4 9B871700 		addiw	a5,a5,1
 288 01a8 2324F700 		sw	a5,8(a4)
 289              	.L11:
 290              	.LBE28:
  53:src/KPCB.cpp  ****         }
  54:src/KPCB.cpp  ****     }
 291              		.loc 1 54 5
 292 01ac 03348100 		ld	s0,8(sp)
 293              		.cfi_remember_state
 294              		.cfi_restore 8
 295              		.cfi_def_cfa 2, 16
 296 01b0 13010101 		addi	sp,sp,16
 297              		.cfi_def_cfa_offset 0
 298 01b4 67800000 		jr	ra
 299              	.LVL21:
 300              	.L20:
 301              		.cfi_restore_state
 302              	.LBB29:
  47:src/KPCB.cpp  ****     context({body != nullptr ? /*(uint64)body*/ (uint64)&threadWrapper : 0, stack != nullptr ? (uin
 303              		.loc 1 47 65
 304 01b8 93060000 		li	a3,0
 305              	.LVL22:
 306 01bc 6FF01FF9 		j	.L12
 307              	.L17:
  48:src/KPCB.cpp  ****     {
 308              		.loc 1 48 30
 309 01c0 93070000 		li	a5,0
 310 01c4 6FF09FF9 		j	.L13
 311              	.L18:
GAS LISTING /tmp/ccFM9BIj.s 			page 9


  48:src/KPCB.cpp  ****     {
 312              		.loc 1 48 94
 313 01c8 93060000 		li	a3,0
 314 01cc 6FF01FFA 		j	.L14
 315              	.LBE29:
 316              		.cfi_endproc
 317              	.LFE39:
 319              		.globl	_ZN4KPCBC1EPFvPvES0_S0_
 320              		.set	_ZN4KPCBC1EPFvPvES0_S0_,_ZN4KPCBC2EPFvPvES0_S0_
 321              		.align	2
 322              		.globl	_ZN4KPCB12createThreadEPFvPvES0_S0_
 324              	_ZN4KPCB12createThreadEPFvPvES0_S0_:
 325              	.LFB35:
  31:src/KPCB.cpp  ****     return new KPCB(body, args, stek);
 326              		.loc 1 31 67 is_stmt 1
 327              		.cfi_startproc
 328              	.LVL23:
 329 01d0 130101FD 		addi	sp,sp,-48
 330              		.cfi_def_cfa_offset 48
 331 01d4 23341102 		sd	ra,40(sp)
 332 01d8 23308102 		sd	s0,32(sp)
 333 01dc 233C9100 		sd	s1,24(sp)
 334 01e0 23382101 		sd	s2,16(sp)
 335 01e4 23343101 		sd	s3,8(sp)
 336 01e8 23304101 		sd	s4,0(sp)
 337              		.cfi_offset 1, -8
 338              		.cfi_offset 8, -16
 339              		.cfi_offset 9, -24
 340              		.cfi_offset 18, -32
 341              		.cfi_offset 19, -40
 342              		.cfi_offset 20, -48
 343 01ec 13040103 		addi	s0,sp,48
 344              		.cfi_def_cfa 8, 0
 345 01f0 13090500 		mv	s2,a0
 346 01f4 93890500 		mv	s3,a1
 347 01f8 130A0600 		mv	s4,a2
  32:src/KPCB.cpp  **** }
 348              		.loc 1 32 5
 349              	.LVL24:
 350              	.LBB30:
 351              	.LBB31:
  22:src/../h/KPCB.hpp ****         return KMemoryAllocator::mem_alloc(sizeBlock);
 352              		.loc 2 22 9
  23:src/../h/KPCB.hpp ****         //return __mem_alloc(size);
 353              		.loc 2 23 9
  23:src/../h/KPCB.hpp ****         //return __mem_alloc(size);
 354              		.loc 2 23 43 is_stmt 0
 355 01fc 13052000 		li	a0,2
 356              	.LVL25:
 357 0200 97000000 		call	_ZN16KMemoryAllocator9mem_allocEm@plt
 357      E7800000 
 358              	.LVL26:
 359 0208 93040500 		mv	s1,a0
 360              	.LVL27:
 361              	.LBE31:
 362              	.LBE30:
  32:src/KPCB.cpp  **** }
GAS LISTING /tmp/ccFM9BIj.s 			page 10


 363              		.loc 1 32 37
 364 020c 93060A00 		mv	a3,s4
 365 0210 13860900 		mv	a2,s3
 366 0214 93050900 		mv	a1,s2
 367 0218 97000000 		call	_ZN4KPCBC1EPFvPvES0_S0_
 367      E7800000 
 368              	.LVL28:
  33:src/KPCB.cpp  **** 
 369              		.loc 1 33 1
 370 0220 13850400 		mv	a0,s1
 371 0224 83308102 		ld	ra,40(sp)
 372              		.cfi_restore 1
 373 0228 03340102 		ld	s0,32(sp)
 374              		.cfi_restore 8
 375              		.cfi_def_cfa 2, 48
 376 022c 83348101 		ld	s1,24(sp)
 377              		.cfi_restore 9
 378 0230 03390101 		ld	s2,16(sp)
 379              		.cfi_restore 18
 380              	.LVL29:
 381 0234 83398100 		ld	s3,8(sp)
 382              		.cfi_restore 19
 383              	.LVL30:
 384 0238 033A0100 		ld	s4,0(sp)
 385              		.cfi_restore 20
 386              	.LVL31:
 387 023c 13010103 		addi	sp,sp,48
 388              		.cfi_def_cfa_offset 0
 389 0240 67800000 		jr	ra
 390              		.cfi_endproc
 391              	.LFE35:
 393              		.align	2
 394              		.globl	_ZN4KPCBC2EPFvPvE
 396              	_ZN4KPCBC2EPFvPvE:
 397              	.LFB42:
  55:src/KPCB.cpp  **** 
  56:src/KPCB.cpp  **** KPCB::KPCB(Body body) :
 398              		.loc 1 56 1 is_stmt 1
 399              		.cfi_startproc
 400              	.LVL32:
 401 0244 130101FE 		addi	sp,sp,-32
 402              		.cfi_def_cfa_offset 32
 403 0248 233C1100 		sd	ra,24(sp)
 404 024c 23388100 		sd	s0,16(sp)
 405 0250 23349100 		sd	s1,8(sp)
 406 0254 23302101 		sd	s2,0(sp)
 407              		.cfi_offset 1, -8
 408              		.cfi_offset 8, -16
 409              		.cfi_offset 9, -24
 410              		.cfi_offset 18, -32
 411 0258 13040102 		addi	s0,sp,32
 412              		.cfi_def_cfa 8, 0
 413 025c 93040500 		mv	s1,a0
 414 0260 13890500 		mv	s2,a1
 415              	.LBB32:
  57:src/KPCB.cpp  ****     body(body), ID(statID++), args(nullptr), stack(body != nullptr ? new uint64[STACK_SIZE]: nullpt
  58:src/KPCB.cpp  ****     context({body != nullptr ? /*(uint64)body*/ (uint64)&threadWrapper : 0, stack != nullptr ? (uin
GAS LISTING /tmp/ccFM9BIj.s 			page 11


 416              		.loc 1 58 127 is_stmt 0
 417 0264 2330B500 		sd	a1,0(a0)
  57:src/KPCB.cpp  ****     body(body), ID(statID++), args(nullptr), stack(body != nullptr ? new uint64[STACK_SIZE]: nullpt
 418              		.loc 1 57 26
 419 0268 17070000 		lla	a4,.LANCHOR0
 419      13070700 
 420 0270 83278701 		lw	a5,24(a4)
 421 0274 9B861700 		addiw	a3,a5,1
 422 0278 232CD700 		sw	a3,24(a4)
 423              		.loc 1 58 127
 424 027c 2324F500 		sw	a5,8(a0)
 425 0280 23380500 		sd	zero,16(a0)
  57:src/KPCB.cpp  ****     body(body), ID(statID++), args(nullptr), stack(body != nullptr ? new uint64[STACK_SIZE]: nullpt
 426              		.loc 1 57 68
 427 0284 63840508 		beqz	a1,.L28
  57:src/KPCB.cpp  ****     body(body), ID(statID++), args(nullptr), stack(body != nullptr ? new uint64[STACK_SIZE]: nullpt
 428              		.loc 1 57 91 discriminator 1
 429 0288 37050100 		li	a0,65536
 430              	.LVL33:
 431 028c 97000000 		call	_Znam@plt
 431      E7800000 
 432              	.LVL34:
 433              	.L24:
 434              		.loc 1 58 127
 435 0294 23BCA400 		sd	a0,24(s1)
 436              		.loc 1 58 30
 437 0298 630E0906 		beqz	s2,.L29
 438              		.loc 1 58 30 discriminator 1
 439 029c 97070000 		lla	a5,_ZN4KPCB13threadWrapperEv
 439      93870700 
 440              	.L25:
 441              		.loc 1 58 127 discriminator 4
 442 02a4 23B0F402 		sd	a5,32(s1)
 443              		.loc 1 58 94 discriminator 4
 444 02a8 630A0506 		beqz	a0,.L30
 445              		.loc 1 58 104 discriminator 5
 446 02ac B7070100 		li	a5,65536
 447 02b0 3305F500 		add	a0,a0,a5
 448              	.L26:
 449              		.loc 1 58 127 discriminator 8
 450 02b4 23B4A402 		sd	a0,40(s1)
 451 02b8 23880402 		sb	zero,48(s1)
 452 02bc A3880402 		sb	zero,49(s1)
 453 02c0 23890402 		sb	zero,50(s1)
 454 02c4 A3890402 		sb	zero,51(s1)
 455 02c8 238A0402 		sb	zero,52(s1)
 456 02cc 23BC0402 		sd	zero,56(s1)
 457 02d0 23B00404 		sd	zero,64(s1)
 458 02d4 23B40404 		sd	zero,72(s1)
 459 02d8 23B80404 		sd	zero,80(s1)
  59:src/KPCB.cpp  ****     {
  60:src/KPCB.cpp  ****         if (body != nullptr) {
 460              		.loc 1 60 9 is_stmt 1 discriminator 8
 461 02dc 630C0900 		beqz	s2,.L23
  61:src/KPCB.cpp  ****             //KScheduler::put(this);
  62:src/KPCB.cpp  ****             counter++;
 462              		.loc 1 62 13
GAS LISTING /tmp/ccFM9BIj.s 			page 12


 463              		.loc 1 62 20 is_stmt 0
 464 02e0 17070000 		lla	a4,.LANCHOR0
 464      13070700 
 465 02e8 83278700 		lw	a5,8(a4)
 466 02ec 9B871700 		addiw	a5,a5,1
 467 02f0 2324F700 		sw	a5,8(a4)
 468              	.L23:
 469              	.LBE32:
  63:src/KPCB.cpp  ****         }
  64:src/KPCB.cpp  ****     }...
 470              		.loc 1 64 5
 471 02f4 83308101 		ld	ra,24(sp)
 472              		.cfi_remember_state
 473              		.cfi_restore 1
 474 02f8 03340101 		ld	s0,16(sp)
 475              		.cfi_restore 8
 476              		.cfi_def_cfa 2, 32
 477 02fc 83348100 		ld	s1,8(sp)
 478              		.cfi_restore 9
 479              	.LVL35:
 480 0300 03390100 		ld	s2,0(sp)
 481              		.cfi_restore 18
 482              	.LVL36:
 483 0304 13010102 		addi	sp,sp,32
 484              		.cfi_def_cfa_offset 0
 485 0308 67800000 		jr	ra
 486              	.LVL37:
 487              	.L28:
 488              		.cfi_restore_state
 489              	.LBB33:
  57:src/KPCB.cpp  ****     body(body), ID(statID++), args(nullptr), stack(body != nullptr ? new uint64[STACK_SIZE]: nullpt
 490              		.loc 1 57 68
 491 030c 13050000 		li	a0,0
 492 0310 6FF05FF8 		j	.L24
 493              	.LVL38:
 494              	.L29:
  58:src/KPCB.cpp  ****     context({body != nullptr ? /*(uint64)body*/ (uint64)&threadWrapper : 0, stack != nullptr ? (uin
 495              		.loc 1 58 30
 496 0314 93070000 		li	a5,0
 497 0318 6FF0DFF8 		j	.L25
 498              	.L30:
  58:src/KPCB.cpp  ****     context({body != nullptr ? /*(uint64)body*/ (uint64)&threadWrapper : 0, stack != nullptr ? (uin
 499              		.loc 1 58 94
 500 031c 13050000 		li	a0,0
 501 0320 6FF05FF9 		j	.L26
 502              	.LBE33:
 503              		.cfi_endproc
 504              	.LFE42:
 506              		.globl	_ZN4KPCBC1EPFvPvE
 507              		.set	_ZN4KPCBC1EPFvPvE,_ZN4KPCBC2EPFvPvE
 508              		.align	2
 509              		.globl	_ZN4KPCB12createThreadEPFvPvE
 511              	_ZN4KPCB12createThreadEPFvPvE:
 512              	.LFB36:
  35:src/KPCB.cpp  **** KPCB *KPCB::createThread(KPCB::Body body) {
 513              		.loc 1 35 43 is_stmt 1
 514              		.cfi_startproc
GAS LISTING /tmp/ccFM9BIj.s 			page 13


 515              		.cfi_personality 0x9b,DW.ref.__gxx_personality_v0
 516              		.cfi_lsda 0x1b,.LLSDA36
 517              	.LVL39:
 518 0324 130101FE 		addi	sp,sp,-32
 519              		.cfi_def_cfa_offset 32
 520 0328 233C1100 		sd	ra,24(sp)
 521 032c 23388100 		sd	s0,16(sp)
 522 0330 23349100 		sd	s1,8(sp)
 523 0334 23302101 		sd	s2,0(sp)
 524              		.cfi_offset 1, -8
 525              		.cfi_offset 8, -16
 526              		.cfi_offset 9, -24
 527              		.cfi_offset 18, -32
 528 0338 13040102 		addi	s0,sp,32
 529              		.cfi_def_cfa 8, 0
 530 033c 13090500 		mv	s2,a0
  36:src/KPCB.cpp  ****     return new KPCB(body);
 531              		.loc 1 36 5
 532              	.LVL40:
 533              	.LBB34:
 534              	.LBB35:
  22:src/../h/KPCB.hpp ****         return KMemoryAllocator::mem_alloc(sizeBlock);
 535              		.loc 2 22 9
  23:src/../h/KPCB.hpp ****         //return __mem_alloc(size);
 536              		.loc 2 23 9
  23:src/../h/KPCB.hpp ****         //return __mem_alloc(size);
 537              		.loc 2 23 43 is_stmt 0
 538 0340 13052000 		li	a0,2
 539              	.LVL41:
 540              	.LEHB0:
 541 0344 97000000 		call	_ZN16KMemoryAllocator9mem_allocEm@plt
 541      E7800000 
 542              	.LVL42:
 543              	.LEHE0:
 544 034c 93040500 		mv	s1,a0
 545              	.LVL43:
 546              	.LBE35:
 547              	.LBE34:
  36:src/KPCB.cpp  ****     return new KPCB(body);
 548              		.loc 1 36 25
 549 0350 93050900 		mv	a1,s2
 550              	.LEHB1:
 551 0354 97000000 		call	_ZN4KPCBC1EPFvPvE
 551      E7800000 
 552              	.LVL44:
 553              	.LEHE1:
 554 035c 6F000002 		j	.L37
 555              	.L34:
 556 0360 13090500 		mv	s2,a0
 557              	.LVL45:
 558              	.LBB36:
 559              	.LBB37:
  32:src/../h/KPCB.hpp ****         //__mem_free(addr);
 560              		.loc 2 32 9 is_stmt 1
  32:src/../h/KPCB.hpp ****         //__mem_free(addr);
 561              		.loc 2 32 35 is_stmt 0
 562 0364 13850400 		mv	a0,s1
GAS LISTING /tmp/ccFM9BIj.s 			page 14


 563 0368 97000000 		call	_ZN16KMemoryAllocator8mem_freeEPv@plt
 563      E7800000 
 564              	.LVL46:
 565 0370 13050900 		mv	a0,s2
 566              	.LEHB2:
 567 0374 97000000 		call	_Unwind_Resume@plt
 567      E7800000 
 568              	.LVL47:
 569              	.LEHE2:
 570              	.L37:
 571              	.LBE37:
 572              	.LBE36:
  37:src/KPCB.cpp  **** }
 573              		.loc 1 37 1
 574 037c 13850400 		mv	a0,s1
 575 0380 83308101 		ld	ra,24(sp)
 576              		.cfi_restore 1
 577 0384 03340101 		ld	s0,16(sp)
 578              		.cfi_restore 8
 579              		.cfi_def_cfa 2, 32
 580 0388 83348100 		ld	s1,8(sp)
 581              		.cfi_restore 9
 582 038c 03390100 		ld	s2,0(sp)
 583              		.cfi_restore 18
 584              	.LVL48:
 585 0390 13010102 		addi	sp,sp,32
 586              		.cfi_def_cfa_offset 0
 587 0394 67800000 		jr	ra
 588              		.cfi_endproc
 589              	.LFE36:
 590              		.globl	__gxx_personality_v0
 591              		.section	.gcc_except_table,"a",@progbits
 592              	.LLSDA36:
 593 0000 FF       		.byte	0xff
 594 0001 FF       		.byte	0xff
 595 0002 03       		.byte	0x3
 596 0003 27       		.byte	0x27
 597 0004 00000000 		.4byte	.LEHB0-.LFB36
 598 0008 00000000 		.4byte	.LEHE0-.LEHB0
 599 000c 00000000 		.4byte	0
 600 0010 00       		.byte	0
 601 0011 00000000 		.4byte	.LEHB1-.LFB36
 602 0015 00000000 		.4byte	.LEHE1-.LEHB1
 603 0019 00000000 		.4byte	.L34-.LFB36
 604 001d 00       		.byte	0
 605 001e 00000000 		.4byte	.LEHB2-.LFB36
 606 0022 00000000 		.4byte	.LEHE2-.LEHB2
 607 0026 00000000 		.4byte	0
 608 002a 00       		.byte	0
 609              		.text
 611              		.globl	_ZN4KPCB16timeSliceCounterE
 612              		.globl	_ZN4KPCB6statIDE
 613              		.globl	_ZN4KPCB7counterE
 614              		.globl	_ZN4KPCB7runningE
 615              		.bss
 616              		.align	3
 617              		.set	.LANCHOR0,. + 0
GAS LISTING /tmp/ccFM9BIj.s 			page 15


 620              	_ZN4KPCB7runningE:
 621 0000 00000000 		.zero	8
 621      00000000 
 624              	_ZN4KPCB7counterE:
 625 0008 00000000 		.zero	4
 626 000c 00000000 		.zero	4
 629              	_ZN4KPCB16timeSliceCounterE:
 630 0010 00000000 		.zero	8
 630      00000000 
 633              	_ZN4KPCB6statIDE:
 634 0018 00000000 		.zero	4
 635              		.text
 636              	.Letext0:
 637              		.file 3 "src/../h/../lib/hw.h"
 638              		.file 4 "src/../h/KScheduler.hpp"
 639              		.file 5 "src/../h/KMemoryAllocator.hpp"
 640              		.file 6 "src/../h/KRiscv.hpp"
 3721              		.align	3
 3724              	DW.ref.__gxx_personality_v0:
 3725 0000 00000000 		.dword	__gxx_personality_v0
 3725      00000000 
 3726              		.ident	"GCC: (Ubuntu 9.4.0-1ubuntu1~20.04) 9.4.0"
 3727              		.section	.note.GNU-stack,"",@progbits
GAS LISTING /tmp/ccFM9BIj.s 			page 16


DEFINED SYMBOLS
                            *ABS*:0000000000000000 KPCB.cpp
     /tmp/ccFM9BIj.s:9      .text:0000000000000000 _ZN4KPCB5yieldEv
     /tmp/ccFM9BIj.s:13     .text:0000000000000000 .L0 
     /tmp/ccFM9BIj.s:14     .text:0000000000000000 .L0 
     /tmp/ccFM9BIj.s:15     .text:0000000000000004 .L0 
     /tmp/ccFM9BIj.s:17     .text:0000000000000008 .L0 
     /tmp/ccFM9BIj.s:19     .text:000000000000000c .L0 
     /tmp/ccFM9BIj.s:21     .text:000000000000000c .L0 
        src/KPCB.cpp:14     .text:000000000000000c .L0 
     /tmp/ccFM9BIj.s:27     .text:0000000000000010 .L0 
        src/KPCB.cpp:15     .text:0000000000000010 .L0 
     /tmp/ccFM9BIj.s:33     .text:0000000000000014 .L0 
     /tmp/ccFM9BIj.s:34     .text:0000000000000018 .L0 
     /tmp/ccFM9BIj.s:35     .text:0000000000000018 .L0 
     /tmp/ccFM9BIj.s:37     .text:000000000000001c .L0 
     /tmp/ccFM9BIj.s:39     .text:0000000000000020 .L0 
     /tmp/ccFM9BIj.s:45     .text:0000000000000020 _ZN4KPCB13threadWrapperEv
     /tmp/ccFM9BIj.s:48     .text:0000000000000020 .L0 
     /tmp/ccFM9BIj.s:49     .text:0000000000000020 .L0 
     /tmp/ccFM9BIj.s:50     .text:0000000000000024 .L0 
     /tmp/ccFM9BIj.s:54     .text:0000000000000030 .L0 
     /tmp/ccFM9BIj.s:55     .text:0000000000000030 .L0 
     /tmp/ccFM9BIj.s:56     .text:0000000000000030 .L0 
     /tmp/ccFM9BIj.s:58     .text:0000000000000034 .L0 
     /tmp/ccFM9BIj.s:60     .text:0000000000000034 .L0 
     /tmp/ccFM9BIj.s:61     .text:0000000000000034 .L0 
     /tmp/ccFM9BIj.s:64     .text:000000000000003c .L0 
     /tmp/ccFM9BIj.s:65     .text:000000000000003c .L0 
     /tmp/ccFM9BIj.s:69     .text:000000000000004c .L0 
     /tmp/ccFM9BIj.s:73     .text:0000000000000054 .L0 
     /tmp/ccFM9BIj.s:74     .text:0000000000000054 .L0 
     /tmp/ccFM9BIj.s:80     .text:0000000000000058 .L0 
     /tmp/ccFM9BIj.s:81     .text:0000000000000058 .L0 
     /tmp/ccFM9BIj.s:83     .text:000000000000005c .L0 
     /tmp/ccFM9BIj.s:85     .text:0000000000000060 .L0 
     /tmp/ccFM9BIj.s:86     .text:0000000000000060 .L0 
     /tmp/ccFM9BIj.s:89     .text:0000000000000068 .L0 
     /tmp/ccFM9BIj.s:90     .text:0000000000000068 .L0 
     /tmp/ccFM9BIj.s:99     .text:0000000000000074 .L0 
     /tmp/ccFM9BIj.s:100    .text:0000000000000074 .L0 
     /tmp/ccFM9BIj.s:103    .text:000000000000007c .L0 
     /tmp/ccFM9BIj.s:104    .text:0000000000000080 .L0 
     /tmp/ccFM9BIj.s:106    .text:0000000000000084 .L0 
     /tmp/ccFM9BIj.s:107    .text:0000000000000084 .L0 
     /tmp/ccFM9BIj.s:109    .text:0000000000000088 .L0 
     /tmp/ccFM9BIj.s:111    .text:000000000000008c .L0 
     /tmp/ccFM9BIj.s:113    .text:0000000000000090 .L0 
     /tmp/ccFM9BIj.s:119    .text:0000000000000090 _ZN4KPCB8dispatchEv
     /tmp/ccFM9BIj.s:122    .text:0000000000000090 .L0 
     /tmp/ccFM9BIj.s:123    .text:0000000000000090 .L0 
     /tmp/ccFM9BIj.s:124    .text:0000000000000094 .L0 
     /tmp/ccFM9BIj.s:128    .text:00000000000000a0 .L0 
     /tmp/ccFM9BIj.s:129    .text:00000000000000a0 .L0 
     /tmp/ccFM9BIj.s:130    .text:00000000000000a0 .L0 
     /tmp/ccFM9BIj.s:132    .text:00000000000000a4 .L0 
     /tmp/ccFM9BIj.s:134    .text:00000000000000a4 .L0 
GAS LISTING /tmp/ccFM9BIj.s 			page 17


     /tmp/ccFM9BIj.s:135    .text:00000000000000a4 .L0 
     /tmp/ccFM9BIj.s:140    .text:00000000000000ac .L0 
     /tmp/ccFM9BIj.s:141    .text:00000000000000ac .L0 
     /tmp/ccFM9BIj.s:142    .text:00000000000000ac .L0 
     /tmp/ccFM9BIj.s:147    .text:00000000000000b0 .L0 
     /tmp/ccFM9BIj.s:152    .text:00000000000000b4 .L0 
     /tmp/ccFM9BIj.s:153    .text:00000000000000b4 .L0 
     /tmp/ccFM9BIj.s:158    .text:00000000000000b8 .L0 
     /tmp/ccFM9BIj.s:163    .text:00000000000000bc .L0 
     /tmp/ccFM9BIj.s:164    .text:00000000000000bc .L0 
     /tmp/ccFM9BIj.s:169    .text:00000000000000c0 .L0 
     /tmp/ccFM9BIj.s:174    .text:00000000000000c4 .L0 
     /tmp/ccFM9BIj.s:175    .text:00000000000000c4 .L0 
     /tmp/ccFM9BIj.s:180    .text:00000000000000c8 .L0 
     /tmp/ccFM9BIj.s:183    .text:00000000000000cc .L0 
     /tmp/ccFM9BIj.s:184    .text:00000000000000cc .L0 
     /tmp/ccFM9BIj.s:187    .text:00000000000000d4 .L0 
     /tmp/ccFM9BIj.s:190    .text:00000000000000e0 .L0 
     /tmp/ccFM9BIj.s:191    .text:00000000000000e0 .L0 
     /tmp/ccFM9BIj.s:193    .text:00000000000000e4 .L0 
     /tmp/ccFM9BIj.s:195    .text:00000000000000e8 .L0 
     /tmp/ccFM9BIj.s:196    .text:00000000000000e8 .L0 
     /tmp/ccFM9BIj.s:202    .text:00000000000000f8 .L0 
     /tmp/ccFM9BIj.s:203    .text:00000000000000fc .L0 
     /tmp/ccFM9BIj.s:204    .text:00000000000000fc .L0 
     /tmp/ccFM9BIj.s:206    .text:0000000000000100 .L0 
     /tmp/ccFM9BIj.s:207    .text:0000000000000100 .L0 
     /tmp/ccFM9BIj.s:209    .text:0000000000000104 .L0 
     /tmp/ccFM9BIj.s:212    .text:0000000000000108 .L0 
     /tmp/ccFM9BIj.s:216    .text:000000000000010c .L0 
     /tmp/ccFM9BIj.s:218    .text:000000000000010c .L0 
     /tmp/ccFM9BIj.s:219    .text:000000000000010c .L0 
     /tmp/ccFM9BIj.s:223    .text:000000000000011c .L0 
     /tmp/ccFM9BIj.s:229    .text:000000000000011c _ZN4KPCBC2EPFvPvES0_S0_
     /tmp/ccFM9BIj.s:232    .text:000000000000011c .L0 
     /tmp/ccFM9BIj.s:234    .text:000000000000011c .L0 
     /tmp/ccFM9BIj.s:235    .text:0000000000000120 .L0 
     /tmp/ccFM9BIj.s:237    .text:0000000000000124 .L0 
     /tmp/ccFM9BIj.s:239    .text:0000000000000128 .L0 
     /tmp/ccFM9BIj.s:242    .text:0000000000000128 .L0 
     /tmp/ccFM9BIj.s:244    .text:000000000000012c .L0 
     /tmp/ccFM9BIj.s:249    .text:0000000000000140 .L0 
     /tmp/ccFM9BIj.s:252    .text:0000000000000148 .L0 
     /tmp/ccFM9BIj.s:256    .text:000000000000014c .L0 
     /tmp/ccFM9BIj.s:258    .text:0000000000000150 .L0 
     /tmp/ccFM9BIj.s:260    .text:0000000000000154 .L0 
     /tmp/ccFM9BIj.s:263    .text:000000000000015c .L0 
     /tmp/ccFM9BIj.s:265    .text:0000000000000160 .L0 
     /tmp/ccFM9BIj.s:267    .text:0000000000000164 .L0 
     /tmp/ccFM9BIj.s:271    .text:000000000000016c .L0 
     /tmp/ccFM9BIj.s:282    .text:0000000000000194 .L0 
     /tmp/ccFM9BIj.s:284    .text:0000000000000198 .L0 
     /tmp/ccFM9BIj.s:285    .text:0000000000000198 .L0 
     /tmp/ccFM9BIj.s:292    .text:00000000000001ac .L0 
     /tmp/ccFM9BIj.s:293    .text:00000000000001b0 .L0 
     /tmp/ccFM9BIj.s:294    .text:00000000000001b0 .L0 
     /tmp/ccFM9BIj.s:295    .text:00000000000001b0 .L0 
GAS LISTING /tmp/ccFM9BIj.s 			page 18


     /tmp/ccFM9BIj.s:297    .text:00000000000001b4 .L0 
     /tmp/ccFM9BIj.s:301    .text:00000000000001b8 .L0 
     /tmp/ccFM9BIj.s:304    .text:00000000000001b8 .L0 
     /tmp/ccFM9BIj.s:309    .text:00000000000001c0 .L0 
     /tmp/ccFM9BIj.s:313    .text:00000000000001c8 .L0 
     /tmp/ccFM9BIj.s:316    .text:00000000000001d0 .L0 
     /tmp/ccFM9BIj.s:229    .text:000000000000011c _ZN4KPCBC1EPFvPvES0_S0_
     /tmp/ccFM9BIj.s:324    .text:00000000000001d0 _ZN4KPCB12createThreadEPFvPvES0_S0_
     /tmp/ccFM9BIj.s:327    .text:00000000000001d0 .L0 
     /tmp/ccFM9BIj.s:329    .text:00000000000001d0 .L0 
     /tmp/ccFM9BIj.s:330    .text:00000000000001d4 .L0 
     /tmp/ccFM9BIj.s:337    .text:00000000000001ec .L0 
     /tmp/ccFM9BIj.s:338    .text:00000000000001ec .L0 
     /tmp/ccFM9BIj.s:339    .text:00000000000001ec .L0 
     /tmp/ccFM9BIj.s:340    .text:00000000000001ec .L0 
     /tmp/ccFM9BIj.s:341    .text:00000000000001ec .L0 
     /tmp/ccFM9BIj.s:342    .text:00000000000001ec .L0 
     /tmp/ccFM9BIj.s:344    .text:00000000000001f0 .L0 
     /tmp/ccFM9BIj.s:352    .text:00000000000001fc .L0 
     /tmp/ccFM9BIj.s:353    .text:00000000000001fc .L0 
     /tmp/ccFM9BIj.s:354    .text:00000000000001fc .L0 
     /tmp/ccFM9BIj.s:355    .text:00000000000001fc .L0 
     /tmp/ccFM9BIj.s:364    .text:000000000000020c .L0 
     /tmp/ccFM9BIj.s:370    .text:0000000000000220 .L0 
     /tmp/ccFM9BIj.s:372    .text:0000000000000228 .L0 
     /tmp/ccFM9BIj.s:374    .text:000000000000022c .L0 
     /tmp/ccFM9BIj.s:375    .text:000000000000022c .L0 
     /tmp/ccFM9BIj.s:377    .text:0000000000000230 .L0 
     /tmp/ccFM9BIj.s:379    .text:0000000000000234 .L0 
     /tmp/ccFM9BIj.s:382    .text:0000000000000238 .L0 
     /tmp/ccFM9BIj.s:385    .text:000000000000023c .L0 
     /tmp/ccFM9BIj.s:388    .text:0000000000000240 .L0 
     /tmp/ccFM9BIj.s:390    .text:0000000000000244 .L0 
     /tmp/ccFM9BIj.s:396    .text:0000000000000244 _ZN4KPCBC2EPFvPvE
     /tmp/ccFM9BIj.s:399    .text:0000000000000244 .L0 
     /tmp/ccFM9BIj.s:401    .text:0000000000000244 .L0 
     /tmp/ccFM9BIj.s:402    .text:0000000000000248 .L0 
     /tmp/ccFM9BIj.s:407    .text:0000000000000258 .L0 
     /tmp/ccFM9BIj.s:408    .text:0000000000000258 .L0 
     /tmp/ccFM9BIj.s:409    .text:0000000000000258 .L0 
     /tmp/ccFM9BIj.s:410    .text:0000000000000258 .L0 
     /tmp/ccFM9BIj.s:412    .text:000000000000025c .L0 
     /tmp/ccFM9BIj.s:417    .text:0000000000000264 .L0 
     /tmp/ccFM9BIj.s:419    .text:0000000000000268 .L0 
     /tmp/ccFM9BIj.s:424    .text:000000000000027c .L0 
     /tmp/ccFM9BIj.s:427    .text:0000000000000284 .L0 
     /tmp/ccFM9BIj.s:429    .text:0000000000000288 .L0 
     /tmp/ccFM9BIj.s:435    .text:0000000000000294 .L0 
     /tmp/ccFM9BIj.s:437    .text:0000000000000298 .L0 
     /tmp/ccFM9BIj.s:439    .text:000000000000029c .L0 
     /tmp/ccFM9BIj.s:442    .text:00000000000002a4 .L0 
     /tmp/ccFM9BIj.s:444    .text:00000000000002a8 .L0 
     /tmp/ccFM9BIj.s:446    .text:00000000000002ac .L0 
     /tmp/ccFM9BIj.s:450    .text:00000000000002b4 .L0 
     /tmp/ccFM9BIj.s:461    .text:00000000000002dc .L0 
     /tmp/ccFM9BIj.s:463    .text:00000000000002e0 .L0 
     /tmp/ccFM9BIj.s:464    .text:00000000000002e0 .L0 
GAS LISTING /tmp/ccFM9BIj.s 			page 19


     /tmp/ccFM9BIj.s:471    .text:00000000000002f4 .L0 
     /tmp/ccFM9BIj.s:472    .text:00000000000002f8 .L0 
     /tmp/ccFM9BIj.s:473    .text:00000000000002f8 .L0 
     /tmp/ccFM9BIj.s:475    .text:00000000000002fc .L0 
     /tmp/ccFM9BIj.s:476    .text:00000000000002fc .L0 
     /tmp/ccFM9BIj.s:478    .text:0000000000000300 .L0 
     /tmp/ccFM9BIj.s:481    .text:0000000000000304 .L0 
     /tmp/ccFM9BIj.s:484    .text:0000000000000308 .L0 
     /tmp/ccFM9BIj.s:488    .text:000000000000030c .L0 
     /tmp/ccFM9BIj.s:491    .text:000000000000030c .L0 
     /tmp/ccFM9BIj.s:496    .text:0000000000000314 .L0 
     /tmp/ccFM9BIj.s:500    .text:000000000000031c .L0 
     /tmp/ccFM9BIj.s:503    .text:0000000000000324 .L0 
     /tmp/ccFM9BIj.s:396    .text:0000000000000244 _ZN4KPCBC1EPFvPvE
     /tmp/ccFM9BIj.s:511    .text:0000000000000324 _ZN4KPCB12createThreadEPFvPvE
     /tmp/ccFM9BIj.s:514    .text:0000000000000324 .L0 
     /tmp/ccFM9BIj.s:3724   .data.rel.local.DW.ref.__gxx_personality_v0:0000000000000000 DW.ref.__gxx_personality_v0
     /tmp/ccFM9BIj.s:518    .text:0000000000000324 .L0 
     /tmp/ccFM9BIj.s:519    .text:0000000000000328 .L0 
     /tmp/ccFM9BIj.s:524    .text:0000000000000338 .L0 
     /tmp/ccFM9BIj.s:525    .text:0000000000000338 .L0 
     /tmp/ccFM9BIj.s:526    .text:0000000000000338 .L0 
     /tmp/ccFM9BIj.s:527    .text:0000000000000338 .L0 
     /tmp/ccFM9BIj.s:529    .text:000000000000033c .L0 
     /tmp/ccFM9BIj.s:535    .text:0000000000000340 .L0 
     /tmp/ccFM9BIj.s:536    .text:0000000000000340 .L0 
     /tmp/ccFM9BIj.s:537    .text:0000000000000340 .L0 
     /tmp/ccFM9BIj.s:538    .text:0000000000000340 .L0 
     /tmp/ccFM9BIj.s:549    .text:0000000000000350 .L0 
     /tmp/ccFM9BIj.s:561    .text:0000000000000364 .L0 
     /tmp/ccFM9BIj.s:562    .text:0000000000000364 .L0 
     /tmp/ccFM9BIj.s:574    .text:000000000000037c .L0 
     /tmp/ccFM9BIj.s:576    .text:0000000000000384 .L0 
     /tmp/ccFM9BIj.s:578    .text:0000000000000388 .L0 
     /tmp/ccFM9BIj.s:579    .text:0000000000000388 .L0 
     /tmp/ccFM9BIj.s:581    .text:000000000000038c .L0 
     /tmp/ccFM9BIj.s:583    .text:0000000000000390 .L0 
     /tmp/ccFM9BIj.s:586    .text:0000000000000394 .L0 
     /tmp/ccFM9BIj.s:588    .text:0000000000000398 .L0 
     /tmp/ccFM9BIj.s:629    .bss:0000000000000010 _ZN4KPCB16timeSliceCounterE
     /tmp/ccFM9BIj.s:633    .bss:0000000000000018 _ZN4KPCB6statIDE
     /tmp/ccFM9BIj.s:624    .bss:0000000000000008 _ZN4KPCB7counterE
     /tmp/ccFM9BIj.s:620    .bss:0000000000000000 _ZN4KPCB7runningE
     /tmp/ccFM9BIj.s:617    .bss:0000000000000000 .LANCHOR0
     /tmp/ccFM9BIj.s:641    .text:0000000000000398 .L0 
     /tmp/ccFM9BIj.s:65     .text:000000000000003c .L0 
     /tmp/ccFM9BIj.s:135    .text:00000000000000a4 .L0 
     /tmp/ccFM9BIj.s:187    .text:00000000000000d4 .L0 
     /tmp/ccFM9BIj.s:244    .text:000000000000012c .L0 
     /tmp/ccFM9BIj.s:260    .text:0000000000000154 .L0 
     /tmp/ccFM9BIj.s:285    .text:0000000000000198 .L0 
     /tmp/ccFM9BIj.s:419    .text:0000000000000268 .L0 
     /tmp/ccFM9BIj.s:439    .text:000000000000029c .L0 
     /tmp/ccFM9BIj.s:464    .text:00000000000002e0 .L0 
     /tmp/ccFM9BIj.s:94     .text:0000000000000074 .L4
     /tmp/ccFM9BIj.s:181    .text:00000000000000cc .L7
     /tmp/ccFM9BIj.s:215    .text:000000000000010c .L10
GAS LISTING /tmp/ccFM9BIj.s 			page 20


     /tmp/ccFM9BIj.s:200    .text:00000000000000f8 .L6
     /tmp/ccFM9BIj.s:300    .text:00000000000001b8 .L20
     /tmp/ccFM9BIj.s:307    .text:00000000000001c0 .L17
     /tmp/ccFM9BIj.s:311    .text:00000000000001c8 .L18
     /tmp/ccFM9BIj.s:289    .text:00000000000001ac .L11
     /tmp/ccFM9BIj.s:254    .text:000000000000014c .L12
     /tmp/ccFM9BIj.s:261    .text:000000000000015c .L13
     /tmp/ccFM9BIj.s:269    .text:000000000000016c .L14
     /tmp/ccFM9BIj.s:487    .text:000000000000030c .L28
     /tmp/ccFM9BIj.s:494    .text:0000000000000314 .L29
     /tmp/ccFM9BIj.s:498    .text:000000000000031c .L30
     /tmp/ccFM9BIj.s:468    .text:00000000000002f4 .L23
     /tmp/ccFM9BIj.s:433    .text:0000000000000294 .L24
     /tmp/ccFM9BIj.s:440    .text:00000000000002a4 .L25
     /tmp/ccFM9BIj.s:448    .text:00000000000002b4 .L26
     /tmp/ccFM9BIj.s:570    .text:000000000000037c .L37
     /tmp/ccFM9BIj.s:540    .text:0000000000000344 .LEHB0
     /tmp/ccFM9BIj.s:512    .text:0000000000000324 .LFB36
     /tmp/ccFM9BIj.s:543    .text:000000000000034c .LEHE0
     /tmp/ccFM9BIj.s:550    .text:0000000000000354 .LEHB1
     /tmp/ccFM9BIj.s:553    .text:000000000000035c .LEHE1
     /tmp/ccFM9BIj.s:555    .text:0000000000000360 .L34
     /tmp/ccFM9BIj.s:566    .text:0000000000000374 .LEHB2
     /tmp/ccFM9BIj.s:569    .text:000000000000037c .LEHE2
     /tmp/ccFM9BIj.s:2127   .debug_abbrev:0000000000000000 .Ldebug_abbrev0
     /tmp/ccFM9BIj.s:3658   .debug_str:0000000000000794 .LASF152
     /tmp/ccFM9BIj.s:3498   .debug_str:00000000000002fc .LASF153
     /tmp/ccFM9BIj.s:3456   .debug_str:00000000000001a5 .LASF154
     /tmp/ccFM9BIj.s:5      .text:0000000000000000 .Ltext0
     /tmp/ccFM9BIj.s:636    .text:0000000000000398 .Letext0
     /tmp/ccFM9BIj.s:3394   .debug_line:0000000000000000 .Ldebug_line0
     /tmp/ccFM9BIj.s:3566   .debug_str:00000000000004e9 .LASF0
     /tmp/ccFM9BIj.s:3594   .debug_str:00000000000005c5 .LASF1
     /tmp/ccFM9BIj.s:3544   .debug_str:0000000000000427 .LASF2
     /tmp/ccFM9BIj.s:3514   .debug_str:0000000000000364 .LASF4
     /tmp/ccFM9BIj.s:3638   .debug_str:000000000000070e .LASF3
     /tmp/ccFM9BIj.s:3430   .debug_str:00000000000000e7 .LASF5
     /tmp/ccFM9BIj.s:3462   .debug_str:00000000000001e3 .LASF6
     /tmp/ccFM9BIj.s:3600   .debug_str:00000000000005f4 .LASF7
     /tmp/ccFM9BIj.s:3564   .debug_str:00000000000004d6 .LASF8
     /tmp/ccFM9BIj.s:3676   .debug_str:00000000000008eb .LASF9
     /tmp/ccFM9BIj.s:3496   .debug_str:00000000000002ee .LASF10
     /tmp/ccFM9BIj.s:3616   .debug_str:0000000000000661 .LASF11
     /tmp/ccFM9BIj.s:3662   .debug_str:0000000000000866 .LASF12
     /tmp/ccFM9BIj.s:3432   .debug_str:00000000000000ee .LASF13
     /tmp/ccFM9BIj.s:3402   .debug_str:0000000000000029 .LASF14
     /tmp/ccFM9BIj.s:3448   .debug_str:000000000000016c .LASF15
     /tmp/ccFM9BIj.s:3630   .debug_str:00000000000006d1 .LASF16
     /tmp/ccFM9BIj.s:3458   .debug_str:00000000000001c8 .LASF17
     /tmp/ccFM9BIj.s:3522   .debug_str:0000000000000384 .LASF20
     /tmp/ccFM9BIj.s:3712   .debug_str:0000000000000a2a .LASF155
     /tmp/ccFM9BIj.s:3568   .debug_str:00000000000004f6 .LASF156
     /tmp/ccFM9BIj.s:3460   .debug_str:00000000000001de .LASF18
     /tmp/ccFM9BIj.s:3538   .debug_str:00000000000003fa .LASF19
     /tmp/ccFM9BIj.s:3716   .debug_str:0000000000000a5c .LASF21
     /tmp/ccFM9BIj.s:3410   .debug_str:000000000000005f .LASF79
     /tmp/ccFM9BIj.s:3416   .debug_str:0000000000000093 .LASF22
GAS LISTING /tmp/ccFM9BIj.s 			page 21


     /tmp/ccFM9BIj.s:3686   .debug_str:0000000000000960 .LASF24
     /tmp/ccFM9BIj.s:3692   .debug_str:0000000000000983 .LASF23
     /tmp/ccFM9BIj.s:3398   .debug_str:0000000000000014 .LASF25
     /tmp/ccFM9BIj.s:3492   .debug_str:00000000000002cc .LASF26
     /tmp/ccFM9BIj.s:3426   .debug_str:00000000000000ce .LASF27
     /tmp/ccFM9BIj.s:3646   .debug_str:0000000000000743 .LASF28
     /tmp/ccFM9BIj.s:3450   .debug_str:0000000000000178 .LASF30
     /tmp/ccFM9BIj.s:3650   .debug_str:000000000000075a .LASF29
     /tmp/ccFM9BIj.s:3572   .debug_str:000000000000051a .LASF31
     /tmp/ccFM9BIj.s:3526   .debug_str:00000000000003a8 .LASF32
     /tmp/ccFM9BIj.s:3668   .debug_str:000000000000089f .LASF33
     /tmp/ccFM9BIj.s:3624   .debug_str:000000000000069c .LASF157
     /tmp/ccFM9BIj.s:3626   .debug_str:00000000000006a1 .LASF34
     /tmp/ccFM9BIj.s:3632   .debug_str:00000000000006e7 .LASF35
     /tmp/ccFM9BIj.s:3438   .debug_str:000000000000011b .LASF37
     /tmp/ccFM9BIj.s:3570   .debug_str:0000000000000511 .LASF36
     /tmp/ccFM9BIj.s:3510   .debug_str:0000000000000346 .LASF38
     /tmp/ccFM9BIj.s:3474   .debug_str:0000000000000229 .LASF39
     /tmp/ccFM9BIj.s:3548   .debug_str:000000000000044b .LASF40
     /tmp/ccFM9BIj.s:3608   .debug_str:0000000000000632 .LASF41
     /tmp/ccFM9BIj.s:3602   .debug_str:0000000000000607 .LASF42
     /tmp/ccFM9BIj.s:3614   .debug_str:0000000000000649 .LASF44
     /tmp/ccFM9BIj.s:3558   .debug_str:00000000000004ab .LASF43
     /tmp/ccFM9BIj.s:3424   .debug_str:00000000000000b6 .LASF45
     /tmp/ccFM9BIj.s:3698   .debug_str:00000000000009b1 .LASF46
     /tmp/ccFM9BIj.s:3546   .debug_str:0000000000000435 .LASF47
     /tmp/ccFM9BIj.s:3528   .debug_str:00000000000003b5 .LASF48
     /tmp/ccFM9BIj.s:3628   .debug_str:00000000000006bf .LASF49
     /tmp/ccFM9BIj.s:3428   .debug_str:00000000000000db .LASF50
     /tmp/ccFM9BIj.s:3684   .debug_str:0000000000000948 .LASF51
     /tmp/ccFM9BIj.s:3472   .debug_str:000000000000021d .LASF52
     /tmp/ccFM9BIj.s:3664   .debug_str:0000000000000875 .LASF53
     /tmp/ccFM9BIj.s:3700   .debug_str:00000000000009bb .LASF54
     /tmp/ccFM9BIj.s:3452   .debug_str:0000000000000186 .LASF55
     /tmp/ccFM9BIj.s:3588   .debug_str:00000000000005a1 .LASF56
     /tmp/ccFM9BIj.s:3666   .debug_str:000000000000088d .LASF57
     /tmp/ccFM9BIj.s:3454   .debug_str:000000000000019d .LASF58
     /tmp/ccFM9BIj.s:3442   .debug_str:000000000000013d .LASF59
     /tmp/ccFM9BIj.s:3418   .debug_str:0000000000000099 .LASF60
     /tmp/ccFM9BIj.s:3488   .debug_str:00000000000002a3 .LASF61
     /tmp/ccFM9BIj.s:3552   .debug_str:000000000000046a .LASF62
     /tmp/ccFM9BIj.s:3708   .debug_str:0000000000000a0d .LASF63
     /tmp/ccFM9BIj.s:3518   .debug_str:0000000000000374 .LASF64
     /tmp/ccFM9BIj.s:3576   .debug_str:000000000000052e .LASF65
     /tmp/ccFM9BIj.s:3574   .debug_str:0000000000000528 .LASF66
     /tmp/ccFM9BIj.s:3578   .debug_str:0000000000000533 .LASF67
     /tmp/ccFM9BIj.s:3516   .debug_str:000000000000036b .LASF68
     /tmp/ccFM9BIj.s:3618   .debug_str:0000000000000670 .LASF69
     /tmp/ccFM9BIj.s:3690   .debug_str:000000000000097b .LASF70
     /tmp/ccFM9BIj.s:3590   .debug_str:00000000000005a8 .LASF71
     /tmp/ccFM9BIj.s:3640   .debug_str:0000000000000720 .LASF72
     /tmp/ccFM9BIj.s:3606   .debug_str:0000000000000625 .LASF73
     /tmp/ccFM9BIj.s:3660   .debug_str:0000000000000858 .LASF74
     /tmp/ccFM9BIj.s:3436   .debug_str:000000000000010a .LASF75
     /tmp/ccFM9BIj.s:3440   .debug_str:000000000000012c .LASF76
     /tmp/ccFM9BIj.s:3506   .debug_str:000000000000032c .LASF77
     /tmp/ccFM9BIj.s:3530   .debug_str:00000000000003bb .LASF78
GAS LISTING /tmp/ccFM9BIj.s 			page 22


     /tmp/ccFM9BIj.s:3688   .debug_str:000000000000096d .LASF85
     /tmp/ccFM9BIj.s:3554   .debug_str:000000000000047c .LASF87
     /tmp/ccFM9BIj.s:3532   .debug_str:00000000000003c6 .LASF158
     /tmp/ccFM9BIj.s:3622   .debug_str:0000000000000682 .LASF159
     /tmp/ccFM9BIj.s:3434   .debug_str:00000000000000fe .LASF80
     /tmp/ccFM9BIj.s:3710   .debug_str:0000000000000a25 .LASF81
     /tmp/ccFM9BIj.s:3654   .debug_str:0000000000000781 .LASF82
     /tmp/ccFM9BIj.s:3408   .debug_str:000000000000004e .LASF83
     /tmp/ccFM9BIj.s:3406   .debug_str:0000000000000042 .LASF84
     /tmp/ccFM9BIj.s:3512   .debug_str:000000000000035a .LASF86
     /tmp/ccFM9BIj.s:3480   .debug_str:000000000000024c .LASF88
     /tmp/ccFM9BIj.s:3542   .debug_str:0000000000000417 .LASF89
     /tmp/ccFM9BIj.s:3706   .debug_str:00000000000009e4 .LASF90
     /tmp/ccFM9BIj.s:3642   .debug_str:000000000000072e .LASF91
     /tmp/ccFM9BIj.s:3412   .debug_str:0000000000000067 .LASF92
     /tmp/ccFM9BIj.s:3620   .debug_str:0000000000000679 .LASF93
     /tmp/ccFM9BIj.s:3586   .debug_str:000000000000057f .LASF94
     /tmp/ccFM9BIj.s:3482   .debug_str:000000000000027b .LASF95
     /tmp/ccFM9BIj.s:3490   .debug_str:00000000000002bf .LASF96
     /tmp/ccFM9BIj.s:3672   .debug_str:00000000000008cd .LASF97
     /tmp/ccFM9BIj.s:3644   .debug_str:0000000000000738 .LASF98
     /tmp/ccFM9BIj.s:3636   .debug_str:00000000000006f5 .LASF99
     /tmp/ccFM9BIj.s:3466   .debug_str:00000000000001fc .LASF100
     /tmp/ccFM9BIj.s:3682   .debug_str:0000000000000929 .LASF101
     /tmp/ccFM9BIj.s:3612   .debug_str:000000000000063f .LASF102
     /tmp/ccFM9BIj.s:3446   .debug_str:0000000000000155 .LASF103
     /tmp/ccFM9BIj.s:3656   .debug_str:0000000000000786 .LASF104
     /tmp/ccFM9BIj.s:3694   .debug_str:0000000000000990 .LASF105
     /tmp/ccFM9BIj.s:3484   .debug_str:0000000000000280 .LASF106
     /tmp/ccFM9BIj.s:3582   .debug_str:0000000000000550 .LASF107
     /tmp/ccFM9BIj.s:3404   .debug_str:0000000000000039 .LASF108
     /tmp/ccFM9BIj.s:3680   .debug_str:0000000000000913 .LASF112
     /tmp/ccFM9BIj.s:3470   .debug_str:0000000000000214 .LASF109
     /tmp/ccFM9BIj.s:3486   .debug_str:000000000000028d .LASF110
     /tmp/ccFM9BIj.s:3468   .debug_str:000000000000020d .LASF111
     /tmp/ccFM9BIj.s:3652   .debug_str:000000000000076d .LASF113
     /tmp/ccFM9BIj.s:3648   .debug_str:0000000000000753 .LASF114
     /tmp/ccFM9BIj.s:3584   .debug_str:000000000000056b .LASF115
     /tmp/ccFM9BIj.s:3598   .debug_str:00000000000005ec .LASF116
     /tmp/ccFM9BIj.s:3560   .debug_str:00000000000004b6 .LASF117
     /tmp/ccFM9BIj.s:3400   .debug_str:0000000000000021 .LASF118
     /tmp/ccFM9BIj.s:3580   .debug_str:000000000000053b .LASF119
     /tmp/ccFM9BIj.s:3476   .debug_str:0000000000000231 .LASF120
     /tmp/ccFM9BIj.s:3534   .debug_str:00000000000003d4 .LASF121
     /tmp/ccFM9BIj.s:3634   .debug_str:00000000000006ed .LASF122
     /tmp/ccFM9BIj.s:3592   .debug_str:00000000000005b0 .LASF123
     /tmp/ccFM9BIj.s:3502   .debug_str:000000000000031b .LASF124
     /tmp/ccFM9BIj.s:3596   .debug_str:00000000000005d8 .LASF125
     /tmp/ccFM9BIj.s:3422   .debug_str:00000000000000af .LASF126
     /tmp/ccFM9BIj.s:3396   .debug_str:0000000000000000 .LASF127
     /tmp/ccFM9BIj.s:3556   .debug_str:00000000000004a5 .LASF128
     /tmp/ccFM9BIj.s:3604   .debug_str:0000000000000612 .LASF129
     /tmp/ccFM9BIj.s:3420   .debug_str:00000000000000a9 .LASF130
     /tmp/ccFM9BIj.s:3478   .debug_str:0000000000000239 .LASF131
     /tmp/ccFM9BIj.s:3562   .debug_str:00000000000004cb .LASF132
     /tmp/ccFM9BIj.s:3524   .debug_str:000000000000038f .LASF133
     /tmp/ccFM9BIj.s:3520   .debug_str:0000000000000379 .LASF134
GAS LISTING /tmp/ccFM9BIj.s 			page 23


     /tmp/ccFM9BIj.s:3704   .debug_str:00000000000009cb .LASF135
     /tmp/ccFM9BIj.s:3504   .debug_str:0000000000000322 .LASF136
     /tmp/ccFM9BIj.s:3674   .debug_str:00000000000008d4 .LASF137
     /tmp/ccFM9BIj.s:3414   .debug_str:0000000000000089 .LASF138
     /tmp/ccFM9BIj.s:3550   .debug_str:0000000000000453 .LASF139
     /tmp/ccFM9BIj.s:3464   .debug_str:00000000000001ea .LASF140
     /tmp/ccFM9BIj.s:3494   .debug_str:00000000000002dc .LASF141
     /tmp/ccFM9BIj.s:3536   .debug_str:00000000000003e9 .LASF142
     /tmp/ccFM9BIj.s:3714   .debug_str:0000000000000a40 .LASF143
     /tmp/ccFM9BIj.s:3696   .debug_str:00000000000009ac .LASF144
     /tmp/ccFM9BIj.s:3500   .debug_str:0000000000000309 .LASF146
     /tmp/ccFM9BIj.s:397    .text:0000000000000244 .LFB42
     /tmp/ccFM9BIj.s:504    .text:0000000000000324 .LFE42
     /tmp/ccFM9BIj.s:3125   .debug_loc:0000000000000000 .LLST13
     /tmp/ccFM9BIj.s:3147   .debug_loc:000000000000005f .LLST14
     /tmp/ccFM9BIj.s:432    .text:0000000000000294 .LVL34
     /tmp/ccFM9BIj.s:3444   .debug_str:0000000000000150 .LASF145
     /tmp/ccFM9BIj.s:3540   .debug_str:00000000000003ff .LASF147
     /tmp/ccFM9BIj.s:230    .text:000000000000011c .LFB39
     /tmp/ccFM9BIj.s:317    .text:00000000000001d0 .LFE39
     /tmp/ccFM9BIj.s:3173   .debug_loc:00000000000000d1 .LLST7
     /tmp/ccFM9BIj.s:46     .text:0000000000000020 .LFB37
     /tmp/ccFM9BIj.s:114    .text:0000000000000090 .LFE37
     /tmp/ccFM9BIj.s:76     .text:0000000000000058 .LBB18
     /tmp/ccFM9BIj.s:97     .text:0000000000000074 .LBE18
     /tmp/ccFM9BIj.s:3198   .debug_loc:0000000000000133 .LLST0
     /tmp/ccFM9BIj.s:3206   .debug_loc:0000000000000157 .LLST1
     /tmp/ccFM9BIj.s:62     .text:000000000000003c .LVL0
     /tmp/ccFM9BIj.s:101    .text:000000000000007c .LVL5
     /tmp/ccFM9BIj.s:589    .text:0000000000000398 .LFE36
     /tmp/ccFM9BIj.s:3218   .debug_loc:0000000000000195 .LLST15
     /tmp/ccFM9BIj.s:533    .text:0000000000000340 .LBB34
     /tmp/ccFM9BIj.s:547    .text:0000000000000350 .LBE34
     /tmp/ccFM9BIj.s:3247   .debug_loc:000000000000020a .LLST16
     /tmp/ccFM9BIj.s:3256   .debug_loc:000000000000022f .LLST17
     /tmp/ccFM9BIj.s:542    .text:000000000000034c .LVL42
     /tmp/ccFM9BIj.s:558    .text:0000000000000364 .LBB36
     /tmp/ccFM9BIj.s:572    .text:000000000000037c .LBE36
     /tmp/ccFM9BIj.s:3264   .debug_loc:0000000000000253 .LLST18
     /tmp/ccFM9BIj.s:564    .text:0000000000000370 .LVL46
     /tmp/ccFM9BIj.s:552    .text:000000000000035c .LVL44
     /tmp/ccFM9BIj.s:568    .text:000000000000037c .LVL47
     /tmp/ccFM9BIj.s:325    .text:00000000000001d0 .LFB35
     /tmp/ccFM9BIj.s:391    .text:0000000000000244 .LFE35
     /tmp/ccFM9BIj.s:3271   .debug_loc:0000000000000276 .LLST8
     /tmp/ccFM9BIj.s:3289   .debug_loc:00000000000002c2 .LLST9
     /tmp/ccFM9BIj.s:3307   .debug_loc:000000000000030e .LLST10
     /tmp/ccFM9BIj.s:350    .text:00000000000001fc .LBB30
     /tmp/ccFM9BIj.s:362    .text:000000000000020c .LBE30
     /tmp/ccFM9BIj.s:3325   .debug_loc:000000000000035a .LLST11
     /tmp/ccFM9BIj.s:3334   .debug_loc:000000000000037f .LLST12
     /tmp/ccFM9BIj.s:358    .text:0000000000000208 .LVL26
     /tmp/ccFM9BIj.s:368    .text:0000000000000220 .LVL28
     /tmp/ccFM9BIj.s:120    .text:0000000000000090 .LFB34
     /tmp/ccFM9BIj.s:224    .text:000000000000011c .LFE34
     /tmp/ccFM9BIj.s:3342   .debug_loc:00000000000003a3 .LLST2
     /tmp/ccFM9BIj.s:138    .text:00000000000000ac .LBB20
GAS LISTING /tmp/ccFM9BIj.s 			page 24


     /tmp/ccFM9BIj.s:145    .text:00000000000000b0 .LBE20
     /tmp/ccFM9BIj.s:3353   .debug_loc:00000000000003d9 .LLST3
     /tmp/ccFM9BIj.s:149    .text:00000000000000b4 .LBB22
     /tmp/ccFM9BIj.s:156    .text:00000000000000b8 .LBE22
     /tmp/ccFM9BIj.s:3360   .debug_loc:00000000000003fc .LLST4
     /tmp/ccFM9BIj.s:160    .text:00000000000000bc .LBB24
     /tmp/ccFM9BIj.s:167    .text:00000000000000c0 .LBE24
     /tmp/ccFM9BIj.s:3367   .debug_loc:000000000000041f .LLST5
     /tmp/ccFM9BIj.s:171    .text:00000000000000c4 .LBB26
     /tmp/ccFM9BIj.s:178    .text:00000000000000c8 .LBE26
     /tmp/ccFM9BIj.s:3374   .debug_loc:0000000000000442 .LLST6
     /tmp/ccFM9BIj.s:185    .text:00000000000000d4 .LVL14
     /tmp/ccFM9BIj.s:199    .text:00000000000000f8 .LVL15
     /tmp/ccFM9BIj.s:221    .text:0000000000000118 .LVL18
     /tmp/ccFM9BIj.s:10     .text:0000000000000000 .LFB33
     /tmp/ccFM9BIj.s:40     .text:0000000000000020 .LFE33
     /tmp/ccFM9BIj.s:3702   .debug_str:00000000000009c6 .LASF148
     /tmp/ccFM9BIj.s:3670   .debug_str:00000000000008c3 .LASF160
     /tmp/ccFM9BIj.s:3610   .debug_str:0000000000000639 .LASF149
     /tmp/ccFM9BIj.s:3508   .debug_str:0000000000000337 .LASF150
     /tmp/ccFM9BIj.s:3678   .debug_str:00000000000008fb .LASF151
     /tmp/ccFM9BIj.s:400    .text:0000000000000244 .LVL32
     /tmp/ccFM9BIj.s:430    .text:000000000000028c .LVL33
     /tmp/ccFM9BIj.s:479    .text:0000000000000300 .LVL35
     /tmp/ccFM9BIj.s:486    .text:000000000000030c .LVL37
     /tmp/ccFM9BIj.s:482    .text:0000000000000304 .LVL36
     /tmp/ccFM9BIj.s:493    .text:0000000000000314 .LVL38
     /tmp/ccFM9BIj.s:233    .text:000000000000011c .LVL19
     /tmp/ccFM9BIj.s:253    .text:000000000000014c .LVL20
     /tmp/ccFM9BIj.s:299    .text:00000000000001b8 .LVL21
     /tmp/ccFM9BIj.s:305    .text:00000000000001bc .LVL22
     /tmp/ccFM9BIj.s:75     .text:0000000000000058 .LVL2
     /tmp/ccFM9BIj.s:95     .text:0000000000000074 .LVL4
     /tmp/ccFM9BIj.s:91     .text:000000000000006c .LVL3
     /tmp/ccFM9BIj.s:517    .text:0000000000000324 .LVL39
     /tmp/ccFM9BIj.s:539    .text:0000000000000344 .LVL41
     /tmp/ccFM9BIj.s:557    .text:0000000000000364 .LVL45
     /tmp/ccFM9BIj.s:584    .text:0000000000000390 .LVL48
     /tmp/ccFM9BIj.s:532    .text:0000000000000340 .LVL40
     /tmp/ccFM9BIj.s:545    .text:0000000000000350 .LVL43
     /tmp/ccFM9BIj.s:328    .text:00000000000001d0 .LVL23
     /tmp/ccFM9BIj.s:356    .text:0000000000000200 .LVL25
     /tmp/ccFM9BIj.s:380    .text:0000000000000234 .LVL29
     /tmp/ccFM9BIj.s:383    .text:0000000000000238 .LVL30
     /tmp/ccFM9BIj.s:386    .text:000000000000023c .LVL31
     /tmp/ccFM9BIj.s:349    .text:00000000000001fc .LVL24
     /tmp/ccFM9BIj.s:360    .text:000000000000020c .LVL27
     /tmp/ccFM9BIj.s:136    .text:00000000000000ac .LVL6
     /tmp/ccFM9BIj.s:210    .text:0000000000000104 .LVL16
     /tmp/ccFM9BIj.s:214    .text:000000000000010c .LVL17
     /tmp/ccFM9BIj.s:143    .text:00000000000000b0 .LVL7
     /tmp/ccFM9BIj.s:148    .text:00000000000000b4 .LVL8
     /tmp/ccFM9BIj.s:154    .text:00000000000000b8 .LVL9
     /tmp/ccFM9BIj.s:159    .text:00000000000000bc .LVL10
     /tmp/ccFM9BIj.s:165    .text:00000000000000c0 .LVL11
     /tmp/ccFM9BIj.s:170    .text:00000000000000c4 .LVL12
     /tmp/ccFM9BIj.s:176    .text:00000000000000c8 .LVL13
GAS LISTING /tmp/ccFM9BIj.s 			page 25


     /tmp/ccFM9BIj.s:642    .debug_info:0000000000000000 .Ldebug_info0
     /tmp/ccFM9BIj.s:592    .gcc_except_table:0000000000000000 .LLSDA36

UNDEFINED SYMBOLS
_ZN6KRiscv10popSppSpieEv
_ZN10KScheduler3getEv
_ZN4KPCB13contextSwitchEPNS_7ContextES1_
_ZN10KScheduler3putEP4KPCB
_ZN16KMemoryAllocator9mem_allocEm
_Znam
_ZN16KMemoryAllocator8mem_freeEPv
_Unwind_Resume
__gxx_personality_v0
