GAS LISTING /tmp/cc88gCBR.s 			page 1


   1              		.file	"KRiscv.cpp"
   2              		.option pic
   3              		.option norelax
   4              		.text
   5              	.Ltext0:
   6              		.align	2
   7              		.globl	_ZN6KRiscv10popSppSpieEv
   9              	_ZN6KRiscv10popSppSpieEv:
  10              	.LFB50:
  11              		.file 1 "src/KRiscv.cpp"
   1:src/KRiscv.cpp **** //
   2:src/KRiscv.cpp **** // Created by os on 6/22/22.
   3:src/KRiscv.cpp **** //
   4:src/KRiscv.cpp **** 
   5:src/KRiscv.cpp **** #include "../h/KRiscv.hpp"
   6:src/KRiscv.cpp **** #include "../lib/hw.h"
   7:src/KRiscv.cpp **** #include "../h/KMemoryAllocator.hpp"
   8:src/KRiscv.cpp **** #include "../h/KPCB.hpp"
   9:src/KRiscv.cpp **** #include "../h/KSemaphore.hpp"
  10:src/KRiscv.cpp **** #include "../h/KSleep.hpp"
  11:src/KRiscv.cpp **** #include "../h/KConsole.hpp"
  12:src/KRiscv.cpp **** 
  13:src/KRiscv.cpp **** constexpr uint64 TIMER = 0x8000000000000001UL;
  14:src/KRiscv.cpp **** constexpr uint64 EXT_HW = 0x8000000000000009UL;
  15:src/KRiscv.cpp **** constexpr uint64 ILL_INSTR = 2;
  16:src/KRiscv.cpp **** constexpr uint64 ERR_RD = 5;
  17:src/KRiscv.cpp **** constexpr uint64 ERR_WR = 7;
  18:src/KRiscv.cpp **** constexpr uint64 ECALL_USER = 8;
  19:src/KRiscv.cpp **** constexpr uint64 ECALL_SYS = 9;
  20:src/KRiscv.cpp **** 
  21:src/KRiscv.cpp **** constexpr uint64 MEM_ALLOC = 0x01;
  22:src/KRiscv.cpp **** constexpr uint64 MEM_FREE = 0x02;
  23:src/KRiscv.cpp **** constexpr uint64 USER_MODE = 0x05;
  24:src/KRiscv.cpp **** constexpr uint64 THREAD_CREATE_CPP = 0x10;
  25:src/KRiscv.cpp **** constexpr uint64 THREAD_CREATE = 0x11;
  26:src/KRiscv.cpp **** constexpr uint64 THREAD_EXIT = 0x12;
  27:src/KRiscv.cpp **** constexpr uint64 THREAD_DISPATCH = 0x13;
  28:src/KRiscv.cpp **** constexpr uint64 SEM_OPEN = 0x21;
  29:src/KRiscv.cpp **** constexpr uint64 SEM_CLOSE = 0x22;
  30:src/KRiscv.cpp **** constexpr uint64 SEM_WAIT = 0x23;
  31:src/KRiscv.cpp **** constexpr uint64 SEM_SIGNAL = 0x24;
  32:src/KRiscv.cpp **** constexpr uint64 TIME_SLEEP = 0x31;
  33:src/KRiscv.cpp **** constexpr uint64 GETC = 0x41;
  34:src/KRiscv.cpp **** constexpr uint64 PUTC = 0x42;
  35:src/KRiscv.cpp **** 
  36:src/KRiscv.cpp **** void KRiscv::popSppSpie() {
  12              		.loc 1 36 27
  13              		.cfi_startproc
  14 0000 130101FF 		addi	sp,sp,-16
  15              		.cfi_def_cfa_offset 16
  16 0004 23348100 		sd	s0,8(sp)
  17              		.cfi_offset 8, -8
  18 0008 13040101 		addi	s0,sp,16
  19              		.cfi_def_cfa 8, 0
  37:src/KRiscv.cpp ****     asm volatile ("csrw sepc, ra");
  20              		.loc 1 37 5
  21              		.loc 1 37 35 is_stmt 0
GAS LISTING /tmp/cc88gCBR.s 			page 2


  22              	#APP
  23              	# 37 "src/KRiscv.cpp" 1
  38              	    asm volatile ("sret");
  24              		csrw sepc, ra
  25              	# 0 "" 2
  26              		.loc 1 38 5 is_stmt 1
  27              		.loc 1 38 26 is_stmt 0
  28              	# 38 "src/KRiscv.cpp" 1
  39              	}
  29              		sret
  30              	# 0 "" 2
  31              		.loc 1 39 1
  32              	#NO_APP
  33 0014 03348100 		ld	s0,8(sp)
  34              		.cfi_restore 8
  35              		.cfi_def_cfa 2, 16
  36 0018 13010101 		addi	sp,sp,16
  37              		.cfi_def_cfa_offset 0
  38 001c 67800000 		jr	ra
  39              		.cfi_endproc
  40              	.LFE50:
  42              		.align	2
  43              		.globl	_ZN6KRiscv16interruptHandlerEv
  45              	_ZN6KRiscv16interruptHandlerEv:
  46              	.LFB51:
  40:src/KRiscv.cpp **** 
  41:src/KRiscv.cpp **** void KRiscv::interruptHandler() {
  47              		.loc 1 41 33 is_stmt 1
  48              		.cfi_startproc
  49              		.cfi_personality 0x9b,DW.ref.__gxx_personality_v0
  50              		.cfi_lsda 0x1b,.LLSDA51
  51 0020 130101F1 		addi	sp,sp,-240
  52              		.cfi_def_cfa_offset 240
  53 0024 2334110E 		sd	ra,232(sp)
  54 0028 2330810E 		sd	s0,224(sp)
  55 002c 233C910C 		sd	s1,216(sp)
  56 0030 2338210D 		sd	s2,208(sp)
  57 0034 2334310D 		sd	s3,200(sp)
  58              		.cfi_offset 1, -8
  59              		.cfi_offset 8, -16
  60              		.cfi_offset 9, -24
  61              		.cfi_offset 18, -32
  62              		.cfi_offset 19, -40
  63 0038 1304010F 		addi	s0,sp,240
  64              		.cfi_def_cfa 8, 0
  42:src/KRiscv.cpp ****     uint64 scause = r_scause();
  65              		.loc 1 42 5
  66              	.LBB159:
  67              	.LBB160:
  68              		.file 2 "src/../h/KRiscv.hpp"
   1:src/../h/KRiscv.hpp **** //
   2:src/../h/KRiscv.hpp **** // Created by os on 6/22/22.
   3:src/../h/KRiscv.hpp **** //
   4:src/../h/KRiscv.hpp **** 
   5:src/../h/KRiscv.hpp **** #ifndef PROJECT_BASE_V1_1_KRISCV_HPP
   6:src/../h/KRiscv.hpp **** #define PROJECT_BASE_V1_1_KRISCV_HPP
   7:src/../h/KRiscv.hpp **** 
GAS LISTING /tmp/cc88gCBR.s 			page 3


   8:src/../h/KRiscv.hpp **** #include "../lib/hw.h"
   9:src/../h/KRiscv.hpp **** 
  10:src/../h/KRiscv.hpp **** extern uint64 framePointer;
  11:src/../h/KRiscv.hpp **** 
  12:src/../h/KRiscv.hpp **** class KRiscv {
  13:src/../h/KRiscv.hpp **** public:
  14:src/../h/KRiscv.hpp **** 
  15:src/../h/KRiscv.hpp ****     static void popSppSpie();
  16:src/../h/KRiscv.hpp ****     static void interruptHandler();
  17:src/../h/KRiscv.hpp ****     static void interrupt();
  18:src/../h/KRiscv.hpp ****     static void pushRegisters();
  19:src/../h/KRiscv.hpp ****     static void popRegisters();
  20:src/../h/KRiscv.hpp **** 
  21:src/../h/KRiscv.hpp ****     static uint64 r_scause();
  22:src/../h/KRiscv.hpp ****     static void w_scause(uint64 scause);
  23:src/../h/KRiscv.hpp ****     static uint64 r_sepc();
  24:src/../h/KRiscv.hpp ****     static void w_sepc(uint64 sepc);
  25:src/../h/KRiscv.hpp ****     static uint64 r_stvec();
  26:src/../h/KRiscv.hpp ****     static void w_stvec(uint64 stvec);
  27:src/../h/KRiscv.hpp ****     static uint64 r_stval();
  28:src/../h/KRiscv.hpp ****     static void w_stval(uint64 stval);
  29:src/../h/KRiscv.hpp **** 
  30:src/../h/KRiscv.hpp ****     enum BitMaskSip {
  31:src/../h/KRiscv.hpp ****         SIP_SSIP = (1 << 1),
  32:src/../h/KRiscv.hpp ****         SIP_STIP = (1 << 5),
  33:src/../h/KRiscv.hpp ****         SIP_SEIP = (1 << 9)
  34:src/../h/KRiscv.hpp ****     };
  35:src/../h/KRiscv.hpp **** 
  36:src/../h/KRiscv.hpp ****     static void ms_sip(uint64 mask);
  37:src/../h/KRiscv.hpp ****     static void mc_sip(uint64 mask);
  38:src/../h/KRiscv.hpp ****     static uint64 r_sip();
  39:src/../h/KRiscv.hpp ****     static void w_sip(uint64 sip);
  40:src/../h/KRiscv.hpp **** 
  41:src/../h/KRiscv.hpp ****     enum BitMaskSstatus {
  42:src/../h/KRiscv.hpp ****         SSTATUS_SIE = (1 << 1),
  43:src/../h/KRiscv.hpp ****         SSTATUS_SPIE = (1 << 5),
  44:src/../h/KRiscv.hpp ****         SSTATUS_SPP = (1 << 8)
  45:src/../h/KRiscv.hpp ****     };
  46:src/../h/KRiscv.hpp **** 
  47:src/../h/KRiscv.hpp ****     static void ms_sstatus(uint64 mask);
  48:src/../h/KRiscv.hpp ****     static void mc_sstatus(uint64 mask);
  49:src/../h/KRiscv.hpp ****     static uint64 r_sstatus();
  50:src/../h/KRiscv.hpp ****     static void w_sstatus(uint64 sstatus);
  51:src/../h/KRiscv.hpp **** 
  52:src/../h/KRiscv.hpp **** };
  53:src/../h/KRiscv.hpp **** 
  54:src/../h/KRiscv.hpp **** inline uint64 KRiscv::r_scause() {
  55:src/../h/KRiscv.hpp ****     uint64 volatile scause;
  69              		.loc 2 55 5
  56:src/../h/KRiscv.hpp ****     asm volatile ("csrr %0, scause" : "=r"(scause));
  70              		.loc 2 56 5
  71              		.loc 2 56 52 is_stmt 0
  72              	#APP
  73              	# 56 "src/../h/KRiscv.hpp" 1
  57              	    return scause;
  74              		csrr a5, scause
  75              	# 0 "" 2
GAS LISTING /tmp/cc88gCBR.s 			page 4


  76              	#NO_APP
  77 0040 233CF4F0 		sd	a5,-232(s0)
  78              		.loc 2 57 5 is_stmt 1
  79              		.loc 2 57 12 is_stmt 0
  80 0044 033784F1 		ld	a4,-232(s0)
  81              	.LVL0:
  82              	.LBE160:
  83              	.LBE159:
  43:src/KRiscv.cpp ****     if (scause == ECALL_SYS || scause == ECALL_USER) {
  84              		.loc 1 43 5 is_stmt 1
  85              	.LBB161:
  86              		.loc 1 43 29 is_stmt 0
  87 0048 930687FF 		addi	a3,a4,-8
  88              		.loc 1 43 5
  89 004c 93071000 		li	a5,1
  90 0050 63F0D704 		bleu	a3,a5,.L39
  91              	.LBE161:
  44:src/KRiscv.cpp ****         uint64 name;
  45:src/KRiscv.cpp ****         asm volatile("mv %0, a0" : "=r" (name));
  46:src/KRiscv.cpp ****         if (name == MEM_ALLOC) {
  47:src/KRiscv.cpp ****             uint64 sizeBlock;
  48:src/KRiscv.cpp ****             asm volatile("ld a1, 11*8(%0)" :: "r"(framePointer));
  49:src/KRiscv.cpp ****             asm volatile("mv %0, a1" : "=r" (sizeBlock));
  50:src/KRiscv.cpp ****             void* res = KMemoryAllocator::mem_alloc(sizeBlock);
  51:src/KRiscv.cpp ****             asm volatile("mv a0, %0" : : "r" (res));
  52:src/KRiscv.cpp ****             asm volatile("sd a0, 10*8(%0)" :: "r"(framePointer));
  53:src/KRiscv.cpp ****             KRiscv::w_sepc(KRiscv::r_sepc() + 4);
  54:src/KRiscv.cpp ****         }
  55:src/KRiscv.cpp ****         else if (name == MEM_FREE) {
  56:src/KRiscv.cpp ****             uint64 addr;
  57:src/KRiscv.cpp ****             asm volatile("ld a1, 11*8(%0)" :: "r"(framePointer));
  58:src/KRiscv.cpp ****             asm volatile("mv %0, a1" : "=r"(addr));
  59:src/KRiscv.cpp ****             int res = KMemoryAllocator::mem_free((void*)addr);
  60:src/KRiscv.cpp ****             asm volatile("mv a0, %0" : : "r"(res));
  61:src/KRiscv.cpp ****             asm volatile("sd a0, 10*8(%0)" :: "r"(framePointer));
  62:src/KRiscv.cpp ****             KRiscv::w_sepc(KRiscv::r_sepc() + 4);
  63:src/KRiscv.cpp ****         }
  64:src/KRiscv.cpp ****         else if (name == USER_MODE) {
  65:src/KRiscv.cpp ****             KRiscv::mc_sstatus(KRiscv::SSTATUS_SPP);
  66:src/KRiscv.cpp ****             KRiscv::w_sepc(KRiscv::r_sepc() + 4);
  67:src/KRiscv.cpp ****         }
  68:src/KRiscv.cpp ****         else if (name == THREAD_CREATE_CPP) {
  69:src/KRiscv.cpp ****             KPCB** rucka = nullptr;
  70:src/KRiscv.cpp ****             void (*fja)(void*) = nullptr;
  71:src/KRiscv.cpp ****             void* args = nullptr;
  72:src/KRiscv.cpp ****             void* stack = nullptr;
  73:src/KRiscv.cpp ****             asm volatile("ld a1, 11*8(%0)" :: "r"(framePointer));
  74:src/KRiscv.cpp ****             asm volatile("mv %0, a1" : "=r"(rucka));
  75:src/KRiscv.cpp ****             asm volatile("ld a2, 12*8(%0)" :: "r"(framePointer));
  76:src/KRiscv.cpp ****             asm volatile("mv %0, a2" : "=r"(fja));
  77:src/KRiscv.cpp ****             asm volatile("ld a3, 13*8(%0)" :: "r"(framePointer));
  78:src/KRiscv.cpp ****             asm volatile("mv %0, a3" : "=r"(args));
  79:src/KRiscv.cpp ****             asm volatile("ld a4, 14*8(%0)" :: "r"(framePointer));
  80:src/KRiscv.cpp ****             asm volatile("mv %0, a4" : "=r"(stack));
  81:src/KRiscv.cpp ****             *rucka = KPCB::createThread(fja, args, stack);
  82:src/KRiscv.cpp ****             if (*rucka != nullptr) asm volatile("li a0, 0");
  83:src/KRiscv.cpp ****             else asm volatile("li a0, -1");
GAS LISTING /tmp/cc88gCBR.s 			page 5


  84:src/KRiscv.cpp ****             asm volatile("sd a0, 10*8(%0)" :: "r"(framePointer));
  85:src/KRiscv.cpp ****             KRiscv::w_sepc(KRiscv::r_sepc() + 4);
  86:src/KRiscv.cpp ****         }
  87:src/KRiscv.cpp ****         else if (name == THREAD_CREATE) {
  88:src/KRiscv.cpp ****             KPCB** rucka = nullptr;
  89:src/KRiscv.cpp ****             void (*fja)(void*) = nullptr;
  90:src/KRiscv.cpp ****             void* args = nullptr;
  91:src/KRiscv.cpp ****             void* stack = nullptr;
  92:src/KRiscv.cpp ****             asm volatile("ld a1, 11*8(%0)" :: "r"(framePointer));
  93:src/KRiscv.cpp ****             asm volatile("mv %0, a1" : "=r"(rucka));
  94:src/KRiscv.cpp ****             asm volatile("ld a2, 12*8(%0)" :: "r"(framePointer));
  95:src/KRiscv.cpp ****             asm volatile("mv %0, a2" : "=r"(fja));
  96:src/KRiscv.cpp ****             asm volatile("ld a3, 13*8(%0)" :: "r"(framePointer));
  97:src/KRiscv.cpp ****             asm volatile("mv %0, a3" : "=r"(args));
  98:src/KRiscv.cpp ****             asm volatile("ld a4, 14*8(%0)" :: "r"(framePointer));
  99:src/KRiscv.cpp ****             asm volatile("mv %0, a4" : "=r"(stack));
 100:src/KRiscv.cpp ****             *rucka = KPCB::createThread(fja, args, stack);
 101:src/KRiscv.cpp ****             if (*rucka != nullptr) {
 102:src/KRiscv.cpp ****                 (*rucka)->startIt();
 103:src/KRiscv.cpp ****                 asm volatile("li a0, 0");
 104:src/KRiscv.cpp ****             }
 105:src/KRiscv.cpp ****             else asm volatile("li a0, -1");
 106:src/KRiscv.cpp ****             asm volatile("sd a0, 10*8(%0)" :: "r"(framePointer));
 107:src/KRiscv.cpp ****             KRiscv::w_sepc(KRiscv::r_sepc() + 4);
 108:src/KRiscv.cpp ****         }
 109:src/KRiscv.cpp ****         else if (name == THREAD_EXIT) {
 110:src/KRiscv.cpp ****             uint64 sepc = r_sepc() + 4;
 111:src/KRiscv.cpp ****             uint64 sstatus = r_sstatus();
 112:src/KRiscv.cpp ****             KPCB::running->setFinished(true);
 113:src/KRiscv.cpp ****             KPCB::dispatch();
 114:src/KRiscv.cpp ****             w_sstatus(sstatus);
 115:src/KRiscv.cpp ****             w_sepc(sepc);
 116:src/KRiscv.cpp ****         }
 117:src/KRiscv.cpp ****         else if (name == THREAD_DISPATCH) {
 118:src/KRiscv.cpp ****             uint64 sepc = r_sepc() + 4;
 119:src/KRiscv.cpp ****             uint64 sstatus = r_sstatus();
 120:src/KRiscv.cpp ****             KPCB::dispatch();
 121:src/KRiscv.cpp ****             w_sstatus(sstatus);
 122:src/KRiscv.cpp ****             w_sepc(sepc);
 123:src/KRiscv.cpp ****         }
 124:src/KRiscv.cpp ****         else if (name == SEM_OPEN) {
 125:src/KRiscv.cpp ****             KSemaphore** rucka = nullptr;
 126:src/KRiscv.cpp ****             unsigned init;
 127:src/KRiscv.cpp ****             asm volatile("ld a1, 11*8(%0)" :: "r"(framePointer));
 128:src/KRiscv.cpp ****             asm volatile("mv %0, a1" : "=r"(rucka));
 129:src/KRiscv.cpp ****             asm volatile("ld a2, 12*8(%0)" :: "r"(framePointer));
 130:src/KRiscv.cpp ****             asm volatile("mv %0, a2" : "=r"(init));
 131:src/KRiscv.cpp ****             *rucka = KSemaphore::createSemaphore(init);
 132:src/KRiscv.cpp ****             if (*rucka != nullptr) asm volatile("li a0, 0");
 133:src/KRiscv.cpp ****             else asm volatile("li a0, -1");
 134:src/KRiscv.cpp ****             asm volatile("sd a0, 10*8(%0)" :: "r"(framePointer));
 135:src/KRiscv.cpp ****             KRiscv::w_sepc(KRiscv::r_sepc() + 4);
 136:src/KRiscv.cpp ****         }
 137:src/KRiscv.cpp ****         else if (name == SEM_CLOSE) {
 138:src/KRiscv.cpp ****             KSemaphore* rucka = nullptr;
 139:src/KRiscv.cpp ****             asm volatile("ld a1, 11*8(%0)" :: "r"(framePointer));
 140:src/KRiscv.cpp ****             asm volatile("mv %0, a1" : "=r"(rucka));
GAS LISTING /tmp/cc88gCBR.s 			page 6


 141:src/KRiscv.cpp ****             delete rucka;
 142:src/KRiscv.cpp ****             KRiscv::w_sepc(KRiscv::r_sepc() + 4);
 143:src/KRiscv.cpp ****         }
 144:src/KRiscv.cpp ****         else if (name == SEM_WAIT) {
 145:src/KRiscv.cpp ****             uint64 sepc = r_sepc() + 4;
 146:src/KRiscv.cpp ****             uint64 sstatus = r_sstatus();
 147:src/KRiscv.cpp ****             KSemaphore* rucka = nullptr;
 148:src/KRiscv.cpp ****             asm volatile("ld a1, 11*8(%0)" :: "r"(framePointer));
 149:src/KRiscv.cpp ****             asm volatile("mv %0, a1" : "=r"(rucka));
 150:src/KRiscv.cpp ****             if (rucka) rucka->wait();
 151:src/KRiscv.cpp ****             w_sstatus(sstatus);
 152:src/KRiscv.cpp ****             w_sepc(sepc);
 153:src/KRiscv.cpp ****         }
 154:src/KRiscv.cpp ****         else if (name == SEM_SIGNAL) {
 155:src/KRiscv.cpp ****             KSemaphore* rucka = nullptr;
 156:src/KRiscv.cpp ****             asm volatile("ld a1, 11*8(%0)" :: "r"(framePointer));
 157:src/KRiscv.cpp ****             asm volatile("mv %0, a1" : "=r"(rucka));
 158:src/KRiscv.cpp ****             if (rucka) rucka->signal();
 159:src/KRiscv.cpp ****             KRiscv::w_sepc(KRiscv::r_sepc() + 4);
 160:src/KRiscv.cpp ****         }
 161:src/KRiscv.cpp ****         else if (name == TIME_SLEEP) {
 162:src/KRiscv.cpp ****             time_t t;
 163:src/KRiscv.cpp ****             asm volatile("ld a1, 11*8(%0)" :: "r"(framePointer));
 164:src/KRiscv.cpp ****             asm volatile("mv %0, a1" : "=r"(t));
 165:src/KRiscv.cpp ****             KSleep::add(t);
 166:src/KRiscv.cpp ****             uint64 sepc = KRiscv::r_sepc() + 4;
 167:src/KRiscv.cpp ****             uint64 sstatus = KRiscv::r_sstatus();
 168:src/KRiscv.cpp ****             KPCB::dispatch();
 169:src/KRiscv.cpp ****             KRiscv::w_sstatus(sstatus);
 170:src/KRiscv.cpp ****             KRiscv::w_sepc(sepc);
 171:src/KRiscv.cpp ****         }
 172:src/KRiscv.cpp ****         else if (name == GETC) {
 173:src/KRiscv.cpp ****             uint64 framePointerGETC = framePointer;
 174:src/KRiscv.cpp ****             uint64 sepc = KRiscv::r_sepc() + 4;
 175:src/KRiscv.cpp ****             uint64 sstatus = KRiscv::r_sstatus();
 176:src/KRiscv.cpp ****             char c = KConsole::inBuff->get();
 177:src/KRiscv.cpp ****             asm volatile("mv a0, %0" :: "r"(c));
 178:src/KRiscv.cpp ****             asm volatile("sd a0, 10*8(%0)" :: "r"(framePointerGETC));
 179:src/KRiscv.cpp ****             KRiscv::w_sstatus(framePointerGETC);
 180:src/KRiscv.cpp ****             KRiscv::w_sstatus(sstatus);
 181:src/KRiscv.cpp ****             KRiscv::w_sepc(sepc);
 182:src/KRiscv.cpp ****         }
 183:src/KRiscv.cpp ****         else if (name == PUTC) {
 184:src/KRiscv.cpp ****             char c;
 185:src/KRiscv.cpp ****             asm volatile("ld a1, 11*8(%0)" :: "r"(framePointer));
 186:src/KRiscv.cpp ****             asm volatile("mv %0, a1" : "=r"(c));
 187:src/KRiscv.cpp ****             uint64 sepc = KRiscv::r_sepc() + 4;
 188:src/KRiscv.cpp ****             uint64 sstatus = KRiscv::r_sstatus();
 189:src/KRiscv.cpp ****             KConsole::outBuff->put(c);
 190:src/KRiscv.cpp ****             while ((*(char*)CONSOLE_STATUS & CONSOLE_TX_STATUS_BIT)
 191:src/KRiscv.cpp ****                    && KConsole::outBuff->getCnt() > 0)
 192:src/KRiscv.cpp ****                 *(char*)CONSOLE_TX_DATA = KConsole::outBuff->get();
 193:src/KRiscv.cpp ****             KRiscv::w_sstatus(sstatus);
 194:src/KRiscv.cpp ****             KRiscv::w_sepc(sepc);
 195:src/KRiscv.cpp ****         }
 196:src/KRiscv.cpp ****     }
 197:src/KRiscv.cpp ****     else if (scause == TIMER) {
GAS LISTING /tmp/cc88gCBR.s 			page 7


  92              		.loc 1 197 10 is_stmt 1
  93              	.LBB436:
  94              	.LBB162:
  95 0054 9307F0FF 		li	a5,-1
  96 0058 9397F703 		slli	a5,a5,63
  97 005c 93871700 		addi	a5,a5,1
  98 0060 630AF758 		beq	a4,a5,.L40
  99              	.LBE162:
 100              	.LBE436:
 198:src/KRiscv.cpp ****         KPCB::timeSliceCounter++;
 199:src/KRiscv.cpp ****         KSleep::remove();
 200:src/KRiscv.cpp ****         if (KPCB::timeSliceCounter >= KPCB::running->TIME_SLICE) {
 201:src/KRiscv.cpp ****             uint64 sepc = r_sepc();
 202:src/KRiscv.cpp ****             uint64 sstatus = r_sstatus();
 203:src/KRiscv.cpp ****             KPCB::dispatch();
 204:src/KRiscv.cpp ****             w_sstatus(sstatus);
 205:src/KRiscv.cpp ****             w_sepc(sepc);
 206:src/KRiscv.cpp ****         }
 207:src/KRiscv.cpp ****         mc_sip(SIP_SSIP);
 208:src/KRiscv.cpp ****     }
 209:src/KRiscv.cpp ****     else if (scause == EXT_HW) {
 101              		.loc 1 209 10
 102              	.LBB437:
 103              	.LBB182:
 104              	.LBB163:
 105 0064 9307F0FF 		li	a5,-1
 106 0068 9397F703 		slli	a5,a5,63
 107 006c 93879700 		addi	a5,a5,9
 108 0070 6302F75E 		beq	a4,a5,.L41
 109              	.LVL1:
 110              	.L3:
 111              	.LBE163:
 112              	.LBE182:
 113              	.LBE437:
 210:src/KRiscv.cpp ****         //console_handler();
 211:src/KRiscv.cpp ****         int consID = plic_claim();
 212:src/KRiscv.cpp ****         if (consID == CONSOLE_IRQ) {
 213:src/KRiscv.cpp ****             while ((*(char*)CONSOLE_STATUS & CONSOLE_RX_STATUS_BIT)
 214:src/KRiscv.cpp ****                 && KConsole::inBuff->getCnt() < KConsole::BUFF_SIZE)
 215:src/KRiscv.cpp ****                 KConsole::inBuff->put(*(char*)CONSOLE_RX_DATA);
 216:src/KRiscv.cpp ****         }
 217:src/KRiscv.cpp ****         plic_complete(consID);
 218:src/KRiscv.cpp ****     }
 219:src/KRiscv.cpp ****     else if (scause == ERR_RD) {
 220:src/KRiscv.cpp ****         /*
 221:src/KRiscv.cpp ****         printStringRadi("Error: read\n");
 222:src/KRiscv.cpp ****         printIntRadi(KRiscv::r_sstatus());
 223:src/KRiscv.cpp ****         printIntRadi(KRiscv::r_sepc());
 224:src/KRiscv.cpp ****         printIntRadi(KRiscv::r_stval());
 225:src/KRiscv.cpp ****          */
 226:src/KRiscv.cpp ****     }
 227:src/KRiscv.cpp ****     else if (scause == ERR_WR) {
 228:src/KRiscv.cpp ****         /*
 229:src/KRiscv.cpp ****         printStringRadi("Error: read\n");
 230:src/KRiscv.cpp ****         printIntRadi(KRiscv::r_sstatus());
 231:src/KRiscv.cpp ****         printIntRadi(KRiscv::r_sepc());
 232:src/KRiscv.cpp ****         printIntRadi(KRiscv::r_stval());
GAS LISTING /tmp/cc88gCBR.s 			page 8


 233:src/KRiscv.cpp ****          */
 234:src/KRiscv.cpp ****     }
 235:src/KRiscv.cpp ****     else if (scause == ILL_INSTR) {
 236:src/KRiscv.cpp ****         /*
 237:src/KRiscv.cpp ****         printStringRadi("Error: read\n");
 238:src/KRiscv.cpp ****         printIntRadi(KRiscv::r_sstatus());
 239:src/KRiscv.cpp ****         printIntRadi(KRiscv::r_sepc());
 240:src/KRiscv.cpp ****         printIntRadi(KRiscv::r_stval());
 241:src/KRiscv.cpp ****          */
 242:src/KRiscv.cpp ****     }
 243:src/KRiscv.cpp **** 
 244:src/KRiscv.cpp **** }...
 114              		.loc 1 244 1 is_stmt 0
 115 0074 8330810E 		ld	ra,232(sp)
 116              		.cfi_remember_state
 117              		.cfi_restore 1
 118 0078 0334010E 		ld	s0,224(sp)
 119              		.cfi_restore 8
 120              		.cfi_def_cfa 2, 240
 121 007c 8334810D 		ld	s1,216(sp)
 122              		.cfi_restore 9
 123 0080 0339010D 		ld	s2,208(sp)
 124              		.cfi_restore 18
 125 0084 8339810C 		ld	s3,200(sp)
 126              		.cfi_restore 19
 127 0088 1301010F 		addi	sp,sp,240
 128              		.cfi_def_cfa_offset 0
 129 008c 67800000 		jr	ra
 130              	.LVL2:
 131              	.L39:
 132              		.cfi_restore_state
 133              	.LBB438:
 134              	.LBB183:
  44:src/KRiscv.cpp ****         uint64 name;
 135              		.loc 1 44 9 is_stmt 1
  45:src/KRiscv.cpp ****         asm volatile("mv %0, a0" : "=r" (name));
 136              		.loc 1 45 9
  45:src/KRiscv.cpp ****         asm volatile("mv %0, a0" : "=r" (name));
 137              		.loc 1 45 48 is_stmt 0
 138              	#APP
 139              	# 45 "src/KRiscv.cpp" 1
 140              		mv a5, a0
 141              	# 0 "" 2
 142              	.LVL3:
  46:src/KRiscv.cpp ****         if (name == MEM_ALLOC) {
 143              		.loc 1 46 9 is_stmt 1
 144              	#NO_APP
 145              	.LBB184:
 146 0094 13071000 		li	a4,1
 147              	.LVL4:
 148 0098 6386E710 		beq	a5,a4,.L42
 149              	.LBE184:
 150              	.LBE183:
 151              	.LBE438:
  55:src/KRiscv.cpp ****         else if (name == MEM_FREE) {
 152              		.loc 1 55 14
 153              	.LBB439:
GAS LISTING /tmp/cc88gCBR.s 			page 9


 154              	.LBB421:
 155              	.LBB408:
 156              	.LBB185:
 157 009c 13072000 		li	a4,2
 158 00a0 6382E714 		beq	a5,a4,.L43
 159              	.LBE185:
 160              	.LBE408:
 161              	.LBE421:
 162              	.LBE439:
  64:src/KRiscv.cpp ****         else if (name == USER_MODE) {
 163              		.loc 1 64 14
 164              	.LBB440:
 165              	.LBB422:
 166              	.LBB409:
 167              	.LBB390:
 168              	.LBB186:
 169 00a4 13075000 		li	a4,5
 170 00a8 638EE716 		beq	a5,a4,.L44
 171              	.LBE186:
 172              	.LBE390:
 173              	.LBE409:
 174              	.LBE422:
 175              	.LBE440:
  68:src/KRiscv.cpp ****         else if (name == THREAD_CREATE_CPP) {
 176              		.loc 1 68 14
 177              	.LBB441:
 178              	.LBB423:
 179              	.LBB410:
 180              	.LBB391:
 181              	.LBB373:
 182              	.LBB187:
 183 00ac 13070001 		li	a4,16
 184 00b0 638AE718 		beq	a5,a4,.L45
 185              	.LBE187:
 186              	.LBE373:
 187              	.LBE391:
 188              	.LBE410:
 189              	.LBE423:
 190              	.LBE441:
  87:src/KRiscv.cpp ****         else if (name == THREAD_CREATE) {
 191              		.loc 1 87 14
 192              	.LBB442:
 193              	.LBB424:
 194              	.LBB411:
 195              	.LBB392:
 196              	.LBB374:
 197              	.LBB356:
 198              	.LBB188:
 199 00b4 13071001 		li	a4,17
 200 00b8 638EE71E 		beq	a5,a4,.L46
 201              	.LBE188:
 202              	.LBE356:
 203              	.LBE374:
 204              	.LBE392:
 205              	.LBE411:
 206              	.LBE424:
 207              	.LBE442:
GAS LISTING /tmp/cc88gCBR.s 			page 10


 109:src/KRiscv.cpp ****         else if (name == THREAD_EXIT) {
 208              		.loc 1 109 14
 209              	.LBB443:
 210              	.LBB425:
 211              	.LBB412:
 212              	.LBB393:
 213              	.LBB375:
 214              	.LBB357:
 215              	.LBB341:
 216              	.LBB189:
 217 00bc 13072001 		li	a4,18
 218 00c0 638EE726 		beq	a5,a4,.L47
 219              	.LBE189:
 220              	.LBE341:
 221              	.LBE357:
 222              	.LBE375:
 223              	.LBE393:
 224              	.LBE412:
 225              	.LBE425:
 226              	.LBE443:
 117:src/KRiscv.cpp ****         else if (name == THREAD_DISPATCH) {
 227              		.loc 1 117 14
 228              	.LBB444:
 229              	.LBB426:
 230              	.LBB413:
 231              	.LBB394:
 232              	.LBB376:
 233              	.LBB358:
 234              	.LBB342:
 235              	.LBB325:
 236              	.LBB190:
 237 00c4 13073001 		li	a4,19
 238 00c8 638AE72C 		beq	a5,a4,.L48
 239              	.LBE190:
 240              	.LBE325:
 241              	.LBE342:
 242              	.LBE358:
 243              	.LBE376:
 244              	.LBE394:
 245              	.LBE413:
 246              	.LBE426:
 247              	.LBE444:
 124:src/KRiscv.cpp ****         else if (name == SEM_OPEN) {
 248              		.loc 1 124 14
 249              	.LBB445:
 250              	.LBB427:
 251              	.LBB414:
 252              	.LBB395:
 253              	.LBB377:
 254              	.LBB359:
 255              	.LBB343:
 256              	.LBB326:
 257              	.LBB306:
 258              	.LBB191:
 259 00cc 13071002 		li	a4,33
 260 00d0 638EE72E 		beq	a5,a4,.L49
 261              	.LBE191:
GAS LISTING /tmp/cc88gCBR.s 			page 11


 262              	.LBE306:
 263              	.LBE326:
 264              	.LBE343:
 265              	.LBE359:
 266              	.LBE377:
 267              	.LBE395:
 268              	.LBE414:
 269              	.LBE427:
 270              	.LBE445:
 137:src/KRiscv.cpp ****         else if (name == SEM_CLOSE) {
 271              		.loc 1 137 14
 272              	.LBB446:
 273              	.LBB428:
 274              	.LBB415:
 275              	.LBB396:
 276              	.LBB378:
 277              	.LBB360:
 278              	.LBB344:
 279              	.LBB327:
 280              	.LBB307:
 281              	.LBB290:
 282              	.LBB192:
 283 00d4 13072002 		li	a4,34
 284 00d8 638EE734 		beq	a5,a4,.L50
 285              	.LBE192:
 286              	.LBE290:
 287              	.LBE307:
 288              	.LBE327:
 289              	.LBE344:
 290              	.LBE360:
 291              	.LBE378:
 292              	.LBE396:
 293              	.LBE415:
 294              	.LBE428:
 295              	.LBE446:
 144:src/KRiscv.cpp ****         else if (name == SEM_WAIT) {
 296              		.loc 1 144 14
 297              	.LBB447:
 298              	.LBB429:
 299              	.LBB416:
 300              	.LBB397:
 301              	.LBB379:
 302              	.LBB361:
 303              	.LBB345:
 304              	.LBB328:
 305              	.LBB308:
 306              	.LBB291:
 307              	.LBB279:
 308              	.LBB193:
 309 00dc 13073002 		li	a4,35
 310 00e0 638EE73A 		beq	a5,a4,.L51
 311              	.LBE193:
 312              	.LBE279:
 313              	.LBE291:
 314              	.LBE308:
 315              	.LBE328:
 316              	.LBE345:
GAS LISTING /tmp/cc88gCBR.s 			page 12


 317              	.LBE361:
 318              	.LBE379:
 319              	.LBE397:
 320              	.LBE416:
 321              	.LBE429:
 322              	.LBE447:
 154:src/KRiscv.cpp ****         else if (name == SEM_SIGNAL) {
 323              		.loc 1 154 14
 324              	.LBB448:
 325              	.LBB430:
 326              	.LBB417:
 327              	.LBB398:
 328              	.LBB380:
 329              	.LBB362:
 330              	.LBB346:
 331              	.LBB329:
 332              	.LBB309:
 333              	.LBB292:
 334              	.LBB280:
 335              	.LBB260:
 336              	.LBB194:
 337 00e4 13074002 		li	a4,36
 338 00e8 638AE740 		beq	a5,a4,.L52
 339              	.LBE194:
 340              	.LBE260:
 341              	.LBE280:
 342              	.LBE292:
 343              	.LBE309:
 344              	.LBE329:
 345              	.LBE346:
 346              	.LBE362:
 347              	.LBE380:
 348              	.LBE398:
 349              	.LBE417:
 350              	.LBE430:
 351              	.LBE448:
 161:src/KRiscv.cpp ****         else if (name == TIME_SLEEP) {
 352              		.loc 1 161 14
 353              	.LBB449:
 354              	.LBB431:
 355              	.LBB418:
 356              	.LBB399:
 357              	.LBB381:
 358              	.LBB363:
 359              	.LBB347:
 360              	.LBB330:
 361              	.LBB310:
 362              	.LBB293:
 363              	.LBB281:
 364              	.LBB261:
 365              	.LBB243:
 366              	.LBB195:
 367 00ec 13071003 		li	a4,49
 368 00f0 638CE744 		beq	a5,a4,.L53
 369              	.LBE195:
 370              	.LBE243:
 371              	.LBE261:
GAS LISTING /tmp/cc88gCBR.s 			page 13


 372              	.LBE281:
 373              	.LBE293:
 374              	.LBE310:
 375              	.LBE330:
 376              	.LBE347:
 377              	.LBE363:
 378              	.LBE381:
 379              	.LBE399:
 380              	.LBE418:
 381              	.LBE431:
 382              	.LBE449:
 172:src/KRiscv.cpp ****         else if (name == GETC) {
 383              		.loc 1 172 14
 384              	.LBB450:
 385              	.LBB432:
 386              	.LBB419:
 387              	.LBB400:
 388              	.LBB382:
 389              	.LBB364:
 390              	.LBB348:
 391              	.LBB331:
 392              	.LBB311:
 393              	.LBB294:
 394              	.LBB282:
 395              	.LBB262:
 396              	.LBB244:
 397              	.LBB231:
 398              	.LBB196:
 399 00f4 13071004 		li	a4,65
 400 00f8 638EE748 		beq	a5,a4,.L54
 401              	.LBE196:
 402              	.LBE231:
 403              	.LBE244:
 404              	.LBE262:
 405              	.LBE282:
 406              	.LBE294:
 407              	.LBE311:
 408              	.LBE331:
 409              	.LBE348:
 410              	.LBE364:
 411              	.LBE382:
 412              	.LBE400:
 413              	.LBE419:
 414              	.LBE432:
 415              	.LBE450:
 183:src/KRiscv.cpp ****         else if (name == PUTC) {
 416              		.loc 1 183 14
 417              	.LBB451:
 418              	.LBB433:
 419              	.LBB420:
 420              	.LBB401:
 421              	.LBB383:
 422              	.LBB365:
 423              	.LBB349:
 424              	.LBB332:
 425              	.LBB312:
 426              	.LBB295:
GAS LISTING /tmp/cc88gCBR.s 			page 14


 427              	.LBB283:
 428              	.LBB263:
 429              	.LBB245:
 430              	.LBB232:
 431              	.LBB220:
 432              	.LBB197:
 433 00fc 13072004 		li	a4,66
 434 0100 E39AE7F6 		bne	a5,a4,.L3
 435              	.LBB198:
 184:src/KRiscv.cpp ****             char c;
 436              		.loc 1 184 13
 185:src/KRiscv.cpp ****             asm volatile("ld a1, 11*8(%0)" :: "r"(framePointer));
 437              		.loc 1 185 13
 185:src/KRiscv.cpp ****             asm volatile("ld a1, 11*8(%0)" :: "r"(framePointer));
 438              		.loc 1 185 65 is_stmt 0
 439 0104 97070000 		la	a5,framePointer
 439      83B70700 
 440              	.LVL5:
 441 010c 83B70700 		ld	a5,0(a5)
 442              	#APP
 443              	# 185 "src/KRiscv.cpp" 1
 186:src/KRiscv.cpp ****             asm volatile("mv %0, a1" : "=r"(c));
 444              		ld a1, 11*8(a5)
 445              	# 0 "" 2
 446              		.loc 1 186 13 is_stmt 1
 186:src/KRiscv.cpp ****             asm volatile("mv %0, a1" : "=r"(c));
 447              		.loc 1 186 48 is_stmt 0
 448              	# 186 "src/KRiscv.cpp" 1
 449              		mv a1, a1
 450              	# 0 "" 2
 451              	#NO_APP
 452 0118 93F5F50F 		andi	a1,a1,0xff
 453              	.LVL6:
 187:src/KRiscv.cpp ****             uint64 sepc = KRiscv::r_sepc() + 4;
 454              		.loc 1 187 13 is_stmt 1
 455              	.LBB199:
 456              	.LBB200:
  58:src/../h/KRiscv.hpp **** }
  59:src/../h/KRiscv.hpp **** 
  60:src/../h/KRiscv.hpp **** inline void KRiscv::w_scause(uint64 scause) {
  61:src/../h/KRiscv.hpp ****     asm volatile ("csrw scause, %0" :: "r"(scause));
  62:src/../h/KRiscv.hpp **** }
  63:src/../h/KRiscv.hpp **** 
  64:src/../h/KRiscv.hpp **** inline uint64 KRiscv::r_sepc() {
  65:src/../h/KRiscv.hpp ****     uint64 volatile sepc;
 457              		.loc 2 65 5
  66:src/../h/KRiscv.hpp ****     asm volatile ("csrr %0, sepc" : "=r"(sepc));
 458              		.loc 2 66 5
 459              		.loc 2 66 48 is_stmt 0
 460              	#APP
 461              	# 66 "src/../h/KRiscv.hpp" 1
  67              	    return sepc;
 462              		csrr a5, sepc
 463              	# 0 "" 2
 464              	#NO_APP
 465 0120 233CF4FA 		sd	a5,-72(s0)
 466              		.loc 2 67 5 is_stmt 1
GAS LISTING /tmp/cc88gCBR.s 			page 15


 467              		.loc 2 67 12 is_stmt 0
 468 0124 833484FB 		ld	s1,-72(s0)
 469              	.LBE200:
 470              	.LBE199:
 187:src/KRiscv.cpp ****             uint64 sepc = KRiscv::r_sepc() + 4;
 471              		.loc 1 187 46
 472 0128 93844400 		addi	s1,s1,4
 473              	.LVL7:
 188:src/KRiscv.cpp ****             uint64 sstatus = KRiscv::r_sstatus();
 474              		.loc 1 188 13 is_stmt 1
 475              	.LBB201:
 476              	.LBB202:
  68:src/../h/KRiscv.hpp **** }
  69:src/../h/KRiscv.hpp **** 
  70:src/../h/KRiscv.hpp **** inline void KRiscv::w_sepc(uint64 sepc) {
  71:src/../h/KRiscv.hpp ****     asm volatile ("csrw sepc, %0" :: "r"(sepc));
  72:src/../h/KRiscv.hpp **** }
  73:src/../h/KRiscv.hpp **** 
  74:src/../h/KRiscv.hpp **** inline uint64 KRiscv::r_stvec() {
  75:src/../h/KRiscv.hpp ****     uint64 volatile stvec;
  76:src/../h/KRiscv.hpp ****     asm volatile ("csrr %0, stvec" : "=r"(stvec));
  77:src/../h/KRiscv.hpp ****     return stvec;
  78:src/../h/KRiscv.hpp **** }
  79:src/../h/KRiscv.hpp **** 
  80:src/../h/KRiscv.hpp **** inline void KRiscv::w_stvec(uint64 stvec) {
  81:src/../h/KRiscv.hpp ****     asm volatile ("csrw stvec, %0" :: "r"(stvec));
  82:src/../h/KRiscv.hpp **** }
  83:src/../h/KRiscv.hpp **** 
  84:src/../h/KRiscv.hpp **** inline uint64 KRiscv::r_stval() {
  85:src/../h/KRiscv.hpp ****     uint64 volatile stval;
  86:src/../h/KRiscv.hpp ****     asm volatile ("csrr %0, stval" : "=r"(stval));
  87:src/../h/KRiscv.hpp ****     return stval;
  88:src/../h/KRiscv.hpp **** }
  89:src/../h/KRiscv.hpp **** 
  90:src/../h/KRiscv.hpp **** inline void KRiscv::w_stval(uint64 stval) {
  91:src/../h/KRiscv.hpp ****     asm volatile ("csrw stval, %0" :: "r"(stval));
  92:src/../h/KRiscv.hpp **** }
  93:src/../h/KRiscv.hpp **** 
  94:src/../h/KRiscv.hpp **** inline void KRiscv::ms_sip(uint64 mask) {
  95:src/../h/KRiscv.hpp ****     asm volatile ("csrs sip, %0" :: "r"(mask));
  96:src/../h/KRiscv.hpp **** }
  97:src/../h/KRiscv.hpp **** 
  98:src/../h/KRiscv.hpp **** inline void KRiscv::mc_sip(uint64 mask) {
  99:src/../h/KRiscv.hpp ****     asm volatile ("csrc sip, %0" :: "r"(mask));
 100:src/../h/KRiscv.hpp **** }
 101:src/../h/KRiscv.hpp **** 
 102:src/../h/KRiscv.hpp **** inline uint64 KRiscv::r_sip() {
 103:src/../h/KRiscv.hpp ****     uint64 volatile sip;
 104:src/../h/KRiscv.hpp ****     asm volatile ("csrr %0, sip" : "=r"(sip));
 105:src/../h/KRiscv.hpp ****     return sip;
 106:src/../h/KRiscv.hpp **** }
 107:src/../h/KRiscv.hpp **** 
 108:src/../h/KRiscv.hpp **** inline void KRiscv::w_sip(uint64 sip) {
 109:src/../h/KRiscv.hpp ****     asm volatile ("csrw sip, %0" :: "r"(sip));
 110:src/../h/KRiscv.hpp **** }
 111:src/../h/KRiscv.hpp **** 
 112:src/../h/KRiscv.hpp **** inline void KRiscv::ms_sstatus(uint64 mask) {
GAS LISTING /tmp/cc88gCBR.s 			page 16


 113:src/../h/KRiscv.hpp ****     asm volatile ("csrs sstatus, %0" :: "r"(mask));
 114:src/../h/KRiscv.hpp **** }
 115:src/../h/KRiscv.hpp **** 
 116:src/../h/KRiscv.hpp **** inline void KRiscv::mc_sstatus(uint64 mask) {
 117:src/../h/KRiscv.hpp ****     asm volatile ("csrc sstatus, %0" :: "r"(mask));
 118:src/../h/KRiscv.hpp **** }
 119:src/../h/KRiscv.hpp **** 
 120:src/../h/KRiscv.hpp **** inline uint64 KRiscv::r_sstatus() {
 121:src/../h/KRiscv.hpp ****     uint64 volatile sstatus;
 477              		.loc 2 121 5
 122:src/../h/KRiscv.hpp ****     asm volatile ("csrr %0, sstatus" : "=r"(sstatus));
 478              		.loc 2 122 5
 479              		.loc 2 122 54 is_stmt 0
 480              	#APP
 481              	# 122 "src/../h/KRiscv.hpp" 1
 123              	    return sstatus;
 482              		csrr a5, sstatus
 483              	# 0 "" 2
 484              	#NO_APP
 485 0130 2338F4FA 		sd	a5,-80(s0)
 486              		.loc 2 123 5 is_stmt 1
 487              		.loc 2 123 12 is_stmt 0
 488 0134 033904FB 		ld	s2,-80(s0)
 489              	.LVL8:
 490              	.LBE202:
 491              	.LBE201:
 189:src/KRiscv.cpp ****             KConsole::outBuff->put(c);
 492              		.loc 1 189 13 is_stmt 1
 189:src/KRiscv.cpp ****             KConsole::outBuff->put(c);
 493              		.loc 1 189 35 is_stmt 0
 494 0138 97070000 		la	a5,_ZN8KConsole7outBuffE
 494      83B70700 
 495 0140 03B50700 		ld	a0,0(a5)
 496              	.LEHB0:
 497 0144 97000000 		call	_ZN8KConsole3putEc@plt
 497      E7800000 
 498              	.LVL9:
 499              	.L33:
 190:src/KRiscv.cpp ****             while ((*(char*)CONSOLE_STATUS & CONSOLE_TX_STATUS_BIT)
 500              		.loc 1 190 13 is_stmt 1
 191:src/KRiscv.cpp ****                    && KConsole::outBuff->getCnt() > 0)
 501              		.loc 1 191 20
 190:src/KRiscv.cpp ****             while ((*(char*)CONSOLE_STATUS & CONSOLE_TX_STATUS_BIT)
 502              		.loc 1 190 21 is_stmt 0
 503 014c 97070000 		la	a5,CONSOLE_STATUS
 503      83B70700 
 504 0154 83B70700 		ld	a5,0(a5)
 505 0158 83C70700 		lbu	a5,0(a5)
 191:src/KRiscv.cpp ****                    && KConsole::outBuff->getCnt() > 0)
 506              		.loc 1 191 20
 507 015c 93F70702 		andi	a5,a5,32
 508 0160 63840748 		beqz	a5,.L32
 191:src/KRiscv.cpp ****                    && KConsole::outBuff->getCnt() > 0)
 509              		.loc 1 191 48 discriminator 1
 510 0164 97070000 		la	a5,_ZN8KConsole7outBuffE
 510      83B70700 
 511 016c 03B50700 		ld	a0,0(a5)
GAS LISTING /tmp/cc88gCBR.s 			page 17


 512 0170 97000000 		call	_ZN8KConsole6getCntEv@plt
 512      E7800000 
 513              	.LVL10:
 191:src/KRiscv.cpp ****                    && KConsole::outBuff->getCnt() > 0)
 514              		.loc 1 191 20 discriminator 1
 515 0178 6358A046 		blez	a0,.L32
 192:src/KRiscv.cpp ****                 *(char*)CONSOLE_TX_DATA = KConsole::outBuff->get();
 516              		.loc 1 192 17 is_stmt 1
 192:src/KRiscv.cpp ****                 *(char*)CONSOLE_TX_DATA = KConsole::outBuff->get();
 517              		.loc 1 192 65 is_stmt 0
 518 017c 97070000 		la	a5,_ZN8KConsole7outBuffE
 518      83B70700 
 519 0184 03B50700 		ld	a0,0(a5)
 520 0188 97000000 		call	_ZN8KConsole3getEv@plt
 520      E7800000 
 521              	.LVL11:
 192:src/KRiscv.cpp ****                 *(char*)CONSOLE_TX_DATA = KConsole::outBuff->get();
 522              		.loc 1 192 17
 523 0190 97070000 		la	a5,CONSOLE_TX_DATA
 523      83B70700 
 524 0198 83B70700 		ld	a5,0(a5)
 192:src/KRiscv.cpp ****                 *(char*)CONSOLE_TX_DATA = KConsole::outBuff->get();
 525              		.loc 1 192 41
 526 019c 2380A700 		sb	a0,0(a5)
 190:src/KRiscv.cpp ****             while ((*(char*)CONSOLE_STATUS & CONSOLE_TX_STATUS_BIT)
 527              		.loc 1 190 13
 528 01a0 6FF0DFFA 		j	.L33
 529              	.LVL12:
 530              	.L42:
 531              	.LBE198:
 532              	.LBE197:
 533              	.LBE220:
 534              	.LBE232:
 535              	.LBE245:
 536              	.LBE263:
 537              	.LBE283:
 538              	.LBE295:
 539              	.LBE312:
 540              	.LBE332:
 541              	.LBE349:
 542              	.LBE365:
 543              	.LBE383:
 544              	.LBE401:
 545              	.LBB402:
  47:src/KRiscv.cpp ****             uint64 sizeBlock;
 546              		.loc 1 47 13 is_stmt 1
  48:src/KRiscv.cpp ****             asm volatile("ld a1, 11*8(%0)" :: "r"(framePointer));
 547              		.loc 1 48 13
  48:src/KRiscv.cpp ****             asm volatile("ld a1, 11*8(%0)" :: "r"(framePointer));
 548              		.loc 1 48 65 is_stmt 0
 549 01a4 97040000 		la	s1,framePointer
 549      83B40400 
 550 01ac 83B70400 		ld	a5,0(s1)
 551              	.LVL13:
 552              	#APP
 553              	# 48 "src/KRiscv.cpp" 1
  49:src/KRiscv.cpp ****             asm volatile("mv %0, a1" : "=r" (sizeBlock));
GAS LISTING /tmp/cc88gCBR.s 			page 18


 554              		ld a1, 11*8(a5)
 555              	# 0 "" 2
 556              		.loc 1 49 13 is_stmt 1
  49:src/KRiscv.cpp ****             asm volatile("mv %0, a1" : "=r" (sizeBlock));
 557              		.loc 1 49 57 is_stmt 0
 558              	# 49 "src/KRiscv.cpp" 1
 559              		mv a0, a1
 560              	# 0 "" 2
 561              	.LVL14:
  50:src/KRiscv.cpp ****             void* res = KMemoryAllocator::mem_alloc(sizeBlock);
 562              		.loc 1 50 13 is_stmt 1
  50:src/KRiscv.cpp ****             void* res = KMemoryAllocator::mem_alloc(sizeBlock);
 563              		.loc 1 50 52 is_stmt 0
 564              	#NO_APP
 565 01b8 97000000 		call	_ZN16KMemoryAllocator9mem_allocEm@plt
 565      E7800000 
 566              	.LVL15:
  51:src/KRiscv.cpp ****             asm volatile("mv a0, %0" : : "r" (res));
 567              		.loc 1 51 13 is_stmt 1
  51:src/KRiscv.cpp ****             asm volatile("mv a0, %0" : : "r" (res));
 568              		.loc 1 51 52 is_stmt 0
 569              	#APP
 570              	# 51 "src/KRiscv.cpp" 1
  52:src/KRiscv.cpp ****             asm volatile("sd a0, 10*8(%0)" :: "r"(framePointer));
 571              		mv a0, a0
 572              	# 0 "" 2
 573              		.loc 1 52 13 is_stmt 1
  52:src/KRiscv.cpp ****             asm volatile("sd a0, 10*8(%0)" :: "r"(framePointer));
 574              		.loc 1 52 65 is_stmt 0
 575              	#NO_APP
 576 01c4 83B70400 		ld	a5,0(s1)
 577              	#APP
 578              	# 52 "src/KRiscv.cpp" 1
  53:src/KRiscv.cpp ****             KRiscv::w_sepc(KRiscv::r_sepc() + 4);
 579              		sd a0, 10*8(a5)
 580              	# 0 "" 2
 581              		.loc 1 53 13 is_stmt 1
 582              	#NO_APP
 583              	.LBB403:
 584              	.LBB404:
  65:src/../h/KRiscv.hpp ****     asm volatile ("csrr %0, sepc" : "=r"(sepc));
 585              		.loc 2 65 5
  66:src/../h/KRiscv.hpp ****     return sepc;
 586              		.loc 2 66 5
  66:src/../h/KRiscv.hpp ****     return sepc;
 587              		.loc 2 66 48 is_stmt 0
 588              	#APP
 589              	# 66 "src/../h/KRiscv.hpp" 1
 590              		csrr a5, sepc
 591              	# 0 "" 2
 592              	#NO_APP
 593 01d0 2330F4F2 		sd	a5,-224(s0)
  67:src/../h/KRiscv.hpp **** }
 594              		.loc 2 67 5 is_stmt 1
  67:src/../h/KRiscv.hpp **** }
 595              		.loc 2 67 12 is_stmt 0
 596 01d4 833704F2 		ld	a5,-224(s0)
GAS LISTING /tmp/cc88gCBR.s 			page 19


 597              	.LBE404:
 598              	.LBE403:
  53:src/KRiscv.cpp ****             KRiscv::w_sepc(KRiscv::r_sepc() + 4);
 599              		.loc 1 53 27
 600 01d8 93874700 		addi	a5,a5,4
 601              	.LVL16:
 602              	.LBB405:
 603              	.LBB406:
  71:src/../h/KRiscv.hpp **** }
 604              		.loc 2 71 5 is_stmt 1
  71:src/../h/KRiscv.hpp **** }
 605              		.loc 2 71 48 is_stmt 0
 606              	#APP
 607              	# 71 "src/../h/KRiscv.hpp" 1
  72:src/../h/KRiscv.hpp **** 
 608              		csrw sepc, a5
 609              	# 0 "" 2
 610              		.loc 2 72 1
 611              	#NO_APP
 612 01e0 6FF05FE9 		j	.L3
 613              	.LVL17:
 614              	.L43:
 615              	.LBE406:
 616              	.LBE405:
 617              	.LBE402:
 618              	.LBB407:
 619              	.LBB384:
  56:src/KRiscv.cpp ****             uint64 addr;
 620              		.loc 1 56 13 is_stmt 1
  57:src/KRiscv.cpp ****             asm volatile("ld a1, 11*8(%0)" :: "r"(framePointer));
 621              		.loc 1 57 13
  57:src/KRiscv.cpp ****             asm volatile("ld a1, 11*8(%0)" :: "r"(framePointer));
 622              		.loc 1 57 65 is_stmt 0
 623 01e4 97040000 		la	s1,framePointer
 623      83B40400 
 624 01ec 83B70400 		ld	a5,0(s1)
 625              	.LVL18:
 626              	#APP
 627              	# 57 "src/KRiscv.cpp" 1
  58:src/KRiscv.cpp ****             asm volatile("mv %0, a1" : "=r"(addr));
 628              		ld a1, 11*8(a5)
 629              	# 0 "" 2
 630              		.loc 1 58 13 is_stmt 1
  58:src/KRiscv.cpp ****             asm volatile("mv %0, a1" : "=r"(addr));
 631              		.loc 1 58 51 is_stmt 0
 632              	# 58 "src/KRiscv.cpp" 1
 633              		mv a0, a1
 634              	# 0 "" 2
 635              	.LVL19:
  59:src/KRiscv.cpp ****             int res = KMemoryAllocator::mem_free((void*)addr);
 636              		.loc 1 59 13 is_stmt 1
  59:src/KRiscv.cpp ****             int res = KMemoryAllocator::mem_free((void*)addr);
 637              		.loc 1 59 49 is_stmt 0
 638              	#NO_APP
 639 01f8 97000000 		call	_ZN16KMemoryAllocator8mem_freeEPv@plt
 639      E7800000 
 640              	.LVL20:
GAS LISTING /tmp/cc88gCBR.s 			page 20


  60:src/KRiscv.cpp ****             asm volatile("mv a0, %0" : : "r"(res));
 641              		.loc 1 60 13 is_stmt 1
  60:src/KRiscv.cpp ****             asm volatile("mv a0, %0" : : "r"(res));
 642              		.loc 1 60 51 is_stmt 0
 643              	#APP
 644              	# 60 "src/KRiscv.cpp" 1
  61:src/KRiscv.cpp ****             asm volatile("sd a0, 10*8(%0)" :: "r"(framePointer));
 645              		mv a0, a0
 646              	# 0 "" 2
 647              		.loc 1 61 13 is_stmt 1
  61:src/KRiscv.cpp ****             asm volatile("sd a0, 10*8(%0)" :: "r"(framePointer));
 648              		.loc 1 61 65 is_stmt 0
 649              	#NO_APP
 650 0204 83B70400 		ld	a5,0(s1)
 651              	#APP
 652              	# 61 "src/KRiscv.cpp" 1
  62:src/KRiscv.cpp ****             KRiscv::w_sepc(KRiscv::r_sepc() + 4);
 653              		sd a0, 10*8(a5)
 654              	# 0 "" 2
 655              		.loc 1 62 13 is_stmt 1
 656              	#NO_APP
 657              	.LBB385:
 658              	.LBB386:
  65:src/../h/KRiscv.hpp ****     asm volatile ("csrr %0, sepc" : "=r"(sepc));
 659              		.loc 2 65 5
  66:src/../h/KRiscv.hpp ****     return sepc;
 660              		.loc 2 66 5
  66:src/../h/KRiscv.hpp ****     return sepc;
 661              		.loc 2 66 48 is_stmt 0
 662              	#APP
 663              	# 66 "src/../h/KRiscv.hpp" 1
 664              		csrr a5, sepc
 665              	# 0 "" 2
 666              	#NO_APP
 667 0210 2334F4F2 		sd	a5,-216(s0)
  67:src/../h/KRiscv.hpp **** }
 668              		.loc 2 67 5 is_stmt 1
  67:src/../h/KRiscv.hpp **** }
 669              		.loc 2 67 12 is_stmt 0
 670 0214 833784F2 		ld	a5,-216(s0)
 671              	.LBE386:
 672              	.LBE385:
  62:src/KRiscv.cpp ****             KRiscv::w_sepc(KRiscv::r_sepc() + 4);
 673              		.loc 1 62 27
 674 0218 93874700 		addi	a5,a5,4
 675              	.LVL21:
 676              	.LBB387:
 677              	.LBB388:
  71:src/../h/KRiscv.hpp **** }
 678              		.loc 2 71 5 is_stmt 1
  71:src/../h/KRiscv.hpp **** }
 679              		.loc 2 71 48 is_stmt 0
 680              	#APP
 681              	# 71 "src/../h/KRiscv.hpp" 1
  72:src/../h/KRiscv.hpp **** 
 682              		csrw sepc, a5
 683              	# 0 "" 2
GAS LISTING /tmp/cc88gCBR.s 			page 21


 684              		.loc 2 72 1
 685              	#NO_APP
 686 0220 6FF05FE5 		j	.L3
 687              	.LVL22:
 688              	.L44:
 689              	.LBE388:
 690              	.LBE387:
 691              	.LBE384:
 692              	.LBB389:
  65:src/KRiscv.cpp ****             KRiscv::mc_sstatus(KRiscv::SSTATUS_SPP);
 693              		.loc 1 65 13 is_stmt 1
 694              	.LBB366:
 695              	.LBB367:
 117:src/../h/KRiscv.hpp **** }
 696              		.loc 2 117 5
 117:src/../h/KRiscv.hpp **** }
 697              		.loc 2 117 51 is_stmt 0
 698 0224 93070010 		li	a5,256
 699              	.LVL23:
 700              	#APP
 701              	# 117 "src/../h/KRiscv.hpp" 1
 702              		csrc sstatus, a5
 703              	# 0 "" 2
 704              	.LVL24:
 705              	#NO_APP
 706              	.LBE367:
 707              	.LBE366:
  66:src/KRiscv.cpp ****             KRiscv::w_sepc(KRiscv::r_sepc() + 4);
 708              		.loc 1 66 13 is_stmt 1
 709              	.LBB368:
 710              	.LBB369:
  65:src/../h/KRiscv.hpp ****     asm volatile ("csrr %0, sepc" : "=r"(sepc));
 711              		.loc 2 65 5
  66:src/../h/KRiscv.hpp ****     return sepc;
 712              		.loc 2 66 5
  66:src/../h/KRiscv.hpp ****     return sepc;
 713              		.loc 2 66 48 is_stmt 0
 714              	#APP
 715              	# 66 "src/../h/KRiscv.hpp" 1
 716              		csrr a5, sepc
 717              	# 0 "" 2
 718              	#NO_APP
 719 0230 2338F4F2 		sd	a5,-208(s0)
  67:src/../h/KRiscv.hpp **** }
 720              		.loc 2 67 5 is_stmt 1
  67:src/../h/KRiscv.hpp **** }
 721              		.loc 2 67 12 is_stmt 0
 722 0234 833704F3 		ld	a5,-208(s0)
 723              	.LBE369:
 724              	.LBE368:
  66:src/KRiscv.cpp ****             KRiscv::w_sepc(KRiscv::r_sepc() + 4);
 725              		.loc 1 66 27
 726 0238 93874700 		addi	a5,a5,4
 727              	.LVL25:
 728              	.LBB370:
 729              	.LBB371:
  71:src/../h/KRiscv.hpp **** }
GAS LISTING /tmp/cc88gCBR.s 			page 22


 730              		.loc 2 71 5 is_stmt 1
  71:src/../h/KRiscv.hpp **** }
 731              		.loc 2 71 48 is_stmt 0
 732              	#APP
 733              	# 71 "src/../h/KRiscv.hpp" 1
  72:src/../h/KRiscv.hpp **** 
 734              		csrw sepc, a5
 735              	# 0 "" 2
 736              		.loc 2 72 1
 737              	#NO_APP
 738 0240 6FF05FE3 		j	.L3
 739              	.LVL26:
 740              	.L45:
 741              	.LBE371:
 742              	.LBE370:
 743              	.LBB372:
 744              	.LBB350:
  69:src/KRiscv.cpp ****             KPCB** rucka = nullptr;
 745              		.loc 1 69 13 is_stmt 1
  70:src/KRiscv.cpp ****             void (*fja)(void*) = nullptr;
 746              		.loc 1 70 13
  71:src/KRiscv.cpp ****             void* args = nullptr;
 747              		.loc 1 71 13
  72:src/KRiscv.cpp ****             void* stack = nullptr;
 748              		.loc 1 72 13
  73:src/KRiscv.cpp ****             asm volatile("ld a1, 11*8(%0)" :: "r"(framePointer));
 749              		.loc 1 73 13
  73:src/KRiscv.cpp ****             asm volatile("ld a1, 11*8(%0)" :: "r"(framePointer));
 750              		.loc 1 73 65 is_stmt 0
 751 0244 97070000 		la	a5,framePointer
 751      83B70700 
 752              	.LVL27:
 753 024c 83B70700 		ld	a5,0(a5)
 754              	#APP
 755              	# 73 "src/KRiscv.cpp" 1
  74:src/KRiscv.cpp ****             asm volatile("mv %0, a1" : "=r"(rucka));
 756              		ld a1, 11*8(a5)
 757              	# 0 "" 2
 758              		.loc 1 74 13 is_stmt 1
  74:src/KRiscv.cpp ****             asm volatile("mv %0, a1" : "=r"(rucka));
 759              		.loc 1 74 52 is_stmt 0
 760              	# 74 "src/KRiscv.cpp" 1
 761              		mv s1, a1
 762              	# 0 "" 2
 763              	.LVL28:
  75:src/KRiscv.cpp ****             asm volatile("ld a2, 12*8(%0)" :: "r"(framePointer));
 764              		.loc 1 75 13 is_stmt 1
  75:src/KRiscv.cpp ****             asm volatile("ld a2, 12*8(%0)" :: "r"(framePointer));
 765              		.loc 1 75 65 is_stmt 0
 766              	# 75 "src/KRiscv.cpp" 1
  76:src/KRiscv.cpp ****             asm volatile("mv %0, a2" : "=r"(fja));
 767              		ld a2, 12*8(a5)
 768              	# 0 "" 2
 769              		.loc 1 76 13 is_stmt 1
  76:src/KRiscv.cpp ****             asm volatile("mv %0, a2" : "=r"(fja));
 770              		.loc 1 76 50 is_stmt 0
 771              	# 76 "src/KRiscv.cpp" 1
GAS LISTING /tmp/cc88gCBR.s 			page 23


 772              		mv a0, a2
 773              	# 0 "" 2
 774              	.LVL29:
  77:src/KRiscv.cpp ****             asm volatile("ld a3, 13*8(%0)" :: "r"(framePointer));
 775              		.loc 1 77 13 is_stmt 1
  77:src/KRiscv.cpp ****             asm volatile("ld a3, 13*8(%0)" :: "r"(framePointer));
 776              		.loc 1 77 65 is_stmt 0
 777              	# 77 "src/KRiscv.cpp" 1
  78:src/KRiscv.cpp ****             asm volatile("mv %0, a3" : "=r"(args));
 778              		ld a3, 13*8(a5)
 779              	# 0 "" 2
 780              		.loc 1 78 13 is_stmt 1
  78:src/KRiscv.cpp ****             asm volatile("mv %0, a3" : "=r"(args));
 781              		.loc 1 78 51 is_stmt 0
 782              	# 78 "src/KRiscv.cpp" 1
 783              		mv a1, a3
 784              	# 0 "" 2
 785              	.LVL30:
  79:src/KRiscv.cpp ****             asm volatile("ld a4, 14*8(%0)" :: "r"(framePointer));
 786              		.loc 1 79 13 is_stmt 1
  79:src/KRiscv.cpp ****             asm volatile("ld a4, 14*8(%0)" :: "r"(framePointer));
 787              		.loc 1 79 65 is_stmt 0
 788              	# 79 "src/KRiscv.cpp" 1
  80:src/KRiscv.cpp ****             asm volatile("mv %0, a4" : "=r"(stack));
 789              		ld a4, 14*8(a5)
 790              	# 0 "" 2
 791              		.loc 1 80 13 is_stmt 1
  80:src/KRiscv.cpp ****             asm volatile("mv %0, a4" : "=r"(stack));
 792              		.loc 1 80 52 is_stmt 0
 793              	# 80 "src/KRiscv.cpp" 1
 794              		mv a2, a4
 795              	# 0 "" 2
 796              	.LVL31:
  81:src/KRiscv.cpp ****             *rucka = KPCB::createThread(fja, args, stack);
 797              		.loc 1 81 13 is_stmt 1
  81:src/KRiscv.cpp ****             *rucka = KPCB::createThread(fja, args, stack);
 798              		.loc 1 81 40 is_stmt 0
 799              	#NO_APP
 800 0270 97000000 		call	_ZN4KPCB12createThreadEPFvPvES0_S0_@plt
 800      E7800000 
 801              	.LVL32:
  81:src/KRiscv.cpp ****             *rucka = KPCB::createThread(fja, args, stack);
 802              		.loc 1 81 20
 803 0278 23B0A400 		sd	a0,0(s1)
  82:src/KRiscv.cpp ****             if (*rucka != nullptr) asm volatile("li a0, 0");
 804              		.loc 1 82 13 is_stmt 1
 805 027c 63080502 		beqz	a0,.L10
  82:src/KRiscv.cpp ****             if (*rucka != nullptr) asm volatile("li a0, 0");
 806              		.loc 1 82 36 discriminator 1
  82:src/KRiscv.cpp ****             if (*rucka != nullptr) asm volatile("li a0, 0");
 807              		.loc 1 82 60 is_stmt 0 discriminator 1
 808              	#APP
 809              	# 82 "src/KRiscv.cpp" 1
 810              		li a0, 0
 811              	# 0 "" 2
 812              	#NO_APP
 813              	.L11:
GAS LISTING /tmp/cc88gCBR.s 			page 24


  84:src/KRiscv.cpp ****             asm volatile("sd a0, 10*8(%0)" :: "r"(framePointer));
 814              		.loc 1 84 13 is_stmt 1
  84:src/KRiscv.cpp ****             asm volatile("sd a0, 10*8(%0)" :: "r"(framePointer));
 815              		.loc 1 84 65 is_stmt 0
 816 0284 97070000 		la	a5,framePointer
 816      83B70700 
 817 028c 83B70700 		ld	a5,0(a5)
 818              	#APP
 819              	# 84 "src/KRiscv.cpp" 1
  85:src/KRiscv.cpp ****             KRiscv::w_sepc(KRiscv::r_sepc() + 4);
 820              		sd a0, 10*8(a5)
 821              	# 0 "" 2
 822              		.loc 1 85 13 is_stmt 1
 823              	#NO_APP
 824              	.LBB351:
 825              	.LBB352:
  65:src/../h/KRiscv.hpp ****     asm volatile ("csrr %0, sepc" : "=r"(sepc));
 826              		.loc 2 65 5
  66:src/../h/KRiscv.hpp ****     return sepc;
 827              		.loc 2 66 5
  66:src/../h/KRiscv.hpp ****     return sepc;
 828              		.loc 2 66 48 is_stmt 0
 829              	#APP
 830              	# 66 "src/../h/KRiscv.hpp" 1
 831              		csrr a5, sepc
 832              	# 0 "" 2
 833              	#NO_APP
 834 0298 233CF4F2 		sd	a5,-200(s0)
  67:src/../h/KRiscv.hpp **** }
 835              		.loc 2 67 5 is_stmt 1
  67:src/../h/KRiscv.hpp **** }
 836              		.loc 2 67 12 is_stmt 0
 837 029c 833784F3 		ld	a5,-200(s0)
 838              	.LBE352:
 839              	.LBE351:
  85:src/KRiscv.cpp ****             KRiscv::w_sepc(KRiscv::r_sepc() + 4);
 840              		.loc 1 85 27
 841 02a0 93874700 		addi	a5,a5,4
 842              	.LVL33:
 843              	.LBB353:
 844              	.LBB354:
  71:src/../h/KRiscv.hpp **** }
 845              		.loc 2 71 5 is_stmt 1
  71:src/../h/KRiscv.hpp **** }
 846              		.loc 2 71 48 is_stmt 0
 847              	#APP
 848              	# 71 "src/../h/KRiscv.hpp" 1
  72:src/../h/KRiscv.hpp **** 
 849              		csrw sepc, a5
 850              	# 0 "" 2
 851              		.loc 2 72 1
 852              	#NO_APP
 853 02a8 6FF0DFDC 		j	.L3
 854              	.LVL34:
 855              	.L10:
 856              	.LBE354:
 857              	.LBE353:
GAS LISTING /tmp/cc88gCBR.s 			page 25


  83:src/KRiscv.cpp ****             else asm volatile("li a0, -1");
 858              		.loc 1 83 18 is_stmt 1
  83:src/KRiscv.cpp ****             else asm volatile("li a0, -1");
 859              		.loc 1 83 43 is_stmt 0
 860              	#APP
 861              	# 83 "src/KRiscv.cpp" 1
 862              		li a0, -1
 863              	# 0 "" 2
 864              	#NO_APP
 865 02b0 6FF05FFD 		j	.L11
 866              	.LVL35:
 867              	.L46:
 868              	.LBE350:
 869              	.LBB355:
 870              	.LBB333:
  88:src/KRiscv.cpp ****             KPCB** rucka = nullptr;
 871              		.loc 1 88 13 is_stmt 1
  89:src/KRiscv.cpp ****             void (*fja)(void*) = nullptr;
 872              		.loc 1 89 13
  90:src/KRiscv.cpp ****             void* args = nullptr;
 873              		.loc 1 90 13
  91:src/KRiscv.cpp ****             void* stack = nullptr;
 874              		.loc 1 91 13
  92:src/KRiscv.cpp ****             asm volatile("ld a1, 11*8(%0)" :: "r"(framePointer));
 875              		.loc 1 92 13
  92:src/KRiscv.cpp ****             asm volatile("ld a1, 11*8(%0)" :: "r"(framePointer));
 876              		.loc 1 92 65 is_stmt 0
 877 02b4 97070000 		la	a5,framePointer
 877      83B70700 
 878              	.LVL36:
 879 02bc 83B70700 		ld	a5,0(a5)
 880              	#APP
 881              	# 92 "src/KRiscv.cpp" 1
  93:src/KRiscv.cpp ****             asm volatile("mv %0, a1" : "=r"(rucka));
 882              		ld a1, 11*8(a5)
 883              	# 0 "" 2
 884              		.loc 1 93 13 is_stmt 1
  93:src/KRiscv.cpp ****             asm volatile("mv %0, a1" : "=r"(rucka));
 885              		.loc 1 93 52 is_stmt 0
 886              	# 93 "src/KRiscv.cpp" 1
 887              		mv s1, a1
 888              	# 0 "" 2
 889              	.LVL37:
  94:src/KRiscv.cpp ****             asm volatile("ld a2, 12*8(%0)" :: "r"(framePointer));
 890              		.loc 1 94 13 is_stmt 1
  94:src/KRiscv.cpp ****             asm volatile("ld a2, 12*8(%0)" :: "r"(framePointer));
 891              		.loc 1 94 65 is_stmt 0
 892              	# 94 "src/KRiscv.cpp" 1
  95:src/KRiscv.cpp ****             asm volatile("mv %0, a2" : "=r"(fja));
 893              		ld a2, 12*8(a5)
 894              	# 0 "" 2
 895              		.loc 1 95 13 is_stmt 1
  95:src/KRiscv.cpp ****             asm volatile("mv %0, a2" : "=r"(fja));
 896              		.loc 1 95 50 is_stmt 0
 897              	# 95 "src/KRiscv.cpp" 1
 898              		mv a0, a2
 899              	# 0 "" 2
GAS LISTING /tmp/cc88gCBR.s 			page 26


 900              	.LVL38:
  96:src/KRiscv.cpp ****             asm volatile("ld a3, 13*8(%0)" :: "r"(framePointer));
 901              		.loc 1 96 13 is_stmt 1
  96:src/KRiscv.cpp ****             asm volatile("ld a3, 13*8(%0)" :: "r"(framePointer));
 902              		.loc 1 96 65 is_stmt 0
 903              	# 96 "src/KRiscv.cpp" 1
  97:src/KRiscv.cpp ****             asm volatile("mv %0, a3" : "=r"(args));
 904              		ld a3, 13*8(a5)
 905              	# 0 "" 2
 906              		.loc 1 97 13 is_stmt 1
  97:src/KRiscv.cpp ****             asm volatile("mv %0, a3" : "=r"(args));
 907              		.loc 1 97 51 is_stmt 0
 908              	# 97 "src/KRiscv.cpp" 1
 909              		mv a1, a3
 910              	# 0 "" 2
 911              	.LVL39:
  98:src/KRiscv.cpp ****             asm volatile("ld a4, 14*8(%0)" :: "r"(framePointer));
 912              		.loc 1 98 13 is_stmt 1
  98:src/KRiscv.cpp ****             asm volatile("ld a4, 14*8(%0)" :: "r"(framePointer));
 913              		.loc 1 98 65 is_stmt 0
 914              	# 98 "src/KRiscv.cpp" 1
  99:src/KRiscv.cpp ****             asm volatile("mv %0, a4" : "=r"(stack));
 915              		ld a4, 14*8(a5)
 916              	# 0 "" 2
 917              		.loc 1 99 13 is_stmt 1
  99:src/KRiscv.cpp ****             asm volatile("mv %0, a4" : "=r"(stack));
 918              		.loc 1 99 52 is_stmt 0
 919              	# 99 "src/KRiscv.cpp" 1
 920              		mv a2, a4
 921              	# 0 "" 2
 922              	.LVL40:
 100:src/KRiscv.cpp ****             *rucka = KPCB::createThread(fja, args, stack);
 923              		.loc 1 100 13 is_stmt 1
 100:src/KRiscv.cpp ****             *rucka = KPCB::createThread(fja, args, stack);
 924              		.loc 1 100 40 is_stmt 0
 925              	#NO_APP
 926 02e0 97000000 		call	_ZN4KPCB12createThreadEPFvPvES0_S0_@plt
 926      E7800000 
 927              	.LVL41:
 100:src/KRiscv.cpp ****             *rucka = KPCB::createThread(fja, args, stack);
 928              		.loc 1 100 20
 929 02e8 23B0A400 		sd	a0,0(s1)
 101:src/KRiscv.cpp ****             if (*rucka != nullptr) {
 930              		.loc 1 101 13 is_stmt 1
 931 02ec 63040504 		beqz	a0,.L13
 102:src/KRiscv.cpp ****                 (*rucka)->startIt();
 932              		.loc 1 102 17
 933              	.LVL42:
 934              	.LBB334:
 935              	.LBB335:
 936              		.file 3 "src/../h/KPCB.hpp"
   1:src/../h/KPCB.hpp **** //
   2:src/../h/KPCB.hpp **** // Created by os on 6/22/22.
   3:src/../h/KPCB.hpp **** //
   4:src/../h/KPCB.hpp **** 
   5:src/../h/KPCB.hpp **** #ifndef PROJECT_BASE_V1_1_KPCB_HPP
   6:src/../h/KPCB.hpp **** #define PROJECT_BASE_V1_1_KPCB_HPP
GAS LISTING /tmp/cc88gCBR.s 			page 27


   7:src/../h/KPCB.hpp **** 
   8:src/../h/KPCB.hpp **** #include "../lib/hw.h"
   9:src/../h/KPCB.hpp **** #include "../lib/mem.h"
  10:src/../h/KPCB.hpp **** #include "KScheduler.hpp"
  11:src/../h/KPCB.hpp **** #include "KMemoryAllocator.hpp"
  12:src/../h/KPCB.hpp **** 
  13:src/../h/KPCB.hpp **** class KPCB {
  14:src/../h/KPCB.hpp **** public:
  15:src/../h/KPCB.hpp ****     ~KPCB() { delete[] stack; }
  16:src/../h/KPCB.hpp ****     friend class KScheduler;
  17:src/../h/KPCB.hpp ****     friend class KSemaphore;
  18:src/../h/KPCB.hpp ****     friend class KRiscv;
  19:src/../h/KPCB.hpp ****     friend class KSleep;
  20:src/../h/KPCB.hpp **** 
  21:src/../h/KPCB.hpp ****     void* operator new(size_t size) {
  22:src/../h/KPCB.hpp ****         size_t sizeBlock = (size + 16) / MEM_BLOCK_SIZE + ((size + 16) % MEM_BLOCK_SIZE ? 1 : 0);
  23:src/../h/KPCB.hpp ****         return KMemoryAllocator::mem_alloc(sizeBlock);
  24:src/../h/KPCB.hpp ****         //return __mem_alloc(size);
  25:src/../h/KPCB.hpp ****     }
  26:src/../h/KPCB.hpp ****     void* operator new[](size_t size) {
  27:src/../h/KPCB.hpp ****         size_t sizeBlock = (size + 16) / MEM_BLOCK_SIZE + ((size + 16) % MEM_BLOCK_SIZE ? 1 : 0);
  28:src/../h/KPCB.hpp ****         return KMemoryAllocator::mem_alloc(sizeBlock);
  29:src/../h/KPCB.hpp ****         //return __mem_alloc(size);
  30:src/../h/KPCB.hpp ****     }
  31:src/../h/KPCB.hpp ****     void operator delete(void* addr) {
  32:src/../h/KPCB.hpp ****         KMemoryAllocator::mem_free(addr);
  33:src/../h/KPCB.hpp ****         //__mem_free(addr);
  34:src/../h/KPCB.hpp ****     }
  35:src/../h/KPCB.hpp ****     void operator delete[](void* addr) {
  36:src/../h/KPCB.hpp ****         KMemoryAllocator::mem_free(addr);
  37:src/../h/KPCB.hpp ****         //__mem_free(addr);
  38:src/../h/KPCB.hpp ****     }
  39:src/../h/KPCB.hpp **** 
  40:src/../h/KPCB.hpp ****     using Body = void (*)(void*);
  41:src/../h/KPCB.hpp ****     static KPCB* createThread(Body body, void* args, void* stek);
  42:src/../h/KPCB.hpp ****     static KPCB* createThread(Body body);
  43:src/../h/KPCB.hpp ****     static void yield();
  44:src/../h/KPCB.hpp ****     static void dispatch();
  45:src/../h/KPCB.hpp ****     static KPCB* running;
  46:src/../h/KPCB.hpp ****     static int counter;
  47:src/../h/KPCB.hpp ****     static int statID;
  48:src/../h/KPCB.hpp **** 
  49:src/../h/KPCB.hpp ****     bool isFinished() const { return finished; }
  50:src/../h/KPCB.hpp ****     bool isSleeping() const { return sleeping; }
  51:src/../h/KPCB.hpp ****     bool isWaiting() const { return waiting; }
  52:src/../h/KPCB.hpp ****     bool isErr() const { return err; }
  53:src/../h/KPCB.hpp ****     void setFinished(bool val) {
  54:src/../h/KPCB.hpp ****         if (finished) return;
  55:src/../h/KPCB.hpp ****         finished = val;
  56:src/../h/KPCB.hpp ****         counter--;
  57:src/../h/KPCB.hpp ****     }
  58:src/../h/KPCB.hpp ****     void setSleeping(bool val) { sleeping = val; }
  59:src/../h/KPCB.hpp ****     void setWaiting(bool val) { waiting = val; }
  60:src/../h/KPCB.hpp ****     void setErr(bool val) { err = val; }
  61:src/../h/KPCB.hpp ****     int startIt() {
  62:src/../h/KPCB.hpp ****         if (started) return -1;
 937              		.loc 3 62 9
GAS LISTING /tmp/cc88gCBR.s 			page 28


 938              		.loc 3 62 13 is_stmt 0
 939 02f0 83474503 		lbu	a5,52(a0)
 940              		.loc 3 62 9
 941 02f4 639A0700 		bnez	a5,.L14
  63:src/../h/KPCB.hpp ****         started = true;
 942              		.loc 3 63 9 is_stmt 1
 943              		.loc 3 63 17 is_stmt 0
 944 02f8 93071000 		li	a5,1
 945 02fc 230AF502 		sb	a5,52(a0)
  64:src/../h/KPCB.hpp ****         KScheduler::put(this);
 946              		.loc 3 64 9 is_stmt 1
 947              		.loc 3 64 24 is_stmt 0
 948 0300 97000000 		call	_ZN10KScheduler3putEP4KPCB@plt
 948      E7800000 
 949              	.LVL43:
  65:src/../h/KPCB.hpp ****         return 0;
 950              		.loc 3 65 9 is_stmt 1
 951              	.L14:
 952              	.LBE335:
 953              	.LBE334:
 103:src/KRiscv.cpp ****                 asm volatile("li a0, 0");
 954              		.loc 1 103 17
 103:src/KRiscv.cpp ****                 asm volatile("li a0, 0");
 955              		.loc 1 103 41 is_stmt 0
 956              	#APP
 957              	# 103 "src/KRiscv.cpp" 1
 958              		li a0, 0
 959              	# 0 "" 2
 960              	#NO_APP
 961              	.L15:
 106:src/KRiscv.cpp ****             asm volatile("sd a0, 10*8(%0)" :: "r"(framePointer));
 962              		.loc 1 106 13 is_stmt 1
 106:src/KRiscv.cpp ****             asm volatile("sd a0, 10*8(%0)" :: "r"(framePointer));
 963              		.loc 1 106 65 is_stmt 0
 964 030c 97070000 		la	a5,framePointer
 964      83B70700 
 965 0314 83B70700 		ld	a5,0(a5)
 966              	#APP
 967              	# 106 "src/KRiscv.cpp" 1
 107:src/KRiscv.cpp ****             KRiscv::w_sepc(KRiscv::r_sepc() + 4);
 968              		sd a0, 10*8(a5)
 969              	# 0 "" 2
 970              		.loc 1 107 13 is_stmt 1
 971              	#NO_APP
 972              	.LBB336:
 973              	.LBB337:
  65:src/../h/KRiscv.hpp ****     asm volatile ("csrr %0, sepc" : "=r"(sepc));
 974              		.loc 2 65 5
  66:src/../h/KRiscv.hpp ****     return sepc;
 975              		.loc 2 66 5
  66:src/../h/KRiscv.hpp ****     return sepc;
 976              		.loc 2 66 48 is_stmt 0
 977              	#APP
 978              	# 66 "src/../h/KRiscv.hpp" 1
 979              		csrr a5, sepc
 980              	# 0 "" 2
 981              	#NO_APP
GAS LISTING /tmp/cc88gCBR.s 			page 29


 982 0320 2330F4F4 		sd	a5,-192(s0)
  67:src/../h/KRiscv.hpp **** }
 983              		.loc 2 67 5 is_stmt 1
  67:src/../h/KRiscv.hpp **** }
 984              		.loc 2 67 12 is_stmt 0
 985 0324 833704F4 		ld	a5,-192(s0)
 986              	.LBE337:
 987              	.LBE336:
 107:src/KRiscv.cpp ****             KRiscv::w_sepc(KRiscv::r_sepc() + 4);
 988              		.loc 1 107 27
 989 0328 93874700 		addi	a5,a5,4
 990              	.LVL44:
 991              	.LBB338:
 992              	.LBB339:
  71:src/../h/KRiscv.hpp **** }
 993              		.loc 2 71 5 is_stmt 1
  71:src/../h/KRiscv.hpp **** }
 994              		.loc 2 71 48 is_stmt 0
 995              	#APP
 996              	# 71 "src/../h/KRiscv.hpp" 1
  72:src/../h/KRiscv.hpp **** 
 997              		csrw sepc, a5
 998              	# 0 "" 2
 999              		.loc 2 72 1
 1000              	#NO_APP
 1001 0330 6FF05FD4 		j	.L3
 1002              	.LVL45:
 1003              	.L13:
 1004              	.LBE339:
 1005              	.LBE338:
 105:src/KRiscv.cpp ****             else asm volatile("li a0, -1");
 1006              		.loc 1 105 18 is_stmt 1
 105:src/KRiscv.cpp ****             else asm volatile("li a0, -1");
 1007              		.loc 1 105 43 is_stmt 0
 1008              	#APP
 1009              	# 105 "src/KRiscv.cpp" 1
 1010              		li a0, -1
 1011              	# 0 "" 2
 1012              	#NO_APP
 1013 0338 6FF05FFD 		j	.L15
 1014              	.LVL46:
 1015              	.L47:
 1016              	.LBE333:
 1017              	.LBB340:
 1018              	.LBB313:
 110:src/KRiscv.cpp ****             uint64 sepc = r_sepc() + 4;
 1019              		.loc 1 110 13 is_stmt 1
 1020              	.LBB314:
 1021              	.LBB315:
  65:src/../h/KRiscv.hpp ****     asm volatile ("csrr %0, sepc" : "=r"(sepc));
 1022              		.loc 2 65 5
  66:src/../h/KRiscv.hpp ****     return sepc;
 1023              		.loc 2 66 5
  66:src/../h/KRiscv.hpp ****     return sepc;
 1024              		.loc 2 66 48 is_stmt 0
 1025              	#APP
 1026              	# 66 "src/../h/KRiscv.hpp" 1
GAS LISTING /tmp/cc88gCBR.s 			page 30


 1027              		csrr a5, sepc
 1028              	# 0 "" 2
 1029              	.LVL47:
 1030              	#NO_APP
 1031 0340 2338F4F4 		sd	a5,-176(s0)
  67:src/../h/KRiscv.hpp **** }
 1032              		.loc 2 67 5 is_stmt 1
  67:src/../h/KRiscv.hpp **** }
 1033              		.loc 2 67 12 is_stmt 0
 1034 0344 833404F5 		ld	s1,-176(s0)
 1035              	.LBE315:
 1036              	.LBE314:
 110:src/KRiscv.cpp ****             uint64 sepc = r_sepc() + 4;
 1037              		.loc 1 110 38
 1038 0348 93844400 		addi	s1,s1,4
 1039              	.LVL48:
 111:src/KRiscv.cpp ****             uint64 sstatus = r_sstatus();
 1040              		.loc 1 111 13 is_stmt 1
 1041              	.LBB316:
 1042              	.LBB317:
 121:src/../h/KRiscv.hpp ****     asm volatile ("csrr %0, sstatus" : "=r"(sstatus));
 1043              		.loc 2 121 5
 122:src/../h/KRiscv.hpp ****     return sstatus;
 1044              		.loc 2 122 5
 122:src/../h/KRiscv.hpp ****     return sstatus;
 1045              		.loc 2 122 54 is_stmt 0
 1046              	#APP
 1047              	# 122 "src/../h/KRiscv.hpp" 1
 1048              		csrr a5, sstatus
 1049              	# 0 "" 2
 1050              	#NO_APP
 1051 0350 2334F4F4 		sd	a5,-184(s0)
 1052              		.loc 2 123 5 is_stmt 1
 1053              		.loc 2 123 12 is_stmt 0
 1054 0354 033984F4 		ld	s2,-184(s0)
 1055              	.LVL49:
 1056              	.LBE317:
 1057              	.LBE316:
 112:src/KRiscv.cpp ****             KPCB::running->setFinished(true);
 1058              		.loc 1 112 13 is_stmt 1
 112:src/KRiscv.cpp ****             KPCB::running->setFinished(true);
 1059              		.loc 1 112 39 is_stmt 0
 1060 0358 97070000 		la	a5,_ZN4KPCB7runningE
 1060      83B70700 
 1061 0360 83B70700 		ld	a5,0(a5)
 1062              	.LVL50:
 1063              	.LBB318:
 1064              	.LBB319:
  54:src/../h/KPCB.hpp ****         finished = val;
 1065              		.loc 3 54 9 is_stmt 1
  54:src/../h/KPCB.hpp ****         finished = val;
 1066              		.loc 3 54 13 is_stmt 0
 1067 0364 03C70703 		lbu	a4,48(a5)
  54:src/../h/KPCB.hpp ****         finished = val;
 1068              		.loc 3 54 9
 1069 0368 63100702 		bnez	a4,.L17
  55:src/../h/KPCB.hpp ****         counter--;
GAS LISTING /tmp/cc88gCBR.s 			page 31


 1070              		.loc 3 55 9 is_stmt 1
  55:src/../h/KPCB.hpp ****         counter--;
 1071              		.loc 3 55 18 is_stmt 0
 1072 036c 13071000 		li	a4,1
 1073 0370 2388E702 		sb	a4,48(a5)
  56:src/../h/KPCB.hpp ****     }
 1074              		.loc 3 56 9 is_stmt 1
  56:src/../h/KPCB.hpp ****     }
 1075              		.loc 3 56 16 is_stmt 0
 1076 0374 17070000 		la	a4,_ZN4KPCB7counterE
 1076      03370700 
 1077 037c 83270700 		lw	a5,0(a4)
 1078              	.LVL51:
 1079 0380 9B87F7FF 		addiw	a5,a5,-1
 1080 0384 2320F700 		sw	a5,0(a4)
 1081              	.L17:
 1082              	.LVL52:
 1083              	.LBE319:
 1084              	.LBE318:
 113:src/KRiscv.cpp ****             KPCB::dispatch();
 1085              		.loc 1 113 13 is_stmt 1
 113:src/KRiscv.cpp ****             KPCB::dispatch();
 1086              		.loc 1 113 27 is_stmt 0
 1087 0388 97000000 		call	_ZN4KPCB8dispatchEv@plt
 1087      E7800000 
 1088              	.LVL53:
 114:src/KRiscv.cpp ****             w_sstatus(sstatus);
 1089              		.loc 1 114 13 is_stmt 1
 1090              	.LBB320:
 1091              	.LBB321:
 124:src/../h/KRiscv.hpp **** }
 125:src/../h/KRiscv.hpp **** 
 126:src/../h/KRiscv.hpp **** inline void KRiscv::w_sstatus(uint64 sstatus) {
 127:src/../h/KRiscv.hpp ****     asm volatile ("csrw sstatus, %0" :: "r"(sstatus));
 1092              		.loc 2 127 5
 1093              		.loc 2 127 54 is_stmt 0
 1094              	#APP
 1095              	# 127 "src/../h/KRiscv.hpp" 1
 128              	}
 1096              		csrw sstatus, s2
 1097              	# 0 "" 2
 1098              	.LVL54:
 1099              	#NO_APP
 1100              	.LBE321:
 1101              	.LBE320:
 115:src/KRiscv.cpp ****             w_sepc(sepc);
 1102              		.loc 1 115 13 is_stmt 1
 1103              	.LBB322:
 1104              	.LBB323:
  71:src/../h/KRiscv.hpp **** }
 1105              		.loc 2 71 5
  71:src/../h/KRiscv.hpp **** }
 1106              		.loc 2 71 48 is_stmt 0
 1107              	#APP
 1108              	# 71 "src/../h/KRiscv.hpp" 1
  72:src/../h/KRiscv.hpp **** 
 1109              		csrw sepc, s1
GAS LISTING /tmp/cc88gCBR.s 			page 32


 1110              	# 0 "" 2
 1111              		.loc 2 72 1
 1112              	#NO_APP
 1113 0398 6FF0DFCD 		j	.L3
 1114              	.LVL55:
 1115              	.L48:
 1116              	.LBE323:
 1117              	.LBE322:
 1118              	.LBE313:
 1119              	.LBB324:
 1120              	.LBB296:
 118:src/KRiscv.cpp ****             uint64 sepc = r_sepc() + 4;
 1121              		.loc 1 118 13 is_stmt 1
 1122              	.LBB297:
 1123              	.LBB298:
  65:src/../h/KRiscv.hpp ****     asm volatile ("csrr %0, sepc" : "=r"(sepc));
 1124              		.loc 2 65 5
  66:src/../h/KRiscv.hpp ****     return sepc;
 1125              		.loc 2 66 5
  66:src/../h/KRiscv.hpp ****     return sepc;
 1126              		.loc 2 66 48 is_stmt 0
 1127              	#APP
 1128              	# 66 "src/../h/KRiscv.hpp" 1
 1129              		csrr a5, sepc
 1130              	# 0 "" 2
 1131              	.LVL56:
 1132              	#NO_APP
 1133 03a0 2330F4F6 		sd	a5,-160(s0)
  67:src/../h/KRiscv.hpp **** }
 1134              		.loc 2 67 5 is_stmt 1
  67:src/../h/KRiscv.hpp **** }
 1135              		.loc 2 67 12 is_stmt 0
 1136 03a4 833404F6 		ld	s1,-160(s0)
 1137              	.LBE298:
 1138              	.LBE297:
 118:src/KRiscv.cpp ****             uint64 sepc = r_sepc() + 4;
 1139              		.loc 1 118 38
 1140 03a8 93844400 		addi	s1,s1,4
 1141              	.LVL57:
 119:src/KRiscv.cpp ****             uint64 sstatus = r_sstatus();
 1142              		.loc 1 119 13 is_stmt 1
 1143              	.LBB299:
 1144              	.LBB300:
 121:src/../h/KRiscv.hpp ****     asm volatile ("csrr %0, sstatus" : "=r"(sstatus));
 1145              		.loc 2 121 5
 122:src/../h/KRiscv.hpp ****     return sstatus;
 1146              		.loc 2 122 5
 122:src/../h/KRiscv.hpp ****     return sstatus;
 1147              		.loc 2 122 54 is_stmt 0
 1148              	#APP
 1149              	# 122 "src/../h/KRiscv.hpp" 1
 1150              		csrr a5, sstatus
 1151              	# 0 "" 2
 1152              	#NO_APP
 1153 03b0 233CF4F4 		sd	a5,-168(s0)
 123:src/../h/KRiscv.hpp **** }
 1154              		.loc 2 123 5 is_stmt 1
GAS LISTING /tmp/cc88gCBR.s 			page 33


 123:src/../h/KRiscv.hpp **** }
 1155              		.loc 2 123 12 is_stmt 0
 1156 03b4 033984F5 		ld	s2,-168(s0)
 1157              	.LVL58:
 1158              	.LBE300:
 1159              	.LBE299:
 120:src/KRiscv.cpp ****             KPCB::dispatch();
 1160              		.loc 1 120 13 is_stmt 1
 120:src/KRiscv.cpp ****             KPCB::dispatch();
 1161              		.loc 1 120 27 is_stmt 0
 1162 03b8 97000000 		call	_ZN4KPCB8dispatchEv@plt
 1162      E7800000 
 1163              	.LVL59:
 121:src/KRiscv.cpp ****             w_sstatus(sstatus);
 1164              		.loc 1 121 13 is_stmt 1
 1165              	.LBB301:
 1166              	.LBB302:
 127:src/../h/KRiscv.hpp **** }
 1167              		.loc 2 127 5
 127:src/../h/KRiscv.hpp **** }
 1168              		.loc 2 127 54 is_stmt 0
 1169              	#APP
 1170              	# 127 "src/../h/KRiscv.hpp" 1
 1171              		csrw sstatus, s2
 1172              	# 0 "" 2
 1173              	.LVL60:
 1174              	#NO_APP
 1175              	.LBE302:
 1176              	.LBE301:
 122:src/KRiscv.cpp ****             w_sepc(sepc);
 1177              		.loc 1 122 13 is_stmt 1
 1178              	.LBB303:
 1179              	.LBB304:
  71:src/../h/KRiscv.hpp **** }
 1180              		.loc 2 71 5
  71:src/../h/KRiscv.hpp **** }
 1181              		.loc 2 71 48 is_stmt 0
 1182              	#APP
 1183              	# 71 "src/../h/KRiscv.hpp" 1
  72:src/../h/KRiscv.hpp **** 
 1184              		csrw sepc, s1
 1185              	# 0 "" 2
 1186              		.loc 2 72 1
 1187              	#NO_APP
 1188 03c8 6FF0DFCA 		j	.L3
 1189              	.LVL61:
 1190              	.L49:
 1191              	.LBE304:
 1192              	.LBE303:
 1193              	.LBE296:
 1194              	.LBB305:
 1195              	.LBB284:
 125:src/KRiscv.cpp ****             KSemaphore** rucka = nullptr;
 1196              		.loc 1 125 13 is_stmt 1
 126:src/KRiscv.cpp ****             unsigned init;
 1197              		.loc 1 126 13
 127:src/KRiscv.cpp ****             asm volatile("ld a1, 11*8(%0)" :: "r"(framePointer));
GAS LISTING /tmp/cc88gCBR.s 			page 34


 1198              		.loc 1 127 13
 127:src/KRiscv.cpp ****             asm volatile("ld a1, 11*8(%0)" :: "r"(framePointer));
 1199              		.loc 1 127 65 is_stmt 0
 1200 03cc 97070000 		la	a5,framePointer
 1200      83B70700 
 1201              	.LVL62:
 1202 03d4 83B70700 		ld	a5,0(a5)
 1203              	#APP
 1204              	# 127 "src/KRiscv.cpp" 1
 128:src/KRiscv.cpp ****             asm volatile("mv %0, a1" : "=r"(rucka));
 1205              		ld a1, 11*8(a5)
 1206              	# 0 "" 2
 1207              		.loc 1 128 13 is_stmt 1
 128:src/KRiscv.cpp ****             asm volatile("mv %0, a1" : "=r"(rucka));
 1208              		.loc 1 128 52 is_stmt 0
 1209              	# 128 "src/KRiscv.cpp" 1
 1210              		mv s1, a1
 1211              	# 0 "" 2
 1212              	.LVL63:
 129:src/KRiscv.cpp ****             asm volatile("ld a2, 12*8(%0)" :: "r"(framePointer));
 1213              		.loc 1 129 13 is_stmt 1
 129:src/KRiscv.cpp ****             asm volatile("ld a2, 12*8(%0)" :: "r"(framePointer));
 1214              		.loc 1 129 65 is_stmt 0
 1215              	# 129 "src/KRiscv.cpp" 1
 130:src/KRiscv.cpp ****             asm volatile("mv %0, a2" : "=r"(init));
 1216              		ld a2, 12*8(a5)
 1217              	# 0 "" 2
 1218              		.loc 1 130 13 is_stmt 1
 130:src/KRiscv.cpp ****             asm volatile("mv %0, a2" : "=r"(init));
 1219              		.loc 1 130 51 is_stmt 0
 1220              	# 130 "src/KRiscv.cpp" 1
 1221              		mv a0, a2
 1222              	# 0 "" 2
 1223              	.LVL64:
 131:src/KRiscv.cpp ****             *rucka = KSemaphore::createSemaphore(init);
 1224              		.loc 1 131 13 is_stmt 1
 131:src/KRiscv.cpp ****             *rucka = KSemaphore::createSemaphore(init);
 1225              		.loc 1 131 49 is_stmt 0
 1226              	#NO_APP
 1227 03e8 13150502 		slli	a0,a0,32
 1228              	.LVL65:
 1229 03ec 13550502 		srli	a0,a0,32
 1230 03f0 97000000 		call	_ZN10KSemaphore15createSemaphoreEm@plt
 1230      E7800000 
 1231              	.LVL66:
 1232              	.LEHE0:
 131:src/KRiscv.cpp ****             *rucka = KSemaphore::createSemaphore(init);
 1233              		.loc 1 131 20
 1234 03f8 23B0A400 		sd	a0,0(s1)
 132:src/KRiscv.cpp ****             if (*rucka != nullptr) asm volatile("li a0, 0");
 1235              		.loc 1 132 13 is_stmt 1
 1236 03fc 63080502 		beqz	a0,.L20
 132:src/KRiscv.cpp ****             if (*rucka != nullptr) asm volatile("li a0, 0");
 1237              		.loc 1 132 36 discriminator 1
 132:src/KRiscv.cpp ****             if (*rucka != nullptr) asm volatile("li a0, 0");
 1238              		.loc 1 132 60 is_stmt 0 discriminator 1
 1239              	#APP
GAS LISTING /tmp/cc88gCBR.s 			page 35


 1240              	# 132 "src/KRiscv.cpp" 1
 1241              		li a0, 0
 1242              	# 0 "" 2
 1243              	#NO_APP
 1244              	.L21:
 134:src/KRiscv.cpp ****             asm volatile("sd a0, 10*8(%0)" :: "r"(framePointer));
 1245              		.loc 1 134 13 is_stmt 1
 134:src/KRiscv.cpp ****             asm volatile("sd a0, 10*8(%0)" :: "r"(framePointer));
 1246              		.loc 1 134 65 is_stmt 0
 1247 0404 97070000 		la	a5,framePointer
 1247      83B70700 
 1248 040c 83B70700 		ld	a5,0(a5)
 1249              	#APP
 1250              	# 134 "src/KRiscv.cpp" 1
 135:src/KRiscv.cpp ****             KRiscv::w_sepc(KRiscv::r_sepc() + 4);
 1251              		sd a0, 10*8(a5)
 1252              	# 0 "" 2
 1253              		.loc 1 135 13 is_stmt 1
 1254              	#NO_APP
 1255              	.LBB285:
 1256              	.LBB286:
  65:src/../h/KRiscv.hpp ****     asm volatile ("csrr %0, sepc" : "=r"(sepc));
 1257              		.loc 2 65 5
  66:src/../h/KRiscv.hpp ****     return sepc;
 1258              		.loc 2 66 5
  66:src/../h/KRiscv.hpp ****     return sepc;
 1259              		.loc 2 66 48 is_stmt 0
 1260              	#APP
 1261              	# 66 "src/../h/KRiscv.hpp" 1
 1262              		csrr a5, sepc
 1263              	# 0 "" 2
 1264              	#NO_APP
 1265 0418 2334F4F6 		sd	a5,-152(s0)
  67:src/../h/KRiscv.hpp **** }
 1266              		.loc 2 67 5 is_stmt 1
  67:src/../h/KRiscv.hpp **** }
 1267              		.loc 2 67 12 is_stmt 0
 1268 041c 833784F6 		ld	a5,-152(s0)
 1269              	.LBE286:
 1270              	.LBE285:
 135:src/KRiscv.cpp ****             KRiscv::w_sepc(KRiscv::r_sepc() + 4);
 1271              		.loc 1 135 27
 1272 0420 93874700 		addi	a5,a5,4
 1273              	.LVL67:
 1274              	.LBB287:
 1275              	.LBB288:
  71:src/../h/KRiscv.hpp **** }
 1276              		.loc 2 71 5 is_stmt 1
  71:src/../h/KRiscv.hpp **** }
 1277              		.loc 2 71 48 is_stmt 0
 1278              	#APP
 1279              	# 71 "src/../h/KRiscv.hpp" 1
  72:src/../h/KRiscv.hpp **** 
 1280              		csrw sepc, a5
 1281              	# 0 "" 2
 1282              		.loc 2 72 1
 1283              	#NO_APP
GAS LISTING /tmp/cc88gCBR.s 			page 36


 1284 0428 6FF0DFC4 		j	.L3
 1285              	.LVL68:
 1286              	.L20:
 1287              	.LBE288:
 1288              	.LBE287:
 133:src/KRiscv.cpp ****             else asm volatile("li a0, -1");
 1289              		.loc 1 133 18 is_stmt 1
 133:src/KRiscv.cpp ****             else asm volatile("li a0, -1");
 1290              		.loc 1 133 43 is_stmt 0
 1291              	#APP
 1292              	# 133 "src/KRiscv.cpp" 1
 1293              		li a0, -1
 1294              	# 0 "" 2
 1295              	#NO_APP
 1296 0430 6FF05FFD 		j	.L21
 1297              	.LVL69:
 1298              	.L50:
 1299              	.LBE284:
 1300              	.LBB289:
 1301              	.LBB264:
 138:src/KRiscv.cpp ****             KSemaphore* rucka = nullptr;
 1302              		.loc 1 138 13 is_stmt 1
 139:src/KRiscv.cpp ****             asm volatile("ld a1, 11*8(%0)" :: "r"(framePointer));
 1303              		.loc 1 139 13
 139:src/KRiscv.cpp ****             asm volatile("ld a1, 11*8(%0)" :: "r"(framePointer));
 1304              		.loc 1 139 65 is_stmt 0
 1305 0434 97070000 		la	a5,framePointer
 1305      83B70700 
 1306              	.LVL70:
 1307 043c 83B70700 		ld	a5,0(a5)
 1308              	#APP
 1309              	# 139 "src/KRiscv.cpp" 1
 140:src/KRiscv.cpp ****             asm volatile("mv %0, a1" : "=r"(rucka));
 1310              		ld a1, 11*8(a5)
 1311              	# 0 "" 2
 1312              		.loc 1 140 13 is_stmt 1
 140:src/KRiscv.cpp ****             asm volatile("mv %0, a1" : "=r"(rucka));
 1313              		.loc 1 140 52 is_stmt 0
 1314              	# 140 "src/KRiscv.cpp" 1
 1315              		mv s1, a1
 1316              	# 0 "" 2
 1317              	.LVL71:
 141:src/KRiscv.cpp ****             delete rucka;
 1318              		.loc 1 141 13 is_stmt 1
 141:src/KRiscv.cpp ****             delete rucka;
 1319              		.loc 1 141 25 is_stmt 0
 1320              	#NO_APP
 1321 0448 638E0402 		beqz	s1,.L23
 1322              	.LVL72:
 1323              	.L25:
 1324              	.LBB265:
 1325              	.LBB266:
 1326              		.file 4 "src/../h/KSemaphore.hpp"
   1:src/../h/KSemaphore.hpp **** //
   2:src/../h/KSemaphore.hpp **** // Created by os on 6/22/22.
   3:src/../h/KSemaphore.hpp **** //
   4:src/../h/KSemaphore.hpp **** 
GAS LISTING /tmp/cc88gCBR.s 			page 37


   5:src/../h/KSemaphore.hpp **** #ifndef PROJECT_BASE_V1_1_KSEMAPHORE_HPP
   6:src/../h/KSemaphore.hpp **** #define PROJECT_BASE_V1_1_KSEMAPHORE_HPP
   7:src/../h/KSemaphore.hpp **** 
   8:src/../h/KSemaphore.hpp **** #include "../lib/hw.h"
   9:src/../h/KSemaphore.hpp **** #include "KPCB.hpp"
  10:src/../h/KSemaphore.hpp **** 
  11:src/../h/KSemaphore.hpp **** class KSemaphore {
  12:src/../h/KSemaphore.hpp **** public:
  13:src/../h/KSemaphore.hpp ****     ~KSemaphore() {
  14:src/../h/KSemaphore.hpp ****         while (head) {
 1327              		.loc 4 14 9 is_stmt 1
 1328              		.loc 4 14 16
 1329 044c 03B58400 		ld	a0,8(s1)
 1330 0450 63040502 		beqz	a0,.L24
 1331              	.LBB267:
  15:src/../h/KSemaphore.hpp ****             KPCB* old = head;
 1332              		.loc 4 15 13
 1333              	.LVL73:
  16:src/../h/KSemaphore.hpp ****             head = head->nextSemaphore;
 1334              		.loc 4 16 13
 1335              		.loc 4 16 26 is_stmt 0
 1336 0454 83378504 		ld	a5,72(a0)
 1337              		.loc 4 16 18
 1338 0458 23B4F400 		sd	a5,8(s1)
  17:src/../h/KSemaphore.hpp ****             old->nextSemaphore = nullptr;
 1339              		.loc 4 17 13 is_stmt 1
 1340              		.loc 4 17 32 is_stmt 0
 1341 045c 23340504 		sd	zero,72(a0)
  18:src/../h/KSemaphore.hpp ****             old->setErr(true);
 1342              		.loc 4 18 13 is_stmt 1
 1343              	.LVL74:
 1344              	.LBB268:
 1345              	.LBB269:
  60:src/../h/KPCB.hpp ****     int startIt() {
 1346              		.loc 3 60 29
  60:src/../h/KPCB.hpp ****     int startIt() {
 1347              		.loc 3 60 33 is_stmt 0
 1348 0460 93071000 		li	a5,1
 1349 0464 A309F502 		sb	a5,51(a0)
 1350              	.LVL75:
 1351              	.LBE269:
 1352              	.LBE268:
  19:src/../h/KSemaphore.hpp ****             old->setWaiting(false);
 1353              		.loc 4 19 13 is_stmt 1
 1354              	.LBB270:
 1355              	.LBB271:
  59:src/../h/KPCB.hpp ****     void setErr(bool val) { err = val; }
 1356              		.loc 3 59 33
  59:src/../h/KPCB.hpp ****     void setErr(bool val) { err = val; }
 1357              		.loc 3 59 41 is_stmt 0
 1358 0468 23090502 		sb	zero,50(a0)
 1359              	.LVL76:
 1360              	.LBE271:
 1361              	.LBE270:
  20:src/../h/KSemaphore.hpp ****             KScheduler::put(old);
 1362              		.loc 4 20 13 is_stmt 1
 1363              		.loc 4 20 28 is_stmt 0
GAS LISTING /tmp/cc88gCBR.s 			page 38


 1364 046c 97000000 		call	_ZN10KScheduler3putEP4KPCB@plt
 1364      E7800000 
 1365              	.LVL77:
 1366              	.LBE267:
  14:src/../h/KSemaphore.hpp ****             KPCB* old = head;
 1367              		.loc 4 14 9
 1368 0474 6FF09FFD 		j	.L25
 1369              	.L24:
 1370              	.LVL78:
 1371              	.LBE266:
 1372              	.LBE265:
 1373              	.LBB272:
 1374              	.LBB273:
  21:src/../h/KSemaphore.hpp ****         }
  22:src/../h/KSemaphore.hpp ****     }
  23:src/../h/KSemaphore.hpp **** 
  24:src/../h/KSemaphore.hpp ****     void wait() { if(--val < 0) block(); }
  25:src/../h/KSemaphore.hpp ****     void signal() { if (val++ < 0) deblock(); }
  26:src/../h/KSemaphore.hpp ****     int value() const { return val; }
  27:src/../h/KSemaphore.hpp ****     static KSemaphore* createSemaphore(uint64 init);
  28:src/../h/KSemaphore.hpp **** 
  29:src/../h/KSemaphore.hpp ****     void* operator new(size_t size) {
  30:src/../h/KSemaphore.hpp ****         size_t sizeBlock = (size + 16) / MEM_BLOCK_SIZE + ((size + 16) % MEM_BLOCK_SIZE ? 1 : 0);
  31:src/../h/KSemaphore.hpp ****         return KMemoryAllocator::mem_alloc(sizeBlock);
  32:src/../h/KSemaphore.hpp ****         //return __mem_alloc(size);
  33:src/../h/KSemaphore.hpp ****     }
  34:src/../h/KSemaphore.hpp ****     void* operator new[](size_t size) {
  35:src/../h/KSemaphore.hpp ****         size_t sizeBlock = (size + 16) / MEM_BLOCK_SIZE + ((size + 16) % MEM_BLOCK_SIZE ? 1 : 0);
  36:src/../h/KSemaphore.hpp ****         return KMemoryAllocator::mem_alloc(sizeBlock);
  37:src/../h/KSemaphore.hpp ****         //return __mem_alloc(size);
  38:src/../h/KSemaphore.hpp ****     }
  39:src/../h/KSemaphore.hpp ****     void operator delete(void* addr) {
  40:src/../h/KSemaphore.hpp ****         KMemoryAllocator::mem_free(addr);
 1375              		.loc 4 40 9 is_stmt 1
 1376              		.loc 4 40 35 is_stmt 0
 1377 0478 13850400 		mv	a0,s1
 1378              	.LEHB1:
 1379 047c 97000000 		call	_ZN16KMemoryAllocator8mem_freeEPv@plt
 1379      E7800000 
 1380              	.LVL79:
 1381              	.L23:
 1382              	.LBE273:
 1383              	.LBE272:
 142:src/KRiscv.cpp ****             KRiscv::w_sepc(KRiscv::r_sepc() + 4);
 1384              		.loc 1 142 13 is_stmt 1
 1385              	.LBB274:
 1386              	.LBB275:
  65:src/../h/KRiscv.hpp ****     asm volatile ("csrr %0, sepc" : "=r"(sepc));
 1387              		.loc 2 65 5
  66:src/../h/KRiscv.hpp ****     return sepc;
 1388              		.loc 2 66 5
  66:src/../h/KRiscv.hpp ****     return sepc;
 1389              		.loc 2 66 48 is_stmt 0
 1390              	#APP
 1391              	# 66 "src/../h/KRiscv.hpp" 1
 1392              		csrr a5, sepc
 1393              	# 0 "" 2
GAS LISTING /tmp/cc88gCBR.s 			page 39


 1394              	#NO_APP
 1395 0488 2338F4F6 		sd	a5,-144(s0)
  67:src/../h/KRiscv.hpp **** }
 1396              		.loc 2 67 5 is_stmt 1
  67:src/../h/KRiscv.hpp **** }
 1397              		.loc 2 67 12 is_stmt 0
 1398 048c 833704F7 		ld	a5,-144(s0)
 1399              	.LBE275:
 1400              	.LBE274:
 142:src/KRiscv.cpp ****             KRiscv::w_sepc(KRiscv::r_sepc() + 4);
 1401              		.loc 1 142 27
 1402 0490 93874700 		addi	a5,a5,4
 1403              	.LVL80:
 1404              	.LBB276:
 1405              	.LBB277:
  71:src/../h/KRiscv.hpp **** }
 1406              		.loc 2 71 5 is_stmt 1
  71:src/../h/KRiscv.hpp **** }
 1407              		.loc 2 71 48 is_stmt 0
 1408              	#APP
 1409              	# 71 "src/../h/KRiscv.hpp" 1
  72:src/../h/KRiscv.hpp **** 
 1410              		csrw sepc, a5
 1411              	# 0 "" 2
 1412              		.loc 2 72 1
 1413              	#NO_APP
 1414 0498 6FF0DFBD 		j	.L3
 1415              	.LVL81:
 1416              	.L51:
 1417              	.LBE277:
 1418              	.LBE276:
 1419              	.LBE264:
 1420              	.LBB278:
 1421              	.LBB246:
 145:src/KRiscv.cpp ****             uint64 sepc = r_sepc() + 4;
 1422              		.loc 1 145 13 is_stmt 1
 1423              	.LBB247:
 1424              	.LBB248:
  65:src/../h/KRiscv.hpp ****     asm volatile ("csrr %0, sepc" : "=r"(sepc));
 1425              		.loc 2 65 5
  66:src/../h/KRiscv.hpp ****     return sepc;
 1426              		.loc 2 66 5
  66:src/../h/KRiscv.hpp ****     return sepc;
 1427              		.loc 2 66 48 is_stmt 0
 1428              	#APP
 1429              	# 66 "src/../h/KRiscv.hpp" 1
 1430              		csrr a5, sepc
 1431              	# 0 "" 2
 1432              	.LVL82:
 1433              	#NO_APP
 1434 04a0 2330F4F8 		sd	a5,-128(s0)
  67:src/../h/KRiscv.hpp **** }
 1435              		.loc 2 67 5 is_stmt 1
  67:src/../h/KRiscv.hpp **** }
 1436              		.loc 2 67 12 is_stmt 0
 1437 04a4 833404F8 		ld	s1,-128(s0)
 1438              	.LBE248:
GAS LISTING /tmp/cc88gCBR.s 			page 40


 1439              	.LBE247:
 145:src/KRiscv.cpp ****             uint64 sepc = r_sepc() + 4;
 1440              		.loc 1 145 38
 1441 04a8 93844400 		addi	s1,s1,4
 1442              	.LVL83:
 146:src/KRiscv.cpp ****             uint64 sstatus = r_sstatus();
 1443              		.loc 1 146 13 is_stmt 1
 1444              	.LBB249:
 1445              	.LBB250:
 121:src/../h/KRiscv.hpp ****     asm volatile ("csrr %0, sstatus" : "=r"(sstatus));
 1446              		.loc 2 121 5
 122:src/../h/KRiscv.hpp ****     return sstatus;
 1447              		.loc 2 122 5
 122:src/../h/KRiscv.hpp ****     return sstatus;
 1448              		.loc 2 122 54 is_stmt 0
 1449              	#APP
 1450              	# 122 "src/../h/KRiscv.hpp" 1
 1451              		csrr a5, sstatus
 1452              	# 0 "" 2
 1453              	#NO_APP
 1454 04b0 233CF4F6 		sd	a5,-136(s0)
 123:src/../h/KRiscv.hpp **** }
 1455              		.loc 2 123 5 is_stmt 1
 123:src/../h/KRiscv.hpp **** }
 1456              		.loc 2 123 12 is_stmt 0
 1457 04b4 033984F7 		ld	s2,-136(s0)
 1458              	.LVL84:
 1459              	.LBE250:
 1460              	.LBE249:
 147:src/KRiscv.cpp ****             KSemaphore* rucka = nullptr;
 1461              		.loc 1 147 13 is_stmt 1
 148:src/KRiscv.cpp ****             asm volatile("ld a1, 11*8(%0)" :: "r"(framePointer));
 1462              		.loc 1 148 13
 148:src/KRiscv.cpp ****             asm volatile("ld a1, 11*8(%0)" :: "r"(framePointer));
 1463              		.loc 1 148 65 is_stmt 0
 1464 04b8 97070000 		la	a5,framePointer
 1464      83B70700 
 1465 04c0 83B70700 		ld	a5,0(a5)
 1466              	#APP
 1467              	# 148 "src/KRiscv.cpp" 1
 149:src/KRiscv.cpp ****             asm volatile("mv %0, a1" : "=r"(rucka));
 1468              		ld a1, 11*8(a5)
 1469              	# 0 "" 2
 1470              		.loc 1 149 13 is_stmt 1
 149:src/KRiscv.cpp ****             asm volatile("mv %0, a1" : "=r"(rucka));
 1471              		.loc 1 149 52 is_stmt 0
 1472              	# 149 "src/KRiscv.cpp" 1
 1473              		mv a0, a1
 1474              	# 0 "" 2
 1475              	.LVL85:
 150:src/KRiscv.cpp ****             if (rucka) rucka->wait();
 1476              		.loc 1 150 13 is_stmt 1
 1477              	#NO_APP
 1478 04cc 630C0500 		beqz	a0,.L27
 150:src/KRiscv.cpp ****             if (rucka) rucka->wait();
 1479              		.loc 1 150 24
 1480              	.LVL86:
GAS LISTING /tmp/cc88gCBR.s 			page 41


 1481              	.LBB251:
 1482              	.LBB252:
  24:src/../h/KSemaphore.hpp ****     void signal() { if (val++ < 0) deblock(); }
 1483              		.loc 4 24 19
  24:src/../h/KSemaphore.hpp ****     void signal() { if (val++ < 0) deblock(); }
 1484              		.loc 4 24 24 is_stmt 0
 1485 04d0 83270500 		lw	a5,0(a0)
  24:src/../h/KSemaphore.hpp ****     void signal() { if (val++ < 0) deblock(); }
 1486              		.loc 4 24 22
 1487 04d4 9B87F7FF 		addiw	a5,a5,-1
  24:src/../h/KSemaphore.hpp ****     void signal() { if (val++ < 0) deblock(); }
 1488              		.loc 4 24 28
 1489 04d8 2320F500 		sw	a5,0(a0)
  24:src/../h/KSemaphore.hpp ****     void signal() { if (val++ < 0) deblock(); }
 1490              		.loc 4 24 19
 1491 04dc 13970702 		slli	a4,a5,32
 1492 04e0 63480700 		bltz	a4,.L55
 1493              	.LVL87:
 1494              	.L27:
 1495              	.LBE252:
 1496              	.LBE251:
 151:src/KRiscv.cpp ****             w_sstatus(sstatus);
 1497              		.loc 1 151 13 is_stmt 1
 1498              	.LBB254:
 1499              	.LBB255:
 127:src/../h/KRiscv.hpp **** }
 1500              		.loc 2 127 5
 127:src/../h/KRiscv.hpp **** }
 1501              		.loc 2 127 54 is_stmt 0
 1502              	#APP
 1503              	# 127 "src/../h/KRiscv.hpp" 1
 1504              		csrw sstatus, s2
 1505              	# 0 "" 2
 1506              	.LVL88:
 1507              	#NO_APP
 1508              	.LBE255:
 1509              	.LBE254:
 152:src/KRiscv.cpp ****             w_sepc(sepc);
 1510              		.loc 1 152 13 is_stmt 1
 1511              	.LBB256:
 1512              	.LBB257:
  71:src/../h/KRiscv.hpp **** }
 1513              		.loc 2 71 5
  71:src/../h/KRiscv.hpp **** }
 1514              		.loc 2 71 48 is_stmt 0
 1515              	#APP
 1516              	# 71 "src/../h/KRiscv.hpp" 1
  72:src/../h/KRiscv.hpp **** 
 1517              		csrw sepc, s1
 1518              	# 0 "" 2
 1519              		.loc 2 72 1
 1520              	#NO_APP
 1521 04ec 6FF09FB8 		j	.L3
 1522              	.LVL89:
 1523              	.L55:
 1524              	.LBE257:
 1525              	.LBE256:
GAS LISTING /tmp/cc88gCBR.s 			page 42


 1526              	.LBB258:
 1527              	.LBB253:
  24:src/../h/KSemaphore.hpp ****     void signal() { if (val++ < 0) deblock(); }
 1528              		.loc 4 24 33 is_stmt 1
  24:src/../h/KSemaphore.hpp ****     void signal() { if (val++ < 0) deblock(); }
 1529              		.loc 4 24 38 is_stmt 0
 1530 04f0 97000000 		call	_ZN10KSemaphore5blockEv@plt
 1530      E7800000 
 1531              	.LVL90:
 1532 04f8 6FF0DFFE 		j	.L27
 1533              	.LVL91:
 1534              	.L52:
 1535              	.LBE253:
 1536              	.LBE258:
 1537              	.LBE246:
 1538              	.LBB259:
 1539              	.LBB233:
 155:src/KRiscv.cpp ****             KSemaphore* rucka = nullptr;
 1540              		.loc 1 155 13 is_stmt 1
 156:src/KRiscv.cpp ****             asm volatile("ld a1, 11*8(%0)" :: "r"(framePointer));
 1541              		.loc 1 156 13
 156:src/KRiscv.cpp ****             asm volatile("ld a1, 11*8(%0)" :: "r"(framePointer));
 1542              		.loc 1 156 65 is_stmt 0
 1543 04fc 97070000 		la	a5,framePointer
 1543      83B70700 
 1544              	.LVL92:
 1545 0504 83B70700 		ld	a5,0(a5)
 1546              	#APP
 1547              	# 156 "src/KRiscv.cpp" 1
 157:src/KRiscv.cpp ****             asm volatile("mv %0, a1" : "=r"(rucka));
 1548              		ld a1, 11*8(a5)
 1549              	# 0 "" 2
 1550              		.loc 1 157 13 is_stmt 1
 157:src/KRiscv.cpp ****             asm volatile("mv %0, a1" : "=r"(rucka));
 1551              		.loc 1 157 52 is_stmt 0
 1552              	# 157 "src/KRiscv.cpp" 1
 1553              		mv a0, a1
 1554              	# 0 "" 2
 1555              	.LVL93:
 158:src/KRiscv.cpp ****             if (rucka) rucka->signal();
 1556              		.loc 1 158 13 is_stmt 1
 1557              	#NO_APP
 1558 0510 630A0500 		beqz	a0,.L29
 158:src/KRiscv.cpp ****             if (rucka) rucka->signal();
 1559              		.loc 1 158 24
 1560              	.LVL94:
 1561              	.LBB234:
 1562              	.LBB235:
  25:src/../h/KSemaphore.hpp ****     int value() const { return val; }
 1563              		.loc 4 25 21
  25:src/../h/KSemaphore.hpp ****     int value() const { return val; }
 1564              		.loc 4 25 25 is_stmt 0
 1565 0514 83270500 		lw	a5,0(a0)
  25:src/../h/KSemaphore.hpp ****     int value() const { return val; }
 1566              		.loc 4 25 28
 1567 0518 1B871700 		addiw	a4,a5,1
 1568 051c 2320E500 		sw	a4,0(a0)
GAS LISTING /tmp/cc88gCBR.s 			page 43


  25:src/../h/KSemaphore.hpp ****     int value() const { return val; }
 1569              		.loc 4 25 21
 1570 0520 63CE0700 		bltz	a5,.L56
 1571              	.LVL95:
 1572              	.L29:
 1573              	.LBE235:
 1574              	.LBE234:
 159:src/KRiscv.cpp ****             KRiscv::w_sepc(KRiscv::r_sepc() + 4);
 1575              		.loc 1 159 13 is_stmt 1
 1576              	.LBB237:
 1577              	.LBB238:
  65:src/../h/KRiscv.hpp ****     asm volatile ("csrr %0, sepc" : "=r"(sepc));
 1578              		.loc 2 65 5
  66:src/../h/KRiscv.hpp ****     return sepc;
 1579              		.loc 2 66 5
  66:src/../h/KRiscv.hpp ****     return sepc;
 1580              		.loc 2 66 48 is_stmt 0
 1581              	#APP
 1582              	# 66 "src/../h/KRiscv.hpp" 1
 1583              		csrr a5, sepc
 1584              	# 0 "" 2
 1585              	#NO_APP
 1586 0528 2334F4F8 		sd	a5,-120(s0)
  67:src/../h/KRiscv.hpp **** }
 1587              		.loc 2 67 5 is_stmt 1
  67:src/../h/KRiscv.hpp **** }
 1588              		.loc 2 67 12 is_stmt 0
 1589 052c 833784F8 		ld	a5,-120(s0)
 1590              	.LBE238:
 1591              	.LBE237:
 159:src/KRiscv.cpp ****             KRiscv::w_sepc(KRiscv::r_sepc() + 4);
 1592              		.loc 1 159 27
 1593 0530 93874700 		addi	a5,a5,4
 1594              	.LVL96:
 1595              	.LBB239:
 1596              	.LBB240:
  71:src/../h/KRiscv.hpp **** }
 1597              		.loc 2 71 5 is_stmt 1
  71:src/../h/KRiscv.hpp **** }
 1598              		.loc 2 71 48 is_stmt 0
 1599              	#APP
 1600              	# 71 "src/../h/KRiscv.hpp" 1
  72:src/../h/KRiscv.hpp **** 
 1601              		csrw sepc, a5
 1602              	# 0 "" 2
 1603              		.loc 2 72 1
 1604              	#NO_APP
 1605 0538 6FF0DFB3 		j	.L3
 1606              	.LVL97:
 1607              	.L56:
 1608              	.LBE240:
 1609              	.LBE239:
 1610              	.LBB241:
 1611              	.LBB236:
  25:src/../h/KSemaphore.hpp ****     int value() const { return val; }
 1612              		.loc 4 25 36 is_stmt 1
  25:src/../h/KSemaphore.hpp ****     int value() const { return val; }
GAS LISTING /tmp/cc88gCBR.s 			page 44


 1613              		.loc 4 25 43 is_stmt 0
 1614 053c 97000000 		call	_ZN10KSemaphore7deblockEv@plt
 1614      E7800000 
 1615              	.LVL98:
 1616 0544 6FF01FFE 		j	.L29
 1617              	.LVL99:
 1618              	.L53:
 1619              	.LBE236:
 1620              	.LBE241:
 1621              	.LBE233:
 1622              	.LBB242:
 1623              	.LBB221:
 162:src/KRiscv.cpp ****             time_t t;
 1624              		.loc 1 162 13 is_stmt 1
 163:src/KRiscv.cpp ****             asm volatile("ld a1, 11*8(%0)" :: "r"(framePointer));
 1625              		.loc 1 163 13
 163:src/KRiscv.cpp ****             asm volatile("ld a1, 11*8(%0)" :: "r"(framePointer));
 1626              		.loc 1 163 65 is_stmt 0
 1627 0548 97070000 		la	a5,framePointer
 1627      83B70700 
 1628              	.LVL100:
 1629 0550 83B70700 		ld	a5,0(a5)
 1630              	#APP
 1631              	# 163 "src/KRiscv.cpp" 1
 164:src/KRiscv.cpp ****             asm volatile("mv %0, a1" : "=r"(t));
 1632              		ld a1, 11*8(a5)
 1633              	# 0 "" 2
 1634              		.loc 1 164 13 is_stmt 1
 164:src/KRiscv.cpp ****             asm volatile("mv %0, a1" : "=r"(t));
 1635              		.loc 1 164 48 is_stmt 0
 1636              	# 164 "src/KRiscv.cpp" 1
 1637              		mv a0, a1
 1638              	# 0 "" 2
 1639              	.LVL101:
 165:src/KRiscv.cpp ****             KSleep::add(t);
 1640              		.loc 1 165 13 is_stmt 1
 165:src/KRiscv.cpp ****             KSleep::add(t);
 1641              		.loc 1 165 24 is_stmt 0
 1642              	#NO_APP
 1643 055c 97000000 		call	_ZN6KSleep3addEm@plt
 1643      E7800000 
 1644              	.LVL102:
 166:src/KRiscv.cpp ****             uint64 sepc = KRiscv::r_sepc() + 4;
 1645              		.loc 1 166 13 is_stmt 1
 1646              	.LBB222:
 1647              	.LBB223:
  65:src/../h/KRiscv.hpp ****     asm volatile ("csrr %0, sepc" : "=r"(sepc));
 1648              		.loc 2 65 5
  66:src/../h/KRiscv.hpp ****     return sepc;
 1649              		.loc 2 66 5
  66:src/../h/KRiscv.hpp ****     return sepc;
 1650              		.loc 2 66 48 is_stmt 0
 1651              	#APP
 1652              	# 66 "src/../h/KRiscv.hpp" 1
 1653              		csrr a5, sepc
 1654              	# 0 "" 2
 1655              	#NO_APP
GAS LISTING /tmp/cc88gCBR.s 			page 45


 1656 0568 233CF4F8 		sd	a5,-104(s0)
  67:src/../h/KRiscv.hpp **** }
 1657              		.loc 2 67 5 is_stmt 1
  67:src/../h/KRiscv.hpp **** }
 1658              		.loc 2 67 12 is_stmt 0
 1659 056c 833484F9 		ld	s1,-104(s0)
 1660              	.LBE223:
 1661              	.LBE222:
 166:src/KRiscv.cpp ****             uint64 sepc = KRiscv::r_sepc() + 4;
 1662              		.loc 1 166 46
 1663 0570 93844400 		addi	s1,s1,4
 1664              	.LVL103:
 167:src/KRiscv.cpp ****             uint64 sstatus = KRiscv::r_sstatus();
 1665              		.loc 1 167 13 is_stmt 1
 1666              	.LBB224:
 1667              	.LBB225:
 121:src/../h/KRiscv.hpp ****     asm volatile ("csrr %0, sstatus" : "=r"(sstatus));
 1668              		.loc 2 121 5
 122:src/../h/KRiscv.hpp ****     return sstatus;
 1669              		.loc 2 122 5
 122:src/../h/KRiscv.hpp ****     return sstatus;
 1670              		.loc 2 122 54 is_stmt 0
 1671              	#APP
 1672              	# 122 "src/../h/KRiscv.hpp" 1
 1673              		csrr a5, sstatus
 1674              	# 0 "" 2
 1675              	#NO_APP
 1676 0578 2338F4F8 		sd	a5,-112(s0)
 123:src/../h/KRiscv.hpp **** }
 1677              		.loc 2 123 5 is_stmt 1
 123:src/../h/KRiscv.hpp **** }
 1678              		.loc 2 123 12 is_stmt 0
 1679 057c 033904F9 		ld	s2,-112(s0)
 1680              	.LVL104:
 1681              	.LBE225:
 1682              	.LBE224:
 168:src/KRiscv.cpp ****             KPCB::dispatch();
 1683              		.loc 1 168 13 is_stmt 1
 168:src/KRiscv.cpp ****             KPCB::dispatch();
 1684              		.loc 1 168 27 is_stmt 0
 1685 0580 97000000 		call	_ZN4KPCB8dispatchEv@plt
 1685      E7800000 
 1686              	.LVL105:
 169:src/KRiscv.cpp ****             KRiscv::w_sstatus(sstatus);
 1687              		.loc 1 169 13 is_stmt 1
 1688              	.LBB226:
 1689              	.LBB227:
 127:src/../h/KRiscv.hpp **** }
 1690              		.loc 2 127 5
 127:src/../h/KRiscv.hpp **** }
 1691              		.loc 2 127 54 is_stmt 0
 1692              	#APP
 1693              	# 127 "src/../h/KRiscv.hpp" 1
 1694              		csrw sstatus, s2
 1695              	# 0 "" 2
 1696              	.LVL106:
 1697              	#NO_APP
GAS LISTING /tmp/cc88gCBR.s 			page 46


 1698              	.LBE227:
 1699              	.LBE226:
 170:src/KRiscv.cpp ****             KRiscv::w_sepc(sepc);
 1700              		.loc 1 170 13 is_stmt 1
 1701              	.LBB228:
 1702              	.LBB229:
  71:src/../h/KRiscv.hpp **** }
 1703              		.loc 2 71 5
  71:src/../h/KRiscv.hpp **** }
 1704              		.loc 2 71 48 is_stmt 0
 1705              	#APP
 1706              	# 71 "src/../h/KRiscv.hpp" 1
  72:src/../h/KRiscv.hpp **** 
 1707              		csrw sepc, s1
 1708              	# 0 "" 2
 1709              		.loc 2 72 1
 1710              	#NO_APP
 1711 0590 6FF05FAE 		j	.L3
 1712              	.LVL107:
 1713              	.L54:
 1714              	.LBE229:
 1715              	.LBE228:
 1716              	.LBE221:
 1717              	.LBB230:
 1718              	.LBB208:
 173:src/KRiscv.cpp ****             uint64 framePointerGETC = framePointer;
 1719              		.loc 1 173 13 is_stmt 1
 173:src/KRiscv.cpp ****             uint64 framePointerGETC = framePointer;
 1720              		.loc 1 173 20 is_stmt 0
 1721 0594 97070000 		la	a5,framePointer
 1721      83B70700 
 1722              	.LVL108:
 1723 059c 03B90700 		ld	s2,0(a5)
 1724              	.LVL109:
 174:src/KRiscv.cpp ****             uint64 sepc = KRiscv::r_sepc() + 4;
 1725              		.loc 1 174 13 is_stmt 1
 1726              	.LBB209:
 1727              	.LBB210:
  65:src/../h/KRiscv.hpp ****     asm volatile ("csrr %0, sepc" : "=r"(sepc));
 1728              		.loc 2 65 5
  66:src/../h/KRiscv.hpp ****     return sepc;
 1729              		.loc 2 66 5
  66:src/../h/KRiscv.hpp ****     return sepc;
 1730              		.loc 2 66 48 is_stmt 0
 1731              	#APP
 1732              	# 66 "src/../h/KRiscv.hpp" 1
 1733              		csrr a5, sepc
 1734              	# 0 "" 2
 1735              	#NO_APP
 1736 05a4 2334F4FA 		sd	a5,-88(s0)
  67:src/../h/KRiscv.hpp **** }
 1737              		.loc 2 67 5 is_stmt 1
  67:src/../h/KRiscv.hpp **** }
 1738              		.loc 2 67 12 is_stmt 0
 1739 05a8 833484FA 		ld	s1,-88(s0)
 1740              	.LBE210:
 1741              	.LBE209:
GAS LISTING /tmp/cc88gCBR.s 			page 47


 174:src/KRiscv.cpp ****             uint64 sepc = KRiscv::r_sepc() + 4;
 1742              		.loc 1 174 46
 1743 05ac 93844400 		addi	s1,s1,4
 1744              	.LVL110:
 175:src/KRiscv.cpp ****             uint64 sstatus = KRiscv::r_sstatus();
 1745              		.loc 1 175 13 is_stmt 1
 1746              	.LBB211:
 1747              	.LBB212:
 121:src/../h/KRiscv.hpp ****     asm volatile ("csrr %0, sstatus" : "=r"(sstatus));
 1748              		.loc 2 121 5
 122:src/../h/KRiscv.hpp ****     return sstatus;
 1749              		.loc 2 122 5
 122:src/../h/KRiscv.hpp ****     return sstatus;
 1750              		.loc 2 122 54 is_stmt 0
 1751              	#APP
 1752              	# 122 "src/../h/KRiscv.hpp" 1
 1753              		csrr a5, sstatus
 1754              	# 0 "" 2
 1755              	#NO_APP
 1756 05b4 2330F4FA 		sd	a5,-96(s0)
 123:src/../h/KRiscv.hpp **** }
 1757              		.loc 2 123 5 is_stmt 1
 123:src/../h/KRiscv.hpp **** }
 1758              		.loc 2 123 12 is_stmt 0
 1759 05b8 833904FA 		ld	s3,-96(s0)
 1760              	.LVL111:
 1761              	.LBE212:
 1762              	.LBE211:
 176:src/KRiscv.cpp ****             char c = KConsole::inBuff->get();
 1763              		.loc 1 176 13 is_stmt 1
 176:src/KRiscv.cpp ****             char c = KConsole::inBuff->get();
 1764              		.loc 1 176 43 is_stmt 0
 1765 05bc 97070000 		la	a5,_ZN8KConsole6inBuffE
 1765      83B70700 
 1766 05c4 03B50700 		ld	a0,0(a5)
 1767 05c8 97000000 		call	_ZN8KConsole3getEv@plt
 1767      E7800000 
 1768              	.LVL112:
 177:src/KRiscv.cpp ****             asm volatile("mv a0, %0" :: "r"(c));
 1769              		.loc 1 177 13 is_stmt 1
 177:src/KRiscv.cpp ****             asm volatile("mv a0, %0" :: "r"(c));
 1770              		.loc 1 177 48 is_stmt 0
 1771              	#APP
 1772              	# 177 "src/KRiscv.cpp" 1
 178:src/KRiscv.cpp ****             asm volatile("sd a0, 10*8(%0)" :: "r"(framePointerGETC));
 1773              		mv a0, a0
 1774              	# 0 "" 2
 1775              		.loc 1 178 13 is_stmt 1
 178:src/KRiscv.cpp ****             asm volatile("sd a0, 10*8(%0)" :: "r"(framePointerGETC));
 1776              		.loc 1 178 69 is_stmt 0
 1777              	# 178 "src/KRiscv.cpp" 1
 179:src/KRiscv.cpp ****             KRiscv::w_sstatus(framePointerGETC);
 1778              		sd a0, 10*8(s2)
 1779              	# 0 "" 2
 1780              		.loc 1 179 13 is_stmt 1
 1781              	.LVL113:
 1782              	#NO_APP
GAS LISTING /tmp/cc88gCBR.s 			page 48


 1783              	.LBB213:
 1784              	.LBB214:
 127:src/../h/KRiscv.hpp **** }
 1785              		.loc 2 127 5
 127:src/../h/KRiscv.hpp **** }
 1786              		.loc 2 127 54 is_stmt 0
 1787              	#APP
 1788              	# 127 "src/../h/KRiscv.hpp" 1
 1789              		csrw sstatus, s2
 1790              	# 0 "" 2
 1791              	.LVL114:
 1792              	#NO_APP
 1793              	.LBE214:
 1794              	.LBE213:
 180:src/KRiscv.cpp ****             KRiscv::w_sstatus(sstatus);
 1795              		.loc 1 180 13 is_stmt 1
 1796              	.LBB215:
 1797              	.LBB216:
 127:src/../h/KRiscv.hpp **** }
 1798              		.loc 2 127 5
 127:src/../h/KRiscv.hpp **** }
 1799              		.loc 2 127 54 is_stmt 0
 1800              	#APP
 1801              	# 127 "src/../h/KRiscv.hpp" 1
 1802              		csrw sstatus, s3
 1803              	# 0 "" 2
 1804              	.LVL115:
 1805              	#NO_APP
 1806              	.LBE216:
 1807              	.LBE215:
 181:src/KRiscv.cpp ****             KRiscv::w_sepc(sepc);
 1808              		.loc 1 181 13 is_stmt 1
 1809              	.LBB217:
 1810              	.LBB218:
  71:src/../h/KRiscv.hpp **** }
 1811              		.loc 2 71 5
  71:src/../h/KRiscv.hpp **** }
 1812              		.loc 2 71 48 is_stmt 0
 1813              	#APP
 1814              	# 71 "src/../h/KRiscv.hpp" 1
  72:src/../h/KRiscv.hpp **** 
 1815              		csrw sepc, s1
 1816              	# 0 "" 2
 1817              		.loc 2 72 1
 1818              	#NO_APP
 1819 05e4 6FF01FA9 		j	.L3
 1820              	.LVL116:
 1821              	.L32:
 1822              	.LBE218:
 1823              	.LBE217:
 1824              	.LBE208:
 1825              	.LBB219:
 1826              	.LBB207:
 193:src/KRiscv.cpp ****             KRiscv::w_sstatus(sstatus);
 1827              		.loc 1 193 13 is_stmt 1 discriminator 4
 1828              	.LBB203:
 1829              	.LBB204:
GAS LISTING /tmp/cc88gCBR.s 			page 49


 127:src/../h/KRiscv.hpp **** }
 1830              		.loc 2 127 5 discriminator 4
 127:src/../h/KRiscv.hpp **** }
 1831              		.loc 2 127 54 is_stmt 0 discriminator 4
 1832              	#APP
 1833              	# 127 "src/../h/KRiscv.hpp" 1
 1834              		csrw sstatus, s2
 1835              	# 0 "" 2
 1836              	.LVL117:
 1837              	#NO_APP
 1838              	.LBE204:
 1839              	.LBE203:
 194:src/KRiscv.cpp ****             KRiscv::w_sepc(sepc);
 1840              		.loc 1 194 13 is_stmt 1 discriminator 4
 1841              	.LBB205:
 1842              	.LBB206:
  71:src/../h/KRiscv.hpp **** }
 1843              		.loc 2 71 5 discriminator 4
  71:src/../h/KRiscv.hpp **** }
 1844              		.loc 2 71 48 is_stmt 0 discriminator 4
 1845              	#APP
 1846              	# 71 "src/../h/KRiscv.hpp" 1
  72:src/../h/KRiscv.hpp **** 
 1847              		csrw sepc, s1
 1848              	# 0 "" 2
 1849              		.loc 2 72 1 discriminator 4
 1850              	#NO_APP
 1851 05f0 6FF05FA8 		j	.L3
 1852              	.LVL118:
 1853              	.L40:
 1854              	.LBE206:
 1855              	.LBE205:
 1856              	.LBE207:
 1857              	.LBE219:
 1858              	.LBE230:
 1859              	.LBE242:
 1860              	.LBE259:
 1861              	.LBE278:
 1862              	.LBE289:
 1863              	.LBE305:
 1864              	.LBE324:
 1865              	.LBE340:
 1866              	.LBE355:
 1867              	.LBE372:
 1868              	.LBE389:
 1869              	.LBE407:
 1870              	.LBE420:
 1871              	.LBE433:
 1872              	.LBB434:
 1873              	.LBB166:
 198:src/KRiscv.cpp ****         KPCB::timeSliceCounter++;
 1874              		.loc 1 198 9 is_stmt 1
 198:src/KRiscv.cpp ****         KPCB::timeSliceCounter++;
 1875              		.loc 1 198 31 is_stmt 0
 1876 05f4 97040000 		la	s1,_ZN4KPCB16timeSliceCounterE
 1876      83B40400 
 1877 05fc 83B70400 		ld	a5,0(s1)
GAS LISTING /tmp/cc88gCBR.s 			page 50


 1878 0600 93871700 		addi	a5,a5,1
 1879 0604 23B0F400 		sd	a5,0(s1)
 199:src/KRiscv.cpp ****         KSleep::remove();
 1880              		.loc 1 199 9 is_stmt 1
 199:src/KRiscv.cpp ****         KSleep::remove();
 1881              		.loc 1 199 23 is_stmt 0
 1882 0608 97000000 		call	_ZN6KSleep6removeEv@plt
 1882      E7800000 
 1883              	.LVL119:
 200:src/KRiscv.cpp ****         if (KPCB::timeSliceCounter >= KPCB::running->TIME_SLICE) {
 1884              		.loc 1 200 9 is_stmt 1
 1885              	.LBB167:
 200:src/KRiscv.cpp ****         if (KPCB::timeSliceCounter >= KPCB::running->TIME_SLICE) {
 1886              		.loc 1 200 36 is_stmt 0
 1887 0610 03B70400 		ld	a4,0(s1)
 200:src/KRiscv.cpp ****         if (KPCB::timeSliceCounter >= KPCB::running->TIME_SLICE) {
 1888              		.loc 1 200 9
 1889 0614 93071000 		li	a5,1
 1890 0618 63E8E700 		bgtu	a4,a5,.L57
 1891              	.L35:
 1892              	.LBE167:
 207:src/KRiscv.cpp ****         mc_sip(SIP_SSIP);
 1893              		.loc 1 207 9 is_stmt 1
 1894              	.LVL120:
 1895              	.LBB177:
 1896              	.LBB178:
  99:src/../h/KRiscv.hpp **** }
 1897              		.loc 2 99 5
  99:src/../h/KRiscv.hpp **** }
 1898              		.loc 2 99 47 is_stmt 0
 1899 061c 93072000 		li	a5,2
 1900              	#APP
 1901              	# 99 "src/../h/KRiscv.hpp" 1
 100:src/../h/KRiscv.hpp **** 
 1902              		csrc sip, a5
 1903              	# 0 "" 2
 1904              		.loc 2 100 1
 1905              	#NO_APP
 1906 0624 6FF01FA5 		j	.L3
 1907              	.LVL121:
 1908              	.L57:
 1909              	.LBE178:
 1910              	.LBE177:
 1911              	.LBB179:
 1912              	.LBB168:
 201:src/KRiscv.cpp ****             uint64 sepc = r_sepc();
 1913              		.loc 1 201 13 is_stmt 1
 1914              	.LBB169:
 1915              	.LBB170:
  65:src/../h/KRiscv.hpp ****     asm volatile ("csrr %0, sepc" : "=r"(sepc));
 1916              		.loc 2 65 5
  66:src/../h/KRiscv.hpp ****     return sepc;
 1917              		.loc 2 66 5
  66:src/../h/KRiscv.hpp ****     return sepc;
 1918              		.loc 2 66 48 is_stmt 0
 1919              	#APP
 1920              	# 66 "src/../h/KRiscv.hpp" 1
GAS LISTING /tmp/cc88gCBR.s 			page 51


 1921              		csrr a5, sepc
 1922              	# 0 "" 2
 1923              	#NO_APP
 1924 062c 2334F4FC 		sd	a5,-56(s0)
  67:src/../h/KRiscv.hpp **** }
 1925              		.loc 2 67 5 is_stmt 1
  67:src/../h/KRiscv.hpp **** }
 1926              		.loc 2 67 12 is_stmt 0
 1927 0630 833484FC 		ld	s1,-56(s0)
 1928              	.LVL122:
 1929              	.LBE170:
 1930              	.LBE169:
 202:src/KRiscv.cpp ****             uint64 sstatus = r_sstatus();
 1931              		.loc 1 202 13 is_stmt 1
 1932              	.LBB171:
 1933              	.LBB172:
 121:src/../h/KRiscv.hpp ****     asm volatile ("csrr %0, sstatus" : "=r"(sstatus));
 1934              		.loc 2 121 5
 122:src/../h/KRiscv.hpp ****     return sstatus;
 1935              		.loc 2 122 5
 122:src/../h/KRiscv.hpp ****     return sstatus;
 1936              		.loc 2 122 54 is_stmt 0
 1937              	#APP
 1938              	# 122 "src/../h/KRiscv.hpp" 1
 1939              		csrr a5, sstatus
 1940              	# 0 "" 2
 1941              	#NO_APP
 1942 0638 2330F4FC 		sd	a5,-64(s0)
 123:src/../h/KRiscv.hpp **** }
 1943              		.loc 2 123 5 is_stmt 1
 123:src/../h/KRiscv.hpp **** }
 1944              		.loc 2 123 12 is_stmt 0
 1945 063c 033904FC 		ld	s2,-64(s0)
 1946              	.LVL123:
 1947              	.LBE172:
 1948              	.LBE171:
 203:src/KRiscv.cpp ****             KPCB::dispatch();
 1949              		.loc 1 203 13 is_stmt 1
 203:src/KRiscv.cpp ****             KPCB::dispatch();
 1950              		.loc 1 203 27 is_stmt 0
 1951 0640 97000000 		call	_ZN4KPCB8dispatchEv@plt
 1951      E7800000 
 1952              	.LVL124:
 204:src/KRiscv.cpp ****             w_sstatus(sstatus);
 1953              		.loc 1 204 13 is_stmt 1
 1954              	.LBB173:
 1955              	.LBB174:
 127:src/../h/KRiscv.hpp **** }
 1956              		.loc 2 127 5
 127:src/../h/KRiscv.hpp **** }
 1957              		.loc 2 127 54 is_stmt 0
 1958              	#APP
 1959              	# 127 "src/../h/KRiscv.hpp" 1
 1960              		csrw sstatus, s2
 1961              	# 0 "" 2
 1962              	.LVL125:
 1963              	#NO_APP
GAS LISTING /tmp/cc88gCBR.s 			page 52


 1964              	.LBE174:
 1965              	.LBE173:
 205:src/KRiscv.cpp ****             w_sepc(sepc);
 1966              		.loc 1 205 13 is_stmt 1
 1967              	.LBB175:
 1968              	.LBB176:
  71:src/../h/KRiscv.hpp **** }
 1969              		.loc 2 71 5
  71:src/../h/KRiscv.hpp **** }
 1970              		.loc 2 71 48 is_stmt 0
 1971              	#APP
 1972              	# 71 "src/../h/KRiscv.hpp" 1
  72:src/../h/KRiscv.hpp **** 
 1973              		csrw sepc, s1
 1974              	# 0 "" 2
 1975              		.loc 2 72 1
 1976              	#NO_APP
 1977 0650 6FF0DFFC 		j	.L35
 1978              	.LVL126:
 1979              	.L41:
 1980              	.LBE176:
 1981              	.LBE175:
 1982              	.LBE168:
 1983              	.LBE179:
 1984              	.LBE166:
 1985              	.LBB180:
 1986              	.LBB164:
 211:src/KRiscv.cpp ****         int consID = plic_claim();
 1987              		.loc 1 211 9 is_stmt 1
 211:src/KRiscv.cpp ****         int consID = plic_claim();
 1988              		.loc 1 211 32 is_stmt 0
 1989 0654 97000000 		call	plic_claim@plt
 1989      E7800000 
 1990              	.LVL127:
 1991 065c 93040500 		mv	s1,a0
 1992              	.LVL128:
 212:src/KRiscv.cpp ****         if (consID == CONSOLE_IRQ) {
 1993              		.loc 1 212 9 is_stmt 1
 1994 0660 9307A000 		li	a5,10
 1995 0664 630AF500 		beq	a0,a5,.L37
 1996              	.LVL129:
 1997              	.L36:
 217:src/KRiscv.cpp ****         plic_complete(consID);
 1998              		.loc 1 217 9
 217:src/KRiscv.cpp ****         plic_complete(consID);
 1999              		.loc 1 217 22 is_stmt 0
 2000 0668 13850400 		mv	a0,s1
 2001 066c 97000000 		call	plic_complete@plt
 2001      E7800000 
 2002              	.LVL130:
 2003              	.LBE164:
 2004              	.LBE180:
 2005              	.LBE434:
 2006              	.LBE451:
 2007              		.loc 1 244 1
 2008 0674 6FF01FA0 		j	.L3
 2009              	.L37:
GAS LISTING /tmp/cc88gCBR.s 			page 53


 2010              	.LBB452:
 2011              	.LBB435:
 2012              	.LBB181:
 2013              	.LBB165:
 213:src/KRiscv.cpp ****             while ((*(char*)CONSOLE_STATUS & CONSOLE_RX_STATUS_BIT)
 2014              		.loc 1 213 13 is_stmt 1
 214:src/KRiscv.cpp ****                 && KConsole::inBuff->getCnt() < KConsole::BUFF_SIZE)
 2015              		.loc 1 214 17
 213:src/KRiscv.cpp ****             while ((*(char*)CONSOLE_STATUS & CONSOLE_RX_STATUS_BIT)
 2016              		.loc 1 213 21 is_stmt 0
 2017 0678 97070000 		la	a5,CONSOLE_STATUS
 2017      83B70700 
 2018 0680 83B70700 		ld	a5,0(a5)
 2019 0684 83C70700 		lbu	a5,0(a5)
 214:src/KRiscv.cpp ****                 && KConsole::inBuff->getCnt() < KConsole::BUFF_SIZE)
 2020              		.loc 1 214 17
 2021 0688 93F71700 		andi	a5,a5,1
 2022 068c E38E07FC 		beqz	a5,.L36
 214:src/KRiscv.cpp ****                 && KConsole::inBuff->getCnt() < KConsole::BUFF_SIZE)
 2023              		.loc 1 214 44 discriminator 1
 2024 0690 97070000 		la	a5,_ZN8KConsole6inBuffE
 2024      83B70700 
 2025 0698 03B50700 		ld	a0,0(a5)
 2026 069c 97000000 		call	_ZN8KConsole6getCntEv@plt
 2026      E7800000 
 2027              	.LVL131:
 214:src/KRiscv.cpp ****                 && KConsole::inBuff->getCnt() < KConsole::BUFF_SIZE)
 2028              		.loc 1 214 17 discriminator 1
 2029 06a4 9307F03F 		li	a5,1023
 2030 06a8 E3C0A7FC 		bgt	a0,a5,.L36
 215:src/KRiscv.cpp ****                 KConsole::inBuff->put(*(char*)CONSOLE_RX_DATA);
 2031              		.loc 1 215 17 is_stmt 1
 215:src/KRiscv.cpp ****                 KConsole::inBuff->put(*(char*)CONSOLE_RX_DATA);
 2032              		.loc 1 215 38 is_stmt 0
 2033 06ac 97070000 		la	a5,CONSOLE_RX_DATA
 2033      83B70700 
 2034 06b4 83B70700 		ld	a5,0(a5)
 2035 06b8 83C50700 		lbu	a1,0(a5)
 2036 06bc 97070000 		la	a5,_ZN8KConsole6inBuffE
 2036      83B70700 
 2037 06c4 03B50700 		ld	a0,0(a5)
 2038 06c8 97000000 		call	_ZN8KConsole3putEc@plt
 2038      E7800000 
 2039              	.LVL132:
 2040              	.LEHE1:
 213:src/KRiscv.cpp ****             while ((*(char*)CONSOLE_STATUS & CONSOLE_RX_STATUS_BIT)
 2041              		.loc 1 213 13
 2042 06d0 6FF09FFA 		j	.L37
 2043              	.LBE165:
 2044              	.LBE181:
 2045              	.LBE435:
 2046              	.LBE452:
 2047              		.cfi_endproc
 2048              	.LFE51:
 2049              		.globl	__gxx_personality_v0
 2050              		.section	.gcc_except_table,"a",@progbits
 2051              	.LLSDA51:
GAS LISTING /tmp/cc88gCBR.s 			page 54


 2052 0000 FF       		.byte	0xff
 2053 0001 FF       		.byte	0xff
 2054 0002 03       		.byte	0x3
 2055 0003 1A       		.byte	0x1a
 2056 0004 00000000 		.4byte	.LEHB0-.LFB51
 2057 0008 00000000 		.4byte	.LEHE0-.LEHB0
 2058 000c 00000000 		.4byte	0
 2059 0010 00       		.byte	0
 2060 0011 00000000 		.4byte	.LEHB1-.LFB51
 2061 0015 00000000 		.4byte	.LEHE1-.LEHB1
 2062 0019 00000000 		.4byte	0
 2063 001d 00       		.byte	0
 2064              		.text
 2066              	.Letext0:
 2067              		.file 5 "src/../h/../lib/hw.h"
 2068              		.file 6 "src/../h/KMemoryAllocator.hpp"
 2069              		.file 7 "src/../h/KScheduler.hpp"
 2070              		.file 8 "src/../h/KSleep.hpp"
 2071              		.file 9 "src/../h/KConsole.hpp"
 7620              		.align	3
 7623              	DW.ref.__gxx_personality_v0:
 7624 0000 00000000 		.dword	__gxx_personality_v0
 7624      00000000 
 7625              		.ident	"GCC: (Ubuntu 9.4.0-1ubuntu1~20.04) 9.4.0"
 7626              		.section	.note.GNU-stack,"",@progbits
GAS LISTING /tmp/cc88gCBR.s 			page 55


DEFINED SYMBOLS
                            *ABS*:0000000000000000 KRiscv.cpp
     /tmp/cc88gCBR.s:9      .text:0000000000000000 _ZN6KRiscv10popSppSpieEv
     /tmp/cc88gCBR.s:13     .text:0000000000000000 .L0 
     /tmp/cc88gCBR.s:14     .text:0000000000000000 .L0 
     /tmp/cc88gCBR.s:15     .text:0000000000000004 .L0 
     /tmp/cc88gCBR.s:17     .text:0000000000000008 .L0 
     /tmp/cc88gCBR.s:19     .text:000000000000000c .L0 
     /tmp/cc88gCBR.s:21     .text:000000000000000c .L0 
      src/KRiscv.cpp:37     .text:000000000000000c .L0 
     /tmp/cc88gCBR.s:27     .text:0000000000000010 .L0 
      src/KRiscv.cpp:38     .text:0000000000000010 .L0 
     /tmp/cc88gCBR.s:33     .text:0000000000000014 .L0 
     /tmp/cc88gCBR.s:34     .text:0000000000000018 .L0 
     /tmp/cc88gCBR.s:35     .text:0000000000000018 .L0 
     /tmp/cc88gCBR.s:37     .text:000000000000001c .L0 
     /tmp/cc88gCBR.s:39     .text:0000000000000020 .L0 
     /tmp/cc88gCBR.s:45     .text:0000000000000020 _ZN6KRiscv16interruptHandlerEv
     /tmp/cc88gCBR.s:48     .text:0000000000000020 .L0 
     /tmp/cc88gCBR.s:7623   .data.rel.local.DW.ref.__gxx_personality_v0:0000000000000000 DW.ref.__gxx_personality_v0
     /tmp/cc88gCBR.s:51     .text:0000000000000020 .L0 
     /tmp/cc88gCBR.s:52     .text:0000000000000024 .L0 
     /tmp/cc88gCBR.s:58     .text:0000000000000038 .L0 
     /tmp/cc88gCBR.s:59     .text:0000000000000038 .L0 
     /tmp/cc88gCBR.s:60     .text:0000000000000038 .L0 
     /tmp/cc88gCBR.s:61     .text:0000000000000038 .L0 
     /tmp/cc88gCBR.s:62     .text:0000000000000038 .L0 
     /tmp/cc88gCBR.s:64     .text:000000000000003c .L0 
     /tmp/cc88gCBR.s:69     .text:000000000000003c .L0 
     /tmp/cc88gCBR.s:70     .text:000000000000003c .L0 
     /tmp/cc88gCBR.s:71     .text:000000000000003c .L0 
 src/../h/KRiscv.hpp:56     .text:000000000000003c .L0 
     /tmp/cc88gCBR.s:79     .text:0000000000000044 .L0 
     /tmp/cc88gCBR.s:80     .text:0000000000000044 .L0 
     /tmp/cc88gCBR.s:86     .text:0000000000000048 .L0 
     /tmp/cc88gCBR.s:87     .text:0000000000000048 .L0 
     /tmp/cc88gCBR.s:89     .text:000000000000004c .L0 
     /tmp/cc88gCBR.s:95     .text:0000000000000054 .L0 
     /tmp/cc88gCBR.s:105    .text:0000000000000064 .L0 
     /tmp/cc88gCBR.s:115    .text:0000000000000074 .L0 
     /tmp/cc88gCBR.s:116    .text:0000000000000078 .L0 
     /tmp/cc88gCBR.s:117    .text:0000000000000078 .L0 
     /tmp/cc88gCBR.s:119    .text:000000000000007c .L0 
     /tmp/cc88gCBR.s:120    .text:000000000000007c .L0 
     /tmp/cc88gCBR.s:122    .text:0000000000000080 .L0 
     /tmp/cc88gCBR.s:124    .text:0000000000000084 .L0 
     /tmp/cc88gCBR.s:126    .text:0000000000000088 .L0 
     /tmp/cc88gCBR.s:128    .text:000000000000008c .L0 
     /tmp/cc88gCBR.s:132    .text:0000000000000090 .L0 
     /tmp/cc88gCBR.s:136    .text:0000000000000090 .L0 
     /tmp/cc88gCBR.s:137    .text:0000000000000090 .L0 
      src/KRiscv.cpp:45     .text:0000000000000090 .L0 
     /tmp/cc88gCBR.s:146    .text:0000000000000094 .L0 
     /tmp/cc88gCBR.s:157    .text:000000000000009c .L0 
     /tmp/cc88gCBR.s:169    .text:00000000000000a4 .L0 
     /tmp/cc88gCBR.s:183    .text:00000000000000ac .L0 
     /tmp/cc88gCBR.s:199    .text:00000000000000b4 .L0 
GAS LISTING /tmp/cc88gCBR.s 			page 56


     /tmp/cc88gCBR.s:217    .text:00000000000000bc .L0 
     /tmp/cc88gCBR.s:237    .text:00000000000000c4 .L0 
     /tmp/cc88gCBR.s:259    .text:00000000000000cc .L0 
     /tmp/cc88gCBR.s:283    .text:00000000000000d4 .L0 
     /tmp/cc88gCBR.s:309    .text:00000000000000dc .L0 
     /tmp/cc88gCBR.s:337    .text:00000000000000e4 .L0 
     /tmp/cc88gCBR.s:367    .text:00000000000000ec .L0 
     /tmp/cc88gCBR.s:399    .text:00000000000000f4 .L0 
     /tmp/cc88gCBR.s:433    .text:00000000000000fc .L0 
     /tmp/cc88gCBR.s:437    .text:0000000000000104 .L0 
     /tmp/cc88gCBR.s:438    .text:0000000000000104 .L0 
     /tmp/cc88gCBR.s:439    .text:0000000000000104 .L0 
     /tmp/cc88gCBR.s:447    .text:0000000000000114 .L0 
      src/KRiscv.cpp:186    .text:0000000000000114 .L0 
     /tmp/cc88gCBR.s:457    .text:000000000000011c .L0 
     /tmp/cc88gCBR.s:458    .text:000000000000011c .L0 
     /tmp/cc88gCBR.s:459    .text:000000000000011c .L0 
 src/../h/KRiscv.hpp:66     .text:000000000000011c .L0 
     /tmp/cc88gCBR.s:467    .text:0000000000000124 .L0 
     /tmp/cc88gCBR.s:468    .text:0000000000000124 .L0 
     /tmp/cc88gCBR.s:472    .text:0000000000000128 .L0 
     /tmp/cc88gCBR.s:477    .text:000000000000012c .L0 
     /tmp/cc88gCBR.s:478    .text:000000000000012c .L0 
     /tmp/cc88gCBR.s:479    .text:000000000000012c .L0 
 src/../h/KRiscv.hpp:122    .text:000000000000012c .L0 
     /tmp/cc88gCBR.s:487    .text:0000000000000134 .L0 
     /tmp/cc88gCBR.s:488    .text:0000000000000134 .L0 
     /tmp/cc88gCBR.s:493    .text:0000000000000138 .L0 
     /tmp/cc88gCBR.s:494    .text:0000000000000138 .L0 
     /tmp/cc88gCBR.s:501    .text:000000000000014c .L0 
     /tmp/cc88gCBR.s:502    .text:000000000000014c .L0 
     /tmp/cc88gCBR.s:503    .text:000000000000014c .L0 
     /tmp/cc88gCBR.s:507    .text:000000000000015c .L0 
     /tmp/cc88gCBR.s:510    .text:0000000000000164 .L0 
     /tmp/cc88gCBR.s:515    .text:0000000000000178 .L0 
     /tmp/cc88gCBR.s:517    .text:000000000000017c .L0 
     /tmp/cc88gCBR.s:518    .text:000000000000017c .L0 
     /tmp/cc88gCBR.s:523    .text:0000000000000190 .L0 
     /tmp/cc88gCBR.s:526    .text:000000000000019c .L0 
     /tmp/cc88gCBR.s:528    .text:00000000000001a0 .L0 
     /tmp/cc88gCBR.s:547    .text:00000000000001a4 .L0 
     /tmp/cc88gCBR.s:548    .text:00000000000001a4 .L0 
     /tmp/cc88gCBR.s:549    .text:00000000000001a4 .L0 
     /tmp/cc88gCBR.s:557    .text:00000000000001b4 .L0 
      src/KRiscv.cpp:49     .text:00000000000001b4 .L0 
     /tmp/cc88gCBR.s:563    .text:00000000000001b8 .L0 
     /tmp/cc88gCBR.s:565    .text:00000000000001b8 .L0 
     /tmp/cc88gCBR.s:568    .text:00000000000001c0 .L0 
      src/KRiscv.cpp:51     .text:00000000000001c0 .L0 
     /tmp/cc88gCBR.s:574    .text:00000000000001c4 .L0 
     /tmp/cc88gCBR.s:576    .text:00000000000001c4 .L0 
     /tmp/cc88gCBR.s:585    .text:00000000000001cc .L0 
     /tmp/cc88gCBR.s:586    .text:00000000000001cc .L0 
     /tmp/cc88gCBR.s:587    .text:00000000000001cc .L0 
 src/../h/KRiscv.hpp:66     .text:00000000000001cc .L0 
     /tmp/cc88gCBR.s:595    .text:00000000000001d4 .L0 
     /tmp/cc88gCBR.s:596    .text:00000000000001d4 .L0 
GAS LISTING /tmp/cc88gCBR.s 			page 57


     /tmp/cc88gCBR.s:600    .text:00000000000001d8 .L0 
     /tmp/cc88gCBR.s:605    .text:00000000000001dc .L0 
 src/../h/KRiscv.hpp:71     .text:00000000000001dc .L0 
     /tmp/cc88gCBR.s:612    .text:00000000000001e0 .L0 
     /tmp/cc88gCBR.s:621    .text:00000000000001e4 .L0 
     /tmp/cc88gCBR.s:622    .text:00000000000001e4 .L0 
     /tmp/cc88gCBR.s:623    .text:00000000000001e4 .L0 
     /tmp/cc88gCBR.s:631    .text:00000000000001f4 .L0 
      src/KRiscv.cpp:58     .text:00000000000001f4 .L0 
     /tmp/cc88gCBR.s:637    .text:00000000000001f8 .L0 
     /tmp/cc88gCBR.s:639    .text:00000000000001f8 .L0 
     /tmp/cc88gCBR.s:642    .text:0000000000000200 .L0 
      src/KRiscv.cpp:60     .text:0000000000000200 .L0 
     /tmp/cc88gCBR.s:648    .text:0000000000000204 .L0 
     /tmp/cc88gCBR.s:650    .text:0000000000000204 .L0 
     /tmp/cc88gCBR.s:659    .text:000000000000020c .L0 
     /tmp/cc88gCBR.s:660    .text:000000000000020c .L0 
     /tmp/cc88gCBR.s:661    .text:000000000000020c .L0 
 src/../h/KRiscv.hpp:66     .text:000000000000020c .L0 
     /tmp/cc88gCBR.s:669    .text:0000000000000214 .L0 
     /tmp/cc88gCBR.s:670    .text:0000000000000214 .L0 
     /tmp/cc88gCBR.s:674    .text:0000000000000218 .L0 
     /tmp/cc88gCBR.s:679    .text:000000000000021c .L0 
 src/../h/KRiscv.hpp:71     .text:000000000000021c .L0 
     /tmp/cc88gCBR.s:686    .text:0000000000000220 .L0 
     /tmp/cc88gCBR.s:696    .text:0000000000000224 .L0 
     /tmp/cc88gCBR.s:697    .text:0000000000000224 .L0 
     /tmp/cc88gCBR.s:698    .text:0000000000000224 .L0 
     /tmp/cc88gCBR.s:711    .text:000000000000022c .L0 
     /tmp/cc88gCBR.s:712    .text:000000000000022c .L0 
     /tmp/cc88gCBR.s:713    .text:000000000000022c .L0 
 src/../h/KRiscv.hpp:66     .text:000000000000022c .L0 
     /tmp/cc88gCBR.s:721    .text:0000000000000234 .L0 
     /tmp/cc88gCBR.s:722    .text:0000000000000234 .L0 
     /tmp/cc88gCBR.s:726    .text:0000000000000238 .L0 
     /tmp/cc88gCBR.s:731    .text:000000000000023c .L0 
 src/../h/KRiscv.hpp:71     .text:000000000000023c .L0 
     /tmp/cc88gCBR.s:738    .text:0000000000000240 .L0 
     /tmp/cc88gCBR.s:746    .text:0000000000000244 .L0 
     /tmp/cc88gCBR.s:747    .text:0000000000000244 .L0 
     /tmp/cc88gCBR.s:748    .text:0000000000000244 .L0 
     /tmp/cc88gCBR.s:749    .text:0000000000000244 .L0 
     /tmp/cc88gCBR.s:750    .text:0000000000000244 .L0 
     /tmp/cc88gCBR.s:751    .text:0000000000000244 .L0 
     /tmp/cc88gCBR.s:759    .text:0000000000000254 .L0 
      src/KRiscv.cpp:74     .text:0000000000000254 .L0 
     /tmp/cc88gCBR.s:765    .text:0000000000000258 .L0 
      src/KRiscv.cpp:75     .text:0000000000000258 .L0 
     /tmp/cc88gCBR.s:770    .text:000000000000025c .L0 
      src/KRiscv.cpp:76     .text:000000000000025c .L0 
     /tmp/cc88gCBR.s:776    .text:0000000000000260 .L0 
      src/KRiscv.cpp:77     .text:0000000000000260 .L0 
     /tmp/cc88gCBR.s:781    .text:0000000000000264 .L0 
      src/KRiscv.cpp:78     .text:0000000000000264 .L0 
     /tmp/cc88gCBR.s:787    .text:0000000000000268 .L0 
      src/KRiscv.cpp:79     .text:0000000000000268 .L0 
     /tmp/cc88gCBR.s:792    .text:000000000000026c .L0 
GAS LISTING /tmp/cc88gCBR.s 			page 58


      src/KRiscv.cpp:80     .text:000000000000026c .L0 
     /tmp/cc88gCBR.s:798    .text:0000000000000270 .L0 
     /tmp/cc88gCBR.s:800    .text:0000000000000270 .L0 
     /tmp/cc88gCBR.s:803    .text:0000000000000278 .L0 
     /tmp/cc88gCBR.s:805    .text:000000000000027c .L0 
     /tmp/cc88gCBR.s:807    .text:0000000000000280 .L0 
      src/KRiscv.cpp:82     .text:0000000000000280 .L0 
     /tmp/cc88gCBR.s:815    .text:0000000000000284 .L0 
     /tmp/cc88gCBR.s:816    .text:0000000000000284 .L0 
     /tmp/cc88gCBR.s:826    .text:0000000000000294 .L0 
     /tmp/cc88gCBR.s:827    .text:0000000000000294 .L0 
     /tmp/cc88gCBR.s:828    .text:0000000000000294 .L0 
 src/../h/KRiscv.hpp:66     .text:0000000000000294 .L0 
     /tmp/cc88gCBR.s:836    .text:000000000000029c .L0 
     /tmp/cc88gCBR.s:837    .text:000000000000029c .L0 
     /tmp/cc88gCBR.s:841    .text:00000000000002a0 .L0 
     /tmp/cc88gCBR.s:846    .text:00000000000002a4 .L0 
 src/../h/KRiscv.hpp:71     .text:00000000000002a4 .L0 
     /tmp/cc88gCBR.s:853    .text:00000000000002a8 .L0 
     /tmp/cc88gCBR.s:859    .text:00000000000002ac .L0 
      src/KRiscv.cpp:83     .text:00000000000002ac .L0 
     /tmp/cc88gCBR.s:872    .text:00000000000002b4 .L0 
     /tmp/cc88gCBR.s:873    .text:00000000000002b4 .L0 
     /tmp/cc88gCBR.s:874    .text:00000000000002b4 .L0 
     /tmp/cc88gCBR.s:875    .text:00000000000002b4 .L0 
     /tmp/cc88gCBR.s:876    .text:00000000000002b4 .L0 
     /tmp/cc88gCBR.s:877    .text:00000000000002b4 .L0 
     /tmp/cc88gCBR.s:885    .text:00000000000002c4 .L0 
      src/KRiscv.cpp:93     .text:00000000000002c4 .L0 
     /tmp/cc88gCBR.s:891    .text:00000000000002c8 .L0 
      src/KRiscv.cpp:94     .text:00000000000002c8 .L0 
     /tmp/cc88gCBR.s:896    .text:00000000000002cc .L0 
      src/KRiscv.cpp:95     .text:00000000000002cc .L0 
     /tmp/cc88gCBR.s:902    .text:00000000000002d0 .L0 
      src/KRiscv.cpp:96     .text:00000000000002d0 .L0 
     /tmp/cc88gCBR.s:907    .text:00000000000002d4 .L0 
      src/KRiscv.cpp:97     .text:00000000000002d4 .L0 
     /tmp/cc88gCBR.s:913    .text:00000000000002d8 .L0 
      src/KRiscv.cpp:98     .text:00000000000002d8 .L0 
     /tmp/cc88gCBR.s:918    .text:00000000000002dc .L0 
      src/KRiscv.cpp:99     .text:00000000000002dc .L0 
     /tmp/cc88gCBR.s:924    .text:00000000000002e0 .L0 
     /tmp/cc88gCBR.s:926    .text:00000000000002e0 .L0 
     /tmp/cc88gCBR.s:929    .text:00000000000002e8 .L0 
     /tmp/cc88gCBR.s:931    .text:00000000000002ec .L0 
     /tmp/cc88gCBR.s:937    .text:00000000000002f0 .L0 
     /tmp/cc88gCBR.s:938    .text:00000000000002f0 .L0 
     /tmp/cc88gCBR.s:939    .text:00000000000002f0 .L0 
     /tmp/cc88gCBR.s:941    .text:00000000000002f4 .L0 
     /tmp/cc88gCBR.s:943    .text:00000000000002f8 .L0 
     /tmp/cc88gCBR.s:944    .text:00000000000002f8 .L0 
     /tmp/cc88gCBR.s:947    .text:0000000000000300 .L0 
     /tmp/cc88gCBR.s:948    .text:0000000000000300 .L0 
     /tmp/cc88gCBR.s:954    .text:0000000000000308 .L0 
     /tmp/cc88gCBR.s:955    .text:0000000000000308 .L0 
      src/KRiscv.cpp:103    .text:0000000000000308 .L0 
     /tmp/cc88gCBR.s:963    .text:000000000000030c .L0 
GAS LISTING /tmp/cc88gCBR.s 			page 59


     /tmp/cc88gCBR.s:964    .text:000000000000030c .L0 
     /tmp/cc88gCBR.s:974    .text:000000000000031c .L0 
     /tmp/cc88gCBR.s:975    .text:000000000000031c .L0 
     /tmp/cc88gCBR.s:976    .text:000000000000031c .L0 
 src/../h/KRiscv.hpp:66     .text:000000000000031c .L0 
     /tmp/cc88gCBR.s:984    .text:0000000000000324 .L0 
     /tmp/cc88gCBR.s:985    .text:0000000000000324 .L0 
     /tmp/cc88gCBR.s:989    .text:0000000000000328 .L0 
     /tmp/cc88gCBR.s:994    .text:000000000000032c .L0 
 src/../h/KRiscv.hpp:71     .text:000000000000032c .L0 
     /tmp/cc88gCBR.s:1001   .text:0000000000000330 .L0 
     /tmp/cc88gCBR.s:1007   .text:0000000000000334 .L0 
      src/KRiscv.cpp:105    .text:0000000000000334 .L0 
     /tmp/cc88gCBR.s:1022   .text:000000000000033c .L0 
     /tmp/cc88gCBR.s:1023   .text:000000000000033c .L0 
     /tmp/cc88gCBR.s:1024   .text:000000000000033c .L0 
 src/../h/KRiscv.hpp:66     .text:000000000000033c .L0 
     /tmp/cc88gCBR.s:1033   .text:0000000000000344 .L0 
     /tmp/cc88gCBR.s:1034   .text:0000000000000344 .L0 
     /tmp/cc88gCBR.s:1038   .text:0000000000000348 .L0 
     /tmp/cc88gCBR.s:1043   .text:000000000000034c .L0 
     /tmp/cc88gCBR.s:1044   .text:000000000000034c .L0 
     /tmp/cc88gCBR.s:1045   .text:000000000000034c .L0 
 src/../h/KRiscv.hpp:122    .text:000000000000034c .L0 
     /tmp/cc88gCBR.s:1053   .text:0000000000000354 .L0 
     /tmp/cc88gCBR.s:1054   .text:0000000000000354 .L0 
     /tmp/cc88gCBR.s:1059   .text:0000000000000358 .L0 
     /tmp/cc88gCBR.s:1060   .text:0000000000000358 .L0 
     /tmp/cc88gCBR.s:1066   .text:0000000000000364 .L0 
     /tmp/cc88gCBR.s:1067   .text:0000000000000364 .L0 
     /tmp/cc88gCBR.s:1069   .text:0000000000000368 .L0 
     /tmp/cc88gCBR.s:1071   .text:000000000000036c .L0 
     /tmp/cc88gCBR.s:1072   .text:000000000000036c .L0 
     /tmp/cc88gCBR.s:1075   .text:0000000000000374 .L0 
     /tmp/cc88gCBR.s:1076   .text:0000000000000374 .L0 
     /tmp/cc88gCBR.s:1086   .text:0000000000000388 .L0 
     /tmp/cc88gCBR.s:1087   .text:0000000000000388 .L0 
     /tmp/cc88gCBR.s:1092   .text:0000000000000390 .L0 
     /tmp/cc88gCBR.s:1093   .text:0000000000000390 .L0 
 src/../h/KRiscv.hpp:127    .text:0000000000000390 .L0 
     /tmp/cc88gCBR.s:1105   .text:0000000000000394 .L0 
     /tmp/cc88gCBR.s:1106   .text:0000000000000394 .L0 
 src/../h/KRiscv.hpp:71     .text:0000000000000394 .L0 
     /tmp/cc88gCBR.s:1113   .text:0000000000000398 .L0 
     /tmp/cc88gCBR.s:1124   .text:000000000000039c .L0 
     /tmp/cc88gCBR.s:1125   .text:000000000000039c .L0 
     /tmp/cc88gCBR.s:1126   .text:000000000000039c .L0 
 src/../h/KRiscv.hpp:66     .text:000000000000039c .L0 
     /tmp/cc88gCBR.s:1135   .text:00000000000003a4 .L0 
     /tmp/cc88gCBR.s:1136   .text:00000000000003a4 .L0 
     /tmp/cc88gCBR.s:1140   .text:00000000000003a8 .L0 
     /tmp/cc88gCBR.s:1145   .text:00000000000003ac .L0 
     /tmp/cc88gCBR.s:1146   .text:00000000000003ac .L0 
     /tmp/cc88gCBR.s:1147   .text:00000000000003ac .L0 
 src/../h/KRiscv.hpp:122    .text:00000000000003ac .L0 
     /tmp/cc88gCBR.s:1155   .text:00000000000003b4 .L0 
     /tmp/cc88gCBR.s:1156   .text:00000000000003b4 .L0 
GAS LISTING /tmp/cc88gCBR.s 			page 60


     /tmp/cc88gCBR.s:1161   .text:00000000000003b8 .L0 
     /tmp/cc88gCBR.s:1162   .text:00000000000003b8 .L0 
     /tmp/cc88gCBR.s:1167   .text:00000000000003c0 .L0 
     /tmp/cc88gCBR.s:1168   .text:00000000000003c0 .L0 
 src/../h/KRiscv.hpp:127    .text:00000000000003c0 .L0 
     /tmp/cc88gCBR.s:1180   .text:00000000000003c4 .L0 
     /tmp/cc88gCBR.s:1181   .text:00000000000003c4 .L0 
 src/../h/KRiscv.hpp:71     .text:00000000000003c4 .L0 
     /tmp/cc88gCBR.s:1188   .text:00000000000003c8 .L0 
     /tmp/cc88gCBR.s:1197   .text:00000000000003cc .L0 
     /tmp/cc88gCBR.s:1198   .text:00000000000003cc .L0 
     /tmp/cc88gCBR.s:1199   .text:00000000000003cc .L0 
     /tmp/cc88gCBR.s:1200   .text:00000000000003cc .L0 
     /tmp/cc88gCBR.s:1208   .text:00000000000003dc .L0 
      src/KRiscv.cpp:128    .text:00000000000003dc .L0 
     /tmp/cc88gCBR.s:1214   .text:00000000000003e0 .L0 
      src/KRiscv.cpp:129    .text:00000000000003e0 .L0 
     /tmp/cc88gCBR.s:1219   .text:00000000000003e4 .L0 
      src/KRiscv.cpp:130    .text:00000000000003e4 .L0 
     /tmp/cc88gCBR.s:1225   .text:00000000000003e8 .L0 
     /tmp/cc88gCBR.s:1227   .text:00000000000003e8 .L0 
     /tmp/cc88gCBR.s:1234   .text:00000000000003f8 .L0 
     /tmp/cc88gCBR.s:1236   .text:00000000000003fc .L0 
     /tmp/cc88gCBR.s:1238   .text:0000000000000400 .L0 
      src/KRiscv.cpp:132    .text:0000000000000400 .L0 
     /tmp/cc88gCBR.s:1246   .text:0000000000000404 .L0 
     /tmp/cc88gCBR.s:1247   .text:0000000000000404 .L0 
     /tmp/cc88gCBR.s:1257   .text:0000000000000414 .L0 
     /tmp/cc88gCBR.s:1258   .text:0000000000000414 .L0 
     /tmp/cc88gCBR.s:1259   .text:0000000000000414 .L0 
 src/../h/KRiscv.hpp:66     .text:0000000000000414 .L0 
     /tmp/cc88gCBR.s:1267   .text:000000000000041c .L0 
     /tmp/cc88gCBR.s:1268   .text:000000000000041c .L0 
     /tmp/cc88gCBR.s:1272   .text:0000000000000420 .L0 
     /tmp/cc88gCBR.s:1277   .text:0000000000000424 .L0 
 src/../h/KRiscv.hpp:71     .text:0000000000000424 .L0 
     /tmp/cc88gCBR.s:1284   .text:0000000000000428 .L0 
     /tmp/cc88gCBR.s:1290   .text:000000000000042c .L0 
      src/KRiscv.cpp:133    .text:000000000000042c .L0 
     /tmp/cc88gCBR.s:1303   .text:0000000000000434 .L0 
     /tmp/cc88gCBR.s:1304   .text:0000000000000434 .L0 
     /tmp/cc88gCBR.s:1305   .text:0000000000000434 .L0 
     /tmp/cc88gCBR.s:1313   .text:0000000000000444 .L0 
      src/KRiscv.cpp:140    .text:0000000000000444 .L0 
     /tmp/cc88gCBR.s:1319   .text:0000000000000448 .L0 
     /tmp/cc88gCBR.s:1321   .text:0000000000000448 .L0 
     /tmp/cc88gCBR.s:1328   .text:000000000000044c .L0 
     /tmp/cc88gCBR.s:1329   .text:000000000000044c .L0 
     /tmp/cc88gCBR.s:1334   .text:0000000000000454 .L0 
     /tmp/cc88gCBR.s:1335   .text:0000000000000454 .L0 
     /tmp/cc88gCBR.s:1336   .text:0000000000000454 .L0 
     /tmp/cc88gCBR.s:1338   .text:0000000000000458 .L0 
     /tmp/cc88gCBR.s:1340   .text:000000000000045c .L0 
     /tmp/cc88gCBR.s:1341   .text:000000000000045c .L0 
     /tmp/cc88gCBR.s:1346   .text:0000000000000460 .L0 
     /tmp/cc88gCBR.s:1347   .text:0000000000000460 .L0 
     /tmp/cc88gCBR.s:1348   .text:0000000000000460 .L0 
GAS LISTING /tmp/cc88gCBR.s 			page 61


     /tmp/cc88gCBR.s:1356   .text:0000000000000468 .L0 
     /tmp/cc88gCBR.s:1357   .text:0000000000000468 .L0 
     /tmp/cc88gCBR.s:1358   .text:0000000000000468 .L0 
     /tmp/cc88gCBR.s:1363   .text:000000000000046c .L0 
     /tmp/cc88gCBR.s:1364   .text:000000000000046c .L0 
     /tmp/cc88gCBR.s:1368   .text:0000000000000474 .L0 
     /tmp/cc88gCBR.s:1376   .text:0000000000000478 .L0 
     /tmp/cc88gCBR.s:1377   .text:0000000000000478 .L0 
     /tmp/cc88gCBR.s:1387   .text:0000000000000484 .L0 
     /tmp/cc88gCBR.s:1388   .text:0000000000000484 .L0 
     /tmp/cc88gCBR.s:1389   .text:0000000000000484 .L0 
 src/../h/KRiscv.hpp:66     .text:0000000000000484 .L0 
     /tmp/cc88gCBR.s:1397   .text:000000000000048c .L0 
     /tmp/cc88gCBR.s:1398   .text:000000000000048c .L0 
     /tmp/cc88gCBR.s:1402   .text:0000000000000490 .L0 
     /tmp/cc88gCBR.s:1407   .text:0000000000000494 .L0 
 src/../h/KRiscv.hpp:71     .text:0000000000000494 .L0 
     /tmp/cc88gCBR.s:1414   .text:0000000000000498 .L0 
     /tmp/cc88gCBR.s:1425   .text:000000000000049c .L0 
     /tmp/cc88gCBR.s:1426   .text:000000000000049c .L0 
     /tmp/cc88gCBR.s:1427   .text:000000000000049c .L0 
 src/../h/KRiscv.hpp:66     .text:000000000000049c .L0 
     /tmp/cc88gCBR.s:1436   .text:00000000000004a4 .L0 
     /tmp/cc88gCBR.s:1437   .text:00000000000004a4 .L0 
     /tmp/cc88gCBR.s:1441   .text:00000000000004a8 .L0 
     /tmp/cc88gCBR.s:1446   .text:00000000000004ac .L0 
     /tmp/cc88gCBR.s:1447   .text:00000000000004ac .L0 
     /tmp/cc88gCBR.s:1448   .text:00000000000004ac .L0 
 src/../h/KRiscv.hpp:122    .text:00000000000004ac .L0 
     /tmp/cc88gCBR.s:1456   .text:00000000000004b4 .L0 
     /tmp/cc88gCBR.s:1457   .text:00000000000004b4 .L0 
     /tmp/cc88gCBR.s:1462   .text:00000000000004b8 .L0 
     /tmp/cc88gCBR.s:1463   .text:00000000000004b8 .L0 
     /tmp/cc88gCBR.s:1464   .text:00000000000004b8 .L0 
     /tmp/cc88gCBR.s:1471   .text:00000000000004c8 .L0 
      src/KRiscv.cpp:149    .text:00000000000004c8 .L0 
     /tmp/cc88gCBR.s:1478   .text:00000000000004cc .L0 
     /tmp/cc88gCBR.s:1483   .text:00000000000004d0 .L0 
     /tmp/cc88gCBR.s:1484   .text:00000000000004d0 .L0 
     /tmp/cc88gCBR.s:1485   .text:00000000000004d0 .L0 
     /tmp/cc88gCBR.s:1487   .text:00000000000004d4 .L0 
     /tmp/cc88gCBR.s:1489   .text:00000000000004d8 .L0 
     /tmp/cc88gCBR.s:1491   .text:00000000000004dc .L0 
     /tmp/cc88gCBR.s:1500   .text:00000000000004e4 .L0 
     /tmp/cc88gCBR.s:1501   .text:00000000000004e4 .L0 
 src/../h/KRiscv.hpp:127    .text:00000000000004e4 .L0 
     /tmp/cc88gCBR.s:1513   .text:00000000000004e8 .L0 
     /tmp/cc88gCBR.s:1514   .text:00000000000004e8 .L0 
 src/../h/KRiscv.hpp:71     .text:00000000000004e8 .L0 
     /tmp/cc88gCBR.s:1521   .text:00000000000004ec .L0 
     /tmp/cc88gCBR.s:1529   .text:00000000000004f0 .L0 
     /tmp/cc88gCBR.s:1530   .text:00000000000004f0 .L0 
     /tmp/cc88gCBR.s:1541   .text:00000000000004fc .L0 
     /tmp/cc88gCBR.s:1542   .text:00000000000004fc .L0 
     /tmp/cc88gCBR.s:1543   .text:00000000000004fc .L0 
     /tmp/cc88gCBR.s:1551   .text:000000000000050c .L0 
      src/KRiscv.cpp:157    .text:000000000000050c .L0 
GAS LISTING /tmp/cc88gCBR.s 			page 62


     /tmp/cc88gCBR.s:1558   .text:0000000000000510 .L0 
     /tmp/cc88gCBR.s:1563   .text:0000000000000514 .L0 
     /tmp/cc88gCBR.s:1564   .text:0000000000000514 .L0 
     /tmp/cc88gCBR.s:1565   .text:0000000000000514 .L0 
     /tmp/cc88gCBR.s:1567   .text:0000000000000518 .L0 
     /tmp/cc88gCBR.s:1570   .text:0000000000000520 .L0 
     /tmp/cc88gCBR.s:1578   .text:0000000000000524 .L0 
     /tmp/cc88gCBR.s:1579   .text:0000000000000524 .L0 
     /tmp/cc88gCBR.s:1580   .text:0000000000000524 .L0 
 src/../h/KRiscv.hpp:66     .text:0000000000000524 .L0 
     /tmp/cc88gCBR.s:1588   .text:000000000000052c .L0 
     /tmp/cc88gCBR.s:1589   .text:000000000000052c .L0 
     /tmp/cc88gCBR.s:1593   .text:0000000000000530 .L0 
     /tmp/cc88gCBR.s:1598   .text:0000000000000534 .L0 
 src/../h/KRiscv.hpp:71     .text:0000000000000534 .L0 
     /tmp/cc88gCBR.s:1605   .text:0000000000000538 .L0 
     /tmp/cc88gCBR.s:1613   .text:000000000000053c .L0 
     /tmp/cc88gCBR.s:1614   .text:000000000000053c .L0 
     /tmp/cc88gCBR.s:1625   .text:0000000000000548 .L0 
     /tmp/cc88gCBR.s:1626   .text:0000000000000548 .L0 
     /tmp/cc88gCBR.s:1627   .text:0000000000000548 .L0 
     /tmp/cc88gCBR.s:1635   .text:0000000000000558 .L0 
      src/KRiscv.cpp:164    .text:0000000000000558 .L0 
     /tmp/cc88gCBR.s:1641   .text:000000000000055c .L0 
     /tmp/cc88gCBR.s:1643   .text:000000000000055c .L0 
     /tmp/cc88gCBR.s:1648   .text:0000000000000564 .L0 
     /tmp/cc88gCBR.s:1649   .text:0000000000000564 .L0 
     /tmp/cc88gCBR.s:1650   .text:0000000000000564 .L0 
 src/../h/KRiscv.hpp:66     .text:0000000000000564 .L0 
     /tmp/cc88gCBR.s:1658   .text:000000000000056c .L0 
     /tmp/cc88gCBR.s:1659   .text:000000000000056c .L0 
     /tmp/cc88gCBR.s:1663   .text:0000000000000570 .L0 
     /tmp/cc88gCBR.s:1668   .text:0000000000000574 .L0 
     /tmp/cc88gCBR.s:1669   .text:0000000000000574 .L0 
     /tmp/cc88gCBR.s:1670   .text:0000000000000574 .L0 
 src/../h/KRiscv.hpp:122    .text:0000000000000574 .L0 
     /tmp/cc88gCBR.s:1678   .text:000000000000057c .L0 
     /tmp/cc88gCBR.s:1679   .text:000000000000057c .L0 
     /tmp/cc88gCBR.s:1684   .text:0000000000000580 .L0 
     /tmp/cc88gCBR.s:1685   .text:0000000000000580 .L0 
     /tmp/cc88gCBR.s:1690   .text:0000000000000588 .L0 
     /tmp/cc88gCBR.s:1691   .text:0000000000000588 .L0 
 src/../h/KRiscv.hpp:127    .text:0000000000000588 .L0 
     /tmp/cc88gCBR.s:1703   .text:000000000000058c .L0 
     /tmp/cc88gCBR.s:1704   .text:000000000000058c .L0 
 src/../h/KRiscv.hpp:71     .text:000000000000058c .L0 
     /tmp/cc88gCBR.s:1711   .text:0000000000000590 .L0 
     /tmp/cc88gCBR.s:1720   .text:0000000000000594 .L0 
     /tmp/cc88gCBR.s:1721   .text:0000000000000594 .L0 
     /tmp/cc88gCBR.s:1728   .text:00000000000005a0 .L0 
     /tmp/cc88gCBR.s:1729   .text:00000000000005a0 .L0 
     /tmp/cc88gCBR.s:1730   .text:00000000000005a0 .L0 
 src/../h/KRiscv.hpp:66     .text:00000000000005a0 .L0 
     /tmp/cc88gCBR.s:1738   .text:00000000000005a8 .L0 
     /tmp/cc88gCBR.s:1739   .text:00000000000005a8 .L0 
     /tmp/cc88gCBR.s:1743   .text:00000000000005ac .L0 
     /tmp/cc88gCBR.s:1748   .text:00000000000005b0 .L0 
GAS LISTING /tmp/cc88gCBR.s 			page 63


     /tmp/cc88gCBR.s:1749   .text:00000000000005b0 .L0 
     /tmp/cc88gCBR.s:1750   .text:00000000000005b0 .L0 
 src/../h/KRiscv.hpp:122    .text:00000000000005b0 .L0 
     /tmp/cc88gCBR.s:1758   .text:00000000000005b8 .L0 
     /tmp/cc88gCBR.s:1759   .text:00000000000005b8 .L0 
     /tmp/cc88gCBR.s:1764   .text:00000000000005bc .L0 
     /tmp/cc88gCBR.s:1765   .text:00000000000005bc .L0 
     /tmp/cc88gCBR.s:1770   .text:00000000000005d0 .L0 
      src/KRiscv.cpp:177    .text:00000000000005d0 .L0 
     /tmp/cc88gCBR.s:1776   .text:00000000000005d4 .L0 
      src/KRiscv.cpp:178    .text:00000000000005d4 .L0 
     /tmp/cc88gCBR.s:1785   .text:00000000000005d8 .L0 
     /tmp/cc88gCBR.s:1786   .text:00000000000005d8 .L0 
 src/../h/KRiscv.hpp:127    .text:00000000000005d8 .L0 
     /tmp/cc88gCBR.s:1798   .text:00000000000005dc .L0 
     /tmp/cc88gCBR.s:1799   .text:00000000000005dc .L0 
 src/../h/KRiscv.hpp:127    .text:00000000000005dc .L0 
     /tmp/cc88gCBR.s:1811   .text:00000000000005e0 .L0 
     /tmp/cc88gCBR.s:1812   .text:00000000000005e0 .L0 
 src/../h/KRiscv.hpp:71     .text:00000000000005e0 .L0 
     /tmp/cc88gCBR.s:1819   .text:00000000000005e4 .L0 
     /tmp/cc88gCBR.s:1830   .text:00000000000005e8 .L0 
     /tmp/cc88gCBR.s:1831   .text:00000000000005e8 .L0 
 src/../h/KRiscv.hpp:127    .text:00000000000005e8 .L0 
     /tmp/cc88gCBR.s:1843   .text:00000000000005ec .L0 
     /tmp/cc88gCBR.s:1844   .text:00000000000005ec .L0 
 src/../h/KRiscv.hpp:71     .text:00000000000005ec .L0 
     /tmp/cc88gCBR.s:1851   .text:00000000000005f0 .L0 
     /tmp/cc88gCBR.s:1875   .text:00000000000005f4 .L0 
     /tmp/cc88gCBR.s:1876   .text:00000000000005f4 .L0 
     /tmp/cc88gCBR.s:1881   .text:0000000000000608 .L0 
     /tmp/cc88gCBR.s:1882   .text:0000000000000608 .L0 
     /tmp/cc88gCBR.s:1886   .text:0000000000000610 .L0 
     /tmp/cc88gCBR.s:1887   .text:0000000000000610 .L0 
     /tmp/cc88gCBR.s:1889   .text:0000000000000614 .L0 
     /tmp/cc88gCBR.s:1897   .text:000000000000061c .L0 
     /tmp/cc88gCBR.s:1898   .text:000000000000061c .L0 
     /tmp/cc88gCBR.s:1899   .text:000000000000061c .L0 
     /tmp/cc88gCBR.s:1906   .text:0000000000000624 .L0 
     /tmp/cc88gCBR.s:1916   .text:0000000000000628 .L0 
     /tmp/cc88gCBR.s:1917   .text:0000000000000628 .L0 
     /tmp/cc88gCBR.s:1918   .text:0000000000000628 .L0 
 src/../h/KRiscv.hpp:66     .text:0000000000000628 .L0 
     /tmp/cc88gCBR.s:1926   .text:0000000000000630 .L0 
     /tmp/cc88gCBR.s:1927   .text:0000000000000630 .L0 
     /tmp/cc88gCBR.s:1934   .text:0000000000000634 .L0 
     /tmp/cc88gCBR.s:1935   .text:0000000000000634 .L0 
     /tmp/cc88gCBR.s:1936   .text:0000000000000634 .L0 
 src/../h/KRiscv.hpp:122    .text:0000000000000634 .L0 
     /tmp/cc88gCBR.s:1944   .text:000000000000063c .L0 
     /tmp/cc88gCBR.s:1945   .text:000000000000063c .L0 
     /tmp/cc88gCBR.s:1950   .text:0000000000000640 .L0 
     /tmp/cc88gCBR.s:1951   .text:0000000000000640 .L0 
     /tmp/cc88gCBR.s:1956   .text:0000000000000648 .L0 
     /tmp/cc88gCBR.s:1957   .text:0000000000000648 .L0 
 src/../h/KRiscv.hpp:127    .text:0000000000000648 .L0 
     /tmp/cc88gCBR.s:1969   .text:000000000000064c .L0 
GAS LISTING /tmp/cc88gCBR.s 			page 64


     /tmp/cc88gCBR.s:1970   .text:000000000000064c .L0 
 src/../h/KRiscv.hpp:71     .text:000000000000064c .L0 
     /tmp/cc88gCBR.s:1977   .text:0000000000000650 .L0 
     /tmp/cc88gCBR.s:1988   .text:0000000000000654 .L0 
     /tmp/cc88gCBR.s:1989   .text:0000000000000654 .L0 
     /tmp/cc88gCBR.s:1994   .text:0000000000000660 .L0 
     /tmp/cc88gCBR.s:1999   .text:0000000000000668 .L0 
     /tmp/cc88gCBR.s:2000   .text:0000000000000668 .L0 
     /tmp/cc88gCBR.s:2008   .text:0000000000000674 .L0 
     /tmp/cc88gCBR.s:2015   .text:0000000000000678 .L0 
     /tmp/cc88gCBR.s:2016   .text:0000000000000678 .L0 
     /tmp/cc88gCBR.s:2017   .text:0000000000000678 .L0 
     /tmp/cc88gCBR.s:2021   .text:0000000000000688 .L0 
     /tmp/cc88gCBR.s:2024   .text:0000000000000690 .L0 
     /tmp/cc88gCBR.s:2029   .text:00000000000006a4 .L0 
     /tmp/cc88gCBR.s:2032   .text:00000000000006ac .L0 
     /tmp/cc88gCBR.s:2033   .text:00000000000006ac .L0 
     /tmp/cc88gCBR.s:2042   .text:00000000000006d0 .L0 
     /tmp/cc88gCBR.s:2047   .text:00000000000006d4 .L0 
     /tmp/cc88gCBR.s:2072   .text:00000000000006d4 .L0 
     /tmp/cc88gCBR.s:439    .text:0000000000000104 .L0 
     /tmp/cc88gCBR.s:494    .text:0000000000000138 .L0 
     /tmp/cc88gCBR.s:503    .text:000000000000014c .L0 
     /tmp/cc88gCBR.s:510    .text:0000000000000164 .L0 
     /tmp/cc88gCBR.s:518    .text:000000000000017c .L0 
     /tmp/cc88gCBR.s:523    .text:0000000000000190 .L0 
     /tmp/cc88gCBR.s:549    .text:00000000000001a4 .L0 
     /tmp/cc88gCBR.s:623    .text:00000000000001e4 .L0 
     /tmp/cc88gCBR.s:751    .text:0000000000000244 .L0 
     /tmp/cc88gCBR.s:816    .text:0000000000000284 .L0 
     /tmp/cc88gCBR.s:877    .text:00000000000002b4 .L0 
     /tmp/cc88gCBR.s:964    .text:000000000000030c .L0 
     /tmp/cc88gCBR.s:1060   .text:0000000000000358 .L0 
     /tmp/cc88gCBR.s:1076   .text:0000000000000374 .L0 
     /tmp/cc88gCBR.s:1200   .text:00000000000003cc .L0 
     /tmp/cc88gCBR.s:1247   .text:0000000000000404 .L0 
     /tmp/cc88gCBR.s:1305   .text:0000000000000434 .L0 
     /tmp/cc88gCBR.s:1464   .text:00000000000004b8 .L0 
     /tmp/cc88gCBR.s:1543   .text:00000000000004fc .L0 
     /tmp/cc88gCBR.s:1627   .text:0000000000000548 .L0 
     /tmp/cc88gCBR.s:1721   .text:0000000000000594 .L0 
     /tmp/cc88gCBR.s:1765   .text:00000000000005bc .L0 
     /tmp/cc88gCBR.s:1876   .text:00000000000005f4 .L0 
     /tmp/cc88gCBR.s:2017   .text:0000000000000678 .L0 
     /tmp/cc88gCBR.s:2024   .text:0000000000000690 .L0 
     /tmp/cc88gCBR.s:2033   .text:00000000000006ac .L0 
     /tmp/cc88gCBR.s:2036   .text:00000000000006bc .L0 
     /tmp/cc88gCBR.s:131    .text:0000000000000090 .L39
     /tmp/cc88gCBR.s:1853   .text:00000000000005f4 .L40
     /tmp/cc88gCBR.s:1979   .text:0000000000000654 .L41
     /tmp/cc88gCBR.s:530    .text:00000000000001a4 .L42
     /tmp/cc88gCBR.s:614    .text:00000000000001e4 .L43
     /tmp/cc88gCBR.s:688    .text:0000000000000224 .L44
     /tmp/cc88gCBR.s:740    .text:0000000000000244 .L45
     /tmp/cc88gCBR.s:867    .text:00000000000002b4 .L46
     /tmp/cc88gCBR.s:1015   .text:000000000000033c .L47
     /tmp/cc88gCBR.s:1115   .text:000000000000039c .L48
GAS LISTING /tmp/cc88gCBR.s 			page 65


     /tmp/cc88gCBR.s:1190   .text:00000000000003cc .L49
     /tmp/cc88gCBR.s:1298   .text:0000000000000434 .L50
     /tmp/cc88gCBR.s:1416   .text:000000000000049c .L51
     /tmp/cc88gCBR.s:1534   .text:00000000000004fc .L52
     /tmp/cc88gCBR.s:1618   .text:0000000000000548 .L53
     /tmp/cc88gCBR.s:1713   .text:0000000000000594 .L54
     /tmp/cc88gCBR.s:110    .text:0000000000000074 .L3
     /tmp/cc88gCBR.s:1821   .text:00000000000005e8 .L32
     /tmp/cc88gCBR.s:499    .text:000000000000014c .L33
     /tmp/cc88gCBR.s:855    .text:00000000000002ac .L10
     /tmp/cc88gCBR.s:813    .text:0000000000000284 .L11
     /tmp/cc88gCBR.s:1003   .text:0000000000000334 .L13
     /tmp/cc88gCBR.s:951    .text:0000000000000308 .L14
     /tmp/cc88gCBR.s:961    .text:000000000000030c .L15
     /tmp/cc88gCBR.s:1081   .text:0000000000000388 .L17
     /tmp/cc88gCBR.s:1286   .text:000000000000042c .L20
     /tmp/cc88gCBR.s:1244   .text:0000000000000404 .L21
     /tmp/cc88gCBR.s:1381   .text:0000000000000484 .L23
     /tmp/cc88gCBR.s:1369   .text:0000000000000478 .L24
     /tmp/cc88gCBR.s:1323   .text:000000000000044c .L25
     /tmp/cc88gCBR.s:1494   .text:00000000000004e4 .L27
     /tmp/cc88gCBR.s:1523   .text:00000000000004f0 .L55
     /tmp/cc88gCBR.s:1572   .text:0000000000000524 .L29
     /tmp/cc88gCBR.s:1607   .text:000000000000053c .L56
     /tmp/cc88gCBR.s:1908   .text:0000000000000628 .L57
     /tmp/cc88gCBR.s:1891   .text:000000000000061c .L35
     /tmp/cc88gCBR.s:2009   .text:0000000000000678 .L37
     /tmp/cc88gCBR.s:1997   .text:0000000000000668 .L36
     /tmp/cc88gCBR.s:496    .text:0000000000000144 .LEHB0
     /tmp/cc88gCBR.s:46     .text:0000000000000020 .LFB51
     /tmp/cc88gCBR.s:1232   .text:00000000000003f8 .LEHE0
     /tmp/cc88gCBR.s:1378   .text:000000000000047c .LEHB1
     /tmp/cc88gCBR.s:2040   .text:00000000000006d0 .LEHE1
     /tmp/cc88gCBR.s:5083   .debug_abbrev:0000000000000000 .Ldebug_abbrev0
     /tmp/cc88gCBR.s:7521   .debug_str:0000000000000af8 .LASF233
     /tmp/cc88gCBR.s:7173   .debug_str:000000000000014a .LASF234
     /tmp/cc88gCBR.s:7533   .debug_str:0000000000000bf6 .LASF235
     /tmp/cc88gCBR.s:5      .text:0000000000000000 .Ltext0
     /tmp/cc88gCBR.s:2066   .text:00000000000006d4 .Letext0
     /tmp/cc88gCBR.s:7131   .debug_line:0000000000000000 .Ldebug_line0
     /tmp/cc88gCBR.s:7289   .debug_str:00000000000004c5 .LASF0
     /tmp/cc88gCBR.s:7319   .debug_str:00000000000005ad .LASF1
     /tmp/cc88gCBR.s:7439   .debug_str:00000000000008bb .LASF2
     /tmp/cc88gCBR.s:7449   .debug_str:0000000000000905 .LASF4
     /tmp/cc88gCBR.s:7299   .debug_str:0000000000000503 .LASF3
     /tmp/cc88gCBR.s:7147   .debug_str:0000000000000080 .LASF5
     /tmp/cc88gCBR.s:7407   .debug_str:00000000000007cf .LASF6
     /tmp/cc88gCBR.s:7393   .debug_str:000000000000074e .LASF7
     /tmp/cc88gCBR.s:7311   .debug_str:000000000000055b .LASF8
     /tmp/cc88gCBR.s:7259   .debug_str:00000000000003dd .LASF9
     /tmp/cc88gCBR.s:7263   .debug_str:0000000000000405 .LASF10
     /tmp/cc88gCBR.s:7191   .debug_str:00000000000001c5 .LASF11
     /tmp/cc88gCBR.s:7249   .debug_str:000000000000039c .LASF12
     /tmp/cc88gCBR.s:7207   .debug_str:0000000000000230 .LASF13
     /tmp/cc88gCBR.s:7189   .debug_str:00000000000001b5 .LASF14
     /tmp/cc88gCBR.s:7495   .debug_str:0000000000000a3a .LASF15
     /tmp/cc88gCBR.s:7229   .debug_str:00000000000002c8 .LASF16
GAS LISTING /tmp/cc88gCBR.s 			page 66


     /tmp/cc88gCBR.s:7479   .debug_str:00000000000009c5 .LASF17
     /tmp/cc88gCBR.s:7155   .debug_str:00000000000000b2 .LASF18
     /tmp/cc88gCBR.s:7433   .debug_str:00000000000008a0 .LASF70
     /tmp/cc88gCBR.s:7417   .debug_str:0000000000000819 .LASF22
     /tmp/cc88gCBR.s:7327   .debug_str:00000000000005db .LASF19
     /tmp/cc88gCBR.s:7237   .debug_str:0000000000000317 .LASF20
     /tmp/cc88gCBR.s:7587   .debug_str:0000000000000d87 .LASF21
     /tmp/cc88gCBR.s:7563   .debug_str:0000000000000ce2 .LASF23
     /tmp/cc88gCBR.s:7243   .debug_str:0000000000000343 .LASF24
     /tmp/cc88gCBR.s:7519   .debug_str:0000000000000aeb .LASF25
     /tmp/cc88gCBR.s:7213   .debug_str:000000000000025b .LASF26
     /tmp/cc88gCBR.s:7277   .debug_str:0000000000000480 .LASF27
     /tmp/cc88gCBR.s:7419   .debug_str:0000000000000824 .LASF29
     /tmp/cc88gCBR.s:7349   .debug_str:0000000000000650 .LASF28
     /tmp/cc88gCBR.s:7423   .debug_str:0000000000000848 .LASF30
     /tmp/cc88gCBR.s:7257   .debug_str:00000000000003d3 .LASF31
     /tmp/cc88gCBR.s:7613   .debug_str:0000000000000e46 .LASF32
     /tmp/cc88gCBR.s:7457   .debug_str:000000000000092e .LASF33
     /tmp/cc88gCBR.s:7217   .debug_str:0000000000000277 .LASF34
     /tmp/cc88gCBR.s:7293   .debug_str:00000000000004e6 .LASF35
     /tmp/cc88gCBR.s:7301   .debug_str:0000000000000515 .LASF36
     /tmp/cc88gCBR.s:7555   .debug_str:0000000000000caa .LASF37
     /tmp/cc88gCBR.s:7483   .debug_str:00000000000009e2 .LASF39
     /tmp/cc88gCBR.s:7435   .debug_str:00000000000008a7 .LASF41
     /tmp/cc88gCBR.s:7485   .debug_str:00000000000009f8 .LASF43
     /tmp/cc88gCBR.s:7413   .debug_str:00000000000007fc .LASF38
     /tmp/cc88gCBR.s:7561   .debug_str:0000000000000cce .LASF40
     /tmp/cc88gCBR.s:7379   .debug_str:0000000000000701 .LASF42
     /tmp/cc88gCBR.s:7291   .debug_str:00000000000004d2 .LASF44
     /tmp/cc88gCBR.s:7583   .debug_str:0000000000000d6f .LASF45
     /tmp/cc88gCBR.s:7271   .debug_str:000000000000044a .LASF46
     /tmp/cc88gCBR.s:7375   .debug_str:00000000000006f4 .LASF47
     /tmp/cc88gCBR.s:7141   .debug_str:000000000000004b .LASF48
     /tmp/cc88gCBR.s:7331   .debug_str:00000000000005eb .LASF49
     /tmp/cc88gCBR.s:7185   .debug_str:0000000000000196 .LASF50
     /tmp/cc88gCBR.s:7611   .debug_str:0000000000000e3e .LASF51
     /tmp/cc88gCBR.s:7547   .debug_str:0000000000000c60 .LASF52
     /tmp/cc88gCBR.s:7491   .debug_str:0000000000000a25 .LASF53
     /tmp/cc88gCBR.s:7425   .debug_str:0000000000000867 .LASF54
     /tmp/cc88gCBR.s:7453   .debug_str:0000000000000916 .LASF55
     /tmp/cc88gCBR.s:7171   .debug_str:0000000000000136 .LASF56
     /tmp/cc88gCBR.s:7225   .debug_str:00000000000002b4 .LASF57
     /tmp/cc88gCBR.s:7361   .debug_str:0000000000000694 .LASF58
     /tmp/cc88gCBR.s:7295   .debug_str:00000000000004f3 .LASF59
     /tmp/cc88gCBR.s:7145   .debug_str:000000000000006d .LASF60
     /tmp/cc88gCBR.s:7149   .debug_str:0000000000000087 .LASF61
     /tmp/cc88gCBR.s:7595   .debug_str:0000000000000dca .LASF62
     /tmp/cc88gCBR.s:7437   .debug_str:00000000000008b0 .LASF63
     /tmp/cc88gCBR.s:7397   .debug_str:000000000000076f .LASF64
     /tmp/cc88gCBR.s:7575   .debug_str:0000000000000d3a .LASF65
     /tmp/cc88gCBR.s:7549   .debug_str:0000000000000c75 .LASF66
     /tmp/cc88gCBR.s:7569   .debug_str:0000000000000d1a .LASF72
     /tmp/cc88gCBR.s:7305   .debug_str:0000000000000535 .LASF74
     /tmp/cc88gCBR.s:7467   .debug_str:000000000000097f .LASF69
     /tmp/cc88gCBR.s:7193   .debug_str:00000000000001d4 .LASF67
     /tmp/cc88gCBR.s:7317   .debug_str:00000000000005a8 .LASF68
     /tmp/cc88gCBR.s:7367   .debug_str:00000000000006bc .LASF71
GAS LISTING /tmp/cc88gCBR.s 			page 67


     /tmp/cc88gCBR.s:7431   .debug_str:0000000000000894 .LASF81
     /tmp/cc88gCBR.s:7297   .debug_str:00000000000004f9 .LASF73
     /tmp/cc88gCBR.s:7505   .debug_str:0000000000000a73 .LASF75
     /tmp/cc88gCBR.s:7363   .debug_str:00000000000006a7 .LASF76
     /tmp/cc88gCBR.s:7133   .debug_str:0000000000000000 .LASF77
     /tmp/cc88gCBR.s:7355   .debug_str:000000000000067e .LASF86
     /tmp/cc88gCBR.s:7593   .debug_str:0000000000000da8 .LASF88
     /tmp/cc88gCBR.s:7503   .debug_str:0000000000000a6a .LASF78
     /tmp/cc88gCBR.s:7313   .debug_str:000000000000056e .LASF79
     /tmp/cc88gCBR.s:7283   .debug_str:00000000000004ab .LASF80
     /tmp/cc88gCBR.s:7415   .debug_str:0000000000000803 .LASF236
     /tmp/cc88gCBR.s:7567   .debug_str:0000000000000cff .LASF171
     /tmp/cc88gCBR.s:7487   .debug_str:0000000000000a0e .LASF82
     /tmp/cc88gCBR.s:7377   .debug_str:00000000000006fc .LASF83
     /tmp/cc88gCBR.s:7469   .debug_str:000000000000098b .LASF84
     /tmp/cc88gCBR.s:7197   .debug_str:00000000000001e2 .LASF85
     /tmp/cc88gCBR.s:7543   .debug_str:0000000000000c43 .LASF87
     /tmp/cc88gCBR.s:7513   .debug_str:0000000000000aca .LASF89
     /tmp/cc88gCBR.s:7603   .debug_str:0000000000000dfe .LASF90
     /tmp/cc88gCBR.s:7143   .debug_str:0000000000000060 .LASF91
     /tmp/cc88gCBR.s:7179   .debug_str:000000000000017a .LASF92
     /tmp/cc88gCBR.s:7579   .debug_str:0000000000000d4f .LASF93
     /tmp/cc88gCBR.s:7139   .debug_str:000000000000003b .LASF94
     /tmp/cc88gCBR.s:7493   .debug_str:0000000000000a2c .LASF95
     /tmp/cc88gCBR.s:7477   .debug_str:00000000000009b2 .LASF96
     /tmp/cc88gCBR.s:7395   .debug_str:0000000000000761 .LASF97
     /tmp/cc88gCBR.s:7525   .debug_str:0000000000000bd4 .LASF98
     /tmp/cc88gCBR.s:7245   .debug_str:000000000000034f .LASF99
     /tmp/cc88gCBR.s:7389   .debug_str:0000000000000735 .LASF237
     /tmp/cc88gCBR.s:7163   .debug_str:00000000000000fc .LASF100
     /tmp/cc88gCBR.s:7323   .debug_str:00000000000005ca .LASF101
     /tmp/cc88gCBR.s:7251   .debug_str:00000000000003ab .LASF102
     /tmp/cc88gCBR.s:7221   .debug_str:00000000000002a6 .LASF103
     /tmp/cc88gCBR.s:7159   .debug_str:00000000000000d5 .LASF104
     /tmp/cc88gCBR.s:7517   .debug_str:0000000000000ae3 .LASF105
     /tmp/cc88gCBR.s:7531   .debug_str:0000000000000bee .LASF106
     /tmp/cc88gCBR.s:7615   .debug_str:0000000000000e5d .LASF107
     /tmp/cc88gCBR.s:7269   .debug_str:000000000000043f .LASF108
     /tmp/cc88gCBR.s:7265   .debug_str:0000000000000413 .LASF110
     /tmp/cc88gCBR.s:7577   .debug_str:0000000000000d44 .LASF109
     /tmp/cc88gCBR.s:7261   .debug_str:00000000000003ed .LASF111
     /tmp/cc88gCBR.s:7335   .debug_str:0000000000000607 .LASF112
     /tmp/cc88gCBR.s:7157   .debug_str:00000000000000bf .LASF113
     /tmp/cc88gCBR.s:7605   .debug_str:0000000000000e0b .LASF114
     /tmp/cc88gCBR.s:7489   .debug_str:0000000000000a13 .LASF115
     /tmp/cc88gCBR.s:7515   .debug_str:0000000000000ad7 .LASF116
     /tmp/cc88gCBR.s:7523   .debug_str:0000000000000bbc .LASF117
     /tmp/cc88gCBR.s:7537   .debug_str:0000000000000c20 .LASF118
     /tmp/cc88gCBR.s:7399   .debug_str:0000000000000788 .LASF119
     /tmp/cc88gCBR.s:7387   .debug_str:000000000000072a .LASF120
     /tmp/cc88gCBR.s:7553   .debug_str:0000000000000c93 .LASF121
     /tmp/cc88gCBR.s:7353   .debug_str:0000000000000677 .LASF122
     /tmp/cc88gCBR.s:7255   .debug_str:00000000000003c1 .LASF123
     /tmp/cc88gCBR.s:7337   .debug_str:0000000000000611 .LASF124
     /tmp/cc88gCBR.s:7405   .debug_str:00000000000007bc .LASF125
     /tmp/cc88gCBR.s:7585   .debug_str:0000000000000d77 .LASF126
     /tmp/cc88gCBR.s:7177   .debug_str:000000000000015e .LASF127
GAS LISTING /tmp/cc88gCBR.s 			page 68


     /tmp/cc88gCBR.s:7475   .debug_str:00000000000009a0 .LASF128
     /tmp/cc88gCBR.s:7315   .debug_str:0000000000000590 .LASF129
     /tmp/cc88gCBR.s:7137   .debug_str:0000000000000036 .LASF130
     /tmp/cc88gCBR.s:7601   .debug_str:0000000000000df9 .LASF131
     /tmp/cc88gCBR.s:7471   .debug_str:0000000000000990 .LASF132
     /tmp/cc88gCBR.s:7539   .debug_str:0000000000000c2c .LASF133
     /tmp/cc88gCBR.s:7501   .debug_str:0000000000000a61 .LASF134
     /tmp/cc88gCBR.s:7211   .debug_str:0000000000000252 .LASF135
     /tmp/cc88gCBR.s:7275   .debug_str:0000000000000478 .LASF136
     /tmp/cc88gCBR.s:7169   .debug_str:000000000000012e .LASF137
     /tmp/cc88gCBR.s:7369   .debug_str:00000000000006cd .LASF138
     /tmp/cc88gCBR.s:7135   .debug_str:0000000000000029 .LASF139
     /tmp/cc88gCBR.s:7227   .debug_str:00000000000002ba .LASF140
     /tmp/cc88gCBR.s:7589   .debug_str:0000000000000d90 .LASF141
     /tmp/cc88gCBR.s:7459   .debug_str:000000000000093c .LASF142
     /tmp/cc88gCBR.s:7411   .debug_str:00000000000007f1 .LASF143
     /tmp/cc88gCBR.s:7445   .debug_str:00000000000008ef .LASF144
     /tmp/cc88gCBR.s:7597   .debug_str:0000000000000de3 .LASF145
     /tmp/cc88gCBR.s:7247   .debug_str:0000000000000373 .LASF146
     /tmp/cc88gCBR.s:7403   .debug_str:00000000000007ae .LASF238
     /tmp/cc88gCBR.s:7441   .debug_str:00000000000008c9 .LASF239
     /tmp/cc88gCBR.s:7345   .debug_str:0000000000000637 .LASF147
     /tmp/cc88gCBR.s:7421   .debug_str:000000000000083d .LASF148
     /tmp/cc88gCBR.s:7443   .debug_str:00000000000008e3 .LASF149
     /tmp/cc88gCBR.s:7151   .debug_str:0000000000000092 .LASF150
     /tmp/cc88gCBR.s:7223   .debug_str:00000000000002af .LASF151
     /tmp/cc88gCBR.s:7545   .debug_str:0000000000000c49 .LASF152
     /tmp/cc88gCBR.s:7499   .debug_str:0000000000000a5a .LASF153
     /tmp/cc88gCBR.s:7231   .debug_str:00000000000002de .LASF154
     /tmp/cc88gCBR.s:7281   .debug_str:00000000000004a5 .LASF155
     /tmp/cc88gCBR.s:7273   .debug_str:000000000000045f .LASF156
     /tmp/cc88gCBR.s:7371   .debug_str:00000000000006db .LASF157
     /tmp/cc88gCBR.s:7205   .debug_str:000000000000020d .LASF158
     /tmp/cc88gCBR.s:7347   .debug_str:000000000000063c .LASF159
     /tmp/cc88gCBR.s:7333   .debug_str:00000000000005f3 .LASF160
     /tmp/cc88gCBR.s:7607   .debug_str:0000000000000e11 .LASF161
     /tmp/cc88gCBR.s:7507   .debug_str:0000000000000aa2 .LASF162
     /tmp/cc88gCBR.s:7287   .debug_str:00000000000004bf .LASF163
     /tmp/cc88gCBR.s:7609   .debug_str:0000000000000e26 .LASF164
     /tmp/cc88gCBR.s:7599   .debug_str:0000000000000df1 .LASF165
     /tmp/cc88gCBR.s:7279   .debug_str:000000000000048b .LASF166
     /tmp/cc88gCBR.s:7409   .debug_str:00000000000007d6 .LASF186
     /tmp/cc88gCBR.s:7351   .debug_str:0000000000000661 .LASF188
     /tmp/cc88gCBR.s:7267   .debug_str:000000000000042b .LASF167
     /tmp/cc88gCBR.s:7481   .debug_str:00000000000009db .LASF168
     /tmp/cc88gCBR.s:7183   .debug_str:000000000000018f .LASF169
     /tmp/cc88gCBR.s:7497   .debug_str:0000000000000a46 .LASF170
     /tmp/cc88gCBR.s:7557   .debug_str:0000000000000cb3 .LASF172
     /tmp/cc88gCBR.s:7339   .debug_str:0000000000000619 .LASF173
     /tmp/cc88gCBR.s:7527   .debug_str:0000000000000be1 .LASF174
     /tmp/cc88gCBR.s:7427   .debug_str:000000000000087b .LASF175
     /tmp/cc88gCBR.s:7239   .debug_str:0000000000000320 .LASF176
     /tmp/cc88gCBR.s:7241   .debug_str:0000000000000331 .LASF177
     /tmp/cc88gCBR.s:7199   .debug_str:00000000000001ea .LASF178
     /tmp/cc88gCBR.s:7541   .debug_str:0000000000000c34 .LASF179
     /tmp/cc88gCBR.s:7565   .debug_str:0000000000000cf1 .LASF180
     /tmp/cc88gCBR.s:7321   .debug_str:00000000000005c0 .LASF181
GAS LISTING /tmp/cc88gCBR.s 			page 69


     /tmp/cc88gCBR.s:7559   .debug_str:0000000000000cc4 .LASF182
     /tmp/cc88gCBR.s:7455   .debug_str:000000000000091d .LASF183
     /tmp/cc88gCBR.s:7307   .debug_str:000000000000054c .LASF184
     /tmp/cc88gCBR.s:7571   .debug_str:0000000000000d24 .LASF185
     /tmp/cc88gCBR.s:7581   .debug_str:0000000000000d5c .LASF187
     /tmp/cc88gCBR.s:7161   .debug_str:00000000000000e9 .LASF189
     /tmp/cc88gCBR.s:7551   .debug_str:0000000000000c8c .LASF190
     /tmp/cc88gCBR.s:7235   .debug_str:0000000000000301 .LASF191
     /tmp/cc88gCBR.s:7219   .debug_str:0000000000000293 .LASF192
     /tmp/cc88gCBR.s:7463   .debug_str:0000000000000954 .LASF193
     /tmp/cc88gCBR.s:7429   .debug_str:000000000000088c .LASF194
     /tmp/cc88gCBR.s:7535   .debug_str:0000000000000c19 .LASF195
     /tmp/cc88gCBR.s:7451   .debug_str:000000000000090c .LASF240
     /tmp/cc88gCBR.s:7511   .debug_str:0000000000000ac5 .LASF196
     /tmp/cc88gCBR.s:7381   .debug_str:0000000000000708 .LASF197
     /tmp/cc88gCBR.s:7461   .debug_str:000000000000094d .LASF198
     /tmp/cc88gCBR.s:7165   .debug_str:000000000000011a .LASF199
     /tmp/cc88gCBR.s:7329   .debug_str:00000000000005e4 .LASF200
     /tmp/cc88gCBR.s:7359   .debug_str:000000000000068d .LASF201
     /tmp/cc88gCBR.s:7325   .debug_str:00000000000005d0 .LASF202
     /tmp/cc88gCBR.s:7473   .debug_str:0000000000000996 .LASF203
     /tmp/cc88gCBR.s:7341   .debug_str:0000000000000622 .LASF204
     /tmp/cc88gCBR.s:7285   .debug_str:00000000000004b6 .LASF205
     /tmp/cc88gCBR.s:7187   .debug_str:00000000000001ab .LASF206
     /tmp/cc88gCBR.s:7209   .debug_str:0000000000000240 .LASF207
     /tmp/cc88gCBR.s:7509   .debug_str:0000000000000ab7 .LASF208
     /tmp/cc88gCBR.s:7153   .debug_str:00000000000000a6 .LASF209
     /tmp/cc88gCBR.s:7215   .debug_str:0000000000000267 .LASF210
     /tmp/cc88gCBR.s:7195   .debug_str:00000000000001d9 .LASF211
     /tmp/cc88gCBR.s:7201   .debug_str:00000000000001fc .LASF212
     /tmp/cc88gCBR.s:7373   .debug_str:00000000000006eb .LASF213
     /tmp/cc88gCBR.s:7447   .debug_str:00000000000008fa .LASF214
     /tmp/cc88gCBR.s:7385   .debug_str:000000000000071f .LASF215
     /tmp/cc88gCBR.s:7303   .debug_str:0000000000000530 .LASF216
     /tmp/cc88gCBR.s:7365   .debug_str:00000000000006b7 .LASF217
     /tmp/cc88gCBR.s:2048   .text:00000000000006d4 .LFE51
     /tmp/cc88gCBR.s:7591   .debug_str:0000000000000da1 .LASF218
     /tmp/cc88gCBR.s:6300   .debug_loc:0000000000000000 .LLST0
     /tmp/cc88gCBR.s:7075   .debug_ranges:0000000000000000 .Ldebug_ranges0
     /tmp/cc88gCBR.s:7309   .debug_str:0000000000000556 .LASF219
     /tmp/cc88gCBR.s:6409   .debug_loc:0000000000000197 .LLST7
     /tmp/cc88gCBR.s:545    .text:00000000000001a4 .LBB402
     /tmp/cc88gCBR.s:617    .text:00000000000001e4 .LBE402
     /tmp/cc88gCBR.s:7233   .debug_str:00000000000002f7 .LASF220
     /tmp/cc88gCBR.s:6468   .debug_loc:00000000000002b1 .LLST71
     /tmp/cc88gCBR.s:6475   .debug_loc:00000000000002d4 .LLST72
     /tmp/cc88gCBR.s:583    .text:00000000000001cc .LBB403
     /tmp/cc88gCBR.s:598    .text:00000000000001d8 .LBE403
     /tmp/cc88gCBR.s:602    .text:00000000000001dc .LBB405
     /tmp/cc88gCBR.s:616    .text:00000000000001e4 .LBE405
     /tmp/cc88gCBR.s:6482   .debug_loc:00000000000002f7 .LLST73
     /tmp/cc88gCBR.s:566    .text:00000000000001c0 .LVL15
     /tmp/cc88gCBR.s:619    .text:00000000000001e4 .LBB384
     /tmp/cc88gCBR.s:691    .text:0000000000000224 .LBE384
     /tmp/cc88gCBR.s:7181   .debug_str:000000000000018a .LASF221
     /tmp/cc88gCBR.s:6489   .debug_loc:000000000000031a .LLST68
     /tmp/cc88gCBR.s:6496   .debug_loc:000000000000033d .LLST69
GAS LISTING /tmp/cc88gCBR.s 			page 70


     /tmp/cc88gCBR.s:657    .text:000000000000020c .LBB385
     /tmp/cc88gCBR.s:672    .text:0000000000000218 .LBE385
     /tmp/cc88gCBR.s:676    .text:000000000000021c .LBB387
     /tmp/cc88gCBR.s:690    .text:0000000000000224 .LBE387
     /tmp/cc88gCBR.s:6503   .debug_loc:0000000000000360 .LLST70
     /tmp/cc88gCBR.s:640    .text:0000000000000200 .LVL20
     /tmp/cc88gCBR.s:744    .text:0000000000000244 .LBB350
     /tmp/cc88gCBR.s:868    .text:00000000000002b4 .LBE350
     /tmp/cc88gCBR.s:7529   .debug_str:0000000000000be8 .LASF222
     /tmp/cc88gCBR.s:6510   .debug_loc:0000000000000383 .LLST61
     /tmp/cc88gCBR.s:6522   .debug_loc:00000000000003ba .LLST62
     /tmp/cc88gCBR.s:6534   .debug_loc:00000000000003f1 .LLST63
     /tmp/cc88gCBR.s:6546   .debug_loc:0000000000000428 .LLST64
     /tmp/cc88gCBR.s:824    .text:0000000000000294 .LBB351
     /tmp/cc88gCBR.s:839    .text:00000000000002a0 .LBE351
     /tmp/cc88gCBR.s:843    .text:00000000000002a4 .LBB353
     /tmp/cc88gCBR.s:857    .text:00000000000002ac .LBE353
     /tmp/cc88gCBR.s:6558   .debug_loc:000000000000045f .LLST65
     /tmp/cc88gCBR.s:801    .text:0000000000000278 .LVL32
     /tmp/cc88gCBR.s:870    .text:00000000000002b4 .LBB333
     /tmp/cc88gCBR.s:1016   .text:000000000000033c .LBE333
     /tmp/cc88gCBR.s:6565   .debug_loc:0000000000000482 .LLST55
     /tmp/cc88gCBR.s:6577   .debug_loc:00000000000004b9 .LLST56
     /tmp/cc88gCBR.s:6589   .debug_loc:00000000000004f0 .LLST57
     /tmp/cc88gCBR.s:6601   .debug_loc:0000000000000527 .LLST58
     /tmp/cc88gCBR.s:934    .text:00000000000002f0 .LBB334
     /tmp/cc88gCBR.s:953    .text:0000000000000308 .LBE334
     /tmp/cc88gCBR.s:6613   .debug_loc:000000000000055e .LLST59
     /tmp/cc88gCBR.s:949    .text:0000000000000308 .LVL43
     /tmp/cc88gCBR.s:972    .text:000000000000031c .LBB336
     /tmp/cc88gCBR.s:987    .text:0000000000000328 .LBE336
     /tmp/cc88gCBR.s:991    .text:000000000000032c .LBB338
     /tmp/cc88gCBR.s:1005   .text:0000000000000334 .LBE338
     /tmp/cc88gCBR.s:6620   .debug_loc:0000000000000581 .LLST60
     /tmp/cc88gCBR.s:927    .text:00000000000002e8 .LVL41
     /tmp/cc88gCBR.s:1018   .text:000000000000033c .LBB313
     /tmp/cc88gCBR.s:1118   .text:000000000000039c .LBE313
     /tmp/cc88gCBR.s:7573   .debug_str:0000000000000d35 .LASF223
     /tmp/cc88gCBR.s:6627   .debug_loc:00000000000005a4 .LLST49
     /tmp/cc88gCBR.s:7465   .debug_str:0000000000000977 .LASF224
     /tmp/cc88gCBR.s:6634   .debug_loc:00000000000005c7 .LLST50
     /tmp/cc88gCBR.s:1020   .text:000000000000033c .LBB314
     /tmp/cc88gCBR.s:1036   .text:0000000000000348 .LBE314
     /tmp/cc88gCBR.s:1041   .text:000000000000034c .LBB316
     /tmp/cc88gCBR.s:1057   .text:0000000000000358 .LBE316
     /tmp/cc88gCBR.s:1063   .text:0000000000000364 .LBB318
     /tmp/cc88gCBR.s:1084   .text:0000000000000388 .LBE318
     /tmp/cc88gCBR.s:6641   .debug_loc:00000000000005ea .LLST51
     /tmp/cc88gCBR.s:6649   .debug_loc:000000000000060e .LLST52
     /tmp/cc88gCBR.s:1090   .text:0000000000000390 .LBB320
     /tmp/cc88gCBR.s:1101   .text:0000000000000394 .LBE320
     /tmp/cc88gCBR.s:6656   .debug_loc:0000000000000631 .LLST53
     /tmp/cc88gCBR.s:1103   .text:0000000000000394 .LBB322
     /tmp/cc88gCBR.s:1117   .text:000000000000039c .LBE322
     /tmp/cc88gCBR.s:6663   .debug_loc:0000000000000654 .LLST54
     /tmp/cc88gCBR.s:1088   .text:0000000000000390 .LVL53
     /tmp/cc88gCBR.s:1120   .text:000000000000039c .LBB296
GAS LISTING /tmp/cc88gCBR.s 			page 71


     /tmp/cc88gCBR.s:1193   .text:00000000000003cc .LBE296
     /tmp/cc88gCBR.s:6670   .debug_loc:0000000000000677 .LLST45
     /tmp/cc88gCBR.s:6677   .debug_loc:000000000000069a .LLST46
     /tmp/cc88gCBR.s:1122   .text:000000000000039c .LBB297
     /tmp/cc88gCBR.s:1138   .text:00000000000003a8 .LBE297
     /tmp/cc88gCBR.s:1143   .text:00000000000003ac .LBB299
     /tmp/cc88gCBR.s:1159   .text:00000000000003b8 .LBE299
     /tmp/cc88gCBR.s:1165   .text:00000000000003c0 .LBB301
     /tmp/cc88gCBR.s:1176   .text:00000000000003c4 .LBE301
     /tmp/cc88gCBR.s:6684   .debug_loc:00000000000006bd .LLST47
     /tmp/cc88gCBR.s:1178   .text:00000000000003c4 .LBB303
     /tmp/cc88gCBR.s:1192   .text:00000000000003cc .LBE303
     /tmp/cc88gCBR.s:6691   .debug_loc:00000000000006e0 .LLST48
     /tmp/cc88gCBR.s:1163   .text:00000000000003c0 .LVL59
     /tmp/cc88gCBR.s:1195   .text:00000000000003cc .LBB284
     /tmp/cc88gCBR.s:1299   .text:0000000000000434 .LBE284
     /tmp/cc88gCBR.s:6698   .debug_loc:0000000000000703 .LLST42
     /tmp/cc88gCBR.s:7175   .debug_str:0000000000000159 .LASF225
     /tmp/cc88gCBR.s:6710   .debug_loc:000000000000073a .LLST43
     /tmp/cc88gCBR.s:1255   .text:0000000000000414 .LBB285
     /tmp/cc88gCBR.s:1270   .text:0000000000000420 .LBE285
     /tmp/cc88gCBR.s:1274   .text:0000000000000424 .LBB287
     /tmp/cc88gCBR.s:1288   .text:000000000000042c .LBE287
     /tmp/cc88gCBR.s:6717   .debug_loc:000000000000075d .LLST44
     /tmp/cc88gCBR.s:1231   .text:00000000000003f8 .LVL66
     /tmp/cc88gCBR.s:1301   .text:0000000000000434 .LBB264
     /tmp/cc88gCBR.s:1419   .text:000000000000049c .LBE264
     /tmp/cc88gCBR.s:6724   .debug_loc:0000000000000780 .LLST34
     /tmp/cc88gCBR.s:1324   .text:000000000000044c .LBB265
     /tmp/cc88gCBR.s:1372   .text:0000000000000478 .LBE265
     /tmp/cc88gCBR.s:1331   .text:0000000000000454 .LBB267
     /tmp/cc88gCBR.s:1366   .text:0000000000000474 .LBE267
     /tmp/cc88gCBR.s:6736   .debug_loc:00000000000007b7 .LLST35
     /tmp/cc88gCBR.s:1344   .text:0000000000000460 .LBB268
     /tmp/cc88gCBR.s:1352   .text:0000000000000468 .LBE268
     /tmp/cc88gCBR.s:6743   .debug_loc:00000000000007da .LLST36
     /tmp/cc88gCBR.s:6751   .debug_loc:00000000000007fe .LLST37
     /tmp/cc88gCBR.s:1354   .text:0000000000000468 .LBB270
     /tmp/cc88gCBR.s:1361   .text:000000000000046c .LBE270
     /tmp/cc88gCBR.s:6758   .debug_loc:0000000000000821 .LLST38
     /tmp/cc88gCBR.s:6766   .debug_loc:0000000000000845 .LLST39
     /tmp/cc88gCBR.s:1365   .text:0000000000000474 .LVL77
     /tmp/cc88gCBR.s:1373   .text:0000000000000478 .LBB272
     /tmp/cc88gCBR.s:1383   .text:0000000000000484 .LBE272
     /tmp/cc88gCBR.s:6773   .debug_loc:0000000000000868 .LLST40
     /tmp/cc88gCBR.s:1380   .text:0000000000000484 .LVL79
     /tmp/cc88gCBR.s:1385   .text:0000000000000484 .LBB274
     /tmp/cc88gCBR.s:1400   .text:0000000000000490 .LBE274
     /tmp/cc88gCBR.s:1404   .text:0000000000000494 .LBB276
     /tmp/cc88gCBR.s:1418   .text:000000000000049c .LBE276
     /tmp/cc88gCBR.s:6780   .debug_loc:000000000000088b .LLST41
     /tmp/cc88gCBR.s:1421   .text:000000000000049c .LBB246
     /tmp/cc88gCBR.s:1537   .text:00000000000004fc .LBE246
     /tmp/cc88gCBR.s:6787   .debug_loc:00000000000008ae .LLST28
     /tmp/cc88gCBR.s:6794   .debug_loc:00000000000008d1 .LLST29
     /tmp/cc88gCBR.s:6801   .debug_loc:00000000000008f4 .LLST30
     /tmp/cc88gCBR.s:1423   .text:000000000000049c .LBB247
GAS LISTING /tmp/cc88gCBR.s 			page 72


     /tmp/cc88gCBR.s:1439   .text:00000000000004a8 .LBE247
     /tmp/cc88gCBR.s:1444   .text:00000000000004ac .LBB249
     /tmp/cc88gCBR.s:1460   .text:00000000000004b8 .LBE249
     /tmp/cc88gCBR.s:1481   .text:00000000000004d0 .LBB251
     /tmp/cc88gCBR.s:6817   .debug_loc:000000000000093e .LLST31
     /tmp/cc88gCBR.s:1531   .text:00000000000004f8 .LVL90
     /tmp/cc88gCBR.s:1498   .text:00000000000004e4 .LBB254
     /tmp/cc88gCBR.s:1509   .text:00000000000004e8 .LBE254
     /tmp/cc88gCBR.s:6828   .debug_loc:0000000000000974 .LLST32
     /tmp/cc88gCBR.s:1511   .text:00000000000004e8 .LBB256
     /tmp/cc88gCBR.s:1525   .text:00000000000004f0 .LBE256
     /tmp/cc88gCBR.s:6835   .debug_loc:0000000000000997 .LLST33
     /tmp/cc88gCBR.s:1539   .text:00000000000004fc .LBB233
     /tmp/cc88gCBR.s:1621   .text:0000000000000548 .LBE233
     /tmp/cc88gCBR.s:6842   .debug_loc:00000000000009ba .LLST25
     /tmp/cc88gCBR.s:1561   .text:0000000000000514 .LBB234
     /tmp/cc88gCBR.s:6858   .debug_loc:0000000000000a04 .LLST26
     /tmp/cc88gCBR.s:1615   .text:0000000000000544 .LVL98
     /tmp/cc88gCBR.s:1576   .text:0000000000000524 .LBB237
     /tmp/cc88gCBR.s:1591   .text:0000000000000530 .LBE237
     /tmp/cc88gCBR.s:1595   .text:0000000000000534 .LBB239
     /tmp/cc88gCBR.s:1609   .text:000000000000053c .LBE239
     /tmp/cc88gCBR.s:6869   .debug_loc:0000000000000a3a .LLST27
     /tmp/cc88gCBR.s:1623   .text:0000000000000548 .LBB221
     /tmp/cc88gCBR.s:1716   .text:0000000000000594 .LBE221
     /tmp/cc88gCBR.s:6876   .debug_loc:0000000000000a5d .LLST20
     /tmp/cc88gCBR.s:6883   .debug_loc:0000000000000a80 .LLST21
     /tmp/cc88gCBR.s:6890   .debug_loc:0000000000000aa3 .LLST22
     /tmp/cc88gCBR.s:1646   .text:0000000000000564 .LBB222
     /tmp/cc88gCBR.s:1661   .text:0000000000000570 .LBE222
     /tmp/cc88gCBR.s:1666   .text:0000000000000574 .LBB224
     /tmp/cc88gCBR.s:1682   .text:0000000000000580 .LBE224
     /tmp/cc88gCBR.s:1688   .text:0000000000000588 .LBB226
     /tmp/cc88gCBR.s:1699   .text:000000000000058c .LBE226
     /tmp/cc88gCBR.s:6897   .debug_loc:0000000000000ac6 .LLST23
     /tmp/cc88gCBR.s:1701   .text:000000000000058c .LBB228
     /tmp/cc88gCBR.s:1715   .text:0000000000000594 .LBE228
     /tmp/cc88gCBR.s:6904   .debug_loc:0000000000000ae9 .LLST24
     /tmp/cc88gCBR.s:1644   .text:0000000000000564 .LVL102
     /tmp/cc88gCBR.s:1686   .text:0000000000000588 .LVL105
     /tmp/cc88gCBR.s:1718   .text:0000000000000594 .LBB208
     /tmp/cc88gCBR.s:1824   .text:00000000000005e8 .LBE208
     /tmp/cc88gCBR.s:7383   .debug_str:000000000000070e .LASF226
     /tmp/cc88gCBR.s:6911   .debug_loc:0000000000000b0c .LLST13
     /tmp/cc88gCBR.s:6918   .debug_loc:0000000000000b2f .LLST14
     /tmp/cc88gCBR.s:6925   .debug_loc:0000000000000b52 .LLST15
     /tmp/cc88gCBR.s:6932   .debug_loc:0000000000000b75 .LLST16
     /tmp/cc88gCBR.s:1726   .text:00000000000005a0 .LBB209
     /tmp/cc88gCBR.s:1741   .text:00000000000005ac .LBE209
     /tmp/cc88gCBR.s:1746   .text:00000000000005b0 .LBB211
     /tmp/cc88gCBR.s:1762   .text:00000000000005bc .LBE211
     /tmp/cc88gCBR.s:1783   .text:00000000000005d8 .LBB213
     /tmp/cc88gCBR.s:1794   .text:00000000000005dc .LBE213
     /tmp/cc88gCBR.s:6939   .debug_loc:0000000000000b98 .LLST17
     /tmp/cc88gCBR.s:1796   .text:00000000000005dc .LBB215
     /tmp/cc88gCBR.s:1807   .text:00000000000005e0 .LBE215
     /tmp/cc88gCBR.s:6946   .debug_loc:0000000000000bbb .LLST18
GAS LISTING /tmp/cc88gCBR.s 			page 73


     /tmp/cc88gCBR.s:1809   .text:00000000000005e0 .LBB217
     /tmp/cc88gCBR.s:1823   .text:00000000000005e8 .LBE217
     /tmp/cc88gCBR.s:6953   .debug_loc:0000000000000bde .LLST19
     /tmp/cc88gCBR.s:1768   .text:00000000000005d0 .LVL112
     /tmp/cc88gCBR.s:6960   .debug_loc:0000000000000c01 .LLST8
     /tmp/cc88gCBR.s:6967   .debug_loc:0000000000000c24 .LLST9
     /tmp/cc88gCBR.s:6978   .debug_loc:0000000000000c5a .LLST10
     /tmp/cc88gCBR.s:455    .text:000000000000011c .LBB199
     /tmp/cc88gCBR.s:470    .text:0000000000000128 .LBE199
     /tmp/cc88gCBR.s:475    .text:000000000000012c .LBB201
     /tmp/cc88gCBR.s:491    .text:0000000000000138 .LBE201
     /tmp/cc88gCBR.s:1828   .text:00000000000005e8 .LBB203
     /tmp/cc88gCBR.s:1839   .text:00000000000005ec .LBE203
     /tmp/cc88gCBR.s:6989   .debug_loc:0000000000000c90 .LLST11
     /tmp/cc88gCBR.s:1841   .text:00000000000005ec .LBB205
     /tmp/cc88gCBR.s:1855   .text:00000000000005f4 .LBE205
     /tmp/cc88gCBR.s:6996   .debug_loc:0000000000000cb3 .LLST12
     /tmp/cc88gCBR.s:498    .text:000000000000014c .LVL9
     /tmp/cc88gCBR.s:513    .text:0000000000000178 .LVL10
     /tmp/cc88gCBR.s:521    .text:0000000000000190 .LVL11
     /tmp/cc88gCBR.s:694    .text:0000000000000224 .LBB366
     /tmp/cc88gCBR.s:707    .text:000000000000022c .LBE366
     /tmp/cc88gCBR.s:7003   .debug_loc:0000000000000cd6 .LLST66
     /tmp/cc88gCBR.s:709    .text:000000000000022c .LBB368
     /tmp/cc88gCBR.s:724    .text:0000000000000238 .LBE368
     /tmp/cc88gCBR.s:728    .text:000000000000023c .LBB370
     /tmp/cc88gCBR.s:742    .text:0000000000000244 .LBE370
     /tmp/cc88gCBR.s:7012   .debug_loc:0000000000000cfc .LLST67
     /tmp/cc88gCBR.s:1912   .text:0000000000000628 .LBB168
     /tmp/cc88gCBR.s:1982   .text:0000000000000654 .LBE168
     /tmp/cc88gCBR.s:7019   .debug_loc:0000000000000d1f .LLST2
     /tmp/cc88gCBR.s:7026   .debug_loc:0000000000000d42 .LLST3
     /tmp/cc88gCBR.s:1914   .text:0000000000000628 .LBB169
     /tmp/cc88gCBR.s:1930   .text:0000000000000634 .LBE169
     /tmp/cc88gCBR.s:1932   .text:0000000000000634 .LBB171
     /tmp/cc88gCBR.s:1948   .text:0000000000000640 .LBE171
     /tmp/cc88gCBR.s:1954   .text:0000000000000648 .LBB173
     /tmp/cc88gCBR.s:1965   .text:000000000000064c .LBE173
     /tmp/cc88gCBR.s:7033   .debug_loc:0000000000000d65 .LLST4
     /tmp/cc88gCBR.s:1967   .text:000000000000064c .LBB175
     /tmp/cc88gCBR.s:1981   .text:0000000000000654 .LBE175
     /tmp/cc88gCBR.s:7040   .debug_loc:0000000000000d88 .LLST5
     /tmp/cc88gCBR.s:1952   .text:0000000000000648 .LVL124
     /tmp/cc88gCBR.s:7203   .debug_str:0000000000000206 .LASF227
     /tmp/cc88gCBR.s:7047   .debug_loc:0000000000000dab .LLST1
     /tmp/cc88gCBR.s:1990   .text:000000000000065c .LVL127
     /tmp/cc88gCBR.s:2002   .text:0000000000000674 .LVL130
     /tmp/cc88gCBR.s:2027   .text:00000000000006a4 .LVL131
     /tmp/cc88gCBR.s:2039   .text:00000000000006d0 .LVL132
     /tmp/cc88gCBR.s:66     .text:000000000000003c .LBB159
     /tmp/cc88gCBR.s:83     .text:0000000000000048 .LBE159
     /tmp/cc88gCBR.s:1895   .text:000000000000061c .LBB177
     /tmp/cc88gCBR.s:1910   .text:0000000000000628 .LBE177
     /tmp/cc88gCBR.s:7054   .debug_loc:0000000000000dce .LLST6
     /tmp/cc88gCBR.s:1883   .text:0000000000000610 .LVL119
     /tmp/cc88gCBR.s:10     .text:0000000000000000 .LFB50
     /tmp/cc88gCBR.s:40     .text:0000000000000020 .LFE50
GAS LISTING /tmp/cc88gCBR.s 			page 74


     /tmp/cc88gCBR.s:7253   .debug_str:00000000000003bc .LASF228
     /tmp/cc88gCBR.s:7167   .debug_str:0000000000000124 .LASF229
     /tmp/cc88gCBR.s:7391   .debug_str:000000000000073a .LASF241
     /tmp/cc88gCBR.s:7357   .debug_str:0000000000000688 .LASF230
     /tmp/cc88gCBR.s:7343   .debug_str:000000000000062c .LASF231
     /tmp/cc88gCBR.s:7401   .debug_str:00000000000007a0 .LASF232
     /tmp/cc88gCBR.s:81     .text:0000000000000048 .LVL0
     /tmp/cc88gCBR.s:109    .text:0000000000000074 .LVL1
     /tmp/cc88gCBR.s:130    .text:0000000000000090 .LVL2
     /tmp/cc88gCBR.s:147    .text:0000000000000098 .LVL4
     /tmp/cc88gCBR.s:529    .text:00000000000001a4 .LVL12
     /tmp/cc88gCBR.s:613    .text:00000000000001e4 .LVL17
     /tmp/cc88gCBR.s:687    .text:0000000000000224 .LVL22
     /tmp/cc88gCBR.s:866    .text:00000000000002b4 .LVL35
     /tmp/cc88gCBR.s:1014   .text:000000000000033c .LVL46
     /tmp/cc88gCBR.s:1114   .text:000000000000039c .LVL55
     /tmp/cc88gCBR.s:1189   .text:00000000000003cc .LVL61
     /tmp/cc88gCBR.s:1297   .text:0000000000000434 .LVL69
     /tmp/cc88gCBR.s:1322   .text:000000000000044c .LVL72
     /tmp/cc88gCBR.s:1415   .text:000000000000049c .LVL81
     /tmp/cc88gCBR.s:1493   .text:00000000000004e4 .LVL87
     /tmp/cc88gCBR.s:1522   .text:00000000000004f0 .LVL89
     /tmp/cc88gCBR.s:1533   .text:00000000000004fc .LVL91
     /tmp/cc88gCBR.s:1571   .text:0000000000000524 .LVL95
     /tmp/cc88gCBR.s:1606   .text:000000000000053c .LVL97
     /tmp/cc88gCBR.s:1617   .text:0000000000000548 .LVL99
     /tmp/cc88gCBR.s:1712   .text:0000000000000594 .LVL107
     /tmp/cc88gCBR.s:1852   .text:00000000000005f4 .LVL118
     /tmp/cc88gCBR.s:1978   .text:0000000000000654 .LVL126
     /tmp/cc88gCBR.s:142    .text:0000000000000094 .LVL3
     /tmp/cc88gCBR.s:440    .text:000000000000010c .LVL5
     /tmp/cc88gCBR.s:551    .text:00000000000001b0 .LVL13
     /tmp/cc88gCBR.s:625    .text:00000000000001f0 .LVL18
     /tmp/cc88gCBR.s:699    .text:0000000000000228 .LVL23
     /tmp/cc88gCBR.s:739    .text:0000000000000244 .LVL26
     /tmp/cc88gCBR.s:752    .text:000000000000024c .LVL27
     /tmp/cc88gCBR.s:878    .text:00000000000002bc .LVL36
     /tmp/cc88gCBR.s:1029   .text:0000000000000340 .LVL47
     /tmp/cc88gCBR.s:1131   .text:00000000000003a0 .LVL56
     /tmp/cc88gCBR.s:1201   .text:00000000000003d4 .LVL62
     /tmp/cc88gCBR.s:1306   .text:000000000000043c .LVL70
     /tmp/cc88gCBR.s:1432   .text:00000000000004a0 .LVL82
     /tmp/cc88gCBR.s:1544   .text:0000000000000504 .LVL92
     /tmp/cc88gCBR.s:1628   .text:0000000000000550 .LVL100
     /tmp/cc88gCBR.s:1722   .text:000000000000059c .LVL108
     /tmp/cc88gCBR.s:561    .text:00000000000001b8 .LVL14
     /tmp/cc88gCBR.s:601    .text:00000000000001dc .LVL16
     /tmp/cc88gCBR.s:635    .text:00000000000001f8 .LVL19
     /tmp/cc88gCBR.s:675    .text:000000000000021c .LVL21
     /tmp/cc88gCBR.s:763    .text:0000000000000258 .LVL28
     /tmp/cc88gCBR.s:774    .text:0000000000000260 .LVL29
     /tmp/cc88gCBR.s:785    .text:0000000000000268 .LVL30
     /tmp/cc88gCBR.s:796    .text:0000000000000270 .LVL31
     /tmp/cc88gCBR.s:842    .text:00000000000002a4 .LVL33
     /tmp/cc88gCBR.s:854    .text:00000000000002ac .LVL34
     /tmp/cc88gCBR.s:889    .text:00000000000002c8 .LVL37
     /tmp/cc88gCBR.s:900    .text:00000000000002d0 .LVL38
GAS LISTING /tmp/cc88gCBR.s 			page 75


     /tmp/cc88gCBR.s:911    .text:00000000000002d8 .LVL39
     /tmp/cc88gCBR.s:922    .text:00000000000002e0 .LVL40
     /tmp/cc88gCBR.s:933    .text:00000000000002f0 .LVL42
     /tmp/cc88gCBR.s:990    .text:000000000000032c .LVL44
     /tmp/cc88gCBR.s:1002   .text:0000000000000334 .LVL45
     /tmp/cc88gCBR.s:1039   .text:000000000000034c .LVL48
     /tmp/cc88gCBR.s:1055   .text:0000000000000358 .LVL49
     /tmp/cc88gCBR.s:1062   .text:0000000000000364 .LVL50
     /tmp/cc88gCBR.s:1082   .text:0000000000000388 .LVL52
     /tmp/cc88gCBR.s:1078   .text:0000000000000380 .LVL51
     /tmp/cc88gCBR.s:1098   .text:0000000000000394 .LVL54
     /tmp/cc88gCBR.s:1141   .text:00000000000003ac .LVL57
     /tmp/cc88gCBR.s:1157   .text:00000000000003b8 .LVL58
     /tmp/cc88gCBR.s:1173   .text:00000000000003c4 .LVL60
     /tmp/cc88gCBR.s:1212   .text:00000000000003e0 .LVL63
     /tmp/cc88gCBR.s:1223   .text:00000000000003e8 .LVL64
     /tmp/cc88gCBR.s:1228   .text:00000000000003ec .LVL65
     /tmp/cc88gCBR.s:1273   .text:0000000000000424 .LVL67
     /tmp/cc88gCBR.s:1285   .text:000000000000042c .LVL68
     /tmp/cc88gCBR.s:1317   .text:0000000000000448 .LVL71
     /tmp/cc88gCBR.s:1333   .text:0000000000000454 .LVL73
     /tmp/cc88gCBR.s:1343   .text:0000000000000460 .LVL74
     /tmp/cc88gCBR.s:1350   .text:0000000000000468 .LVL75
     /tmp/cc88gCBR.s:1359   .text:000000000000046c .LVL76
     /tmp/cc88gCBR.s:1370   .text:0000000000000478 .LVL78
     /tmp/cc88gCBR.s:1403   .text:0000000000000494 .LVL80
     /tmp/cc88gCBR.s:1442   .text:00000000000004ac .LVL83
     /tmp/cc88gCBR.s:1458   .text:00000000000004b8 .LVL84
     /tmp/cc88gCBR.s:1475   .text:00000000000004cc .LVL85
     /tmp/cc88gCBR.s:1480   .text:00000000000004d0 .LVL86
     /tmp/cc88gCBR.s:1506   .text:00000000000004e8 .LVL88
     /tmp/cc88gCBR.s:1555   .text:0000000000000510 .LVL93
     /tmp/cc88gCBR.s:1560   .text:0000000000000514 .LVL94
     /tmp/cc88gCBR.s:1594   .text:0000000000000534 .LVL96
     /tmp/cc88gCBR.s:1639   .text:000000000000055c .LVL101
     /tmp/cc88gCBR.s:1664   .text:0000000000000574 .LVL103
     /tmp/cc88gCBR.s:1680   .text:0000000000000580 .LVL104
     /tmp/cc88gCBR.s:1696   .text:000000000000058c .LVL106
     /tmp/cc88gCBR.s:1724   .text:00000000000005a0 .LVL109
     /tmp/cc88gCBR.s:1820   .text:00000000000005e8 .LVL116
     /tmp/cc88gCBR.s:1744   .text:00000000000005b0 .LVL110
     /tmp/cc88gCBR.s:1760   .text:00000000000005bc .LVL111
     /tmp/cc88gCBR.s:1781   .text:00000000000005d8 .LVL113
     /tmp/cc88gCBR.s:1791   .text:00000000000005dc .LVL114
     /tmp/cc88gCBR.s:1804   .text:00000000000005e0 .LVL115
     /tmp/cc88gCBR.s:453    .text:000000000000011c .LVL6
     /tmp/cc88gCBR.s:473    .text:000000000000012c .LVL7
     /tmp/cc88gCBR.s:489    .text:0000000000000138 .LVL8
     /tmp/cc88gCBR.s:1836   .text:00000000000005ec .LVL117
     /tmp/cc88gCBR.s:704    .text:000000000000022c .LVL24
     /tmp/cc88gCBR.s:727    .text:000000000000023c .LVL25
     /tmp/cc88gCBR.s:1928   .text:0000000000000634 .LVL122
     /tmp/cc88gCBR.s:1946   .text:0000000000000640 .LVL123
     /tmp/cc88gCBR.s:1962   .text:000000000000064c .LVL125
     /tmp/cc88gCBR.s:1992   .text:0000000000000660 .LVL128
     /tmp/cc88gCBR.s:1996   .text:0000000000000668 .LVL129
     /tmp/cc88gCBR.s:1894   .text:000000000000061c .LVL120
GAS LISTING /tmp/cc88gCBR.s 			page 76


     /tmp/cc88gCBR.s:1907   .text:0000000000000628 .LVL121
     /tmp/cc88gCBR.s:2073   .debug_info:0000000000000000 .Ldebug_info0
     /tmp/cc88gCBR.s:1986   .text:0000000000000654 .LBB164
     /tmp/cc88gCBR.s:2003   .text:0000000000000674 .LBE164
     /tmp/cc88gCBR.s:2013   .text:0000000000000678 .LBB165
     /tmp/cc88gCBR.s:2043   .text:00000000000006d4 .LBE165
     /tmp/cc88gCBR.s:134    .text:0000000000000090 .LBB183
     /tmp/cc88gCBR.s:150    .text:000000000000009c .LBE183
     /tmp/cc88gCBR.s:154    .text:000000000000009c .LBB421
     /tmp/cc88gCBR.s:161    .text:00000000000000a4 .LBE421
     /tmp/cc88gCBR.s:165    .text:00000000000000a4 .LBB422
     /tmp/cc88gCBR.s:174    .text:00000000000000ac .LBE422
     /tmp/cc88gCBR.s:178    .text:00000000000000ac .LBB423
     /tmp/cc88gCBR.s:189    .text:00000000000000b4 .LBE423
     /tmp/cc88gCBR.s:193    .text:00000000000000b4 .LBB424
     /tmp/cc88gCBR.s:206    .text:00000000000000bc .LBE424
     /tmp/cc88gCBR.s:210    .text:00000000000000bc .LBB425
     /tmp/cc88gCBR.s:225    .text:00000000000000c4 .LBE425
     /tmp/cc88gCBR.s:229    .text:00000000000000c4 .LBB426
     /tmp/cc88gCBR.s:246    .text:00000000000000cc .LBE426
     /tmp/cc88gCBR.s:250    .text:00000000000000cc .LBB427
     /tmp/cc88gCBR.s:269    .text:00000000000000d4 .LBE427
     /tmp/cc88gCBR.s:273    .text:00000000000000d4 .LBB428
     /tmp/cc88gCBR.s:294    .text:00000000000000dc .LBE428
     /tmp/cc88gCBR.s:298    .text:00000000000000dc .LBB429
     /tmp/cc88gCBR.s:321    .text:00000000000000e4 .LBE429
     /tmp/cc88gCBR.s:325    .text:00000000000000e4 .LBB430
     /tmp/cc88gCBR.s:350    .text:00000000000000ec .LBE430
     /tmp/cc88gCBR.s:354    .text:00000000000000ec .LBB431
     /tmp/cc88gCBR.s:381    .text:00000000000000f4 .LBE431
     /tmp/cc88gCBR.s:385    .text:00000000000000f4 .LBB432
     /tmp/cc88gCBR.s:414    .text:00000000000000fc .LBE432
     /tmp/cc88gCBR.s:418    .text:00000000000000fc .LBB433
     /tmp/cc88gCBR.s:1871   .text:00000000000005f4 .LBE433
     /tmp/cc88gCBR.s:435    .text:0000000000000104 .LBB198
     /tmp/cc88gCBR.s:531    .text:00000000000001a4 .LBE198
     /tmp/cc88gCBR.s:1826   .text:00000000000005e8 .LBB207
     /tmp/cc88gCBR.s:1856   .text:00000000000005f4 .LBE207
     /tmp/cc88gCBR.s:1574   .text:0000000000000524 .LBE234
     /tmp/cc88gCBR.s:1610   .text:000000000000053c .LBB241
     /tmp/cc88gCBR.s:1620   .text:0000000000000548 .LBE241
     /tmp/cc88gCBR.s:1496   .text:00000000000004e4 .LBE251
     /tmp/cc88gCBR.s:1526   .text:00000000000004f0 .LBB258
     /tmp/cc88gCBR.s:1536   .text:00000000000004fc .LBE258
     /tmp/cc88gCBR.s:2051   .gcc_except_table:0000000000000000 .LLSDA51

UNDEFINED SYMBOLS
framePointer
_ZN8KConsole7outBuffE
_ZN8KConsole3putEc
CONSOLE_STATUS
_ZN8KConsole6getCntEv
_ZN8KConsole3getEv
CONSOLE_TX_DATA
_ZN16KMemoryAllocator9mem_allocEm
_ZN16KMemoryAllocator8mem_freeEPv
_ZN4KPCB12createThreadEPFvPvES0_S0_
GAS LISTING /tmp/cc88gCBR.s 			page 77


_ZN10KScheduler3putEP4KPCB
_ZN4KPCB7runningE
_ZN4KPCB7counterE
_ZN4KPCB8dispatchEv
_ZN10KSemaphore15createSemaphoreEm
_ZN10KSemaphore5blockEv
_ZN10KSemaphore7deblockEv
_ZN6KSleep3addEm
_ZN8KConsole6inBuffE
_ZN4KPCB16timeSliceCounterE
_ZN6KSleep6removeEv
plic_claim
plic_complete
CONSOLE_RX_DATA
__gxx_personality_v0
