GAS LISTING /tmp/cc88gCBR.s 			page 1


   1              		.file	"KRiscv.cpp"
   2              		.option pic
   3              		.option norelax
   4              		.text
   5              	.Ltext0:
   6              		.align	2
   7              		.globl	_ZN6KRiscv10popSppSpieEv
   9              	_ZN6KRiscv10popSppSpieEv:
  10              	.LFB50:
  11              		.file 1 "src/KRiscv.cpp"
   1:src/KRiscv.cpp **** //
   2:src/KRiscv.cpp **** // Created by os on 6/22/22.
   3:src/KRiscv.cpp **** //
   4:src/KRiscv.cpp **** 
   5:src/KRiscv.cpp **** #include "../h/KRiscv.hpp"
   6:src/KRiscv.cpp **** #include "../lib/hw.h"
   7:src/KRiscv.cpp **** #include "../h/KMemoryAllocator.hpp"
   8:src/KRiscv.cpp **** #include "../h/KPCB.hpp"
   9:src/KRiscv.cpp **** #include "../h/KSemaphore.hpp"
  10:src/KRiscv.cpp **** #include "../h/KSleep.hpp"
  11:src/KRiscv.cpp **** #include "../h/KConsole.hpp"
  12:src/KRiscv.cpp **** 
  13:src/KRiscv.cpp **** constexpr uint64 TIMER = 0x8000000000000001UL;
  14:src/KRiscv.cpp **** constexpr uint64 EXT_HW = 0x8000000000000009UL;
  15:src/KRiscv.cpp **** constexpr uint64 ILL_INSTR = 2;
  16:src/KRiscv.cpp **** constexpr uint64 ERR_RD = 5;
  17:src/KRiscv.cpp **** constexpr uint64 ERR_WR = 7;
  18:src/KRiscv.cpp **** constexpr uint64 ECALL_USER = 8;
  19:src/KRiscv.cpp **** constexpr uint64 ECALL_SYS = 9;
  20:src/KRiscv.cpp **** 
  21:src/KRiscv.cpp **** constexpr uint64 MEM_ALLOC = 0x01;
  22:src/KRiscv.cpp **** constexpr uint64 MEM_FREE = 0x02;
  23:src/KRiscv.cpp **** constexpr uint64 USER_MODE = 0x05;
  24:src/KRiscv.cpp **** constexpr uint64 THREAD_CREATE_CPP = 0x10;
  25:src/KRiscv.cpp **** constexpr uint64 THREAD_CREATE = 0x11;
  26:src/KRiscv.cpp **** constexpr uint64 THREAD_EXIT = 0x12;
  27:src/KRiscv.cpp **** constexpr uint64 THREAD_DISPATCH = 0x13;
  28:src/KRiscv.cpp **** constexpr uint64 SEM_OPEN = 0x21;
  29:src/KRiscv.cpp **** constexpr uint64 SEM_CLOSE = 0x22;
  30:src/KRiscv.cpp **** constexpr uint64 SEM_WAIT = 0x23;
  31:src/KRiscv.cpp **** constexpr uint64 SEM_SIGNAL = 0x24;
  32:src/KRiscv.cpp **** constexpr uint64 TIME_SLEEP = 0x31;
  33:src/KRiscv.cpp **** constexpr uint64 GETC = 0x41;
  34:src/KRiscv.cpp **** constexpr uint64 PUTC = 0x42;
  35:src/KRiscv.cpp **** 
  36:src/KRiscv.cpp **** void KRiscv::popSppSpie() {
  12              		.loc 1 36 27
  13              		.cfi_startproc
  14 0000 130101FF 		addi	sp,sp,-16
  15              		.cfi_def_cfa_offset 16
  16 0004 23348100 		sd	s0,8(sp)
  17              		.cfi_offset 8, -8
  18 0008 13040101 		addi	s0,sp,16
  19              		.cfi_def_cfa 8, 0
  37:src/KRiscv.cpp ****     asm volatile ("csrw sepc, ra");
  20              		.loc 1 37 5
  21              		.loc 1 37 35 is_stmt 0
GAS LISTING /tmp/cc88gCBR.s 			page 2


  22              	#APP
  23              	# 37 "src/KRiscv.cpp" 1
  38              	    asm volatile ("sret");
  24              		csrw sepc, ra
  25              	# 0 "" 2
  26              		.loc 1 38 5 is_stmt 1
  27              		.loc 1 38 26 is_stmt 0
  28              	# 38 "src/KRiscv.cpp" 1
  39              	}
  29              		sret
  30              	# 0 "" 2
  31              		.loc 1 39 1
  32              	#NO_APP
  33 0014 03348100 		ld	s0,8(sp)
  34              		.cfi_restore 8
  35              		.cfi_def_cfa 2, 16
  36 0018 13010101 		addi	sp,sp,16
  37              		.cfi_def_cfa_offset 0
  38 001c 67800000 		jr	ra
  39              		.cfi_endproc
  40              	.LFE50:
  42              		.align	2
  43              		.globl	_ZN6KRiscv16interruptHandlerEv
  45              	_ZN6KRiscv16interruptHandlerEv:
  46              	.LFB51:
  40:src/KRiscv.cpp **** 
  41:src/KRiscv.cpp **** void KRiscv::interruptHandler() {
  47              		.loc 1 41 33 is_stmt 1
  48              		.cfi_startproc
  49              		.cfi_personality 0x9b,DW.ref.__gxx_personality_v0
  50              		.cfi_lsda 0x1b,.LLSDA51
  51 0020 130101F1 		addi	sp,sp,-240
  52              		.cfi_def_cfa_offset 240
  53 0024 2334110E 		sd	ra,232(sp)
  54 0028 2330810E 		sd	s0,224(sp)
  55 002c 233C910C 		sd	s1,216(sp)
  56 0030 2338210D 		sd	s2,208(sp)
  57 0034 2334310D 		sd	s3,200(sp)
  58              		.cfi_offset 1, -8
  59              		.cfi_offset 8, -16
  60              		.cfi_offset 9, -24
  61              		.cfi_offset 18, -32
  62              		.cfi_offset 19, -40
  63 0038 1304010F 		addi	s0,sp,240
  64              		.cfi_def_cfa 8, 0
  42:src/KRiscv.cpp ****     uint64 scause = r_scause();
  65              		.loc 1 42 5
  66              	.LBB159:
  67              	.LBB160:
  68              		.file 2 "src/../h/KRiscv.hpp"
   1:src/../h/KRiscv.hpp **** //
   2:src/../h/KRiscv.hpp **** // Created by os on 6/22/22.
   3:src/../h/KRiscv.hpp **** //
   4:src/../h/KRiscv.hpp **** 
   5:src/../h/KRiscv.hpp **** #ifndef PROJECT_BASE_V1_1_KRISCV_HPP
   6:src/../h/KRiscv.hpp **** #define PROJECT_BASE_V1_1_KRISCV_HPP
   7:src/../h/KRiscv.hpp **** 
GAS LISTING /tmp/cc88gCBR.s 			page 3


   8:src/../h/KRiscv.hpp **** #include "../lib/hw.h"
   9:src/../h/KRiscv.hpp **** 
  10:src/../h/KRiscv.hpp **** extern uint64 framePointer;
  11:src/../h/KRiscv.hpp **** 
  12:src/../h/KRiscv.hpp **** class KRiscv {
  13:src/../h/KRiscv.hpp **** public:
  14:src/../h/KRiscv.hpp **** 
  15:src/../h/KRiscv.hpp ****     static void popSppSpie();
  16:src/../h/KRiscv.hpp ****     static void interruptHandler();
  17:src/../h/KRiscv.hpp ****     static void interrupt();
  18:src/../h/KRiscv.hpp ****     static void pushRegisters();
  19:src/../h/KRiscv.hpp ****     static void popRegisters();
  20:src/../h/KRiscv.hpp **** 
  21:src/../h/KRiscv.hpp ****     static uint64 r_scause();
  22:src/../h/KRiscv.hpp ****     static void w_scause(uint64 scause);
  23:src/../h/KRiscv.hpp ****     static uint64 r_sepc();
  24:src/../h/KRiscv.hpp ****     static void w_sepc(uint64 sepc);
  25:src/../h/KRiscv.hpp ****     static uint64 r_stvec();
  26:src/../h/KRiscv.hpp ****     static void w_stvec(uint64 stvec);
  27:src/../h/KRiscv.hpp ****     static uint64 r_stval();
  28:src/../h/KRiscv.hpp ****     static void w_stval(uint64 stval);
  29:src/../h/KRiscv.hpp **** 
  30:src/../h/KRiscv.hpp ****     enum BitMaskSip {
  31:src/../h/KRiscv.hpp ****         SIP_SSIP = (1 << 1),
  32:src/../h/KRiscv.hpp ****         SIP_STIP = (1 << 5),
  33:src/../h/KRiscv.hpp ****         SIP_SEIP = (1 << 9)
  34:src/../h/KRiscv.hpp ****     };
  35:src/../h/KRiscv.hpp **** 
  36:src/../h/KRiscv.hpp ****     static void ms_sip(uint64 mask);
  37:src/../h/KRiscv.hpp ****     static void mc_sip(uint64 mask);
  38:src/../h/KRiscv.hpp ****     static uint64 r_sip();
  39:src/../h/KRiscv.hpp ****     static void w_sip(uint64 sip);
  40:src/../h/KRiscv.hpp **** 
  41:src/../h/KRiscv.hpp ****     enum BitMaskSstatus {
  42:src/../h/KRiscv.hpp ****         SSTATUS_SIE = (1 << 1),
  43:src/../h/KRiscv.hpp ****         SSTATUS_SPIE = (1 << 5),
  44:src/../h/KRiscv.hpp ****         SSTATUS_SPP = (1 << 8)
  45:src/../h/KRiscv.hpp ****     };
  46:src/../h/KRiscv.hpp **** 
  47:src/../h/KRiscv.hpp ****     static void ms_sstatus(uint64 mask);
  48:src/../h/KRiscv.hpp ****     static void mc_sstatus(uint64 mask);
  49:src/../h/KRiscv.hpp ****     static uint64 r_sstatus();
  50:src/../h/KRiscv.hpp ****     static void w_sstatus(uint64 sstatus);
  51:src/../h/KRiscv.hpp **** 
  52:src/../h/KRiscv.hpp **** };
  53:src/../h/KRiscv.hpp **** 
  54:src/../h/KRiscv.hpp **** inline uint64 KRiscv::r_scause() {
  55:src/../h/KRiscv.hpp ****     uint64 volatile scause;
  69              		.loc 2 55 5
  56:src/../h/KRiscv.hpp ****     asm volatile ("csrr %0, scause" : "=r"(scause));
  70              		.loc 2 56 5
  71              		.loc 2 56 52 is_stmt 0
  72              	#APP
  73              	# 56 "src/../h/KRiscv.hpp" 1
  57              	    return scause;
  74              		csrr a5, scause
  75              	# 0 "" 2
GAS LISTING /tmp/cc88gCBR.s 			page 4


  76              	#NO_APP
  77 0040 233CF4F0 		sd	a5,-232(s0)
  78              		.loc 2 57 5 is_stmt 1
  79              		.loc 2 57 12 is_stmt 0
  80 0044 033784F1 		ld	a4,-232(s0)
  81              	.LVL0:
  82              	.LBE160:
  83              	.LBE159:
  43:src/KRiscv.cpp ****     if (scause == ECALL_SYS || scause == ECALL_USER) {
  84              		.loc 1 43 5 is_stmt 1
  85              	.LBB161:
  86              		.loc 1 43 29 is_stmt 0
  87 0048 930687FF 		addi	a3,a4,-8
  88              		.loc 1 43 5
  89 004c 93071000 		li	a5,1
  90 0050 63F0D704 		bleu	a3,a5,.L39
  91              	.LBE161:
  44:src/KRiscv.cpp ****         uint64 name;
  45:src/KRiscv.cpp ****         asm volatile("mv %0, a0" : "=r" (name));
  46:src/KRiscv.cpp ****         if (name == MEM_ALLOC) {
  47:src/KRiscv.cpp ****             uint64 sizeBlock;
  48:src/KRiscv.cpp ****             asm volatile("ld a1, 11*8(%0)" :: "r"(framePointer));
  49:src/KRiscv.cpp ****             asm volatile("mv %0, a1" : "=r" (sizeBlock));
  50:src/KRiscv.cpp ****             void* res = KMemoryAllocator::mem_alloc(sizeBlock);
  51:src/KRiscv.cpp ****             asm volatile("mv a0, %0" : : "r" (res));
  52:src/KRiscv.cpp ****             asm volatile("sd a0, 10*8(%0)" :: "r"(framePointer));
  53:src/KRiscv.cpp ****             KRiscv::w_sepc(KRiscv::r_sepc() + 4);
  54:src/KRiscv.cpp ****         }
  55:src/KRiscv.cpp ****         else if (name == MEM_FREE) {
  56:src/KRiscv.cpp ****             uint64 addr;
  57:src/KRiscv.cpp ****             asm volatile("ld a1, 11*8(%0)" :: "r"(framePointer));
  58:src/KRiscv.cpp ****             asm volatile("mv %0, a1" : "=r"(addr));
  59:src/KRiscv.cpp ****             int res = KMemoryAllocator::mem_free((void*)addr);
  60:src/KRiscv.cpp ****             asm volatile("mv a0, %0" : : "r"(res));
  61:src/KRiscv.cpp ****             asm volatile("sd a0, 10*8(%0)" :: "r"(framePointer));
  62:src/KRiscv.cpp ****             KRiscv::w_sepc(KRiscv::r_sepc() + 4);
  63:src/KRiscv.cpp ****         }
  64:src/KRiscv.cpp ****         else if (name == USER_MODE) {
  65:src/KRiscv.cpp ****             KRiscv::mc_sstatus(KRiscv::SSTATUS_SPP);
  66:src/KRiscv.cpp ****             KRiscv::w_sepc(KRiscv::r_sepc() + 4);
  67:src/KRiscv.cpp ****         }
  68:src/KRiscv.cpp ****         else if (name == THREAD_CREATE_CPP) {
  69:src/KRiscv.cpp ****             KPCB** rucka = nullptr;
  70:src/KRiscv.cpp ****             void (*fja)(void*) = nullptr;
  71:src/KRiscv.cpp ****             void* args = nullptr;
  72:src/KRiscv.cpp ****             void* stack = nullptr;
  73:src/KRiscv.cpp ****             asm volatile("ld a1, 11*8(%0)" :: "r"(framePointer));
  74:src/KRiscv.cpp ****             asm volatile("mv %0, a1" : "=r"(rucka));
  75:src/KRiscv.cpp ****             asm volatile("ld a2, 12*8(%0)" :: "r"(framePointer));
  76:src/KRiscv.cpp ****             asm volatile("mv %0, a2" : "=r"(fja));
  77:src/KRiscv.cpp ****             asm volatile("ld a3, 13*8(%0)" :: "r"(framePointer));
  78:src/KRiscv.cpp ****             asm volatile("mv %0, a3" : "=r"(args));
  79:src/KRiscv.cpp ****             asm volatile("ld a4, 14*8(%0)" :: "r"(framePointer));
  80:src/KRiscv.cpp ****             asm volatile("mv %0, a4" : "=r"(stack));
  81:src/KRiscv.cpp ****             *rucka = KPCB::createThread(fja, args, stack);
  82:src/KRiscv.cpp ****             if (*rucka != nullptr) asm volatile("li a0, 0");
  83:src/KRiscv.cpp ****             else asm volatile("li a0, -1");
GAS LISTING /tmp/cc88gCBR.s 			page 5


  84:src/KRiscv.cpp ****             asm volatile("sd a0, 10*8(%0)" :: "r"(framePointer));
  85:src/KRiscv.cpp ****             KRiscv::w_sepc(KRiscv::r_sepc() + 4);
  86:src/KRiscv.cpp ****         }
  87:src/KRiscv.cpp ****         else if (name == THREAD_CREATE) {
  88:src/KRiscv.cpp ****             KPCB** rucka = nullptr;
  89:src/KRiscv.cpp ****             void (*fja)(void*) = nullptr;
  90:src/KRiscv.cpp ****             void* args = nullptr;
  91:src/KRiscv.cpp ****             void* stack = nullptr;
  92:src/KRiscv.cpp ****             asm volatile("ld a1, 11*8(%0)" :: "r"(framePointer));
  93:src/KRiscv.cpp ****             asm volatile("mv %0, a1" : "=r"(rucka));
  94:src/KRiscv.cpp ****             asm volatile("ld a2, 12*8(%0)" :: "r"(framePointer));
  95:src/KRiscv.cpp ****             asm volatile("mv %0, a2" : "=r"(fja));
  96:src/KRiscv.cpp ****             asm volatile("ld a3, 13*8(%0)" :: "r"(framePointer));
  97:src/KRiscv.cpp ****             asm volatile("mv %0, a3" : "=r"(args));
  98:src/KRiscv.cpp ****             asm volatile("ld a4, 14*8(%0)" :: "r"(framePointer));
  99:src/KRiscv.cpp ****             asm volatile("mv %0, a4" : "=r"(stack));
 100:src/KRiscv.cpp ****             *rucka = KPCB::createThread(fja, args, stack);
 101:src/KRiscv.cpp ****             if (*rucka != nullptr) {
 102:src/KRiscv.cpp ****                 (*rucka)->startIt();
 103:src/KRiscv.cpp ****                 asm volatile("li a0, 0");
 104:src/KRiscv.cpp ****             }
 105:src/KRiscv.cpp ****             else asm volatile("li a0, -1");
 106:src/KRiscv.cpp ****             asm volatile("sd a0, 10*8(%0)" :: "r"(framePointer));
 107:src/KRiscv.cpp ****             KRiscv::w_sepc(KRiscv::r_sepc() + 4);
 108:src/KRiscv.cpp ****         }
 109:src/KRiscv.cpp ****         else if (name == THREAD_EXIT) {
 110:src/KRiscv.cpp ****             uint64 sepc = r_sepc() + 4;
 111:src/KRiscv.cpp ****             uint64 sstatus = r_sstatus();
 112:src/KRiscv.cpp ****             KPCB::running->setFinished(true);
 113:src/KRiscv.cpp ****             KPCB::dispatch();
 114:src/KRiscv.cpp ****             w_sstatus(sstatus);
 115:src/KRiscv.cpp ****             w_sepc(sepc);
 116:src/KRiscv.cpp ****         }
 117:src/KRiscv.cpp ****         else if (name == THREAD_DISPATCH) {
 118:src/KRiscv.cpp ****             uint64 sepc = r_sepc() + 4;
 119:src/KRiscv.cpp ****             uint64 sstatus = r_sstatus();
 120:src/KRiscv.cpp ****             KPCB::dispatch();
 121:src/KRiscv.cpp ****             w_sstatus(sstatus);
 122:src/KRiscv.cpp ****             w_sepc(sepc);
 123:src/KRiscv.cpp ****         }
 124:src/KRiscv.cpp ****         else if (name == SEM_OPEN) {
 125:src/KRiscv.cpp ****             KSemaphore** rucka = nullptr;
 126:src/KRiscv.cpp ****             unsigned init;
 127:src/KRiscv.cpp ****             asm volatile("ld a1, 11*8(%0)" :: "r"(framePointer));
 128:src/KRiscv.cpp ****             asm volatile("mv %0, a1" : "=r"(rucka));
 129:src/KRiscv.cpp ****             asm volatile("ld a2, 12*8(%0)" :: "r"(framePointer));
 130:src/KRiscv.cpp ****             asm volatile("mv %0, a2" : "=r"(init));
 131:src/KRiscv.cpp ****             *rucka = KSemaphore::createSemaphore(init);
 132:src/KRiscv.cpp ****             if (*rucka != nullptr) asm volatile("li a0, 0");
 133:src/KRiscv.cpp ****             else asm volatile("li a0, -1");
 134:src/KRiscv.cpp ****             asm volatile("sd a0, 10*8(%0)" :: "r"(framePointer));
 135:src/KRiscv.cpp ****             KRiscv::w_sepc(KRiscv::r_sepc() + 4);
 136:src/KRiscv.cpp ****         }
 137:src/KRiscv.cpp ****         else if (name == SEM_CLOSE) {
 138:src/KRiscv.cpp ****             KSemaphore* rucka = nullptr;
 139:src/KRiscv.cpp ****             asm volatile("ld a1, 11*8(%0)" :: "r"(framePointer));
 140:src/KRiscv.cpp ****             asm volatile("mv %0, a1" : "=r"(rucka));
GAS LISTING /tmp/cc88gCBR.s 			page 6


 141:src/KRiscv.cpp ****             delete rucka;
 142:src/KRiscv.cpp ****             KRiscv::w_sepc(KRiscv::r_sepc() + 4);
 143:src/KRiscv.cpp ****         }
 144:src/KRiscv.cpp ****         else if (name == SEM_WAIT) {
 145:src/KRiscv.cpp ****             uint64 sepc = r_sepc() + 4;
 146:src/KRiscv.cpp ****             uint64 sstatus = r_sstatus();
 147:src/KRiscv.cpp ****             KSemaphore* rucka = nullptr;
 148:src/KRiscv.cpp ****             asm volatile("ld a1, 11*8(%0)" :: "r"(framePointer));
 149:src/KRiscv.cpp ****             asm volatile("mv %0, a1" : "=r"(rucka));
 150:src/KRiscv.cpp ****             if (rucka) rucka->wait();
 151:src/KRiscv.cpp ****             w_sstatus(sstatus);
 152:src/KRiscv.cpp ****             w_sepc(sepc);
 153:src/KRiscv.cpp ****         }
 154:src/KRiscv.cpp ****         else if (name == SEM_SIGNAL) {
 155:src/KRiscv.cpp ****             KSemaphore* rucka = nullptr;
 156:src/KRiscv.cpp ****             asm volatile("ld a1, 11*8(%0)" :: "r"(framePointer));
 157:src/KRiscv.cpp ****             asm volatile("mv %0, a1" : "=r"(rucka));
 158:src/KRiscv.cpp ****             if (rucka) rucka->signal();
 159:src/KRiscv.cpp ****             KRiscv::w_sepc(KRiscv::r_sepc() + 4);
 160:src/KRiscv.cpp ****         }
 161:src/KRiscv.cpp ****         else if (name == TIME_SLEEP) {
 162:src/KRiscv.cpp ****             time_t t;
 163:src/KRiscv.cpp ****             asm volatile("ld a1, 11*8(%0)" :: "r"(framePointer));
 164:src/KRiscv.cpp ****             asm volatile("mv %0, a1" : "=r"(t));
 165:src/KRiscv.cpp ****             KSleep::add(t);
 166:src/KRiscv.cpp ****             uint64 sepc = KRiscv::r_sepc() + 4;
 167:src/KRiscv.cpp ****             uint64 sstatus = KRiscv::r_sstatus();
 168:src/KRiscv.cpp ****             KPCB::dispatch();
 169:src/KRiscv.cpp ****             KRiscv::w_sstatus(sstatus);
 170:src/KRiscv.cpp ****             KRiscv::w_sepc(sepc);
 171:src/KRiscv.cpp ****         }
 172:src/KRiscv.cpp ****         else if (name == GETC) {
 173:src/KRiscv.cpp ****             uint64 framePointerGETC = framePointer;
 174:src/KRiscv.cpp ****             uint64 sepc = KRiscv::r_sepc() + 4;
 175:src/KRiscv.cpp ****             uint64 sstatus = KRiscv::r_sstatus();
 176:src/KRiscv.cpp ****             char c = KConsole::inBuff->get();
 177:src/KRiscv.cpp ****             asm volatile("mv a0, %0" :: "r"(c));
 178:src/KRiscv.cpp ****             asm volatile("sd a0, 10*8(%0)" :: "r"(framePointerGETC));
 179:src/KRiscv.cpp ****             KRiscv::w_sstatus(framePointerGETC);
 180:src/KRiscv.cpp ****             KRiscv::w_sstatus(sstatus);
 181:src/KRiscv.cpp ****             KRiscv::w_sepc(sepc);
 182:src/KRiscv.cpp ****         }
 183:src/KRiscv.cpp ****         else if (name == PUTC) {
 184:src/KRiscv.cpp ****             char c;
 185:src/KRiscv.cpp ****             asm volatile("ld a1, 11*8(%0)" :: "r"(framePointer));
 186:src/KRiscv.cpp ****             asm volatile("mv %0, a1" : "=r"(c));
 187:src/KRiscv.cpp ****             uint64 sepc = KRiscv::r_sepc() + 4;
 188:src/KRiscv.cpp ****             uint64 sstatus = KRiscv::r_sstatus();
 189:src/KRiscv.cpp ****             KConsole::outBuff->put(c);
 190:src/KRiscv.cpp ****             while ((*(char*)CONSOLE_STATUS & CONSOLE_TX_STATUS_BIT)
 191:src/KRiscv.cpp ****                    && KConsole::outBuff->getCnt() > 0)
 192:src/KRiscv.cpp ****                 *(char*)CONSOLE_TX_DATA = KConsole::outBuff->get();
 193:src/KRiscv.cpp ****             KRiscv::w_sstatus(sstatus);
 194:src/KRiscv.cpp ****             KRiscv::w_sepc(sepc);
 195:src/KRiscv.cpp ****         }
 196:src/KRiscv.cpp ****     }
 197:src/KRiscv.cpp ****     else if (scause == TIMER) {
GAS LISTING /tmp/cc88gCBR.s 			page 7


  92              		.loc 1 197 10 is_stmt 1
  93              	.LBB436:
  94              	.LBB162:
  95 0054 9307F0FF 		li	a5,-1
  96 0058 9397F703 		slli	a5,a5,63
  97 005c 93871700 		addi	a5,a5,1
  98 0060 630AF758 		beq	a4,a5,.L40
  99              	.LBE162:
 100              	.LBE436:
 198:src/KRiscv.cpp ****         KPCB::timeSliceCounter++;
 199:src/KRiscv.cpp ****         KSleep::remove();
 200:src/KRiscv.cpp ****         if (KPCB::timeSliceCounter >= KPCB::running->TIME_SLICE) {
 201:src/KRiscv.cpp ****             uint64 sepc = r_sepc();
 202:src/KRiscv.cpp ****             uint64 sstatus = r_sstatus();
 203:src/KRiscv.cpp ****             KPCB::dispatch();
 204:src/KRiscv.cpp ****             w_sstatus(sstatus);
 205:src/KRiscv.cpp ****             w_sepc(sepc);
 206:src/KRiscv.cpp ****         }
 207:src/KRiscv.cpp ****         mc_sip(SIP_SSIP);
 208:src/KRiscv.cpp ****     }
 209:src/KRiscv.cpp ****     else if (scause == EXT_HW) {
 101              		.loc 1 209 10
 102              	.LBB437:
 103              	.LBB182:
 104              	.LBB163:
 105 0064 9307F0FF 		li	a5,-1
 106 0068 9397F703 		slli	a5,a5,63
 107 006c 93879700 		addi	a5,a5,9
 108 0070 6302F75E 		beq	a4,a5,.L41
 109              	.LVL1:
 110              	.L3:
 111              	.LBE163:
 112              	.LBE182:
 113              	.LBE437:
 210:src/KRiscv.cpp ****         //console_handler();
 211:src/KRiscv.cpp ****         int consID = plic_claim();
 212:src/KRiscv.cpp ****         if (consID == CONSOLE_IRQ) {
 213:src/KRiscv.cpp ****             while ((*(char*)CONSOLE_STATUS & CONSOLE_RX_STATUS_BIT)
 214:src/KRiscv.cpp ****                 && KConsole::inBuff->getCnt() < KConsole::BUFF_SIZE)
 215:src/KRiscv.cpp ****                 KConsole::inBuff->put(*(char*)CONSOLE_RX_DATA);
 216:src/KRiscv.cpp ****         }
 217:src/KRiscv.cpp ****         plic_complete(consID);
 218:src/KRiscv.cpp ****     }
 219:src/KRiscv.cpp ****     else if (scause == ERR_RD) {
 220:src/KRiscv.cpp ****         /*
 221:src/KRiscv.cpp ****         printStringRadi("Error: read\n");
 222:src/KRiscv.cpp ****         printIntRadi(KRiscv::r_sstatus());
 223:src/KRiscv.cpp ****         printIntRadi(KRiscv::r_sepc());
 224:src/KRiscv.cpp ****         printIntRadi(KRiscv::r_stval());
 225:src/KRiscv.cpp ****          */
 226:src/KRiscv.cpp ****     }
 227:src/KRiscv.cpp ****     else if (scause == ERR_WR) {
 228:src/KRiscv.cpp ****         /*
 229:src/KRiscv.cpp ****         printStringRadi("Error: read\n");
 230:src/KRiscv.cpp ****         printIntRadi(KRiscv::r_sstatus());
 231:src/KRiscv.cpp ****         printIntRadi(KRiscv::r_sepc());
 232:src/KRiscv.cpp ****         printIntRadi(KRiscv::r_stval());
GAS LISTING /tmp/cc88gCBR.s 			page 8


 233:src/KRiscv.cpp ****          */
 234:src/KRiscv.cpp ****     }
 235:src/KRiscv.cpp ****     else if (scause == ILL_INSTR) {
 236:src/KRiscv.cpp ****         /*
 237:src/KRiscv.cpp ****         printStringRadi("Error: read\n");
 238:src/KRiscv.cpp ****         printIntRadi(KRiscv::r_sstatus());
 239:src/KRiscv.cpp ****         printIntRadi(KRiscv::r_sepc());
 240:src/KRiscv.cpp ****         printIntRadi(KRiscv::r_stval());
 241:src/KRiscv.cpp ****          */
 242:src/KRiscv.cpp ****     }
 243:src/KRiscv.cpp **** 
 244:src/KRiscv.cpp **** }...
 114              		.loc 1 244 1 is_stmt 0
 115 0074 8330810E 		ld	ra,232(sp)
 116              		.cfi_remember_state
 117              		.cfi_restore 1
 118 0078 0334010E 		ld	s0,224(sp)
 119              		.cfi_restore 8
 120              		.cfi_def_cfa 2, 240
 121 007c 8334810D 		ld	s1,216(sp)
 122              		.cfi_restore 9
 123 0080 0339010D 		ld	s2,208(sp)
 124              		.cfi_restore 18
 125 0084 8339810C 		ld	s3,200(sp)
 126              		.cfi_restore 19
 127 0088 1301010F 		addi	sp,sp,240
 128              		.cfi_def_cfa_offset 0
 129 008c 67800000 		jr	ra
 130              	.LVL2:
 131              	.L39:
 132              		.cfi_restore_state
 133              	.LBB438:
 134              	.LBB183:
  44:src/KRiscv.cpp ****         uint64 name;
 135              		.loc 1 44 9 is_stmt 1
  45:src/KRiscv.cpp ****         asm volatile("mv %0, a0" : "=r" (name));
 136              		.loc 1 45 9
  45:src/KRiscv.cpp ****         asm volatile("mv %0, a0" : "=r" (name));
 137              		.loc 1 45 48 is_stmt 0
 138              	#APP
 139              	# 45 "src/KRiscv.cpp" 1
 140              		mv a5, a0
 141              	# 0 "" 2
 142              	.LVL3:
  46:src/KRiscv.cpp ****         if (name == MEM_ALLOC) {
 143              		.loc 1 46 9 is_stmt 1
 144              	#NO_APP
 145              	.LBB184:
 146 0094 13071000 		li	a4,1
 147              	.LVL4:
 148 0098 6386E710 		beq	a5,a4,.L42
 149              	.LBE184:
 150              	.LBE183:
 151              	.LBE438:
  55:src/KRiscv.cpp ****         else if (name == MEM_FREE) {
 152              		.loc 1 55 14
 153              	.LBB439:
GAS LISTING /tmp/cc88gCBR.s 			page 9


 154              	.LBB421:
 155              	.LBB408:
 156              	.LBB185:
 157 009c 13072000 		li	a4,2
 158 00a0 6382E714 		beq	a5,a4,.L43
 159              	.LBE185:
 160              	.LBE408:
 161              	.LBE421:
 162              	.LBE439:
  64:src/KRiscv.cpp ****         else if (name == USER_MODE) {
 163              		.loc 1 64 14
 164              	.LBB440:
 165              	.LBB422:
 166              	.LBB409:
 167              	.LBB390:
 168              	.LBB186:
 169 00a4 13075000 		li	a4,5
 170 00a8 638EE716 		beq	a5,a4,.L44
 171              	.LBE186:
 172              	.LBE390:
 173              	.LBE409:
 174              	.LBE422:
 175              	.LBE440:
  68:src/KRiscv.cpp ****         else if (name == THREAD_CREATE_CPP) {
 176              		.loc 1 68 14
 177              	.LBB441:
 178              	.LBB423:
 179              	.LBB410:
 180              	.LBB391:
 181              	.LBB373:
 182              	.LBB187:
 183 00ac 13070001 		li	a4,16
 184 00b0 638AE718 		beq	a5,a4,.L45
 185              	.LBE187:
 186              	.LBE373:
 187              	.LBE391:
 188              	.LBE410:
 189              	.LBE423:
 190              	.LBE441:
  87:src/KRiscv.cpp ****         else if (name == THREAD_CREATE) {
 191              		.loc 1 87 14
 192              	.LBB442:
 193              	.LBB424:
 194              	.LBB411:
 195              	.LBB392:
 196              	.LBB374:
 197              	.LBB356:
 198              	.LBB188:
 199 00b4 13071001 		li	a4,17
 200 00b8 638EE71E 		beq	a5,a4,.L46
 201              	.LBE188:
 202              	.LBE356:
 203              	.LBE374:
 204              	.LBE392:
 205              	.LBE411:
 206              	.LBE424:
 207              	.LBE442:
GAS LISTING /tmp/cc88gCBR.s 			page 10


 109:src/KRiscv.cpp ****         else if (name == THREAD_EXIT) {
 208              		.loc 1 109 14
 209              	.LBB443:
 210              	.LBB425:
 211              	.LBB412:
 212              	.LBB393:
 213              	.LBB375:
 214              	.LBB357:
 215              	.LBB341:
 216              	.LBB189:
 217 00bc 13072001 		li	a4,18
 218 00c0 638EE726 		beq	a5,a4,.L47
 219              	.LBE189:
 220              	.LBE341:
 221              	.LBE357:
 222              	.LBE375:
 223              	.LBE393:
 224              	.LBE412:
 225              	.LBE425:
 226              	.LBE443:
 117:src/KRiscv.cpp ****         else if (name == THREAD_DISPATCH) {
 227              		.loc 1 117 14
 228              	.LBB444:
 229              	.LBB426:
 230              	.LBB413:
 231              	.LBB394:
 232              	.LBB376:
 233              	.LBB358:
 234              	.LBB342:
 235              	.LBB325:
 236              	.LBB190:
 237 00c4 13073001 		li	a4,19
 238 00c8 638AE72C 		beq	a5,a4,.L48
 239              	.LBE190:
 240              	.LBE325:
 241              	.LBE342:
 242              	.LBE358:
 243              	.LBE376:
 244              	.LBE394:
 245              	.LBE413:
 246              	.LBE426:
 247              	.LBE444:
 124:src/KRiscv.cpp ****         else if (name == SEM_OPEN) {
 248              		.loc 1 124 14
 249              	.LBB445:
 250              	.LBB427:
 251              	.LBB414:
 252              	.LBB395:
 253              	.LBB377:
 254              	.LBB359:
 255              	.LBB343:
 256              	.LBB326:
 257              	.LBB306:
 258              	.LBB191:
 259 00cc 13071002 		li	a4,33
 260 00d0 638EE72E 		beq	a5,a4,.L49
 261              	.LBE191:
GAS LISTING /tmp/cc88gCBR.s 			page 11


 262              	.LBE306:
 263              	.LBE326:
 264              	.LBE343:
 265              	.LBE359:
 266              	.LBE377:
 267              	.LBE395:
 268              	.LBE414:
 269              	.LBE427:
 270              	.LBE445:
 137:src/KRiscv.cpp ****         else if (name == SEM_CLOSE) {
 271              		.loc 1 137 14
 272              	.LBB446:
 273              	.LBB428:
 274              	.LBB415:
 275              	.LBB396:
 276              	.LBB378:
 277              	.LBB360:
 278              	.LBB344:
 279              	.LBB327:
 280              	.LBB307:
 281              	.LBB290:
 282              	.LBB192:
 283 00d4 13072002 		li	a4,34
 284 00d8 638EE734 		beq	a5,a4,.L50
 285              	.LBE192:
 286              	.LBE290:
 287              	.LBE307:
 288              	.LBE327:
 289              	.LBE344:
 290              	.LBE360:
 291              	.LBE378:
 292              	.LBE396:
 293              	.LBE415:
 294              	.LBE428:
 295              	.LBE446:
 144:src/KRiscv.cpp ****         else if (name == SEM_WAIT) {
 296              		.loc 1 144 14
 297              	.LBB447:
 298              	.LBB429:
 299              	.LBB416:
 300              	.LBB397:
 301              	.LBB379:
 302              	.LBB361:
 303              	.LBB345:
 304              	.LBB328:
 305              	.LBB308:
 306              	.LBB291:
 307              	.LBB279:
 308              	.LBB193:
 309 00dc 13073002 		li	a4,35
 310 00e0 638EE73A 		beq	a5,a4,.L51
 311              	.LBE193:
 312              	.LBE279:
 313              	.LBE291:
 314              	.LBE308:
 315              	.LBE328:
 316              	.LBE345:
GAS LISTING /tmp/cc88gCBR.s 			page 12


 317              	.LBE361:
 318              	.LBE379:
 319              	.LBE397:
 320              	.LBE416:
 321              	.LBE429:
 322              	.LBE447:
 154:src/KRiscv.cpp ****         else if (name == SEM_SIGNAL) {
 323              		.loc 1 154 14
 324              	.LBB448:
 325              	.LBB430:
 326              	.LBB417:
 327              	.LBB398:
 328              	.LBB380:
 329              	.LBB362:
 330              	.LBB346:
 331              	.LBB329:
 332              	.LBB309:
 333              	.LBB292:
 334              	.LBB280:
 335              	.LBB260:
 336              	.LBB194:
 337 00e4 13074002 		li	a4,36
 338 00e8 638AE740 		beq	a5,a4,.L52
 339              	.LBE194:
 340              	.LBE260:
 341              	.LBE280:
 342              	.LBE292:
 343              	.LBE309:
 344              	.LBE329:
 345              	.LBE346:
 346              	.LBE362:
 347              	.LBE380:
 348              	.LBE398:
 349              	.LBE417:
 350              	.LBE430:
 351              	.LBE448:
 161:src/KRiscv.cpp ****         else if (name == TIME_SLEEP) {
 352              		.loc 1 161 14
 353              	.LBB449:
 354              	.LBB431:
 355              	.LBB418:
 356              	.LBB399:
 357              	.LBB381:
 358              	.LBB363:
 359              	.LBB347:
 360              	.LBB330:
 361              	.LBB310:
 362              	.LBB293:
 363              	.LBB281:
 364              	.LBB261:
 365              	.LBB243:
 366              	.LBB195:
 367 00ec 13071003 		li	a4,49
 368 00f0 638CE744 		beq	a5,a4,.L53
 369              	.LBE195:
 370              	.LBE243:
 371              	.LBE261:
GAS LISTING /tmp/cc88gCBR.s 			page 13


 372              	.LBE281:
 373              	.LBE293:
 374              	.LBE310:
 375              	.LBE330:
 376              	.LBE347:
 377              	.LBE363:
 378              	.LBE381:
 379              	.LBE399:
 380              	.LBE418:
 381              	.LBE431:
 382              	.LBE449:
 172:src/KRiscv.cpp ****         else if (name == GETC) {
 383              		.loc 1 172 14
 384              	.LBB450:
 385              	.LBB432:
 386              	.LBB419:
 387              	.LBB400:
 388              	.LBB382:
 389              	.LBB364:
 390              	.LBB348:
 391              	.LBB331:
 392              	.LBB311:
 393              	.LBB294:
 394              	.LBB282:
 395              	.LBB262:
 396              	.LBB244:
 397              	.LBB231:
 398              	.LBB196:
 399 00f4 13071004 		li	a4,65
 400 00f8 638EE748 		beq	a5,a4,.L54
 401              	.LBE196:
 402              	.LBE231:
 403              	.LBE244:
 404              	.LBE262:
 405              	.LBE282:
 406              	.LBE294:
 407              	.LBE311:
 408              	.LBE331:
 409              	.LBE348:
 410              	.LBE364:
 411              	.LBE382:
 412              	.LBE400:
 413              	.LBE419:
 414              	.LBE432:
 415              	.LBE450:
 183:src/KRiscv.cpp ****         else if (name == PUTC) {
 416              		.loc 1 183 14
 417              	.LBB451:
 418              	.LBB433:
 419              	.LBB420:
 420              	.LBB401:
 421              	.LBB383:
 422              	.LBB365:
 423              	.LBB349:
 424              	.LBB332:
 425              	.LBB312:
 426              	.LBB295:
GAS LISTING /tmp/cc88gCBR.s 			page 14


 427              	.LBB283:
 428              	.LBB263:
 429              	.LBB245:
 430              	.LBB232:
 431              	.LBB220:
 432              	.LBB197:
 433 00fc 13072004 		li	a4,66
 434 0100 E39AE7F6 		bne	a5,a4,.L3
 435              	.LBB198:
 184:src/KRiscv.cpp ****             char c;
 436              		.loc 1 184 13
 185:src/KRiscv.cpp ****             asm volatile("ld a1, 11*8(%0)" :: "r"(framePointer));
 437              		.loc 1 185 13
 185:src/KRiscv.cpp ****             asm volatile("ld a1, 11*8(%0)" :: "r"(framePointer));
 438              		.loc 1 185 65 is_stmt 0
 439 0104 97070000 		la	a5,framePointer
 439      83B70700 
 440              	.LVL5:
 441 010c 83B70700 		ld	a5,0(a5)
 442              	#APP
 443              	# 185 "src/KRiscv.cpp" 1
 186:src/KRiscv.cpp ****             asm volatile("mv %0, a1" : "=r"(c));
 444              		ld a1, 11*8(a5)
 445              	# 0 "" 2
 446              		.loc 1 186 13 is_stmt 1
 186:src/KRiscv.cpp ****             asm volatile("mv %0, a1" : "=r"(c));
 447              		.loc 1 186 48 is_stmt 0
 448              	# 186 "src/KRiscv.cpp" 1
 449              		mv a1, a1
 450              	# 0 "" 2
 451              	#NO_APP
 452 0118 93F5F50F 		andi	a1,a1,0xff
 453              	.LVL6:
 187:src/KRiscv.cpp ****             uint64 sepc = KRiscv::r_sepc() + 4;
 454              		.loc 1 187 13 is_stmt 1
 455              	.LBB199:
 456              	.LBB200:
  58:src/../h/KRiscv.hpp **** }
  59:src/../h/KRiscv.hpp **** 
  60:src/../h/KRiscv.hpp **** inline void KRiscv::w_scause(uint64 scause) {
  61:src/../h/KRiscv.hpp ****     asm volatile ("csrw scause, %0" :: "r"(scause));
  62:src/../h/KRiscv.hpp **** }
  63:src/../h/KRiscv.hpp **** 
  64:src/../h/KRiscv.hpp **** inline uint64 KRiscv::r_sepc() {
  65:src/../h/KRiscv.hpp ****     uint64 volatile sepc;
 457              		.loc 2 65 5
  66:src/../h/KRiscv.hpp ****     asm volatile ("csrr %0, sepc" : "=r"(sepc));
 458              		.loc 2 66 5
 459              		.loc 2 66 48 is_stmt 0
 460              	#APP
 461              	# 66 "src/../h/KRiscv.hpp" 1
  67              	    return sepc;
 462              		csrr a5, sepc
 463              	# 0 "" 2
 464              	#NO_APP
 465 0120 233CF4FA 		sd	a5,-72(s0)
 466              		.loc 2 67 5 is_stmt 1
GAS LISTING /tmp/cc88gCBR.s 			page 15


 467              		.loc 2 67 12 is_stmt 0
 468 0124 833484FB 		ld	s1,-72(s0)
 469              	.LBE200:
 470              	.LBE199:
 187:src/KRiscv.cpp ****             uint64 sepc = KRiscv::r_sepc() + 4;
 471              		.loc 1 187 46
 472 0128 93844400 		addi	s1,s1,4
 473              	.LVL7:
 188:src/KRiscv.cpp ****             uint64 sstatus = KRiscv::r_sstatus();
 474              		.loc 1 188 13 is_stmt 1
 475              	.LBB201:
 476              	.LBB202:
  68:src/../h/KRiscv.hpp **** }
  69:src/../h/KRiscv.hpp **** 
  70:src/../h/KRiscv.hpp **** inline void KRiscv::w_sepc(uint64 sepc) {
  71:src/../h/KRiscv.hpp ****     asm volatile ("csrw sepc, %0" :: "r"(sepc));
  72:src/../h/KRiscv.hpp **** }
  73:src/../h/KRiscv.hpp **** 
  74:src/../h/KRiscv.hpp **** inline uint64 KRiscv::r_stvec() {
  75:src/../h/KRiscv.hpp ****     uint64 volatile stvec;
  76:src/../h/KRiscv.hpp ****     asm volatile ("csrr %0, stvec" : "=r"(stvec));
  77:src/../h/KRiscv.hpp ****     return stvec;
  78:src/../h/KRiscv.hpp **** }
  79:src/../h/KRiscv.hpp **** 
  80:src/../h/KRiscv.hpp **** inline void KRiscv::w_stvec(uint64 stvec) {
  81:src/../h/KRiscv.hpp ****     asm volatile ("csrw stvec, %0" :: "r"(stvec));
  82:src/../h/KRiscv.hpp **** }
  83:src/../h/KRiscv.hpp **** 
  84:src/../h/KRiscv.hpp **** inline uint64 KRiscv::r_stval() {
  85:src/../h/KRiscv.hpp ****     uint64 volatile stval;
  86:src/../h/KRiscv.hpp ****     asm volatile ("csrr %0, stval" : "=r"(stval));
  87:src/../h/KRiscv.hpp ****     return stval;
  88:src/../h/KRiscv.hpp **** }
  89:src/../h/KRiscv.hpp **** 
  90:src/../h/KRiscv.hpp **** inline void KRiscv::w_stval(uint64 stval) {
  91:src/../h/KRiscv.hpp ****     asm volatile ("csrw stval, %0" :: "r"(stval));
  92:src/../h/KRiscv.hpp **** }
  93:src/../h/KRiscv.hpp **** 
  94:src/../h/KRiscv.hpp **** inline void KRiscv::ms_sip(uint64 mask) {
  95:src/../h/KRiscv.hpp ****     asm volatile ("csrs sip, %0" :: "r"(mask));
  96:src/../h/KRiscv.hpp **** }
  97:src/../h/KRiscv.hpp **** 
  98:src/../h/KRiscv.hpp **** inline void KRiscv::mc_sip(uint64 mask) {
  99:src/../h/KRiscv.hpp ****     asm volatile ("csrc sip, %0" :: "r"(mask));
 100:src/../h/KRiscv.hpp **** }
 101:src/../h/KRiscv.hpp **** 
 102:src/../h/KRiscv.hpp **** inline uint64 KRiscv::r_sip() {
 103:src/../h/KRiscv.hpp ****     uint64 volatile sip;
 104:src/../h/KRiscv.hpp ****     asm volatile ("csrr %0, sip" : "=r"(sip));
 105:src/../h/KRiscv.hpp ****     return sip;
 106:src/../h/KRiscv.hpp **** }
 107:src/../h/KRiscv.hpp **** 
 108:src/../h/KRiscv.hpp **** inline void KRiscv::w_sip(uint64 sip) {
 109:src/../h/KRiscv.hpp ****     asm volatile ("csrw sip, %0" :: "r"(sip));
 110:src/../h/KRiscv.hpp **** }
 111:src/../h/KRiscv.hpp **** 
 112:src/../h/KRiscv.hpp **** inline void KRiscv::ms_sstatus(uint64 mask) {
GAS LISTING /tmp/cc88gCBR.s 			page 16


 113:src/../h/KRiscv.hpp ****     asm volatile ("csrs sstatus, %0" :: "r"(mask));
 114:src/../h/KRiscv.hpp **** }
 115:src/../h/KRiscv.hpp **** 
 116:src/../h/KRiscv.hpp **** inline void KRiscv::mc_sstatus(uint64 mask) {
 117:src/../h/KRiscv.hpp ****     asm volatile ("csrc sstatus, %0" :: "r"(mask));
 118:src/../h/KRiscv.hpp **** }
 119:src/../h/KRiscv.hpp **** 
 120:src/../h/KRiscv.hpp **** inline uint64 KRiscv::r_sstatus() {
 121:src/../h/KRiscv.hpp ****     uint64 volatile sstatus;
 477              		.loc 2 121 5
 122:src/../h/KRiscv.hpp ****     asm volatile ("csrr %0, sstatus" : "=r"(sstatus));
 478              		.loc 2 122 5
 479              		.loc 2 122 54 is_stmt 0
 480              	#APP
 481              	# 122 "src/../h/KRiscv.hpp" 1
 123              	    return sstatus;
 482              		csrr a5, sstatus
 483              	# 0 "" 2
 484              	#NO_APP
 485 0130 2338F4FA 		sd	a5,-80(s0)
 486              		.loc 2 123 5 is_stmt 1
 487              		.loc 2 123 12 is_stmt 0
 488 0134 033904FB 		ld	s2,-80(s0)
 489              	.LVL8:
 490              	.LBE202:
 491              	.LBE201:
 189:src/KRiscv.cpp ****             KConsole::outBuff->put(c);
 492              		.loc 1 189 13 is_stmt 1
 189:src/KRiscv.cpp ****             KConsole::outBuff->put(c);
 493              		.loc 1 189 35 is_stmt 0
 494 0138 97070000 		la	a5,_ZN8KConsole7outBuffE
 494      83B70700 
 495 0140 03B50700 		ld	a0,0(a5)
 496              	.LEHB0:
 497 0144 97000000 		call	_ZN8KConsole3putEc@plt
 497      E7800000 
 498              	.LVL9:
 499              	.L33:
 190:src/KRiscv.cpp ****             while ((*(char*)CONSOLE_STATUS & CONSOLE_TX_STATUS_BIT)
 500              		.loc 1 190 13 is_stmt 1
 191:src/KRiscv.cpp ****                    && KConsole::outBuff->getCnt() > 0)
 501              		.loc 1 191 20
 190:src/KRiscv.cpp ****             while ((*(char*)CONSOLE_STATUS & CONSOLE_TX_STATUS_BIT)
 502              		.loc 1 190 21 is_stmt 0
 503 014c 97070000 		la	a5,CONSOLE_STATUS
 503      83B70700 
 504 0154 83B70700 		ld	a5,0(a5)
 505 0158 83C70700 		lbu	a5,0(a5)
 191:src/KRiscv.cpp ****                    && KConsole::outBuff->getCnt() > 0)
 506              		.loc 1 191 20
 507 015c 93F70702 		andi	a5,a5,32
 508 0160 63840748 		beqz	a5,.L32
 191:src/KRiscv.cpp ****                    && KConsole::outBuff->getCnt() > 0)
 509              		.loc 1 191 48 discriminator 1
 510 0164 97070000 		la	a5,_ZN8KConsole7outBuffE
 510      83B70700 
 511 016c 03B50700 		ld	a0,0(a5)
GAS LISTING /tmp/cc88gCBR.s 			page 17


 512 0170 97000000 		call	_ZN8KConsole6getCntEv@plt
 512      E7800000 
 513              	.LVL10:
 191:src/KRiscv.cpp ****                    && KConsole::outBuff->getCnt() > 0)
 514              		.loc 1 191 20 discriminator 1
 515 0178 6358A046 		blez	a0,.L32
 192:src/KRiscv.cpp ****                 *(char*)CONSOLE_TX_DATA = KConsole::outBuff->get();
 516              		.loc 1 192 17 is_stmt 1
 192:src/KRiscv.cpp ****                 *(char*)CONSOLE_TX_DATA = KConsole::outBuff->get();
 517              		.loc 1 192 65 is_stmt 0
 518 017c 97070000 		la	a5,_ZN8KConsole7outBuffE
 518      83B70700 
 519 0184 03B50700 		ld	a0,0(a5)
 520 0188 97000000 		call	_ZN8KConsole3getEv@plt
 520      E7800000 
 521              	.LVL11:
 192:src/KRiscv.cpp ****                 *(char*)CONSOLE_TX_DATA = KConsole::outBuff->get();
 522              		.loc 1 192 17
 523 0190 97070000 		la	a5,CONSOLE_TX_DATA
 523      83B70700 
 524 0198 83B70700 		ld	a5,0(a5)
 192:src/KRiscv.cpp ****                 *(char*)CONSOLE_TX_DATA = KConsole::outBuff->get();
 525              		.loc 1 192 41
 526 019c 2380A700 		sb	a0,0(a5)
 190:src/KRiscv.cpp ****             while ((*(char*)CONSOLE_STATUS & CONSOLE_TX_STATUS_BIT)
 527              		.loc 1 190 13
 528 01a0 6FF0DFFA 		j	.L33
 529              	.LVL12:
 530              	.L42:
 531              	.LBE198:
 532              	.LBE197:
 533              	.LBE220:
 534              	.LBE232:
 535              	.LBE245:
 536              	.LBE263:
 537              	.LBE283:
 538              	.LBE295:
 539              	.LBE312:
 540              	.LBE332:
 541              	.LBE349:
 542              	.LBE365:
 543              	.LBE383:
 544              	.LBE401:
 545              	.LBB402:
  47:src/KRiscv.cpp ****             uint64 sizeBlock;
 546              		.loc 1 47 13 is_stmt 1
  48:src/KRiscv.cpp ****             asm volatile("ld a1, 11*8(%0)" :: "r"(framePointer));
 547              		.loc 1 48 13
  48:src/KRiscv.cpp ****             asm volatile("ld a1, 11*8(%0)" :: "r"(framePointer));
 548              		.loc 1 48 65 is_stmt 0
 549 01a4 97040000 		la	s1,framePointer
 549      83B40400 
 550 01ac 83B70400 		ld	a5,0(s1)
 551              	.LVL13:
 552              	#APP
 553              	# 48 "src/KRiscv.cpp" 1
  49:src/KRiscv.cpp ****             asm volatile("mv %0, a1" : "=r" (sizeBlock));
GAS LISTING /tmp/cc88gCBR.s 			page 18


 554              		ld a1, 11*8(a5)
 555              	# 0 "" 2
 556              		.loc 1 49 13 is_stmt 1
  49:src/KRiscv.cpp ****             asm volatile("mv %0, a1" : "=r" (sizeBlock));
 557              		.loc 1 49 57 is_stmt 0
 558              	# 49 "src/KRiscv.cpp" 1
 559              		mv a0, a1
 560              	# 0 "" 2
 561              	.LVL14:
  50:src/KRiscv.cpp ****             void* res = KMemoryAllocator::mem_alloc(sizeBlock);
 562              		.loc 1 50 13 is_stmt 1
  50:src/KRiscv.cpp ****             void* res = KMemoryAllocator::mem_alloc(sizeBlock);
 563              		.loc 1 50 52 is_stmt 0
 564              	#NO_APP
 565 01b8 97000000 		call	_ZN16KMemoryAllocator9mem_allocEm@plt
 565      E7800000 
 566              	.LVL15:
  51:src/KRiscv.cpp ****             asm volatile("mv a0, %0" : : "r" (res));
 567              		.loc 1 51 13 is_stmt 1
  51:src/KRiscv.cpp ****             asm volatile("mv a0, %0" : : "r" (res));
 568              		.loc 1 51 52 is_stmt 0
 569              	#APP
 570              	# 51 "src/KRiscv.cpp" 1
  52:src/KRiscv.cpp ****             asm volatile("sd a0, 10*8(%0)" :: "r"(framePointer));
 571              		mv a0, a0
 572              	# 0 "" 2
 573              		.loc 1 52 13 is_stmt 1
  52:src/KRiscv.cpp ****             asm volatile("sd a0, 10*8(%0)" :: "r"(framePointer));
 574              		.loc 1 52 65 is_stmt 0
 575              	#NO_APP
 576 01c4 83B70400 		ld	a5,0(s1)
 577              	#APP
 578              	# 52 "src/KRiscv.cpp" 1
  53:src/KRiscv.cpp ****             KRiscv::w_sepc(KRiscv::r_sepc() + 4);
 579              		sd a0, 10*8(a5)
 580              	# 0 "" 2
 581              		.loc 1 53 13 is_stmt 1
 582              	#NO_APP
 583              	.LBB403:
 584              	.LBB404:
  65:src/../h/KRiscv.hpp ****     asm volatile ("csrr %0, sepc" : "=r"(sepc));
 585              		.loc 2 65 5
  66:src/../h/KRiscv.hpp ****     return sepc;
 586              		.loc 2 66 5
  66:src/../h/KRiscv.hpp ****     return sepc;
 587              		.loc 2 66 48 is_stmt 0
 588              	#APP
 589              	# 66 "src/../h/KRiscv.hpp" 1
 590              		csrr a5, sepc
 591              	# 0 "" 2
 592              	#NO_APP
 593 01d0 2330F4F2 		sd	a5,-224(s0)
  67:src/../h/KRiscv.hpp **** }
 594              		.loc 2 67 5 is_stmt 1
  67:src/../h/KRiscv.hpp **** }
 595              		.loc 2 67 12 is_stmt 0
 596 01d4 833704F2 		ld	a5,-224(s0)
GAS LISTING /tmp/cc88gCBR.s 			page 19


 597              	.LBE404:
 598              	.LBE403:
  53:src/KRiscv.cpp ****             KRiscv::w_sepc(KRiscv::r_sepc() + 4);
 599              		.loc 1 53 27
 600 01d8 93874700 		addi	a5,a5,4
 601              	.LVL16:
 602              	.LBB405:
 603              	.LBB406:
  71:src/../h/KRiscv.hpp **** }
 604              		.loc 2 71 5 is_stmt 1
  71:src/../h/KRiscv.hpp **** }
 605              		.loc 2 71 48 is_stmt 0
 606              	#APP
 607              	# 71 "src/../h/KRiscv.hpp" 1
  72:src/../h/KRiscv.hpp **** 
 608              		csrw sepc, a5
 609              	# 0 "" 2
 610              		.loc 2 72 1
 611              	#NO_APP
 612 01e0 6FF05FE9 		j	.L3
 613              	.LVL17:
 614              	.L43:
 615              	.LBE406:
 616              	.LBE405:
 617              	.LBE402:
 618              	.LBB407:
 619              	.LBB384:
  56:src/KRiscv.cpp ****             uint64 addr;
 620              		.loc 1 56 13 is_stmt 1
  57:src/KRiscv.cpp ****             asm volatile("ld a1, 11*8(%0)" :: "r"(framePointer));
 621              		.loc 1 57 13
  57:src/KRiscv.cpp ****             asm volatile("ld a1, 11*8(%0)" :: "r"(framePointer));
 622              		.loc 1 57 65 is_stmt 0
 623 01e4 97040000 		la	s1,framePointer
 623      83B40400 
 624 01ec 83B70400 		ld	a5,0(s1)
 625              	.LVL18:
 626              	#APP
 627              	# 57 "src/KRiscv.cpp" 1
  58:src/KRiscv.cpp ****             asm volatile("mv %0, a1" : "=r"(addr));
 628              		ld a1, 11*8(a5)
 629              	# 0 "" 2
 630              		.loc 1 58 13 is_stmt 1
  58:src/KRiscv.cpp ****             asm volatile("mv %0, a1" : "=r"(addr));
 631              		.loc 1 58 51 is_stmt 0
 632              	# 58 "src/KRiscv.cpp" 1
 633              		mv a0, a1
 634              	# 0 "" 2
 635              	.LVL19:
  59:src/KRiscv.cpp ****             int res = KMemoryAllocator::mem_free((void*)addr);
 636              		.loc 1 59 13 is_stmt 1
  59:src/KRiscv.cpp ****             int res = KMemoryAllocator::mem_free((void*)addr);
 637              		.loc 1 59 49 is_stmt 0
 638              	#NO_APP
 639 01f8 97000000 		call	_ZN16KMemoryAllocator8mem_freeEPv@plt
 639      E7800000 
 640              	.LVL20:
GAS LISTING /tmp/cc88gCBR.s 			page 20


  60:src/KRiscv.cpp ****             asm volatile("mv a0, %0" : : "r"(res));
 641              		.loc 1 60 13 is_stmt 1
  60:src/KRiscv.cpp ****             asm volatile("mv a0, %0" : : "r"(res));
 642              		.loc 1 60 51 is_stmt 0
 643              	#APP
 644              	# 60 "src/KRiscv.cpp" 1
  61:src/KRiscv.cpp ****             asm volatile("sd a0, 10*8(%0)" :: "r"(framePointer));
 645              		mv a0, a0
 646              	# 0 "" 2
 647              		.loc 1 61 13 is_stmt 1
  61:src/KRiscv.cpp ****             asm volatile("sd a0, 10*8(%0)" :: "r"(framePointer));
 648              		.loc 1 61 65 is_stmt 0
 649              	#NO_APP
 650 0204 83B70400 		ld	a5,0(s1)
 651              	#APP
 652              	# 61 "src/KRiscv.cpp" 1
  62:src/KRiscv.cpp ****             KRiscv::w_sepc(KRiscv::r_sepc() + 4);
 653              		sd a0, 10*8(a5)
 654              	# 0 "" 2
 655              		.loc 1 62 13 is_stmt 1
 656              	#NO_APP
 657              	.LBB385:
 658              	.LBB386:
  65:src/../h/KRiscv.hpp ****     asm volatile ("csrr %0, sepc" : "=r"(sepc));
 659              		.loc 2 65 5
  66:src/../h/KRiscv.hpp ****     return sepc;
 660              		.loc 2 66 5
  66:src/../h/KRiscv.hpp ****     return sepc;
 661              		.loc 2 66 48 is_stmt 0
 662              	#APP
 663              	# 66 "src/../h/KRiscv.hpp" 1
 664              		csrr a5, sepc
 665              	# 0 "" 2
 666              	#NO_APP
 667 0210 2334F4F2 		sd	a5,-216(s0)
  67:src/../h/KRiscv.hpp **** }
 668              		.loc 2 67 5 is_stmt 1
  67:src/../h/KRiscv.hpp **** }
 669              		.loc 2 67 12 is_stmt 0
 670 0214 833784F2 		ld	a5,-216(s0)
 671              	.LBE386:
 672              	.LBE385:
  62:src/KRiscv.cpp ****             KRiscv::w_sepc(KRiscv::r_sepc() + 4);
 673              		.loc 1 62 27
 674 0218 93874700 		addi	a5,a5,4
 675              	.LVL21:
 676              	.LBB387:
 677              	.LBB388:
  71:src/../h/KRiscv.hpp **** }
 678              		.loc 2 71 5 is_stmt 1
  71:src/../h/KRiscv.hpp **** }
 679              		.loc 2 71 48 is_stmt 0
 680              	#APP
 681              	# 71 "src/../h/KRiscv.hpp" 1
  72:src/../h/KRiscv.hpp **** 
 682              		csrw sepc, a5
 683              	# 0 "" 2
GAS LISTING /tmp/cc88gCBR.s 			page 21


 684              		.loc 2 72 1
 685              	#NO_APP
 686 0220 6FF05FE5 		j	.L3
 687              	.LVL22:
 688              	.L44:
 689              	.LBE388:
 690              	.LBE387:
 691              	.LBE384:
 692              	.LBB389:
  65:src/KRiscv.cpp ****             KRiscv::mc_sstatus(KRiscv::SSTATUS_SPP);
 693              		.loc 1 65 13 is_stmt 1
 694              	.LBB366:
 695              	.LBB367:
 117:src/../h/KRiscv.hpp **** }
 696              		.loc 2 117 5
 117:src/../h/KRiscv.hpp **** }
 697              		.loc 2 117 51 is_stmt 0
 698 0224 93070010 		li	a5,256
 699              	.LVL23:
 700              	#APP
 701              	# 117 "src/../h/KRiscv.hpp" 1
 702              		csrc sstatus, a5
 703              	# 0 "" 2
 704              	.LVL24:
 705              	#NO_APP
 706              	.LBE367:
 707              	.LBE366:
  66:src/KRiscv.cpp ****             KRiscv::w_sepc(KRiscv::r_sepc() + 4);
 708              		.loc 1 66 13 is_stmt 1
 709              	.LBB368:
 710              	.LBB369:
  65:src/../h/KRiscv.hpp ****     asm volatile ("csrr %0, sepc" : "=r"(sepc));
 711              		.loc 2 65 5
  66:src/../h/KRiscv.hpp ****     return sepc;
 712              		.loc 2 66 5
  66:src/../h/KRiscv.hpp ****     return sepc;
 713              		.loc 2 66 48 is_stmt 0
 714              	#APP
 715              	# 66 "src/../h/KRiscv.hpp" 1
 716              		csrr a5, sepc
 717              	# 0 "" 2
 718              	#NO_APP
 719 0230 2338F4F2 		sd	a5,-208(s0)
  67:src/../h/KRiscv.hpp **** }
 720              		.loc 2 67 5 is_stmt 1
  67:src/../h/KRiscv.hpp **** }
 721              		.loc 2 67 12 is_stmt 0
 722 0234 833704F3 		ld	a5,-208(s0)
 723              	.LBE369:
 724              	.LBE368:
  66:src/KRiscv.cpp ****             KRiscv::w_sepc(KRiscv::r_sepc() + 4);
 725              		.loc 1 66 27
 726 0238 93874700 		addi	a5,a5,4
 727              	.LVL25:
 728              	.LBB370:
 729              	.LBB371:
  71:src/../h/KRiscv.hpp **** }
GAS LISTING /tmp/cc88gCBR.s 			page 22


 730              		.loc 2 71 5 is_stmt 1
  71:src/../h/KRiscv.hpp **** }
 731              		.loc 2 71 48 is_stmt 0
 732              	#APP
 733              	# 71 "src/../h/KRiscv.hpp" 1
  72:src/../h/KRiscv.hpp **** 
 734              		csrw sepc, a5
 735              	# 0 "" 2
 736              		.loc 2 72 1
 737              	#NO_APP
 738 0240 6FF05FE3 		j	.L3
 739              	.LVL26:
 740              	.L45:
 741              	.LBE371:
 742              	.LBE370:
 743              	.LBB372:
 744              	.LBB350:
  69:src/KRiscv.cpp ****             KPCB** rucka = nullptr;
 745              		.loc 1 69 13 is_stmt 1
  70:src/KRiscv.cpp ****             void (*fja)(void*) = nullptr;
 746              		.loc 1 70 13
  71:src/KRiscv.cpp ****             void* args = nullptr;
 747              		.loc 1 71 13
  72:src/KRiscv.cpp ****             void* stack = nullptr;
 748              		.loc 1 72 13
  73:src/KRiscv.cpp ****             asm volatile("ld a1, 11*8(%0)" :: "r"(framePointer));
 749              		.loc 1 73 13
  73:src/KRiscv.cpp ****             asm volatile("ld a1, 11*8(%0)" :: "r"(framePointer));
 750              		.loc 1 73 65 is_stmt 0
 751 0244 97070000 		la	a5,framePointer
 751      83B70700 
 752              	.LVL27:
 753 024c 83B70700 		ld	a5,0(a5)
 754              	#APP
 755              	# 73 "src/KRiscv.cpp" 1
  74:src/KRiscv.cpp ****             asm volatile("mv %0, a1" : "=r"(rucka));
 756              		ld a1, 11*8(a5)
 757              	# 0 "" 2
 758              		.loc 1 74 13 is_stmt 1
  74:src/KRiscv.cpp ****             asm volatile("mv %0, a1" : "=r"(rucka));
 759              		.loc 1 74 52 is_stmt 0
 760              	# 74 "src/KRiscv.cpp" 1
 761              		mv s1, a1
 762              	# 0 "" 2
 763              	.LVL28:
  75:src/KRiscv.cpp ****             asm volatile("ld a2, 12*8(%0)" :: "r"(framePointer));
 764              		.loc 1 75 13 is_stmt 1
  75:src/KRiscv.cpp ****             asm volatile("ld a2, 12*8(%0)" :: "r"(framePointer));
 765              		.loc 1 75 65 is_stmt 0
 766              	# 75 "src/KRiscv.cpp" 1
  76:src/KRiscv.cpp ****             asm volatile("mv %0, a2" : "=r"(fja));
 767              		ld a2, 12*8(a5)
 768              	# 0 "" 2
 769              		.loc 1 76 13 is_stmt 1
  76:src/KRiscv.cpp ****             asm volatile("mv %0, a2" : "=r"(fja));
 770              		.loc 1 76 50 is_stmt 0
 771              	# 76 "src/KRiscv.cpp" 1
GAS LISTING /tmp/cc88gCBR.s 			page 23


 772              		mv a0, a2
 773              	# 0 "" 2
 774              	.LVL29:
  77:src/KRiscv.cpp ****             asm volatile("ld a3, 13*8(%0)" :: "r"(framePointer));
 775              		.loc 1 77 13 is_stmt 1
  77:src/KRiscv.cpp ****             asm volatile("ld a3, 13*8(%0)" :: "r"(framePointer));
 776              		.loc 1 77 65 is_stmt 0
 777              	# 77 "src/KRiscv.cpp" 1
  78:src/KRiscv.cpp ****             asm volatile("mv %0, a3" : "=r"(args));
 778              		ld a3, 13*8(a5)
 779              	# 0 "" 2
 780              		.loc 1 78 13 is_stmt 1
  78:src/KRiscv.cpp ****             asm volatile("mv %0, a3" : "=r"(args));
 781              		.loc 1 78 51 is_stmt 0
 782              	# 78 "src/KRiscv.cpp" 1
 783              		mv a1, a3
 784              	# 0 "" 2
 785              	.LVL30:
  79:src/KRiscv.cpp ****             asm volatile("ld a4, 14*8(%0)" :: "r"(framePointer));
 786              		.loc 1 79 13 is_stmt 1
  79:src/KRiscv.cpp ****             asm volatile("ld a4, 14*8(%0)" :: "r"(framePointer));
 787              		.loc 1 79 65 is_stmt 0
 788              	# 79 "src/KRiscv.cpp" 1
  80:src/KRiscv.cpp ****             asm volatile("mv %0, a4" : "=r"(stack));
 789              		ld a4, 14*8(a5)
 790              	# 0 "" 2
 791              		.loc 1 80 13 is_stmt 1
  80:src/KRiscv.cpp ****             asm volatile("mv %0, a4" : "=r"(stack));
 792              		.loc 1 80 52 is_stmt 0
 793              	# 80 "src/KRiscv.cpp" 1
 794              		mv a2, a4
 795              	# 0 "" 2
 796              	.LVL31:
  81:src/KRiscv.cpp ****             *rucka = KPCB::createThread(fja, args, stack);
 797              		.loc 1 81 13 is_stmt 1
  81:src/KRiscv.cpp ****             *rucka = KPCB::createThread(fja, args, stack);
 798              		.loc 1 81 40 is_stmt 0
 799              	#NO_APP
 800 0270 97000000 		call	_ZN4KPCB12createThreadEPFvPvES0_S0_@plt
 800      E7800000 
 801              	.LVL32:
  81:src/KRiscv.cpp ****             *rucka = KPCB::createThread(fja, args, stack);
 802              		.loc 1 81 20
 803 0278 23B0A400 		sd	a0,0(s1)
  82:src/KRiscv.cpp ****             if (*rucka != nullptr) asm volatile("li a0, 0");
 804              		.loc 1 82 13 is_stmt 1
 805 027c 63080502 		beqz	a0,.L10
  82:src/KRiscv.cpp ****             if (*rucka != nullptr) asm volatile("li a0, 0");
 806              		.loc 1 82 36 discriminator 1
  82:src/KRiscv.cpp ****             if (*rucka != nullptr) asm volatile("li a0, 0");
 807              		.loc 1 82 60 is_stmt 0 discriminator 1
 808              	#APP
 809              	# 82 "src/KRiscv.cpp" 1
 810              		li a0, 0
 811              	# 0 "" 2
 812              	#NO_APP
 813              	.L11:
GAS LISTING /tmp/cc88gCBR.s 			page 24


  84:src/KRiscv.cpp ****             asm volatile("sd a0, 10*8(%0)" :: "r"(framePointer));
 814              		.loc 1 84 13 is_stmt 1
  84:src/KRiscv.cpp ****             asm volatile("sd a0, 10*8(%0)" :: "r"(framePointer));
 815              		.loc 1 84 65 is_stmt 0
 816 0284 97070000 		la	a5,framePointer
 816      83B70700 
 817 028c 83B70700 		ld	a5,0(a5)
 818              	#APP
 819              	# 84 "src/KRiscv.cpp" 1
  85:src/KRiscv.cpp ****             KRiscv::w_sepc(KRiscv::r_sepc() + 4);
 820              		sd a0, 10*8(a5)
 821              	# 0 "" 2
 822              		.loc 1 85 13 is_stmt 1
 823              	#NO_APP
 824              	.LBB351:
 825              	.LBB352:
  65:src/../h/KRiscv.hpp ****     asm volatile ("csrr %0, sepc" : "=r"(sepc));
 826              		.loc 2 65 5
  66:src/../h/KRiscv.hpp ****     return sepc;
 827              		.loc 2 66 5
  66:src/../h/KRiscv.hpp ****     return sepc;
 828              		.loc 2 66 48 is_stmt 0
 829              	#APP
 830              	# 66 "src/../h/KRiscv.hpp" 1
 831              		csrr a5, sepc
 832              	# 0 "" 2
 833              	#NO_APP
 834 0298 233CF4F2 		sd	a5,-200(s0)
  67:src/../h/KRiscv.hpp **** }
 835              		.loc 2 67 5 is_stmt 1
  67:src/../h/KRiscv.hpp **** }
 836              		.loc 2 67 12 is_stmt 0
 837 029c 833784F3 		ld	a5,-200(s0)
 838              	.LBE352:
 839              	.LBE351:
  85:src/KRiscv.cpp ****             KRiscv::w_sepc(KRiscv::r_sepc() + 4);
 840              		.loc 1 85 27
 841 02a0 93874700 		addi	a5,a5,4
 842              	.LVL33:
 843              	.LBB353:
 844              	.LBB354:
  71:src/../h/KRiscv.hpp **** }
 845              		.loc 2 71 5 is_stmt 1
  71:src/../h/KRiscv.hpp **** }
 846              		.loc 2 71 48 is_stmt 0
 847              	#APP
 848              	# 71 "src/../h/KRiscv.hpp" 1
  72:src/../h/KRiscv.hpp **** 
 849              		csrw sepc, a5
 850              	# 0 "" 2
 851              		.loc 2 72 1
 852              	#NO_APP
 853 02a8 6FF0DFDC 		j	.L3
 854              	.LVL34:
 855              	.L10:
 856              	.LBE354:
 857              	.LBE353:
GAS LISTING /tmp/cc88gCBR.s 			page 25


  83:src/KRiscv.cpp ****             else asm volatile("li a0, -1");
 858              		.loc 1 83 18 is_stmt 1
  83:src/KRiscv.cpp ****             else asm volatile("li a0, -1");
 859              		.loc 1 83 43 is_stmt 0
 860              	#APP
 861              	# 83 "src/KRiscv.cpp" 1
 862              		li a0, -1
 863              	# 0 "" 2
 864              	#NO_APP
 865 02b0 6FF05FFD 		j	.L11
 866              	.LVL35:
 867              	.L46:
 868              	.LBE350:
 869              	.LBB355:
 870              	.LBB333:
  88:src/KRiscv.cpp ****             KPCB** rucka = nullptr;
 871              		.loc 1 88 13 is_stmt 1
  89:src/KRiscv.cpp ****             void (*fja)(void*) = nullptr;
 872              		.loc 1 89 13
  90:src/KRiscv.cpp ****             void* args = nullptr;
 873              		.loc 1 90 13
  91:src/KRiscv.cpp ****             void* stack = nullptr;
 874              		.loc 1 91 13
  92:src/KRiscv.cpp ****             asm volatile("ld a1, 11*8(%0)" :: "r"(framePointer));
 875              		.loc 1 92 13
  92:src/KRiscv.cpp ****             asm volatile("ld a1, 11*8(%0)" :: "r"(framePointer));
 876              		.loc 1 92 65 is_stmt 0
 877 02b4 97070000 		la	a5,framePointer
 877      83B70700 
 878              	.LVL36:
 879 02bc 83B70700 		ld	a5,0(a5)
 880              	#APP
 881              	# 92 "src/KRiscv.cpp" 1
  93:src/KRiscv.cpp ****             asm volatile("mv %0, a1" : "=r"(rucka));
 882              		ld a1, 11*8(a5)
 883              	# 0 "" 2
 884              		.loc 1 93 13 is_stmt 1
  93:src/KRiscv.cpp ****             asm volatile("mv %0, a1" : "=r"(rucka));
 885              		.loc 1 93 52 is_stmt 0
 886              	# 93 "src/KRiscv.cpp" 1
 887              		mv s1, a1
 888              	# 0 "" 2
 889              	.LVL37:
  94:src/KRiscv.cpp ****             asm volatile("ld a2, 12*8(%0)" :: "r"(framePointer));
 890              		.loc 1 94 13 is_stmt 1
  94:src/KRiscv.cpp ****             asm volatile("ld a2, 12*8(%0)" :: "r"(framePointer));
 891              		.loc 1 94 65 is_stmt 0
 892              	# 94 "src/KRiscv.cpp" 1
  95:src/KRiscv.cpp ****             asm volatile("mv %0, a2" : "=r"(fja));
 893              		ld a2, 12*8(a5)
 894              	# 0 "" 2
 895              		.loc 1 95 13 is_stmt 1
  95:src/KRiscv.cpp ****             asm volatile("mv %0, a2" : "=r"(fja));
 896              		.loc 1 95 50 is_stmt 0
 897              	# 95 "src/KRiscv.cpp" 1
 898              		mv a0, a2
 899              	# 0 "" 2
GAS LISTING /tmp/cc88gCBR.s 			page 26


 900              	.LVL38:
  96:src/KRiscv.cpp ****             asm volatile("ld a3, 13*8(%0)" :: "r"(framePointer));
 901              		.loc 1 96 13 is_stmt 1
  96:src/KRiscv.cpp ****             asm volatile("ld a3, 13*8(%0)" :: "r"(framePointer));
 902              		.loc 1 96 65 is_stmt 0
 903              	# 96 "src/KRiscv.cpp" 1
  97:src/KRiscv.cpp ****             asm volatile("mv %0, a3" : "=r"(args));
 904              		ld a3, 13*8(a5)
 905              	# 0 "" 2
 906              		.loc 1 97 13 is_stmt 1
  97:src/KRiscv.cpp ****             asm volatile("mv %0, a3" : "=r"(args));
 907              		.loc 1 97 51 is_stmt 0
 908              	# 97 "src/KRiscv.cpp" 1
 909              		mv a1, a3
 910              	# 0 "" 2
 911              	.LVL39:
  98:src/KRiscv.cpp ****             asm volatile("ld a4, 14*8(%0)" :: "r"(framePointer));
 912              		.loc 1 98 13 is_stmt 1
  98:src/KRiscv.cpp ****             asm volatile("ld a4, 14*8(%0)" :: "r"(framePointer));
 913              		.loc 1 98 65 is_stmt 0
 914              	# 98 "src/KRiscv.cpp" 1
  99:src/KRiscv.cpp ****             asm volatile("mv %0, a4" : "=r"(stack));
 915              		ld a4, 14*8(a5)
 916              	# 0 "" 2
 917              		.loc 1 99 13 is_stmt 1
  99:src/KRiscv.cpp ****             asm volatile("mv %0, a4" : "=r"(stack));
 918              		.loc 1 99 52 is_stmt 0
 919              	# 99 "src/KRiscv.cpp" 1
 920              		mv a2, a4
 921              	# 0 "" 2
 922              	.LVL40:
 100:src/KRiscv.cpp ****             *rucka = KPCB::createThread(fja, args, stack);
 923              		.loc 1 100 13 is_stmt 1
 100:src/KRiscv.cpp ****             *rucka = KPCB::createThread(fja, args, stack);
 924              		.loc 1 100 40 is_stmt 0
 925              	#NO_APP
 926 02e0 97000000 		call	_ZN4KPCB12createThreadEPFvPvES0_S0_@plt
 926      E7800000 
 927              	.LVL41:
 100:src/KRiscv.cpp ****             *rucka = KPCB::createThread(fja, args, stack);
 928              		.loc 1 100 20
 929 02e8 23B0A400 		sd	a0,0(s1)
 101:src/KRiscv.cpp ****             if (*rucka != nullptr) {
 930              		.loc 1 101 13 is_stmt 1
 931 02ec 63040504 		beqz	a0,.L13
 102:src/KRiscv.cpp ****                 (*rucka)->startIt();
 932              		.loc 1 102 17
 933              	.LVL42:
 934              	.LBB334:
 935              	.LBB335:
 936              		.file 3 "src/../h/KPCB.hpp"
   1:src/../h/KPCB.hpp **** //
   2:src/../h/KPCB.hpp **** // Created by os on 6/22/22.
   3:src/../h/KPCB.hpp **** //
   4:src/../h/KPCB.hpp **** 
   5:src/../h/KPCB.hpp **** #ifndef PROJECT_BASE_V1_1_KPCB_HPP
   6:src/../h/KPCB.hpp **** #define PROJECT_BASE_V1_1_KPCB_HPP
GAS LISTING /tmp/cc88gCBR.s 			page 27


   7:src/../h/KPCB.hpp **** 
   8:src/../h/KPCB.hpp **** #include "../lib/hw.h"
   9:src/../h/KPCB.hpp **** #include "../lib/mem.h"
  10:src/../h/KPCB.hpp **** #include "KScheduler.hpp"
  11:src/../h/KPCB.hpp **** #include "KMemoryAllocator.hpp"
  12:src/../h/KPCB.hpp **** 
  13:src/../h/KPCB.hpp **** class KPCB {
  14:src/../h/KPCB.hpp **** public:
  15:src/../h/KPCB.hpp ****     ~KPCB() { delete[] stack; }
  16:src/../h/KPCB.hpp ****     friend class KScheduler;
  17:src/../h/KPCB.hpp ****     friend class KSemaphore;
  18:src/../h/KPCB.hpp ****     friend class KRiscv;
  19:src/../h/KPCB.hpp ****     friend class KSleep;
  20:src/../h/KPCB.hpp **** 
  21:src/../h/KPCB.hpp ****     void* operator new(size_t size) {
  22:src/../h/KPCB.hpp ****         size_t sizeBlock = (size + 16) / MEM_BLOCK_SIZE + ((size + 16) % MEM_BLOCK_SIZE ? 1 : 0);
  23:src/../h/KPCB.hpp ****         return KMemoryAllocator::mem_alloc(sizeBlock);
  24:src/../h/KPCB.hpp ****         //return __mem_alloc(size);
  25:src/../h/KPCB.hpp ****     }
  26:src/../h/KPCB.hpp ****     void* operator new[](size_t size) {
  27:src/../h/KPCB.hpp ****         size_t sizeBlock = (size + 16) / MEM_BLOCK_SIZE + ((size + 16) % MEM_BLOCK_SIZE ? 1 : 0);
  28:src/../h/KPCB.hpp ****         return KMemoryAllocator::mem_alloc(sizeBlock);
  29:src/../h/KPCB.hpp ****         //return __mem_alloc(size);
  30:src/../h/KPCB.hpp ****     }
  31:src/../h/KPCB.hpp ****     void operator delete(void* addr) {
  32:src/../h/KPCB.hpp ****         KMemoryAllocator::mem_free(addr);
  33:src/../h/KPCB.hpp ****         //__mem_free(addr);
  34:src/../h/KPCB.hpp ****     }
  35:src/../h/KPCB.hpp ****     void operator delete[](void* addr) {
  36:src/../h/KPCB.hpp ****         KMemoryAllocator::mem_free(addr);
  37:src/../h/KPCB.hpp ****         //__mem_free(addr);
  38:src/../h/KPCB.hpp ****     }
  39:src/../h/KPCB.hpp **** 
  40:src/../h/KPCB.hpp ****     using Body = void (*)(void*);
  41:src/../h/KPCB.hpp ****     static KPCB* createThread(Body body, void* args, void* stek);
  42:src/../h/KPCB.hpp ****     static KPCB* createThread(Body body);
  43:src/../h/KPCB.hpp ****     static void yield();
  44:src/../h/KPCB.hpp ****     static void dispatch();
  45:src/../h/KPCB.hpp ****     static KPCB* running;
  46:src/../h/KPCB.hpp ****     static int counter;
  47:src/../h/KPCB.hpp ****     static int statID;
  48:src/../h/KPCB.hpp **** 
  49:src/../h/KPCB.hpp ****     bool isFinished() const { return finished; }
  50:src/../h/KPCB.hpp ****     bool isSleeping() const { return sleeping; }
  51:src/../h/KPCB.hpp ****     bool isWaiting() const { return waiting; }
  52:src/../h/KPCB.hpp ****     bool isErr() const { return err; }
  53:src/../h/KPCB.hpp ****     void setFinished(bool val) {
  54:src/../h/KPCB.hpp ****         if (finished) return;
  55:src/../h/KPCB.hpp ****         finished = val;
  56:src/../h/KPCB.hpp ****         counter--;
  57:src/../h/KPCB.hpp ****     }
  58:src/../h/KPCB.hpp ****     void setSleeping(bool val) { sleeping = val; }
  59:src/../h/KPCB.hpp ****     void setWaiting(bool val) { waiting = val; }
  60:src/../h/KPCB.hpp ****     void setErr(bool val) { err = val; }
  61:src/../h/KPCB.hpp ****     int startIt() {
  62:src/../h/KPCB.hpp ****         if (started) return -1;
 937              		.loc 3 62 9
GAS LISTING /tmp/cc88gCBR.s 			page 28


 938              		.loc 3 62 13 is_stmt 0
 939 02f0 83474503 		lbu	a5,52(a0)
 940              		.loc 3 62 9
 941 02f4 639A0700 		bnez	a5,.L14
  63:src/../h/KPCB.hpp ****         started = true;
 942              		.loc 3 63 9 is_stmt 1
 943              		.loc 3 63 17 is_stmt 0
 944 02f8 93071000 		li	a5,1
 945 02fc 230AF502 		sb	a5,52(a0)
  64:src/../h/KPCB.hpp ****         KScheduler::put(this);
 946              		.loc 3 64 9 is_stmt 1
 947              		.loc 3 64 24 is_stmt 0
 948 0300 97000000 		call	_ZN10KScheduler3putEP4KPCB@plt
 948      E7800000 
 949              	.LVL43:
  65:src/../h/KPCB.hpp ****         return 0;
 950              		.loc 3 65 9 is_stmt 1
 951              	.L14:
 952              	.LBE335:
 953              	.LBE334:
 103:src/KRiscv.cpp ****                 asm volatile("li a0, 0");
 954              		.loc 1 103 17
 103:src/KRiscv.cpp ****                 asm volatile("li a0, 0");
 955              		.loc 1 103 41 is_stmt 0
 956              	#APP
 957              	# 103 "src/KRiscv.cpp" 1
 958              		li a0, 0
 959              	# 0 "" 2
 960              	#NO_APP
 961              	.L15:
 106:src/KRiscv.cpp ****             asm volatile("sd a0, 10*8(%0)" :: "r"(framePointer));
 962              		.loc 1 106 13 is_stmt 1
 106:src/KRiscv.cpp ****             asm volatile("sd a0, 10*8(%0)" :: "r"(framePointer));
 963              		.loc 1 106 65 is_stmt 0
 964 030c 97070000 		la	a5,framePointer
 964      83B70700 
 965 0314 83B70700 		ld	a5,0(a5)
 966              	#APP
 967              	# 106 "src/KRiscv.cpp" 1
 107:src/KRiscv.cpp ****             KRiscv::w_sepc(KRiscv::r_sepc() + 4);
 968              		sd a0, 10*8(a5)
 969              	# 0 "" 2
 970              		.loc 1 107 13 is_stmt 1
 971              	#NO_APP
 972              	.LBB336:
 973              	.LBB337:
  65:src/../h/KRiscv.hpp ****     asm volatile ("csrr %0, sepc" : "=r"(sepc));
 974              		.loc 2 65 5
  66:src/../h/KRiscv.hpp ****     return sepc;
 975              		.loc 2 66 5
  66:src/../h/KRiscv.hpp ****     return sepc;
 976              		.loc 2 66 48 is_stmt 0
 977              	#APP
 978              	# 66 "src/../h/KRiscv.hpp" 1
 979              		csrr a5, sepc
 980              	# 0 "" 2
 981              	#NO_APP
GAS LISTING /tmp/cc88gCBR.s 			page 29


 982 0320 2330F4F4 		sd	a5,-192(s0)
  67:src/../h/KRiscv.hpp **** }
 983              		.loc 2 67 5 is_stmt 1
  67:src/../h/KRiscv.hpp **** }
 984              		.loc 2 67 12 is_stmt 0
 985 0324 833704F4 		ld	a5,-192(s0)
 986              	.LBE337:
 987              	.LBE336:
 107:src/KRiscv.cpp ****             KRiscv::w_sepc(KRiscv::r_sepc() + 4);
 988              		.loc 1 107 27
 989 0328 93874700 		addi	a5,a5,4
 990              	.LVL44:
 991              	.LBB338:
 992              	.LBB339:
  71:src/../h/KRiscv.hpp **** }
 993              		.loc 2 71 5 is_stmt 1
  71:src/../h/KRiscv.hpp **** }
 994              		.loc 2 71 48 is_stmt 0
 995              	#APP
 996              	# 71 "src/../h/KRiscv.hpp" 1
  72:src/../h/KRiscv.hpp **** 
 997              		csrw sepc, a5
 998              	# 0 "" 2
 999              		.loc 2 72 1
 1000              	#NO_APP
 1001 0330 6FF05FD4 		j	.L3
 1002              	.LVL45:
 1003              	.L13:
 1004              	.LBE339:
 1005              	.LBE338:
 105:src/KRiscv.cpp ****             else asm volatile("li a0, -1");
 1006              		.loc 1 105 18 is_stmt 1
 105:src/KRiscv.cpp ****             else asm volatile("li a0, -1");
 1007              		.loc 1 105 43 is_stmt 0
 1008              	#APP
 1009              	# 105 "src/KRiscv.cpp" 1
 1010              		li a0, -1
 1011              	# 0 "" 2
 1012              	#NO_APP
 1013 0338 6FF05FFD 		j	.L15
 1014              	.LVL46:
 1015              	.L47:
 1016              	.LBE333:
 1017              	.LBB340:
 1018              	.LBB313:
 110:src/KRiscv.cpp ****             uint64 sepc = r_sepc() + 4;
 1019              		.loc 1 110 13 is_stmt 1
 1020              	.LBB314:
 1021              	.LBB315:
  65:src/../h/KRiscv.hpp ****     asm volatile ("csrr %0, sepc" : "=r"(sepc));
 1022              		.loc 2 65 5
  66:src/../h/KRiscv.hpp ****     return sepc;
 1023              		.loc 2 66 5
  66:src/../h/KRiscv.hpp ****     return sepc;
 1024              		.loc 2 66 48 is_stmt 0
 1025              	#APP
 1026              	# 66 "src/../h/KRiscv.hpp" 1
GAS LISTING /tmp/cc88gCBR.s 			page 30


 1027              		csrr a5, sepc
 1028              	# 0 "" 2
 1029              	.LVL47:
 1030              	#NO_APP
 1031 0340 2338F4F4 		sd	a5,-176(s0)
  67:src/../h/KRiscv.hpp **** }
 1032              		.loc 2 67 5 is_stmt 1
  67:src/../h/KRiscv.hpp **** }
 1033              		.loc 2 67 12 is_stmt 0
 1034 0344 833404F5 		ld	s1,-176(s0)
 1035              	.LBE315:
 1036              	.LBE314:
 110:src/KRiscv.cpp ****             uint64 sepc = r_sepc() + 4;
 1037              		.loc 1 110 38
 1038 0348 93844400 		addi	s1,s1,4
 1039              	.LVL48:
 111:src/KRiscv.cpp ****             uint64 sstatus = r_sstatus();
 1040              		.loc 1 111 13 is_stmt 1
 1041              	.LBB316:
 1042              	.LBB317:
 121:src/../h/KRiscv.hpp ****     asm volatile ("csrr %0, sstatus" : "=r"(sstatus));
 1043              		.loc 2 121 5
 122:src/../h/KRiscv.hpp ****     return sstatus;
 1044              		.loc 2 122 5
 122:src/../h/KRiscv.hpp ****     return sstatus;
 1045              		.loc 2 122 54 is_stmt 0
 1046              	#APP
 1047              	# 122 "src/../h/KRiscv.hpp" 1
 1048              		csrr a5, sstatus
 1049              	# 0 "" 2
 1050              	#NO_APP
 1051 0350 2334F4F4 		sd	a5,-184(s0)
 1052              		.loc 2 123 5 is_stmt 1
 1053              		.loc 2 123 12 is_stmt 0
 1054 0354 033984F4 		ld	s2,-184(s0)
 1055              	.LVL49:
 1056              	.LBE317:
 1057              	.LBE316:
 112:src/KRiscv.cpp ****             KPCB::running->setFinished(true);
 1058              		.loc 1 112 13 is_stmt 1
 112:src/KRiscv.cpp ****             KPCB::running->setFinished(true);
 1059              		.loc 1 112 39 is_stmt 0
 1060 0358 97070000 		la	a5,_ZN4KPCB7runningE
 1060      83B70700 
 1061 0360 83B70700 		ld	a5,0(a5)
 1062              	.LVL50:
 1063              	.LBB318:
 1064              	.LBB319:
  54:src/../h/KPCB.hpp ****         finished = val;
 1065              		.loc 3 54 9 is_stmt 1
  54:src/../h/KPCB.hpp ****         finished = val;
 1066              		.loc 3 54 13 is_stmt 0
 1067 0364 03C70703 		lbu	a4,48(a5)
  54:src/../h/KPCB.hpp ****         finished = val;
 1068              		.loc 3 54 9
 1069 0368 63100702 		bnez	a4,.L17
  55:src/../h/KPCB.hpp ****         counter--;
GAS LISTING /tmp/cc88gCBR.s 			page 31


 1070              		.loc 3 55 9 is_stmt 1
  55:src/../h/KPCB.hpp ****         counter--;
 1071              		.loc 3 55 18 is_stmt 0
 1072 036c 13071000 		li	a4,1
 1073 0370 2388E702 		sb	a4,48(a5)
  56:src/../h/KPCB.hpp ****     }
 1074              		.loc 3 56 9 is_stmt 1
  56:src/../h/KPCB.hpp ****     }
 1075              		.loc 3 56 16 is_stmt 0
 1076 0374 17070000 		la	a4,_ZN4KPCB7counterE
 1076      03370700 
 1077 037c 83270700 		lw	a5,0(a4)
 1078              	.LVL51:
 1079 0380 9B87F7FF 		addiw	a5,a5,-1
 1080 0384 2320F700 		sw	a5,0(a4)
 1081              	.L17:
 1082              	.LVL52:
 1083              	.LBE319:
 1084              	.LBE318:
 113:src/KRiscv.cpp ****             KPCB::dispatch();
 1085              		.loc 1 113 13 is_stmt 1
 113:src/KRiscv.cpp ****             KPCB::dispatch();
 1086              		.loc 1 113 27 is_stmt 0
 1087 0388 97000000 		call	_ZN4KPCB8dispatchEv@plt
 1087      E7800000 
 1088              	.LVL53:
 114:src/KRiscv.cpp ****             w_sstatus(sstatus);
 1089              		.loc 1 114 13 is_stmt 1
 1090              	.LBB320:
 1091              	.LBB321:
 124:src/../h/KRiscv.hpp **** }
 125:src/../h/KRiscv.hpp **** 
 126:src/../h/KRiscv.hpp **** inline void KRiscv::w_sstatus(uint64 sstatus) {
 127:src/../h/KRiscv.hpp ****     asm volatile ("csrw sstatus, %0" :: "r"(sstatus));
 1092              		.loc 2 127 5
 1093              		.loc 2 127 54 is_stmt 0
 1094              	#APP
 1095              	# 127 "src/../h/KRiscv.hpp" 1
 128              	}
 1096              		csrw sstatus, s2
 1097              	# 0 "" 2
 1098              	.LVL54:
 1099              	#NO_APP
 1100              	.LBE321:
 1101              	.LBE320:
 115:src/KRiscv.cpp ****             w_sepc(sepc);
 1102              		.loc 1 115 13 is_stmt 1
 1103              	.LBB322:
 1104              	.LBB323:
  71:src/../h/KRiscv.hpp **** }
 1105              		.loc 2 71 5
  71:src/../h/KRiscv.hpp **** }
 1106              		.loc 2 71 48 is_stmt 0
 1107              	#APP
 1108              	# 71 "src/../h/KRiscv.hpp" 1
  72:src/../h/KRiscv.hpp **** 
 1109              		csrw sepc, s1
GAS LISTING /tmp/cc88gCBR.s 			page 32


 1110              	# 0 "" 2
 1111              		.loc 2 72 1
 1112              	#NO_APP
 1113 0398 6FF0DFCD 		j	.L3
 1114              	.LVL55:
 1115              	.L48:
 1116              	.LBE323:
 1117              	.LBE322:
 1118              	.LBE313:
 1119              	.LBB324:
 1120              	.LBB296:
 118:src/KRiscv.cpp ****             uint64 sepc = r_sepc() + 4;
 1121              		.loc 1 118 13 is_stmt 1
 1122              	.LBB297:
 1123              	.LBB298:
  65:src/../h/KRiscv.hpp ****     asm volatile ("csrr %0, sepc" : "=r"(sepc));
 1124              		.loc 2 65 5
  66:src/../h/KRiscv.hpp ****     return sepc;
 1125              		.loc 2 66 5
  66:src/../h/KRiscv.hpp ****     return sepc;
 1126              		.loc 2 66 48 is_stmt 0
 1127              	#APP
 1128              	# 66 "src/../h/KRiscv.hpp" 1
 1129              		csrr a5, sepc
 1130              	# 0 "" 2
 1131              	.LVL56:
 1132              	#NO_APP
 1133 03a0 2330F4F6 		sd	a5,-160(s0)
  67:src/../h/KRiscv.hpp **** }
 1134              		.loc 2 67 5 is_stmt 1
  67:src/../h/KRiscv.hpp **** }
 1135              		.loc 2 67 12 is_stmt 0
 1136 03a4 833404F6 		ld	s1,-160(s0)
 1137              	.LBE298:
 1138              	.LBE297:
 118:src/KRiscv.cpp ****             uint64 sepc = r_sepc() + 4;
 1139              		.loc 1 118 38
 1140 03a8 93844400 		addi	s1,s1,4
 1141              	.LVL57:
 119:src/KRiscv.cpp ****             uint64 sstatus = r_sstatus();
 1142              		.loc 1 119 13 is_stmt 1
 1143              	.LBB299:
 1144              	.LBB300:
 121:src/../h/KRiscv.hpp ****     asm volatile ("csrr %0, sstatus" : "=r"(sstatus));
 1145              		.loc 2 121 5
 122:src/../h/KRiscv.hpp ****     return sstatus;
 1146              		.loc 2 122 5
 122:src/../h/KRiscv.hpp ****     return sstatus;
 1147              		.loc 2 122 54 is_stmt 0
 1148              	#APP
 1149              	# 122 "src/../h/KRiscv.hpp" 1
 1150              		csrr a5, sstatus
 1151              	# 0 "" 2
 1152              	#NO_APP
 1153 03b0 233CF4F4 		sd	a5,-168(s0)
 123:src/../h/KRiscv.hpp **** }
 1154              		.loc 2 123 5 is_stmt 1
GAS LISTING /tmp/cc88gCBR.s 			page 33


 123:src/../h/KRiscv.hpp **** }
 1155              		.loc 2 123 12 is_stmt 0
 1156 03b4 033984F5 		ld	s2,-168(s0)
 1157              	.LVL58:
 1158              	.LBE300:
 1159              	.LBE299:
 120:src/KRiscv.cpp ****             KPCB::dispatch();
 1160              		.loc 1 120 13 is_stmt 1
 120:src/KRiscv.cpp ****             KPCB::dispatch();
 1161              		.loc 1 120 27 is_stmt 0
 1162 03b8 97000000 		call	_ZN4KPCB8dispatchEv@plt
 1162      E7800000 
 1163              	.LVL59:
 121:src/KRiscv.cpp ****             w_sstatus(sstatus);
 1164              		.loc 1 121 13 is_stmt 1
 1165              	.LBB301:
 1166              	.LBB302:
 127:src/../h/KRiscv.hpp **** }
 1167              		.loc 2 127 5
 127:src/../h/KRiscv.hpp **** }
 1168              		.loc 2 127 54 is_stmt 0
 1169              	#APP
 1170              	# 127 "src/../h/KRiscv.hpp" 1
 1171              		csrw sstatus, s2
 1172              	# 0 "" 2
 1173              	.LVL60:
 1174              	#NO_APP
 1175              	.LBE302:
 1176              	.LBE301:
 122:src/KRiscv.cpp ****             w_sepc(sepc);
 1177              		.loc 1 122 13 is_stmt 1
 1178              	.LBB303:
 1179              	.LBB304:
  71:src/../h/KRiscv.hpp **** }
 1180              		.loc 2 71 5
  71:src/../h/KRiscv.hpp **** }
 1181              		.loc 2 71 48 is_stmt 0
 1182              	#APP
 1183              	# 71 "src/../h/KRiscv.hpp" 1
  72:src/../h/KRiscv.hpp **** 
 1184              		csrw sepc, s1
 1185              	# 0 "" 2
 1186              		.loc 2 72 1
 1187              	#NO_APP
 1188 03c8 6FF0DFCA 		j	.L3
 1189              	.LVL61:
 1190              	.L49:
 1191              	.LBE304:
 1192              	.LBE303:
 1193              	.LBE296:
 1194              	.LBB305:
 1195              	.LBB284:
 125:src/KRiscv.cpp ****             KSemaphore** rucka = nullptr;
 1196              		.loc 1 125 13 is_stmt 1
 126:src/KRiscv.cpp ****             unsigned init;
 1197              		.loc 1 126 13
 127:src/KRiscv.cpp ****             asm volatile("ld a1, 11*8(%0)" :: "r"(framePointer));
GAS LISTING /tmp/cc88gCBR.s 			page 34


 1198              		.loc 1 127 13
 127:src/KRiscv.cpp ****             asm volatile("ld a1, 11*8(%0)" :: "r"(framePointer));
 1199              		.loc 1 127 65 is_stmt 0
 1200 03cc 97070000 		la	a5,framePointer
 1200      83B70700 
 1201              	.LVL62:
 1202 03d4 83B70700 		ld	a5,0(a5)
 1203              	#APP
 1204              	# 127 "src/KRiscv.cpp" 1
 128:src/KRiscv.cpp ****             asm volatile("mv %0, a1" : "=r"(rucka));
 1205              		ld a1, 11*8(a5)
 1206              	# 0 "" 2
 1207              		.loc 1 128 13 is_stmt 1
 128:src/KRiscv.cpp ****             asm volatile("mv %0, a1" : "=r"(rucka));
 1208              		.loc 1 128 52 is_stmt 0
 1209              	# 128 "src/KRiscv.cpp" 1
 1210              		mv s1, a1
 1211              	# 0 "" 2
 1212              	.LVL63:
 129:src/KRiscv.cpp ****             asm volatile("ld a2, 12*8(%0)" :: "r"(framePointer));
 1213              		.loc 1 129 13 is_stmt 1
 129:src/KRiscv.cpp ****             asm volatile("ld a2, 12*8(%0)" :: "r"(framePointer));
 1214              		.loc 1 129 65 is_stmt 0
 1215              	# 129 "src/KRiscv.cpp" 1
 130:src/KRiscv.cpp ****             asm volatile("mv %0, a2" : "=r"(init));
 1216              		ld a2, 12*8(a5)
 1217              	# 0 "" 2
 1218              		.loc 1 130 13 is_stmt 1
 130:src/KRiscv.cpp ****             asm volatile("mv %0, a2" : "=r"(init));
 1219              		.loc 1 130 51 is_stmt 0
 1220              	# 130 "src/KRiscv.cpp" 1
 1221              		mv a0, a2
 1222              	# 0 "" 2
 1223              	.LVL64:
 131:src/KRiscv.cpp ****             *rucka = KSemaphore::createSemaphore(init);
 1224              		.loc 1 131 13 is_stmt 1
 131:src/KRiscv.cpp ****             *rucka = KSemaphore::createSemaphore(init);
 1225              		.loc 1 131 49 is_stmt 0
 1226              	#NO_APP
 1227 03e8 13150502 		slli	a0,a0,32
 1228              	.LVL65:
 1229 03ec 13550502 		srli	a0,a0,32
 1230 03f0 97000000 		call	_ZN10KSemaphore15createSemaphoreEm@plt
 1230      E7800000 
 1231              	.LVL66:
 1232              	.LEHE0:
 131:src/KRiscv.cpp ****             *rucka = KSemaphore::createSemaphore(init);
 1233              		.loc 1 131 20
 1234 03f8 23B0A400 		sd	a0,0(s1)
 132:src/KRiscv.cpp ****             if (*rucka != nullptr) asm volatile("li a0, 0");
 1235              		.loc 1 132 13 is_stmt 1
 1236 03fc 63080502 		beqz	a0,.L20
 132:src/KRiscv.cpp ****             if (*rucka != nullptr) asm volatile("li a0, 0");
 1237              		.loc 1 132 36 discriminator 1
 132:src/KRiscv.cpp ****             if (*rucka != nullptr) asm volatile("li a0, 0");
 1238              		.loc 1 132 60 is_stmt 0 discriminator 1
 1239              	#APP
GAS LISTING /tmp/cc88gCBR.s 			page 35


 1240              	# 132 "src/KRiscv.cpp" 1
 1241              		li a0, 0
 1242              	# 0 "" 2
 1243              	#NO_APP
 1244              	.L21:
 134:src/KRiscv.cpp ****             asm volatile("sd a0, 10*8(%0)" :: "r"(framePointer));
 1245              		.loc 1 134 13 is_stmt 1
 134:src/KRiscv.cpp ****             asm volatile("sd a0, 10*8(%0)" :: "r"(framePointer));
 1246              		.loc 1 134 65 is_stmt 0
 1247 0404 97070000 		la	a5,framePointer
 1247      83B70700 
 1248 040c 83B70700 		ld	a5,0(a5)
 1249              	#APP
 1250              	# 134 "src/KRiscv.cpp" 1
 135:src/KRiscv.cpp ****             KRiscv::w_sepc(KRiscv::r_sepc() + 4);
 1251              		sd a0, 10*8(a5)
 1252              	# 0 "" 2
 1253              		.loc 1 135 13 is_stmt 1
 1254              	#NO_APP
 1255              	.LBB285:
 1256              	.LBB286:
  65:src/../h/KRiscv.hpp ****     asm volatile ("csrr %0, sepc" : "=r"(sepc));
 1257              		.loc 2 65 5
  66:src/../h/KRiscv.hpp ****     return sepc;
 1258              		.loc 2 66 5
  66:src/../h/KRiscv.hpp ****     return sepc;
 1259              		.loc 2 66 48 is_stmt 0
 1260              	#APP
 1261              	# 66 "src/../h/KRiscv.hpp" 1
 1262              		csrr a5, sepc
 1263              	# 0 "" 2
 1264              	#NO_APP
 1265 0418 2334F4F6 		sd	a5,-152(s0)
  67:src/../h/KRiscv.hpp **** }
 1266              		.loc 2 67 5 is_stmt 1
  67:src/../h/KRiscv.hpp **** }
 1267              		.loc 2 67 12 is_stmt 0
 1268 041c 833784F6 		ld	a5,-152(s0)
 1269              	.LBE286:
 1270              	.LBE285:
 135:src/KRiscv.cpp ****             KRiscv::w_sepc(KRiscv::r_sepc() + 4);
 1271              		.loc 1 135 27
 1272 0420 93874700 		addi	a5,a5,4
 1273              	.LVL67:
 1274              	.LBB287:
 1275              	.LBB288:
  71:src/../h/KRiscv.hpp **** }
 1276              		.loc 2 71 5 is_stmt 1
  71:src/../h/KRiscv.hpp **** }
 1277              		.loc 2 71 48 is_stmt 0
 1278              	#APP
 1279              	# 71 "src/../h/KRiscv.hpp" 1
  72:src/../h/KRiscv.hpp **** 
 1280              		csrw sepc, a5
 1281              	# 0 "" 2
 1282              		.loc 2 72 1
 1283              	#NO_APP
GAS LISTING /tmp/cc88gCBR.s 			page 36


 1284 0428 6FF0DFC4 		j	.L3
 1285              	.LVL68:
 1286              	.L20:
 1287              	.LBE288:
 1288              	.LBE287:
 133:src/KRiscv.cpp ****             else asm volatile("li a0, -1");
 1289              		.loc 1 133 18 is_stmt 1
 133:src/KRiscv.cpp ****             else asm volatile("li a0, -1");
 1290              		.loc 1 133 43 is_stmt 0
 1291              	#APP
 1292              	# 133 "src/KRiscv.cpp" 1
 1293              		li a0, -1
 1294              	# 0 "" 2
 1295              	#NO_APP
 1296 0430 6FF05FFD 		j	.L21
 1297              	.LVL69:
 1298              	.L50:
 1299              	.LBE284:
 1300              	.LBB289:
 1301              	.LBB264:
 138:src/KRiscv.cpp ****             KSemaphore* rucka = nullptr;
 1302              		.loc 1 138 13 is_stmt 1
 139:src/KRiscv.cpp ****             asm volatile("ld a1, 11*8(%0)" :: "r"(framePointer));
 1303              		.loc 1 139 13
 139:src/KRiscv.cpp ****             asm volatile("ld a1, 11*8(%0)" :: "r"(framePointer));
 1304              		.loc 1 139 65 is_stmt 0
 1305 0434 97070000 		la	a5,framePointer
 1305      83B70700 
 1306              	.LVL70:
 1307 043c 83B70700 		ld	a5,0(a5)
 1308              	#APP
 1309              	# 139 "src/KRiscv.cpp" 1
 140:src/KRiscv.cpp ****             asm volatile("mv %0, a1" : "=r"(rucka));
 1310              		ld a1, 11*8(a5)
 1311              	# 0 "" 2
 1312              		.loc 1 140 13 is_stmt 1
 140:src/KRiscv.cpp ****             asm volatile("mv %0, a1" : "=r"(rucka));
 1313              		.loc 1 140 52 is_stmt 0
 1314              	# 140 "src/KRiscv.cpp" 1
 1315              		mv s1, a1
 1316              	# 0 "" 2
 1317              	.LVL71:
 141:src/KRiscv.cpp ****             delete rucka;
 1318              		.loc 1 141 13 is_stmt 1
 141:src/KRiscv.cpp ****             delete rucka;
 1319              		.loc 1 141 25 is_stmt 0
 1320              	#NO_APP
 1321 0448 638E0402 		beqz	s1,.L23
 1322              	.LVL72:
 1323              	.L25:
 1324              	.LBB265:
 1325              	.LBB266:
 1326              		.file 4 "src/../h/KSemaphore.hpp"
   1:src/../h/KSemaphore.hpp **** //
   2:src/../h/KSemaphore.hpp **** // Created by os on 6/22/22.
   3:src/../h/KSemaphore.hpp **** //
   4:src/../h/KSemaphore.hpp **** 
GAS LISTING /tmp/cc88gCBR.s 			page 37


   5:src/../h/KSemaphore.hpp **** #ifndef PROJECT_BASE_V1_1_KSEMAPHORE_HPP
   6:src/../h/KSemaphore.hpp **** #define PROJECT_BASE_V1_1_KSEMAPHORE_HPP
   7:src/../h/KSemaphore.hpp **** 
   8:src/../h/KSemaphore.hpp **** #include "../lib/hw.h"
   9:src/../h/KSemaphore.hpp **** #include "KPCB.hpp"
  10:src/../h/KSemaphore.hpp **** 
  11:src/../h/KSemaphore.hpp **** class KSemaphore {
  12:src/../h/KSemaphore.hpp **** public:
  13:src/../h/KSemaphore.hpp ****     ~KSemaphore() {
  14:src/../h/KSemaphore.hpp ****         while (head) {
 1327              		.loc 4 14 9 is_stmt 1
 1328              		.loc 4 14 16
 1329 044c 03B58400 		ld	a0,8(s1)
 1330 0450 63040502 		beqz	a0,.L24
 1331              	.LBB267:
  15:src/../h/KSemaphore.hpp ****             KPCB* old = head;
 1332              		.loc 4 15 13
 1333              	.LVL73:
  16:src/../h/KSemaphore.hpp ****             head = head->nextSemaphore;
 1334              		.loc 4 16 13
 1335              		.loc 4 16 26 is_stmt 0
 1336 0454 83378504 		ld	a5,72(a0)
 1337              		.loc 4 16 18
 1338 0458 23B4F400 		sd	a5,8(s1)
  17:src/../h/KSemaphore.hpp ****             old->nextSemaphore = nullptr;
 1339              		.loc 4 17 13 is_stmt 1
 1340              		.loc 4 17 32 is_stmt 0
 1341 045c 23340504 		sd	zero,72(a0)
  18:src/../h/KSemaphore.hpp ****             old->setErr(true);
 1342              		.loc 4 18 13 is_stmt 1
 1343              	.LVL74:
 1344              	.LBB268:
 1345              	.LBB269:
  60:src/../h/KPCB.hpp ****     int startIt() {
 1346              		.loc 3 60 29
  60:src/../h/KPCB.hpp ****     int startIt() {
 1347              		.loc 3 60 33 is_stmt 0
 1348 0460 93071000 		li	a5,1
 1349 0464 A309F502 		sb	a5,51(a0)
 1350              	.LVL75:
 1351              	.LBE269:
 1352              	.LBE268:
  19:src/../h/KSemaphore.hpp ****             old->setWaiting(false);
 1353              		.loc 4 19 13 is_stmt 1
 1354              	.LBB270:
 1355              	.LBB271:
  59:src/../h/KPCB.hpp ****     void setErr(bool val) { err = val; }
 1356              		.loc 3 59 33
  59:src/../h/KPCB.hpp ****     void setErr(bool val) { err = val; }
 1357              		.loc 3 59 41 is_stmt 0
 1358 0468 23090502 		sb	zero,50(a0)
 1359              	.LVL76:
 1360              	.LBE271:
 1361              	.LBE270:
  20:src/../h/KSemaphore.hpp ****             KScheduler::put(old);
 1362              		.loc 4 20 13 is_stmt 1
 1363              		.loc 4 20 28 is_stmt 0
GAS LISTING /tmp/cc88gCBR.s 			page 38


 1364 046c 97000000 		call	_ZN10KScheduler3putEP4KPCB@plt
 1364      E7800000 
 1365              	.LVL77:
 1366              	.LBE267:
  14:src/../h/KSemaphore.hpp ****             KPCB* old = head;
 1367              		.loc 4 14 9
 1368 0474 6FF09FFD 		j	.L25
 1369              	.L24:
 1370              	.LVL78:
 1371              	.LBE266:
 1372              	.LBE265:
 1373              	.LBB272:
 1374              	.LBB273:
  21:src/../h/KSemaphore.hpp ****         }
  22:src/../h/KSemaphore.hpp ****     }
  23:src/../h/KSemaphore.hpp **** 
  24:src/../h/KSemaphore.hpp ****     void wait() { if(--val < 0) block(); }
  25:src/../h/KSemaphore.hpp ****     void signal() { if (val++ < 0) deblock(); }
  26:src/../h/KSemaphore.hpp ****     int value() const { return val; }
  27:src/../h/KSemaphore.hpp ****     static KSemaphore* createSemaphore(uint64 init);
  28:src/../h/KSemaphore.hpp **** 
  29:src/../h/KSemaphore.hpp ****     void* operator new(size_t size) {
  30:src/../h/KSemaphore.hpp ****         size_t sizeBlock = (size + 16) / MEM_BLOCK_SIZE + ((size + 16) % MEM_BLOCK_SIZE ? 1 : 0);
  31:src/../h/KSemaphore.hpp ****         return KMemoryAllocator::mem_alloc(sizeBlock);
  32:src/../h/KSemaphore.hpp ****         //return __mem_alloc(size);
  33:src/../h/KSemaphore.hpp ****     }
  34:src/../h/KSemaphore.hpp ****     void* operator new[](size_t size) {
  35:src/../h/KSemaphore.hpp ****         size_t sizeBlock = (size + 16) / MEM_BLOCK_SIZE + ((size + 16) % MEM_BLOCK_SIZE ? 1 : 0);
  36:src/../h/KSemaphore.hpp ****         return KMemoryAllocator::mem_alloc(sizeBlock);
  37:src/../h/KSemaphore.hpp ****         //return __mem_alloc(size);
  38:src/../h/KSemaphore.hpp ****     }
  39:src/../h/KSemaphore.hpp ****     void operator delete(void* addr) {
  40:src/../h/KSemaphore.hpp ****         KMemoryAllocator::mem_free(addr);
 1375              		.loc 4 40 9 is_stmt 1
 1376              		.loc 4 40 35 is_stmt 0
 1377 0478 13850400 		mv	a0,s1
 1378              	.LEHB1:
 1379 047c 97000000 		call	_ZN16KMemoryAllocator8mem_freeEPv@plt
 1379      E7800000 
 1380              	.LVL79:
 1381              	.L23:
 1382              	.LBE273:
 1383              	.LBE272:
 142:src/KRiscv.cpp ****             KRiscv::w_sepc(KRiscv::r_sepc() + 4);
 1384              		.loc 1 142 13 is_stmt 1
 1385              	.LBB274:
 1386              	.LBB275:
  65:src/../h/KRiscv.hpp ****     asm volatile ("csrr %0, sepc" : "=r"(sepc));
 1387              		.loc 2 65 5
  66:src/../h/KRiscv.hpp ****     return sepc;
 1388              		.loc 2 66 5
  66:src/../h/KRiscv.hpp ****     return sepc;
 1389              		.loc 2 66 48 is_stmt 0
 1390              	#APP
 1391              	# 66 "src/../h/KRiscv.hpp" 1
 1392              		csrr a5, sepc
 1393              	# 0 "" 2
GAS LISTING /tmp/cc88gCBR.s 			page 39


 1394              	#NO_APP
 1395 0488 2338F4F6 		sd	a5,-144(s0)
  67:src/../h/KRiscv.hpp **** }
 1396              		.loc 2 67 5 is_stmt 1
  67:src/../h/KRiscv.hpp **** }
 1397              		.loc 2 67 12 is_stmt 0
 1398 048c 833704F7 		ld	a5,-144(s0)
 1399              	.LBE275:
 1400              	.LBE274:
 142:src/KRiscv.cpp ****             KRiscv::w_sepc(KRiscv::r_sepc() + 4);
 1401              		.loc 1 142 27
 1402 0490 93874700 		addi	a5,a5,4
 1403              	.LVL80:
 1404              	.LBB276:
 1405              	.LBB277:
  71:src/../h/KRiscv.hpp **** }
 1406              		.loc 2 71 5 is_stmt 1
  71:src/../h/KRiscv.hpp **** }
 1407              		.loc 2 71 48 is_stmt 0
 1408              	#APP
 1409              	# 71 "src/../h/KRiscv.hpp" 1
  72:src/../h/KRiscv.hpp **** 
 1410              		csrw sepc, a5
 1411              	# 0 "" 2
 1412              		.loc 2 72 1
 1413              	#NO_APP
 1414 0498 6FF0DFBD 		j	.L3
 1415              	.LVL81:
 1416              	.L51:
 1417              	.LBE277:
 1418              	.LBE276:
 1419              	.LBE264:
 1420              	.LBB278:
 1421              	.LBB246:
 145:src/KRiscv.cpp ****             uint64 sepc = r_sepc() + 4;
 1422              		.loc 1 145 13 is_stmt 1
 1423              	.LBB247:
 1424              	.LBB248:
  65:src/../h/KRiscv.hpp ****     asm volatile ("csrr %0, sepc" : "=r"(sepc));
 1425              		.loc 2 65 5
  66:src/../h/KRiscv.hpp ****     return sepc;
 1426              		.loc 2 66 5
  66:src/../h/KRiscv.hpp ****     return sepc;
 1427              		.loc 2 66 48 is_stmt 0
 1428              	#APP
 1429              	# 66 "src/../h/KRiscv.hpp" 1
 1430              		csrr a5, sepc
 1431              	# 0 "" 2
 1432              	.LVL82:
 1433              	#NO_APP
 1434 04a0 2330F4F8 		sd	a5,-128(s0)
  67:src/../h/KRiscv.hpp **** }
 1435              		.loc 2 67 5 is_stmt 1
  67:src/../h/KRiscv.hpp **** }
 1436              		.loc 2 67 12 is_stmt 0
 1437 04a4 833404F8 		ld	s1,-128(s0)
 1438              	.LBE248:
GAS LISTING /tmp/cc88gCBR.s 			page 40


 1439              	.LBE247:
 145:src/KRiscv.cpp ****             uint64 sepc = r_sepc() + 4;
 1440              		.loc 1 145 38
 1441 04a8 93844400 		addi	s1,s1,4
 1442              	.LVL83:
 146:src/KRiscv.cpp ****             uint64 sstatus = r_sstatus();
 1443              		.loc 1 146 13 is_stmt 1
 1444              	.LBB249:
 1445              	.LBB250:
 121:src/../h/KRiscv.hpp ****     asm volatile ("csrr %0, sstatus" : "=r"(sstatus));
 1446              		.loc 2 121 5
 122:src/../h/KRiscv.hpp ****     return sstatus;
 1447              		.loc 2 122 5
 122:src/../h/KRiscv.hpp ****     return sstatus;
 1448              		.loc 2 122 54 is_stmt 0
 1449              	#APP
 1450              	# 122 "src/../h/KRiscv.hpp" 1
 1451              		csrr a5, sstatus
 1452              	# 0 "" 2
 1453              	#NO_APP
 1454 04b0 233CF4F6 		sd	a5,-136(s0)
 123:src/../h/KRiscv.hpp **** }
 1455              		.loc 2 123 5 is_stmt 1
 123:src/../h/KRiscv.hpp **** }
 1456              		.loc 2 123 12 is_stmt 0
 1457 04b4 033984F7 		ld	s2,-136(s0)
 1458              	.LVL84:
 1459              	.LBE250:
 1460              	.LBE249:
 147:src/KRiscv.cpp ****             KSemaphore* rucka = nullptr;
 1461              		.loc 1 147 13 is_stmt 1
 148:src/KRiscv.cpp ****             asm volatile("ld a1, 11*8(%0)" :: "r"(framePointer));
 1462              		.loc 1 148 13
 148:src/KRiscv.cpp ****             asm volatile("ld a1, 11*8(%0)" :: "r"(framePointer));
 1463              		.loc 1 148 65 is_stmt 0
 1464 04b8 97070000 		la	a5,framePointer
 1464      83B70700 
 1465 04c0 83B70700 		ld	a5,0(a5)
 1466              	#APP
 1467              	# 148 "src/KRiscv.cpp" 1
 149:src/KRiscv.cpp ****             asm volatile("mv %0, a1" : "=r"(rucka));
 1468              		ld a1, 11*8(a5)
 1469              	# 0 "" 2
 1470              		.loc 1 149 13 is_stmt 1
 149:src/KRiscv.cpp ****             asm volatile("mv %0, a1" : "=r"(rucka));
 1471              		.loc 1 149 52 is_stmt 0
 1472              	# 149 "src/KRiscv.cpp" 1
 1473              		mv a0, a1
 1474              	# 0 "" 2
 1475              	.LVL85:
 150:src/KRiscv.cpp ****             if (rucka) rucka->wait();
 1476              		.loc 1 150 13 is_stmt 1
 1477              	#NO_APP
 1478 04cc 630C0500 		beqz	a0,.L27
 150:src/KRiscv.cpp ****             if (rucka) rucka->wait();
 1479              		.loc 1 150 24
 1480              	.LVL86:
GAS LISTING /tmp/cc88gCBR.s 			page 41


 1481              	.LBB251:
 1482              	.LBB252:
  24:src/../h/KSemaphore.hpp ****     void signal() { if (val++ < 0) deblock(); }
 1483              		.loc 4 24 19
  24:src/../h/KSemaphore.hpp ****     void signal() { if (val++ < 0) deblock(); }
 1484              		.loc 4 24 24 is_stmt 0
 1485 04d0 83270500 		lw	a5,0(a0)
  24:src/../h/KSemaphore.hpp ****     void signal() { if (val++ < 0) deblock(); }
 1486              		.loc 4 24 22
 1487 04d4 9B87F7FF 		addiw	a5,a5,-1
  24:src/../h/KSemaphore.hpp ****     void signal() { if (val++ < 0) deblock(); }
 1488              		.loc 4 24 28
 1489 04d8 2320F500 		sw	a5,0(a0)
  24:src/../h/KSemaphore.hpp ****     void signal() { if (val++ < 0) deblock(); }
 1490              		.loc 4 24 19
 1491 04dc 13970702 		slli	a4,a5,32
 1492 04e0 63480700 		bltz	a4,.L55
 1493              	.LVL87:
 1494              	.L27:
 1495              	.LBE252:
 1496              	.LBE251:
 151:src/KRiscv.cpp ****             w_sstatus(sstatus);
 1497              		.loc 1 151 13 is_stmt 1
 1498              	.LBB254:
 1499              	.LBB255:
 127:src/../h/KRiscv.hpp **** }
 1500              		.loc 2 127 5
 127:src/../h/KRiscv.hpp **** }
 1501              		.loc 2 127 54 is_stmt 0
 1502              	#APP
 1503              	# 127 "src/../h/KRiscv.hpp" 1
 1504              		csrw sstatus, s2
 1505              	# 0 "" 2
 1506              	.LVL88:
 1507              	#NO_APP
 1508              	.LBE255:
 1509              	.LBE254:
 152:src/KRiscv.cpp ****             w_sepc(sepc);
 1510              		.loc 1 152 13 is_stmt 1
 1511              	.LBB256:
 1512              	.LBB257:
  71:src/../h/KRiscv.hpp **** }
 1513              		.loc 2 71 5
  71:src/../h/KRiscv.hpp **** }
 1514              		.loc 2 71 48 is_stmt 0
 1515              	#APP
 1516              	# 71 "src/../h/KRiscv.hpp" 1
  72:src/../h/KRiscv.hpp **** 
 1517              		csrw sepc, s1
 1518              	# 0 "" 2
 1519              		.loc 2 72 1
 1520              	#NO_APP
 1521 04ec 6FF09FB8 		j	.L3
 1522              	.LVL89:
 1523              	.L55:
 1524              	.LBE257:
 1525              	.LBE256:
GAS LISTING /tmp/cc88gCBR.s 			page 42


 1526              	.LBB258:
 1527              	.LBB253:
  24:src/../h/KSemaphore.hpp ****     void signal() { if (val++ < 0) deblock(); }
 1528              		.loc 4 24 33 is_stmt 1
  24:src/../h/KSemaphore.hpp ****     void signal() { if (val++ < 0) deblock(); }
 1529              		.loc 4 24 38 is_stmt 0
 1530 04f0 97000000 		call	_ZN10KSemaphore5blockEv@plt
 1530      E7800000 
 1531              	.LVL90:
 1532 04f8 6FF0DFFE 		j	.L27
 1533              	.LVL91:
 1534              	.L52:
 1535              	.LBE253:
 1536              	.LBE258:
 1537              	.LBE246:
 1538              	.LBB259:
 1539              	.LBB233:
 155:src/KRiscv.cpp ****             KSemaphore* rucka = nullptr;
 1540              		.loc 1 155 13 is_stmt 1
 156:src/KRiscv.cpp ****             asm volatile("ld a1, 11*8(%0)" :: "r"(framePointer));
 1541              		.loc 1 156 13
 156:src/KRiscv.cpp ****             asm volatile("ld a1, 11*8(%0)" :: "r"(framePointer));
 1542              		.loc 1 156 65 is_stmt 0
 1543 04fc 97070000 		la	a5,framePointer
 1543      83B70700 
 1544              	.LVL92:
 1545 0504 83B70700 		ld	a5,0(a5)
 1546              	#APP
 1547              	# 156 "src/KRiscv.cpp" 1
 157:src/KRiscv.cpp ****             asm volatile("mv %0, a1" : "=r"(rucka));
 1548              		ld a1, 11*8(a5)
 1549              	# 0 "" 2
 1550              		.loc 1 157 13 is_stmt 1
 157:src/KRiscv.cpp ****             asm volatile("mv %0, a1" : "=r"(rucka));
 1551              		.loc 1 157 52 is_stmt 0
 1552              	# 157 "src/KRiscv.cpp" 1
 1553              		mv a0, a1
 1554              	# 0 "" 2
 1555              	.LVL93:
 158:src/KRiscv.cpp ****             if (rucka) rucka->signal();
 1556              		.loc 1 158 13 is_stmt 1
 1557              	#NO_APP
 1558 0510 630A0500 		beqz	a0,.L29
 158:src/KRiscv.cpp ****             if (rucka) rucka->signal();
 1559              		.loc 1 158 24
 1560              	.LVL94:
 1561              	.LBB234:
 1562              	.LBB235:
  25:src/../h/KSemaphore.hpp ****     int value() const { return val; }
 1563              		.loc 4 25 21
  25:src/../h/KSemaphore.hpp ****     int value() const { return val; }
 1564              		.loc 4 25 25 is_stmt 0
 1565 0514 83270500 		lw	a5,0(a0)
  25:src/../h/KSemaphore.hpp ****     int value() const { return val; }
 1566              		.loc 4 25 28
 1567 0518 1B871700 		addiw	a4,a5,1
 1568 051c 2320E500 		sw	a4,0(a0)
GAS LISTING /tmp/cc88gCBR.s 			page 43


  25:src/../h/KSemaphore.hpp ****     int value() const { return val; }
 1569              		.loc 4 25 21
 1570 0520 63CE0700 		bltz	a5,.L56
 1571              	.LVL95:
 1572              	.L29:
 1573              	.LBE235:
 1574              	.LBE234:
 159:src/KRiscv.cpp ****             KRiscv::w_sepc(KRiscv::r_sepc() + 4);
 1575              		.loc 1 159 13 is_stmt 1
 1576              	.LBB237:
 1577              	.LBB238:
  65:src/../h/KRiscv.hpp ****     asm volatile ("csrr %0, sepc" : "=r"(sepc));
 1578              		.loc 2 65 5
  66:src/../h/KRiscv.hpp ****     return sepc;
 1579              		.loc 2 66 5
  66:src/../h/KRiscv.hpp ****     return sepc;
 1580              		.loc 2 66 48 is_stmt 0
 1581              	#APP
 1582              	# 66 "src/../h/KRiscv.hpp" 1
 1583              		csrr a5, sepc
 1584              	# 0 "" 2
 1585              	#NO_APP
 1586 0528 2334F4F8 		sd	a5,-120(s0)
  67:src/../h/KRiscv.hpp **** }
 1587              		.loc 2 67 5 is_stmt 1
  67:src/../h/KRiscv.hpp **** }
 1588              		.loc 2 67 12 is_stmt 0
 1589 052c 833784F8 		ld	a5,-120(s0)
 1590              	.LBE238:
 1591              	.LBE237:
 159:src/KRiscv.cpp ****             KRiscv::w_sepc(KRiscv::r_sepc() + 4);
 1592              		.loc 1 159 27
 1593 0530 93874700 		addi	a5,a5,4
 1594              	.LVL96:
 1595              	.LBB239:
 1596              	.LBB240:
  71:src/../h/KRiscv.hpp **** }
 1597              		.loc 2 71 5 is_stmt 1
  71:src/../h/KRiscv.hpp **** }
 1598              		.loc 2 71 48 is_stmt 0
 1599              	#APP
 1600              	# 71 "src/../h/KRiscv.hpp" 1
  72:src/../h/KRiscv.hpp **** 
 1601              		csrw sepc, a5
 1602              	# 0 "" 2
 1603              		.loc 2 72 1
 1604              	#NO_APP
 1605 0538 6FF0DFB3 		j	.L3
 1606              	.LVL97:
 1607              	.L56:
 1608              	.LBE240:
 1609              	.LBE239:
 1610              	.LBB241:
 1611              	.LBB236:
  25:src/../h/KSemaphore.hpp ****     int value() const { return val; }
 1612              		.loc 4 25 36 is_stmt 1
  25:src/../h/KSemaphore.hpp ****     int value() const { return val; }
GAS LISTING /tmp/cc88gCBR.s 			page 44


 1613              		.loc 4 25 43 is_stmt 0
 1614 053c 97000000 		call	_ZN10KSemaphore7deblockEv@plt
 1614      E7800000 
 1615              	.LVL98:
 1616 0544 6FF01FFE 		j	.L29
 1617              	.LVL99:
 1618              	.L53:
 1619              	.LBE236:
 1620              	.LBE241:
 1621              	.LBE233:
 1622              	.LBB242:
 1623              	.LBB221:
 162:src/KRiscv.cpp ****             time_t t;
 1624              		.loc 1 162 13 is_stmt 1
 163:src/KRiscv.cpp ****             asm volatile("ld a1, 11*8(%0)" :: "r"(framePointer));
 1625              		.loc 1 163 13
 163:src/KRiscv.cpp ****             asm volatile("ld a1, 11*8(%0)" :: "r"(framePointer));
 1626              		.loc 1 163 65 is_stmt 0
 1627 0548 97070000 		la	a5,framePointer
 1627      83B70700 
 1628              	.LVL100:
 1629 0550 83B70700 		ld	a5,0(a5)
 1630              	#APP
 1631              	# 163 "src/KRiscv.cpp" 1
 164:src/KRiscv.cpp ****             asm volatile("mv %0, a1" : "=r"(t));
 1632              		ld a1, 11*8(a5)
 1633              	# 0 "" 2
 1634              		.loc 1 164 13 is_stmt 1
 164:src/KRiscv.cpp ****             asm volatile("mv %0, a1" : "=r"(t));
 1635              		.loc 1 164 48 is_stmt 0
 1636              	# 164 "src/KRiscv.cpp" 1
 1637              		mv a0, a1
 1638              	# 0 "" 2
 1639              	.LVL101:
 165:src/KRiscv.cpp ****             KSleep::add(t);
 1640              		.loc 1 165 13 is_stmt 1
 165:src/KRiscv.cpp ****             KSleep::add(t);
 1641              		.loc 1 165 24 is_stmt 0
 1642              	#NO_APP
 1643 055c 97000000 		call	_ZN6KSleep3addEm@plt
 1643      E7800000 
 1644              	.LVL102:
 166:src/KRiscv.cpp ****             uint64 sepc = KRiscv::r_sepc() + 4;
 1645              		.loc 1 166 13 is_stmt 1
 1646              	.LBB222:
 1647              	.LBB223:
  65:src/../h/KRiscv.hpp ****     asm volatile ("csrr %0, sepc" : "=r"(sepc));
 1648              		.loc 2 65 5
  66:src/../h/KRiscv.hpp ****     return sepc;
 1649              		.loc 2 66 5
  66:src/../h/KRiscv.hpp ****     return sepc;
 1650              		.loc 2 66 48 is_stmt 0
 1651              	#APP
 1652              	# 66 "src/../h/KRiscv.hpp" 1
 1653              		csrr a5, sepc
 1654              	# 0 "" 2
 1655              	#NO_APP
GAS LISTING /tmp/cc88gCBR.s 			page 45


 1656 0568 233CF4F8 		sd	a5,-104(s0)
  67:src/../h/KRiscv.hpp **** }
 1657              		.loc 2 67 5 is_stmt 1
  67:src/../h/KRiscv.hpp **** }
 1658              		.loc 2 67 12 is_stmt 0
 1659 056c 833484F9 		ld	s1,-104(s0)
 1660              	.LBE223:
 1661              	.LBE222:
 166:src/KRiscv.cpp ****             uint64 sepc = KRiscv::r_sepc() + 4;
 1662              		.loc 1 166 46
 1663 0570 93844400 		addi	s1,s1,4
 1664              	.LVL103:
 167:src/KRiscv.cpp ****             uint64 sstatus = KRiscv::r_sstatus();
 1665              		.loc 1 167 13 is_stmt 1
 1666              	.LBB224:
 1667              	.LBB225:
 121:src/../h/KRiscv.hpp ****     asm volatile ("csrr %0, sstatus" : "=r"(sstatus));
 1668              		.loc 2 121 5
 122:src/../h/KRiscv.hpp ****     return sstatus;
 1669              		.loc 2 122 5
 122:src/../h/KRiscv.hpp ****     return sstatus;
 1670              		.loc 2 122 54 is_stmt 0
 1671              	#APP
 1672              	# 122 "src/../h/KRiscv.hpp" 1
 1673              		csrr a5, sstatus
 1674              	# 0 "" 2
 1675              	#NO_APP
 1676 0578 2338F4F8 		sd	a5,-112(s0)
 123:src/../h/KRiscv.hpp **** }
 1677              		.loc 2 123 5 is_stmt 1
 123:src/../h/KRiscv.hpp **** }
 1678              		.loc 2 123 12 is_stmt 0
 1679 057c 033904F9 		ld	s2,-112(s0)
 1680              	.LVL104:
 1681              	.LBE225:
 1682              	.LBE224:
 168:src/KRiscv.cpp ****             KPCB::dispatch();
 1683              		.loc 1 168 13 is_stmt 1
 168:src/KRiscv.cpp ****             KPCB::dispatch();
 1684              		.loc 1 168 27 is_stmt 0
 1685 0580 97000000 		call	_ZN4KPCB8dispatchEv@plt
 1685      E7800000 
 1686              	.LVL105:
 169:src/KRiscv.cpp ****             KRiscv::w_sstatus(sstatus);
 1687              		.loc 1 169 13 is_stmt 1
 1688              	.LBB226:
 1689              	.LBB227:
 127:src/../h/KRiscv.hpp **** }
 1690              		.loc 2 127 5
 127:src/../h/KRiscv.hpp **** }
 1691              		.loc 2 127 54 is_stmt 0
 1692              	#APP
 1693              	# 127 "src/../h/KRiscv.hpp" 1
 1694              		csrw sstatus, s2
 1695              	# 0 "" 2
 1696              	.LVL106:
 1697              	#NO_APP
GAS LISTING /tmp/cc88gCBR.s 			page 46


 1698              	.LBE227:
 1699              	.LBE226:
 170:src/KRiscv.cpp ****             KRiscv::w_sepc(sepc);
 1700              		.loc 1 170 13 is_stmt 1
 1701              	.LBB228:
 1702              	.LBB229:
  71:src/../h/KRiscv.hpp **** }
 1703              		.loc 2 71 5
  71:src/../h/KRiscv.hpp **** }
 1704              		.loc 2 71 48 is_stmt 0
 1705              	#APP
 1706              	# 71 "src/../h/KRiscv.hpp" 1
  72:src/../h/KRiscv.hpp **** 
 1707              		csrw sepc, s1
 1708              	# 0 "" 2
 1709              		.loc 2 72 1
 1710              	#NO_APP
 1711 0590 6FF05FAE 		j	.L3
 1712              	.LVL107:
 1713              	.L54:
 1714              	.LBE229:
 1715              	.LBE228:
 1716              	.LBE221:
 1717              	.LBB230:
 1718              	.LBB208:
 173:src/KRiscv.cpp ****             uint64 framePointerGETC = framePointer;
 1719              		.loc 1 173 13 is_stmt 1
 173:src/KRiscv.cpp ****             uint64 framePointerGETC = framePointer;
 1720              		.loc 1 173 20 is_stmt 0
 1721 0594 97070000 		la	a5,framePointer
 1721      83B70700 
 1722              	.LVL108:
 1723 059c 03B90700 		ld	s2,0(a5)
 1724              	.LVL109:
 174:src/KRiscv.cpp ****             uint64 sepc = KRiscv::r_sepc() + 4;
 1725              		.loc 1 174 13 is_stmt 1
 1726              	.LBB209:
 1727              	.LBB210:
  65:src/../h/KRiscv.hpp ****     asm volatile ("csrr %0, sepc" : "=r"(sepc));
 1728              		.loc 2 65 5
  66:src/../h/KRiscv.hpp ****     return sepc;
 1729              		.loc 2 66 5
  66:src/../h/KRiscv.hpp ****     return sepc;
 1730              		.loc 2 66 48 is_stmt 0
 1731              	#APP
 1732              	# 66 "src/../h/KRiscv.hpp" 1
 1733              		csrr a5, sepc
 1734              	# 0 "" 2
 1735              	#NO_APP
 1736 05a4 2334F4FA 		sd	a5,-88(s0)
  67:src/../h/KRiscv.hpp **** }
 1737              		.loc 2 67 5 is_stmt 1
  67:src/../h/KRiscv.hpp **** }
 1738              		.loc 2 67 12 is_stmt 0
 1739 05a8 833484FA 		ld	s1,-88(s0)
 1740              	.LBE210:
 1741              	.LBE209:
GAS LISTING /tmp/cc88gCBR.s 			page 47


 174:src/KRiscv.cpp ****             uint64 sepc = KRiscv::r_sepc() + 4;
 1742              		.loc 1 174 46
 1743 05ac 93844400 		addi	s1,s1,4
 1744              	.LVL110:
 175:src/KRiscv.cpp ****             uint64 sstatus = KRiscv::r_sstatus();
 1745              		.loc 1 175 13 is_stmt 1
 1746              	.LBB211:
 1747              	.LBB212:
 121:src/../h/KRiscv.hpp ****     asm volatile ("csrr %0, sstatus" : "=r"(sstatus));
 1748              		.loc 2 121 5
 122:src/../h/KRiscv.hpp ****     return sstatus;
 1749              		.loc 2 122 5
 122:src/../h/KRiscv.hpp ****     return sstatus;
 1750              		.loc 2 122 54 is_stmt 0
 1751              	#APP
 1752              	# 122 "src/../h/KRiscv.hpp" 1
 1753              		csrr a5, sstatus
 1754              	# 0 "" 2
 1755              	#NO_APP
 1756 05b4 2330F4FA 		sd	a5,-96(s0)
 123:src/../h/KRiscv.hpp **** }
 1757              		.loc 2 123 5 is_stmt 1
 123:src/../h/KRiscv.hpp **** }
 1758              		.loc 2 123 12 is_stmt 0
 1759 05b8 833904FA 		ld	s3,-96(s0)
 1760              	.LVL111:
 1761              	.LBE212:
 1762              	.LBE211:
 176:src/KRiscv.cpp ****             char c = KConsole::inBuff->get();
 1763              		.loc 1 176 13 is_stmt 1
 176:src/KRiscv.cpp ****             char c = KConsole::inBuff->get();
 1764              		.loc 1 176 43 is_stmt 0
 1765 05bc 97070000 		la	a5,_ZN8KConsole6inBuffE
 1765      83B70700 
 1766 05c4 03B50700 		ld	a0,0(a5)
 1767 05c8 97000000 		call	_ZN8KConsole3getEv@plt
 1767      E7800000 
 1768              	.LVL112:
 177:src/KRiscv.cpp ****             asm volatile("mv a0, %0" :: "r"(c));
 1769              		.loc 1 177 13 is_stmt 1
 177:src/KRiscv.cpp ****             asm volatile("mv a0, %0" :: "r"(c));
 1770              		.loc 1 177 48 is_stmt 0
 1771              	#APP
 1772              	# 177 "src/KRiscv.cpp" 1
 178:src/KRiscv.cpp ****             asm volatile("sd a0, 10*8(%0)" :: "r"(framePointerGETC));
 1773              		mv a0, a0
 1774              	# 0 "" 2
 1775              		.loc 1 178 13 is_stmt 1
 178:src/KRiscv.cpp ****             asm volatile("sd a0, 10*8(%0)" :: "r"(framePointerGETC));
 1776              		.loc 1 178 69 is_stmt 0
 1777              	# 178 "src/KRiscv.cpp" 1
 179:src/KRiscv.cpp ****             KRiscv::w_sstatus(framePointerGETC);
 1778              		sd a0, 10*8(s2)
 1779              	# 0 "" 2
 1780              		.loc 1 179 13 is_stmt 1
 1781              	.LVL113:
 1782              	#NO_APP
GAS LISTING /tmp/cc88gCBR.s 			page 48


 1783              	.LBB213:
 1784              	.LBB214:
 127:src/../h/KRiscv.hpp **** }
 1785              		.loc 2 127 5
 127:src/../h/KRiscv.hpp **** }
 1786              		.loc 2 127 54 is_stmt 0
 1787              	#APP
 1788              	# 127 "src/../h/KRiscv.hpp" 1
 1789              		csrw sstatus, s2
 1790              	# 0 "" 2
 1791              	.LVL114:
 1792              	#NO_APP
 1793              	.LBE214:
 1794              	.LBE213:
 180:src/KRiscv.cpp ****             KRiscv::w_sstatus(sstatus);
 1795              		.loc 1 180 13 is_stmt 1
 1796              	.LBB215:
 1797              	.LBB216:
 127:src/../h/KRiscv.hpp **** }
 1798              		.loc 2 127 5
 127:src/../h/KRiscv.hpp **** }
 1799              		.loc 2 127 54 is_stmt 0
 1800              	#APP
 1801              	# 127 "src/../h/KRiscv.hpp" 1
 1802              		csrw sstatus, s3
 1803              	# 0 "" 2
 1804              	.LVL115:
 1805              	#NO_APP
 1806              	.LBE216:
 1807              	.LBE215:
 181:src/KRiscv.cpp ****             KRiscv::w_sepc(sepc);
 1808              		.loc 1 181 13 is_stmt 1
 1809              	.LBB217:
 1810              	.LBB218:
  71:src/../h/KRiscv.hpp **** }
 1811              		.loc 2 71 5
  71:src/../h/KRiscv.hpp **** }
 1812              		.loc 2 71 48 is_stmt 0
 1813              	#APP
 1814              	# 71 "src/../h/KRiscv.hpp" 1
  72:src/../h/KRiscv.hpp **** 
 1815              		csrw sepc, s1
 1816              	# 0 "" 2
 1817              		.loc 2 72 1
 1818              	#NO_APP
 1819 05e4 6FF01FA9 		j	.L3
 1820              	.LVL116:
 1821              	.L32:
 1822              	.LBE218:
 1823              	.LBE217:
 1824              	.LBE208:
 1825              	.LBB219:
 1826              	.LBB207:
 193:src/KRiscv.cpp ****             KRiscv::w_sstatus(sstatus);
 1827              		.loc 1 193 13 is_stmt 1 discriminator 4
 1828              	.LBB203:
 1829              	.LBB204:
GAS LISTING /tmp/cc88gCBR.s 			page 49


 127:src/../h/KRiscv.hpp **** }
 1830              		.loc 2 127 5 discriminator 4
 127:src/../h/KRiscv.hpp **** }
 1831              		.loc 2 127 54 is_stmt 0 discriminator 4
 1832              	#APP
 1833              	# 127 "src/../h/KRiscv.hpp" 1
 1834              		csrw sstatus, s2
 1835              	# 0 "" 2
 1836              	.LVL117:
 1837              	#NO_APP
 1838              	.LBE204:
 1839              	.LBE203:
 194:src/KRiscv.cpp ****             KRiscv::w_sepc(sepc);
 1840              		.loc 1 194 13 is_stmt 1 discriminator 4
 1841              	.LBB205:
 1842              	.LBB206:
  71:src/../h/KRiscv.hpp **** }
 1843              		.loc 2 71 5 discriminator 4
  71:src/../h/KRiscv.hpp **** }
 1844              		.loc 2 71 48 is_stmt 0 discriminator 4
 1845              	#APP
 1846              	# 71 "src/../h/KRiscv.hpp" 1
  72:src/../h/KRiscv.hpp **** 
 1847              		csrw sepc, s1
 1848              	# 0 "" 2
 1849              		.loc 2 72 1 discriminator 4
 1850              	#NO_APP
 1851 05f0 6FF05FA8 		j	.L3
 1852              	.LVL118:
 1853              	.L40:
 1854              	.LBE206:
 1855              	.LBE205:
 1856              	.LBE207:
 1857              	.LBE219:
 1858              	.LBE230:
 1859              	.LBE242:
 1860              	.LBE259:
 1861              	.LBE278:
 1862              	.LBE289:
 1863              	.LBE305:
 1864              	.LBE324:
 1865              	.LBE340:
 1866              	.LBE355:
 1867              	.LBE372:
 1868              	.LBE389:
 1869              	.LBE407:
 1870              	.LBE420:
 1871              	.LBE433:
 1872              	.LBB434:
 1873              	.LBB166:
 198:src/KRiscv.cpp ****         KPCB::timeSliceCounter++;
 1874              		.loc 1 198 9 is_stmt 1
 198:src/KRiscv.cpp ****         KPCB::timeSliceCounter++;
 1875              		.loc 1 198 31 is_stmt 0
 1876 05f4 97040000 		la	s1,_ZN4KPCB16timeSliceCounterE
 1876      83B40400 
 1877 05fc 83B70400 		ld	a5,0(s1)
GAS LISTING /tmp/cc88gCBR.s 			page 50


 1878 0600 93871700 		addi	a5,a5,1
 1879 0604 23B0F400 		sd	a5,0(s1)
 199:src/KRiscv.cpp ****         KSleep::remove();
 1880              		.loc 1 199 9 is_stmt 1
 199:src/KRiscv.cpp ****         KSleep::remove();
 1881              		.loc 1 199 23 is_stmt 0
 1882 0608 97000000 		call	_ZN6KSleep6removeEv@plt
 1882      E7800000 
 1883              	.LVL119:
 200:src/KRiscv.cpp ****         if (KPCB::timeSliceCounter >= KPCB::running->TIME_SLICE) {
 1884              		.loc 1 200 9 is_stmt 1
 1885              	.LBB167:
 200:src/KRiscv.cpp ****         if (KPCB::timeSliceCounter >= KPCB::running->TIME_SLICE) {
 1886              		.loc 1 200 36 is_stmt 0
 1887 0610 03B70400 		ld	a4,0(s1)
 200:src/KRiscv.cpp ****         if (KPCB::timeSliceCounter >= KPCB::running->TIME_SLICE) {
 1888              		.loc 1 200 9
 1889 0614 93071000 		li	a5,1
 1890 0618 63E8E700 		bgtu	a4,a5,.L57
 1891              	.L35:
 1892              	.LBE167:
 207:src/KRiscv.cpp ****         mc_sip(SIP_SSIP);
 1893              		.loc 1 207 9 is_stmt 1
 1894              	.LVL120:
 1895              	.LBB177:
 1896              	.LBB178:
  99:src/../h/KRiscv.hpp **** }
 1897              		.loc 2 99 5
  99:src/../h/KRiscv.hpp **** }
 1898              		.loc 2 99 47 is_stmt 0
 1899 061c 93072000 		li	a5,2
 1900              	#APP
 1901              	# 99 "src/../h/KRiscv.hpp" 1
 100:src/../h/KRiscv.hpp **** 
 1902              		csrc sip, a5
 1903              	# 0 "" 2
 1904              		.loc 2 100 1
 1905              	#NO_APP
 1906 0624 6FF01FA5 		j	.L3
 1907              	.LVL121:
 1908              	.L57:
 1909              	.LBE178:
 1910              	.LBE177:
 1911              	.LBB179:
 1912              	.LBB168:
 201:src/KRiscv.cpp ****             uint64 sepc = r_sepc();
 1913              		.loc 1 201 13 is_stmt 1
 1914              	.LBB169:
 1915              	.LBB170:
  65:src/../h/KRiscv.hpp ****     asm volatile ("csrr %0, sepc" : "=r"(sepc));
 1916              		.loc 2 65 5
  66:src/../h/KRiscv.hpp ****     return sepc;
 1917              		.loc 2 66 5
  66:src/../h/KRiscv.hpp ****     return sepc;
 1918              		.loc 2 66 48 is_stmt 0
 1919              	#APP
 1920              	# 66 "src/../h/KRiscv.hpp" 1
GAS LISTING /tmp/cc88gCBR.s 			page 51


 1921              		csrr a5, sepc
 1922              	# 0 "" 2
 1923              	#NO_APP
 1924 062c 2334F4FC 		sd	a5,-56(s0)
  67:src/../h/KRiscv.hpp **** }
 1925              		.loc 2 67 5 is_stmt 1
  67:src/../h/KRiscv.hpp **** }
 1926              		.loc 2 67 12 is_stmt 0
 1927 0630 833484FC 		ld	s1,-56(s0)
 1928              	.LVL122:
 1929              	.LBE170:
 1930              	.LBE169:
 202:src/KRiscv.cpp ****             uint64 sstatus = r_sstatus();
 1931              		.loc 1 202 13 is_stmt 1
 1932              	.LBB171:
 1933              	.LBB172:
 121:src/../h/KRiscv.hpp ****     asm volatile ("csrr %0, sstatus" : "=r"(sstatus));
 1934              		.loc 2 121 5
 122:src/../h/KRiscv.hpp ****     return sstatus;
 1935              		.loc 2 122 5
 122:src/../h/KRiscv.hpp ****     return sstatus;
 1936              		.loc 2 122 54 is_stmt 0
 1937              	#APP
 1938              	# 122 "src/../h/KRiscv.hpp" 1
 1939              		csrr a5, sstatus
 1940              	# 0 "" 2
 1941              	#NO_APP
 1942 0638 2330F4FC 		sd	a5,-64(s0)
 123:src/../h/KRiscv.hpp **** }
 1943              		.loc 2 123 5 is_stmt 1
 123:src/../h/KRiscv.hpp **** }
 1944              		.loc 2 123 12 is_stmt 0
 1945 063c 033904FC 		ld	s2,-64(s0)
 1946              	.LVL123:
 1947              	.LBE172:
 1948              	.LBE171:
 203:src/KRiscv.cpp ****             KPCB::dispatch();
 1949              		.loc 1 203 13 is_stmt 1
 203:src/KRiscv.cpp ****             KPCB::dispatch();
 1950              		.loc 1 203 27 is_stmt 0
 1951 0640 97000000 		call	_ZN4KPCB8dispatchEv@plt
 1951      E7800000 
 1952              	.LVL124:
 204:src/KRiscv.cpp ****             w_sstatus(sstatus);
 1953              		.loc 1 204 13 is_stmt 1
 1954              	.LBB173:
 1955              	.LBB174:
 127:src/../h/KRiscv.hpp **** }
 1956              		.loc 2 127 5
 127:src/../h/KRiscv.hpp **** }
 1957              		.loc 2 127 54 is_stmt 0
 1958              	#APP
 1959              	# 127 "src/../h/KRiscv.hpp" 1
 1960              		csrw sstatus, s2
 1961              	# 0 "" 2
 1962              	.LVL125:
 1963              	#NO_APP
GAS LISTING /tmp/cc88gCBR.s 			page 52


 1964              	.LBE174:
 1965              	.LBE173:
 205:src/KRiscv.cpp ****             w_sepc(sepc);
 1966              		.loc 1 205 13 is_stmt 1
 1967              	.LBB175:
 1968              	.LBB176:
  71:src/../h/KRiscv.hpp **** }
 1969              		.loc 2 71 5
  71:src/../h/KRiscv.hpp **** }
 1970              		.loc 2 71 48 is_stmt 0
 1971              	#APP
 1972              	# 71 "src/../h/KRiscv.hpp" 1
  72:src/../h/KRiscv.hpp **** 
 1973              		csrw sepc, s1
 1974              	# 0 "" 2
 1975              		.loc 2 72 1
 1976              	#NO_APP
 1977 0650 6FF0DFFC 		j	.L35
 1978              	.LVL126:
 1979              	.L41:
 1980              	.LBE176:
 1981              	.LBE175:
 1982              	.LBE168:
 1983              	.LBE179:
 1984              	.LBE166:
 1985              	.LBB180:
 1986              	.LBB164:
 211:src/KRiscv.cpp ****         int consID = plic_claim();
 1987              		.loc 1 211 9 is_stmt 1
 211:src/KRiscv.cpp ****         int consID = plic_claim();
 1988              		.loc 1 211 32 is_stmt 0
 1989 0654 97000000 		call	plic_claim@plt
 1989      E7800000 
 1990              	.LVL127:
 1991 065c 93040500 		mv	s1,a0
 1992              	.LVL128:
 212:src/KRiscv.cpp ****         if (consID == CONSOLE_IRQ) {
 1993              		.loc 1 212 9 is_stmt 1
 1994 0660 9307A000 		li	a5,10
 1995 0664 630AF500 		beq	a0,a5,.L37
 1996              	.LVL129:
 1997              	.L36:
 217:src/KRiscv.cpp ****         plic_complete(consID);
 1998              		.loc 1 217 9
 217:src/KRiscv.cpp ****         plic_complete(consID);
 1999              		.loc 1 217 22 is_stmt 0
 2000 0668 13850400 		mv	a0,s1
 2001 066c 97000000 		call	plic_complete@plt
 2001      E7800000 
 2002              	.LVL130:
 2003              	.LBE164:
 2004              	.LBE180:
 2005              	.LBE434:
 2006              	.LBE451:
 2007              		.loc 1 244 1
 2008 0674 6FF01FA0 		j	.L3
 2009              	.L37:
GAS LISTING /tmp/cc88gCBR.s 			page 53


 2010              	.LBB452:
 2011              	.LBB435:
 2012              	.LBB181:
 2013              	.LBB165:
 213:src/KRiscv.cpp ****             while ((*(char*)CONSOLE_STATUS & CONSOLE_RX_STATUS_BIT)
 2014              		.loc 1 213 13 is_stmt 1
 214:src/KRiscv.cpp ****                 && KConsole::inBuff->getCnt() < KConsole::BUFF_SIZE)
 2015              		.loc 1 214 17
 213:src/KRiscv.cpp ****             while ((*(char*)CONSOLE_STATUS & CONSOLE_RX_STATUS_BIT)
 2016              		.loc 1 213 21 is_stmt 0
 2017 0678 97070000 		la	a5,CONSOLE_STATUS
 2017      83B70700 
 2018 0680 83B70700 		ld	a5,0(a5)
 2019 0684 83C70700 		lbu	a5,0(a5)
 214:src/KRiscv.cpp ****                 && KConsole::inBuff->getCnt() < KConsole::BUFF_SIZE)
 2020              		.loc 1 214 17
 2021 0688 93F71700 		andi	a5,a5,1
 2022 068c E38E07FC 		beqz	a5,.L36
 214:src/KRiscv.cpp ****                 && KConsole::inBuff->getCnt() < KConsole::BUFF_SIZE)
 2023              		.loc 1 214 44 discriminator 1
 2024 0690 97070000 		la	a5,_ZN8KConsole6inBuffE
 2024      83B70700 
 2025 0698 03B50700 		ld	a0,0(a5)
 2026 069c 97000000 		call	_ZN8KConsole6getCntEv@plt
 2026      E7800000 
 2027              	.LVL131:
 214:src/KRiscv.cpp ****                 && KConsole::inBuff->getCnt() < KConsole::BUFF_SIZE)
 2028              		.loc 1 214 17 discriminator 1
 2029 06a4 9307F03F 		li	a5,1023
 2030 06a8 E3C0A7FC 		bgt	a0,a5,.L36
 215:src/KRiscv.cpp ****                 KConsole::inBuff->put(*(char*)CONSOLE_RX_DATA);
 2031              		.loc 1 215 17 is_stmt 1
 215:src/KRiscv.cpp ****                 KConsole::inBuff->put(*(char*)CONSOLE_RX_DATA);
 2032              		.loc 1 215 38 is_stmt 0
 2033 06ac 97070000 		la	a5,CONSOLE_RX_DATA
 2033      83B70700 
 2034 06b4 83B70700 		ld	a5,0(a5)
 2035 06b8 83C50700 		lbu	a1,0(a5)
 2036 06bc 97070000 		la	a5,_ZN8KConsole6inBuffE
 2036      83B70700 
 2037 06c4 03B50700 		ld	a0,0(a5)
 2038 06c8 97000000 		call	_ZN8KConsole3putEc@plt
 2038      E7800000 
 2039              	.LVL132:
 2040              	.LEHE1:
 213:src/KRiscv.cpp ****             while ((*(char*)CONSOLE_STATUS & CONSOLE_RX_STATUS_BIT)
 2041              		.loc 1 213 13
 2042 06d0 6FF09FFA 		j	.L37
 2043              	.LBE165:
 2044              	.LBE181:
 2045              	.LBE435:
 2046              	.LBE452:
 2047              		.cfi_endproc
 2048              	.LFE51:
 2049              		.globl	__gxx_personality_v0
 2050              		.section	.gcc_except_table,"a",@progbits
 2051              	.LLSDA51:
GAS LISTING /tmp/cc88gCBR.s 			page 54


 2052 0000 FF       		.byte	0xff
 2053 0001 FF       		.byte	0xff
 2054 0002 03       		.byte	0x3
 2055 0003 1A       		.byte	0x1a
 2056 0004 00000000 		.4byte	.LEHB0-.LFB51
 2057 0008 00000000 		.4byte	.LEHE0-.LEHB0
 2058 000c 00000000 		.4byte	0
 2059 0010 00       		.byte	0
 2060 0011 00000000 		.4byte	.LEHB1-.LFB51
 2061 0015 00000000 		.4byte	.LEHE1-.LEHB1
 2062 0019 00000000 		.4byte	0
 2063 001d 00       		.byte	0
 2064              		.text
 2066              	.Letext0:
 2067              		.file 5 "src/../h/../lib/hw.h"
 2068              		.file 6 "src/../h/KMemoryAllocator.hpp"
 2069              		.file 7 "src/../h/KScheduler.hpp"
 2070              		.file 8 "src/../h/KSleep.hpp"
 2071              		.file 9 "src/../h/KConsole.hpp"
 7620              		.align	3
 7623              	DW.ref.__gxx_personality_v0:
 7624 0000 00000000 		.dword	__gxx_personality_v0
 7624      00000000 
 7625              		.ident	"GCC: (Ubuntu 9.4.0-1ubuntu1~20.04) 9.4.0"
 7626              		.section	.note.GNU-stack,"",@progbits
GAS LISTING /tmp/cc88gCBR.s 			page 55

