GAS LISTING /tmp/ccz8N6ZJ.s 			page 1


   1              		.file	"KScheduler.cpp"
   2              		.option pic
   3              		.option norelax
   4              		.text
   5              	.Ltext0:
   6              		.align	2
   7              		.globl	_ZN10KScheduler3getEv
   9              	_ZN10KScheduler3getEv:
  10              	.LFB17:
  11              		.file 1 "src/KScheduler.cpp"
   1:src/KScheduler.cpp **** //
   2:src/KScheduler.cpp **** // Created by os on 6/22/22.
   3:src/KScheduler.cpp **** //
   4:src/KScheduler.cpp **** 
   5:src/KScheduler.cpp **** #include "../h/KScheduler.hpp"
   6:src/KScheduler.cpp **** #include "../h/KPCB.hpp"
   7:src/KScheduler.cpp **** 
   8:src/KScheduler.cpp **** KPCB* KScheduler::head = nullptr;
   9:src/KScheduler.cpp **** KPCB* KScheduler::tail = nullptr;
  10:src/KScheduler.cpp **** 
  11:src/KScheduler.cpp **** KPCB *KScheduler::get() {
  12              		.loc 1 11 25
  13              		.cfi_startproc
  14 0000 130101FF 		addi	sp,sp,-16
  15              		.cfi_def_cfa_offset 16
  16 0004 23348100 		sd	s0,8(sp)
  17              		.cfi_offset 8, -8
  18 0008 13040101 		addi	s0,sp,16
  19              		.cfi_def_cfa 8, 0
  12:src/KScheduler.cpp ****     if (!head) return nullptr;
  20              		.loc 1 12 5
  21              		.loc 1 12 9 is_stmt 0
  22 000c 17050000 		ld	a0,.LANCHOR0
  22      03350500 
  23              		.loc 1 12 5
  24 0014 630C0500 		beqz	a0,.L1
  13:src/KScheduler.cpp ****     KPCB* curr = head;
  25              		.loc 1 13 5 is_stmt 1
  26              	.LVL0:
  14:src/KScheduler.cpp ****     head = head->nextScheduler;
  27              		.loc 1 14 5
  28              		.loc 1 14 18 is_stmt 0
  29 0018 83378503 		ld	a5,56(a0)
  30              		.loc 1 14 10
  31 001c 17070000 		sd	a5,.LANCHOR0,a4
  31      2330F700 
  15:src/KScheduler.cpp ****     if (!head) tail = nullptr;
  32              		.loc 1 15 5 is_stmt 1
  33 0024 638A0700 		beqz	a5,.L5
  34              	.L3:
  16:src/KScheduler.cpp ****     curr->nextScheduler = nullptr;
  35              		.loc 1 16 5
  36              		.loc 1 16 25 is_stmt 0
  37 0028 233C0502 		sd	zero,56(a0)
  17:src/KScheduler.cpp ****     return curr;
  38              		.loc 1 17 5 is_stmt 1
  39              	.LVL1:
GAS LISTING /tmp/ccz8N6ZJ.s 			page 2


  40              	.L1:
  18:src/KScheduler.cpp **** }
  41              		.loc 1 18 1 is_stmt 0
  42 002c 03348100 		ld	s0,8(sp)
  43              		.cfi_remember_state
  44              		.cfi_restore 8
  45              		.cfi_def_cfa 2, 16
  46 0030 13010101 		addi	sp,sp,16
  47              		.cfi_def_cfa_offset 0
  48 0034 67800000 		jr	ra
  49              	.LVL2:
  50              	.L5:
  51              		.cfi_restore_state
  15:src/KScheduler.cpp ****     curr->nextScheduler = nullptr;
  52              		.loc 1 15 16 is_stmt 1 discriminator 1
  15:src/KScheduler.cpp ****     curr->nextScheduler = nullptr;
  53              		.loc 1 15 21 is_stmt 0 discriminator 1
  54 0038 97070000 		sd	zero,.LANCHOR0+8,a5
  54      23B00700 
  55 0040 6FF09FFE 		j	.L3
  56              		.cfi_endproc
  57              	.LFE17:
  59              		.align	2
  60              		.globl	_ZN10KScheduler3putEP4KPCB
  62              	_ZN10KScheduler3putEP4KPCB:
  63              	.LFB18:
  19:src/KScheduler.cpp **** 
  20:src/KScheduler.cpp **** void KScheduler::put(KPCB *kpcb) {
  64              		.loc 1 20 34 is_stmt 1
  65              		.cfi_startproc
  66              	.LVL3:
  67 0044 130101FF 		addi	sp,sp,-16
  68              		.cfi_def_cfa_offset 16
  69 0048 23348100 		sd	s0,8(sp)
  70              		.cfi_offset 8, -8
  71 004c 13040101 		addi	s0,sp,16
  72              		.cfi_def_cfa 8, 0
  21:src/KScheduler.cpp ****     if (!head) head = kpcb;
  73              		.loc 1 21 5
  74              		.loc 1 21 9 is_stmt 0
  75 0050 97070000 		ld	a5,.LANCHOR0
  75      83B70700 
  76              		.loc 1 21 5
  77 0058 63820702 		beqz	a5,.L10
  22:src/KScheduler.cpp ****     else tail->nextScheduler = kpcb;
  78              		.loc 1 22 10 is_stmt 1
  79              		.loc 1 22 16 is_stmt 0
  80 005c 97070000 		ld	a5,.LANCHOR0+8
  80      83B70700 
  81              		.loc 1 22 30
  82 0064 23BCA702 		sd	a0,56(a5)
  83              	.L8:
  23:src/KScheduler.cpp ****     tail = kpcb;
  84              		.loc 1 23 5 is_stmt 1
  85              		.loc 1 23 10 is_stmt 0
  86 0068 97070000 		sd	a0,.LANCHOR0+8,a5
  86      23B0A700 
GAS LISTING /tmp/ccz8N6ZJ.s 			page 3


  24:src/KScheduler.cpp **** }
  87              		.loc 1 24 1
  88 0070 03348100 		ld	s0,8(sp)
  89              		.cfi_remember_state
  90              		.cfi_restore 8
  91              		.cfi_def_cfa 2, 16
  92 0074 13010101 		addi	sp,sp,16
  93              		.cfi_def_cfa_offset 0
  94 0078 67800000 		jr	ra
  95              	.L10:
  96              		.cfi_restore_state
  21:src/KScheduler.cpp ****     else tail->nextScheduler = kpcb;
  97              		.loc 1 21 16 is_stmt 1 discriminator 1
  21:src/KScheduler.cpp ****     else tail->nextScheduler = kpcb;
  98              		.loc 1 21 21 is_stmt 0 discriminator 1
  99 007c 97070000 		sd	a0,.LANCHOR0,a5
  99      23B0A700 
 100 0084 6FF05FFE 		j	.L8
 101              		.cfi_endproc
 102              	.LFE18:
 104              		.globl	_ZN10KScheduler4tailE
 105              		.globl	_ZN10KScheduler4headE
 106              		.bss
 107              		.align	3
 108              		.set	.LANCHOR0,. + 0
 111              	_ZN10KScheduler4headE:
 112 0000 00000000 		.zero	8
 112      00000000 
 115              	_ZN10KScheduler4tailE:
 116 0008 00000000 		.zero	8
 116      00000000 
 117              		.text
 118              	.Letext0:
 119              		.file 2 "src/../h/../lib/hw.h"
 120              		.file 3 "src/../h/KScheduler.hpp"
 121              		.file 4 "src/../h/KPCB.hpp"
GAS LISTING /tmp/ccz8N6ZJ.s 			page 4


DEFINED SYMBOLS
                            *ABS*:0000000000000000 KScheduler.cpp
     /tmp/ccz8N6ZJ.s:9      .text:0000000000000000 _ZN10KScheduler3getEv
     /tmp/ccz8N6ZJ.s:13     .text:0000000000000000 .L0 
     /tmp/ccz8N6ZJ.s:14     .text:0000000000000000 .L0 
     /tmp/ccz8N6ZJ.s:15     .text:0000000000000004 .L0 
     /tmp/ccz8N6ZJ.s:17     .text:0000000000000008 .L0 
     /tmp/ccz8N6ZJ.s:19     .text:000000000000000c .L0 
     /tmp/ccz8N6ZJ.s:21     .text:000000000000000c .L0 
     /tmp/ccz8N6ZJ.s:22     .text:000000000000000c .L0 
     /tmp/ccz8N6ZJ.s:24     .text:0000000000000014 .L0 
     /tmp/ccz8N6ZJ.s:27     .text:0000000000000018 .L0 
     /tmp/ccz8N6ZJ.s:28     .text:0000000000000018 .L0 
     /tmp/ccz8N6ZJ.s:29     .text:0000000000000018 .L0 
     /tmp/ccz8N6ZJ.s:31     .text:000000000000001c .L0 
     /tmp/ccz8N6ZJ.s:33     .text:0000000000000024 .L0 
     /tmp/ccz8N6ZJ.s:36     .text:0000000000000028 .L0 
     /tmp/ccz8N6ZJ.s:37     .text:0000000000000028 .L0 
     /tmp/ccz8N6ZJ.s:41     .text:000000000000002c .L0 
     /tmp/ccz8N6ZJ.s:42     .text:000000000000002c .L0 
     /tmp/ccz8N6ZJ.s:43     .text:0000000000000030 .L0 
     /tmp/ccz8N6ZJ.s:44     .text:0000000000000030 .L0 
     /tmp/ccz8N6ZJ.s:45     .text:0000000000000030 .L0 
     /tmp/ccz8N6ZJ.s:47     .text:0000000000000034 .L0 
     /tmp/ccz8N6ZJ.s:51     .text:0000000000000038 .L0 
     /tmp/ccz8N6ZJ.s:53     .text:0000000000000038 .L0 
     /tmp/ccz8N6ZJ.s:54     .text:0000000000000038 .L0 
     /tmp/ccz8N6ZJ.s:56     .text:0000000000000044 .L0 
     /tmp/ccz8N6ZJ.s:62     .text:0000000000000044 _ZN10KScheduler3putEP4KPCB
     /tmp/ccz8N6ZJ.s:65     .text:0000000000000044 .L0 
     /tmp/ccz8N6ZJ.s:67     .text:0000000000000044 .L0 
     /tmp/ccz8N6ZJ.s:68     .text:0000000000000048 .L0 
     /tmp/ccz8N6ZJ.s:70     .text:000000000000004c .L0 
     /tmp/ccz8N6ZJ.s:72     .text:0000000000000050 .L0 
     /tmp/ccz8N6ZJ.s:74     .text:0000000000000050 .L0 
     /tmp/ccz8N6ZJ.s:75     .text:0000000000000050 .L0 
     /tmp/ccz8N6ZJ.s:77     .text:0000000000000058 .L0 
     /tmp/ccz8N6ZJ.s:79     .text:000000000000005c .L0 
     /tmp/ccz8N6ZJ.s:80     .text:000000000000005c .L0 
     /tmp/ccz8N6ZJ.s:82     .text:0000000000000064 .L0 
     /tmp/ccz8N6ZJ.s:85     .text:0000000000000068 .L0 
     /tmp/ccz8N6ZJ.s:86     .text:0000000000000068 .L0 
     /tmp/ccz8N6ZJ.s:88     .text:0000000000000070 .L0 
     /tmp/ccz8N6ZJ.s:89     .text:0000000000000074 .L0 
     /tmp/ccz8N6ZJ.s:90     .text:0000000000000074 .L0 
     /tmp/ccz8N6ZJ.s:91     .text:0000000000000074 .L0 
     /tmp/ccz8N6ZJ.s:93     .text:0000000000000078 .L0 
     /tmp/ccz8N6ZJ.s:96     .text:000000000000007c .L0 
     /tmp/ccz8N6ZJ.s:98     .text:000000000000007c .L0 
     /tmp/ccz8N6ZJ.s:99     .text:000000000000007c .L0 
     /tmp/ccz8N6ZJ.s:101    .text:0000000000000088 .L0 
     /tmp/ccz8N6ZJ.s:115    .bss:0000000000000008 _ZN10KScheduler4tailE
     /tmp/ccz8N6ZJ.s:111    .bss:0000000000000000 _ZN10KScheduler4headE
     /tmp/ccz8N6ZJ.s:108    .bss:0000000000000000 .LANCHOR0
     /tmp/ccz8N6ZJ.s:122    .text:0000000000000088 .L0 
     /tmp/ccz8N6ZJ.s:22     .text:000000000000000c .L0 
     /tmp/ccz8N6ZJ.s:31     .text:000000000000001c .L0 
GAS LISTING /tmp/ccz8N6ZJ.s 			page 5


     /tmp/ccz8N6ZJ.s:54     .text:0000000000000038 .L0 
     /tmp/ccz8N6ZJ.s:75     .text:0000000000000050 .L0 
     /tmp/ccz8N6ZJ.s:80     .text:000000000000005c .L0 
     /tmp/ccz8N6ZJ.s:86     .text:0000000000000068 .L0 
     /tmp/ccz8N6ZJ.s:99     .text:000000000000007c .L0 
     /tmp/ccz8N6ZJ.s:40     .text:000000000000002c .L1
     /tmp/ccz8N6ZJ.s:50     .text:0000000000000038 .L5
     /tmp/ccz8N6ZJ.s:34     .text:0000000000000028 .L3
     /tmp/ccz8N6ZJ.s:95     .text:000000000000007c .L10
     /tmp/ccz8N6ZJ.s:83     .text:0000000000000068 .L8
     /tmp/ccz8N6ZJ.s:838    .debug_abbrev:0000000000000000 .Ldebug_abbrev0
     /tmp/ccz8N6ZJ.s:1682   .debug_str:000000000000045c .LASF83
     /tmp/ccz8N6ZJ.s:1536   .debug_str:000000000000003b .LASF84
     /tmp/ccz8N6ZJ.s:1566   .debug_str:000000000000012b .LASF85
     /tmp/ccz8N6ZJ.s:5      .text:0000000000000000 .Ltext0
     /tmp/ccz8N6ZJ.s:118    .text:0000000000000088 .Letext0
     /tmp/ccz8N6ZJ.s:1524   .debug_line:0000000000000000 .Ldebug_line0
     /tmp/ccz8N6ZJ.s:1626   .debug_str:00000000000002d3 .LASF0
     /tmp/ccz8N6ZJ.s:1644   .debug_str:0000000000000334 .LASF1
     /tmp/ccz8N6ZJ.s:1612   .debug_str:000000000000024e .LASF2
     /tmp/ccz8N6ZJ.s:1594   .debug_str:00000000000001fd .LASF4
     /tmp/ccz8N6ZJ.s:1674   .debug_str:0000000000000419 .LASF3
     /tmp/ccz8N6ZJ.s:1544   .debug_str:000000000000007f .LASF5
     /tmp/ccz8N6ZJ.s:1572   .debug_str:0000000000000169 .LASF6
     /tmp/ccz8N6ZJ.s:1648   .debug_str:000000000000034c .LASF7
     /tmp/ccz8N6ZJ.s:1624   .debug_str:00000000000002c0 .LASF8
     /tmp/ccz8N6ZJ.s:1694   .debug_str:000000000000058b .LASF9
     /tmp/ccz8N6ZJ.s:1588   .debug_str:00000000000001d0 .LASF10
     /tmp/ccz8N6ZJ.s:1658   .debug_str:0000000000000396 .LASF11
     /tmp/ccz8N6ZJ.s:1686   .debug_str:000000000000052e .LASF12
     /tmp/ccz8N6ZJ.s:1548   .debug_str:000000000000009c .LASF13
     /tmp/ccz8N6ZJ.s:1528   .debug_str:000000000000000d .LASF14
     /tmp/ccz8N6ZJ.s:1558   .debug_str:00000000000000f2 .LASF15
     /tmp/ccz8N6ZJ.s:1670   .debug_str:00000000000003fd .LASF16
     /tmp/ccz8N6ZJ.s:1568   .debug_str:000000000000014e .LASF17
     /tmp/ccz8N6ZJ.s:1600   .debug_str:0000000000000212 .LASF20
     /tmp/ccz8N6ZJ.s:1712   .debug_str:0000000000000610 .LASF86
     /tmp/ccz8N6ZJ.s:1628   .debug_str:00000000000002e0 .LASF87
     /tmp/ccz8N6ZJ.s:1570   .debug_str:0000000000000164 .LASF18
     /tmp/ccz8N6ZJ.s:1610   .debug_str:0000000000000249 .LASF19
     /tmp/ccz8N6ZJ.s:1714   .debug_str:0000000000000626 .LASF21
     /tmp/ccz8N6ZJ.s:1530   .debug_str:000000000000001d .LASF88
     /tmp/ccz8N6ZJ.s:1532   .debug_str:0000000000000025 .LASF22
     /tmp/ccz8N6ZJ.s:1698   .debug_str:00000000000005b3 .LASF24
     /tmp/ccz8N6ZJ.s:1704   .debug_str:00000000000005d6 .LASF23
     /tmp/ccz8N6ZJ.s:1526   .debug_str:0000000000000000 .LASF25
     /tmp/ccz8N6ZJ.s:1584   .debug_str:00000000000001aa .LASF26
     /tmp/ccz8N6ZJ.s:1540   .debug_str:0000000000000066 .LASF27
     /tmp/ccz8N6ZJ.s:1678   .debug_str:0000000000000439 .LASF28
     /tmp/ccz8N6ZJ.s:1560   .debug_str:00000000000000fe .LASF30
     /tmp/ccz8N6ZJ.s:1680   .debug_str:0000000000000449 .LASF29
     /tmp/ccz8N6ZJ.s:1632   .debug_str:0000000000000304 .LASF31
     /tmp/ccz8N6ZJ.s:1602   .debug_str:000000000000021d .LASF32
     /tmp/ccz8N6ZJ.s:1692   .debug_str:0000000000000567 .LASF33
     /tmp/ccz8N6ZJ.s:1664   .debug_str:00000000000003c8 .LASF89
     /tmp/ccz8N6ZJ.s:1666   .debug_str:00000000000003cd .LASF34
     /tmp/ccz8N6ZJ.s:1672   .debug_str:0000000000000413 .LASF35
GAS LISTING /tmp/ccz8N6ZJ.s 			page 6


     /tmp/ccz8N6ZJ.s:1552   .debug_str:00000000000000bd .LASF37
     /tmp/ccz8N6ZJ.s:1630   .debug_str:00000000000002fb .LASF36
     /tmp/ccz8N6ZJ.s:1592   .debug_str:00000000000001e9 .LASF38
     /tmp/ccz8N6ZJ.s:1578   .debug_str:0000000000000181 .LASF39
     /tmp/ccz8N6ZJ.s:1616   .debug_str:0000000000000272 .LASF40
     /tmp/ccz8N6ZJ.s:1654   .debug_str:0000000000000377 .LASF41
     /tmp/ccz8N6ZJ.s:1650   .debug_str:000000000000035f .LASF42
     /tmp/ccz8N6ZJ.s:1656   .debug_str:000000000000037e .LASF44
     /tmp/ccz8N6ZJ.s:1622   .debug_str:00000000000002b5 .LASF43
     /tmp/ccz8N6ZJ.s:1538   .debug_str:000000000000004e .LASF45
     /tmp/ccz8N6ZJ.s:1706   .debug_str:00000000000005e3 .LASF46
     /tmp/ccz8N6ZJ.s:1614   .debug_str:000000000000025c .LASF47
     /tmp/ccz8N6ZJ.s:1604   .debug_str:000000000000022a .LASF48
     /tmp/ccz8N6ZJ.s:1668   .debug_str:00000000000003eb .LASF49
     /tmp/ccz8N6ZJ.s:1542   .debug_str:0000000000000073 .LASF50
     /tmp/ccz8N6ZJ.s:1696   .debug_str:000000000000059b .LASF51
     /tmp/ccz8N6ZJ.s:1576   .debug_str:0000000000000175 .LASF52
     /tmp/ccz8N6ZJ.s:1688   .debug_str:000000000000053d .LASF53
     /tmp/ccz8N6ZJ.s:1708   .debug_str:00000000000005ed .LASF54
     /tmp/ccz8N6ZJ.s:1562   .debug_str:000000000000010c .LASF55
     /tmp/ccz8N6ZJ.s:1640   .debug_str:0000000000000325 .LASF56
     /tmp/ccz8N6ZJ.s:1690   .debug_str:0000000000000555 .LASF57
     /tmp/ccz8N6ZJ.s:1564   .debug_str:0000000000000123 .LASF58
     /tmp/ccz8N6ZJ.s:1556   .debug_str:00000000000000df .LASF59
     /tmp/ccz8N6ZJ.s:1534   .debug_str:000000000000002b .LASF60
     /tmp/ccz8N6ZJ.s:1582   .debug_str:000000000000018e .LASF61
     /tmp/ccz8N6ZJ.s:1618   .debug_str:000000000000027a .LASF62
     /tmp/ccz8N6ZJ.s:1710   .debug_str:00000000000005f8 .LASF63
     /tmp/ccz8N6ZJ.s:1598   .debug_str:000000000000020d .LASF64
     /tmp/ccz8N6ZJ.s:1636   .debug_str:0000000000000318 .LASF65
     /tmp/ccz8N6ZJ.s:1634   .debug_str:0000000000000312 .LASF66
     /tmp/ccz8N6ZJ.s:1638   .debug_str:000000000000031d .LASF67
     /tmp/ccz8N6ZJ.s:1596   .debug_str:0000000000000204 .LASF68
     /tmp/ccz8N6ZJ.s:1660   .debug_str:00000000000003a5 .LASF69
     /tmp/ccz8N6ZJ.s:1702   .debug_str:00000000000005ce .LASF70
     /tmp/ccz8N6ZJ.s:1642   .debug_str:000000000000032c .LASF71
     /tmp/ccz8N6ZJ.s:1676   .debug_str:000000000000042b .LASF72
     /tmp/ccz8N6ZJ.s:1652   .debug_str:000000000000036a .LASF73
     /tmp/ccz8N6ZJ.s:1684   .debug_str:0000000000000520 .LASF74
     /tmp/ccz8N6ZJ.s:1550   .debug_str:00000000000000ac .LASF75
     /tmp/ccz8N6ZJ.s:1554   .debug_str:00000000000000ce .LASF76
     /tmp/ccz8N6ZJ.s:1590   .debug_str:00000000000001de .LASF77
     /tmp/ccz8N6ZJ.s:1606   .debug_str:0000000000000230 .LASF78
     /tmp/ccz8N6ZJ.s:1700   .debug_str:00000000000005c0 .LASF90
     /tmp/ccz8N6ZJ.s:1620   .debug_str:000000000000028c .LASF91
     /tmp/ccz8N6ZJ.s:1608   .debug_str:000000000000023b .LASF92
     /tmp/ccz8N6ZJ.s:1662   .debug_str:00000000000003ae .LASF93
     /tmp/ccz8N6ZJ.s:1580   .debug_str:0000000000000189 .LASF79
     /tmp/ccz8N6ZJ.s:1546   .debug_str:0000000000000086 .LASF80
     /tmp/ccz8N6ZJ.s:1586   .debug_str:00000000000001ba .LASF81
     /tmp/ccz8N6ZJ.s:63     .text:0000000000000044 .LFB18
     /tmp/ccz8N6ZJ.s:102    .text:0000000000000088 .LFE18
     /tmp/ccz8N6ZJ.s:1574   .debug_str:0000000000000170 .LASF94
     /tmp/ccz8N6ZJ.s:10     .text:0000000000000000 .LFB17
     /tmp/ccz8N6ZJ.s:57     .text:0000000000000044 .LFE17
     /tmp/ccz8N6ZJ.s:1646   .debug_str:0000000000000347 .LASF82
     /tmp/ccz8N6ZJ.s:1500   .debug_loc:0000000000000000 .LLST0
GAS LISTING /tmp/ccz8N6ZJ.s 			page 7


     /tmp/ccz8N6ZJ.s:26     .text:0000000000000018 .LVL0
     /tmp/ccz8N6ZJ.s:39     .text:000000000000002c .LVL1
     /tmp/ccz8N6ZJ.s:49     .text:0000000000000038 .LVL2
     /tmp/ccz8N6ZJ.s:123    .debug_info:0000000000000000 .Ldebug_info0

NO UNDEFINED SYMBOLS
