GAS LISTING /tmp/ccz8N6ZJ.s 			page 1


   1              		.file	"KScheduler.cpp"
   2              		.option pic
   3              		.option norelax
   4              		.text
   5              	.Ltext0:
   6              		.align	2
   7              		.globl	_ZN10KScheduler3getEv
   9              	_ZN10KScheduler3getEv:
  10              	.LFB17:
  11              		.file 1 "src/KScheduler.cpp"
   1:src/KScheduler.cpp **** //
   2:src/KScheduler.cpp **** // Created by os on 6/22/22.
   3:src/KScheduler.cpp **** //
   4:src/KScheduler.cpp **** 
   5:src/KScheduler.cpp **** #include "../h/KScheduler.hpp"
   6:src/KScheduler.cpp **** #include "../h/KPCB.hpp"
   7:src/KScheduler.cpp **** 
   8:src/KScheduler.cpp **** KPCB* KScheduler::head = nullptr;
   9:src/KScheduler.cpp **** KPCB* KScheduler::tail = nullptr;
  10:src/KScheduler.cpp **** 
  11:src/KScheduler.cpp **** KPCB *KScheduler::get() {
  12              		.loc 1 11 25
  13              		.cfi_startproc
  14 0000 130101FF 		addi	sp,sp,-16
  15              		.cfi_def_cfa_offset 16
  16 0004 23348100 		sd	s0,8(sp)
  17              		.cfi_offset 8, -8
  18 0008 13040101 		addi	s0,sp,16
  19              		.cfi_def_cfa 8, 0
  12:src/KScheduler.cpp ****     if (!head) return nullptr;
  20              		.loc 1 12 5
  21              		.loc 1 12 9 is_stmt 0
  22 000c 17050000 		ld	a0,.LANCHOR0
  22      03350500 
  23              		.loc 1 12 5
  24 0014 630C0500 		beqz	a0,.L1
  13:src/KScheduler.cpp ****     KPCB* curr = head;
  25              		.loc 1 13 5 is_stmt 1
  26              	.LVL0:
  14:src/KScheduler.cpp ****     head = head->nextScheduler;
  27              		.loc 1 14 5
  28              		.loc 1 14 18 is_stmt 0
  29 0018 83378503 		ld	a5,56(a0)
  30              		.loc 1 14 10
  31 001c 17070000 		sd	a5,.LANCHOR0,a4
  31      2330F700 
  15:src/KScheduler.cpp ****     if (!head) tail = nullptr;
  32              		.loc 1 15 5 is_stmt 1
  33 0024 638A0700 		beqz	a5,.L5
  34              	.L3:
  16:src/KScheduler.cpp ****     curr->nextScheduler = nullptr;
  35              		.loc 1 16 5
  36              		.loc 1 16 25 is_stmt 0
  37 0028 233C0502 		sd	zero,56(a0)
  17:src/KScheduler.cpp ****     return curr;
  38              		.loc 1 17 5 is_stmt 1
  39              	.LVL1:
GAS LISTING /tmp/ccz8N6ZJ.s 			page 2


  40              	.L1:
  18:src/KScheduler.cpp **** }
  41              		.loc 1 18 1 is_stmt 0
  42 002c 03348100 		ld	s0,8(sp)
  43              		.cfi_remember_state
  44              		.cfi_restore 8
  45              		.cfi_def_cfa 2, 16
  46 0030 13010101 		addi	sp,sp,16
  47              		.cfi_def_cfa_offset 0
  48 0034 67800000 		jr	ra
  49              	.LVL2:
  50              	.L5:
  51              		.cfi_restore_state
  15:src/KScheduler.cpp ****     curr->nextScheduler = nullptr;
  52              		.loc 1 15 16 is_stmt 1 discriminator 1
  15:src/KScheduler.cpp ****     curr->nextScheduler = nullptr;
  53              		.loc 1 15 21 is_stmt 0 discriminator 1
  54 0038 97070000 		sd	zero,.LANCHOR0+8,a5
  54      23B00700 
  55 0040 6FF09FFE 		j	.L3
  56              		.cfi_endproc
  57              	.LFE17:
  59              		.align	2
  60              		.globl	_ZN10KScheduler3putEP4KPCB
  62              	_ZN10KScheduler3putEP4KPCB:
  63              	.LFB18:
  19:src/KScheduler.cpp **** 
  20:src/KScheduler.cpp **** void KScheduler::put(KPCB *kpcb) {
  64              		.loc 1 20 34 is_stmt 1
  65              		.cfi_startproc
  66              	.LVL3:
  67 0044 130101FF 		addi	sp,sp,-16
  68              		.cfi_def_cfa_offset 16
  69 0048 23348100 		sd	s0,8(sp)
  70              		.cfi_offset 8, -8
  71 004c 13040101 		addi	s0,sp,16
  72              		.cfi_def_cfa 8, 0
  21:src/KScheduler.cpp ****     if (!head) head = kpcb;
  73              		.loc 1 21 5
  74              		.loc 1 21 9 is_stmt 0
  75 0050 97070000 		ld	a5,.LANCHOR0
  75      83B70700 
  76              		.loc 1 21 5
  77 0058 63820702 		beqz	a5,.L10
  22:src/KScheduler.cpp ****     else tail->nextScheduler = kpcb;
  78              		.loc 1 22 10 is_stmt 1
  79              		.loc 1 22 16 is_stmt 0
  80 005c 97070000 		ld	a5,.LANCHOR0+8
  80      83B70700 
  81              		.loc 1 22 30
  82 0064 23BCA702 		sd	a0,56(a5)
  83              	.L8:
  23:src/KScheduler.cpp ****     tail = kpcb;
  84              		.loc 1 23 5 is_stmt 1
  85              		.loc 1 23 10 is_stmt 0
  86 0068 97070000 		sd	a0,.LANCHOR0+8,a5
  86      23B0A700 
GAS LISTING /tmp/ccz8N6ZJ.s 			page 3


  24:src/KScheduler.cpp **** }
  87              		.loc 1 24 1
  88 0070 03348100 		ld	s0,8(sp)
  89              		.cfi_remember_state
  90              		.cfi_restore 8
  91              		.cfi_def_cfa 2, 16
  92 0074 13010101 		addi	sp,sp,16
  93              		.cfi_def_cfa_offset 0
  94 0078 67800000 		jr	ra
  95              	.L10:
  96              		.cfi_restore_state
  21:src/KScheduler.cpp ****     else tail->nextScheduler = kpcb;
  97              		.loc 1 21 16 is_stmt 1 discriminator 1
  21:src/KScheduler.cpp ****     else tail->nextScheduler = kpcb;
  98              		.loc 1 21 21 is_stmt 0 discriminator 1
  99 007c 97070000 		sd	a0,.LANCHOR0,a5
  99      23B0A700 
 100 0084 6FF05FFE 		j	.L8
 101              		.cfi_endproc
 102              	.LFE18:
 104              		.globl	_ZN10KScheduler4tailE
 105              		.globl	_ZN10KScheduler4headE
 106              		.bss
 107              		.align	3
 108              		.set	.LANCHOR0,. + 0
 111              	_ZN10KScheduler4headE:
 112 0000 00000000 		.zero	8
 112      00000000 
 115              	_ZN10KScheduler4tailE:
 116 0008 00000000 		.zero	8
 116      00000000 
 117              		.text
 118              	.Letext0:
 119              		.file 2 "src/../h/../lib/hw.h"
 120              		.file 3 "src/../h/KScheduler.hpp"
 121              		.file 4 "src/../h/KPCB.hpp"
GAS LISTING /tmp/ccz8N6ZJ.s 			page 4

