GAS LISTING /tmp/cciSDMoU.s 			page 1


   1              		.file	"main.cpp"
   2              		.option pic
   3              		.option norelax
   4              		.text
   5              	.Ltext0:
   6              		.align	2
   7              		.globl	_Z11userWrapperPv
   9              	_Z11userWrapperPv:
  10              	.LFB37:
  11              		.file 1 "src/main.cpp"
   1:src/main.cpp  **** //
   2:src/main.cpp  **** // Created by os on 6/22/22.
   3:src/main.cpp  **** //
   4:src/main.cpp  **** 
   5:src/main.cpp  **** #include "../lib/hw.h"
   6:src/main.cpp  **** #include "../h/KRiscv.hpp"
   7:src/main.cpp  **** #include "../h/KMemoryAllocator.hpp"
   8:src/main.cpp  **** #include "../h/KPCB.hpp"
   9:src/main.cpp  **** #include "../h/KConsole.hpp"
  10:src/main.cpp  **** #include "../h/syscall_c.h"
  11:src/main.cpp  **** #include "../test/printing.hpp"
  12:src/main.cpp  **** 
  13:src/main.cpp  **** uint64 framePointer;
  14:src/main.cpp  **** void test_memory();
  15:src/main.cpp  **** void test_thread();
  16:src/main.cpp  **** void test_semaphore();
  17:src/main.cpp  **** void test_complex();
  18:src/main.cpp  **** void userMain();
  19:src/main.cpp  **** void userWrapper(void* arg) {
  12              		.loc 1 19 29
  13              		.cfi_startproc
  14              	.LVL0:
  15 0000 130101FF 		addi	sp,sp,-16
  16              		.cfi_def_cfa_offset 16
  17 0004 23341100 		sd	ra,8(sp)
  18 0008 23308100 		sd	s0,0(sp)
  19              		.cfi_offset 1, -8
  20              		.cfi_offset 8, -16
  21 000c 13040101 		addi	s0,sp,16
  22              		.cfi_def_cfa 8, 0
  20:src/main.cpp  ****     userMain();
  23              		.loc 1 20 5
  24              		.loc 1 20 13 is_stmt 0
  25 0010 97000000 		call	_Z8userMainv@plt
  25      E7800000 
  26              	.LVL1:
  21:src/main.cpp  **** }
  27              		.loc 1 21 1
  28 0018 83308100 		ld	ra,8(sp)
  29              		.cfi_restore 1
  30 001c 03340100 		ld	s0,0(sp)
  31              		.cfi_restore 8
  32              		.cfi_def_cfa 2, 16
  33 0020 13010101 		addi	sp,sp,16
  34              		.cfi_def_cfa_offset 0
  35 0024 67800000 		jr	ra
  36              		.cfi_endproc
GAS LISTING /tmp/cciSDMoU.s 			page 2


  37              	.LFE37:
  39              		.align	2
  40              		.globl	main
  42              	main:
  43              	.LFB38:
  22:src/main.cpp  **** 
  23:src/main.cpp  **** void main() {
  44              		.loc 1 23 13 is_stmt 1
  45              		.cfi_startproc
  46 0028 130101FD 		addi	sp,sp,-48
  47              		.cfi_def_cfa_offset 48
  48 002c 23341102 		sd	ra,40(sp)
  49 0030 23308102 		sd	s0,32(sp)
  50 0034 233C9100 		sd	s1,24(sp)
  51              		.cfi_offset 1, -8
  52              		.cfi_offset 8, -16
  53              		.cfi_offset 9, -24
  54 0038 13040103 		addi	s0,sp,48
  55              		.cfi_def_cfa 8, 0
  24:src/main.cpp  ****     KRiscv::w_stvec((uint64)&KRiscv::interrupt);
  56              		.loc 1 24 5
  57              		.loc 1 24 20 is_stmt 0
  58 003c 97070000 		la	a5,_ZN6KRiscv9interruptEv
  58      83B70700 
  59              	.LVL2:
  60              	.LBB11:
  61              	.LBB12:
  62              		.file 2 "src/../h/KRiscv.hpp"
   1:src/../h/KRiscv.hpp **** //
   2:src/../h/KRiscv.hpp **** // Created by os on 6/22/22.
   3:src/../h/KRiscv.hpp **** //
   4:src/../h/KRiscv.hpp **** 
   5:src/../h/KRiscv.hpp **** #ifndef PROJECT_BASE_V1_1_KRISCV_HPP
   6:src/../h/KRiscv.hpp **** #define PROJECT_BASE_V1_1_KRISCV_HPP
   7:src/../h/KRiscv.hpp **** 
   8:src/../h/KRiscv.hpp **** #include "../lib/hw.h"
   9:src/../h/KRiscv.hpp **** 
  10:src/../h/KRiscv.hpp **** extern uint64 framePointer;
  11:src/../h/KRiscv.hpp **** 
  12:src/../h/KRiscv.hpp **** class KRiscv {
  13:src/../h/KRiscv.hpp **** public:
  14:src/../h/KRiscv.hpp **** 
  15:src/../h/KRiscv.hpp ****     static void popSppSpie();
  16:src/../h/KRiscv.hpp ****     static void interruptHandler();
  17:src/../h/KRiscv.hpp ****     static void interrupt();
  18:src/../h/KRiscv.hpp ****     static void pushRegisters();
  19:src/../h/KRiscv.hpp ****     static void popRegisters();
  20:src/../h/KRiscv.hpp **** 
  21:src/../h/KRiscv.hpp ****     static uint64 r_scause();
  22:src/../h/KRiscv.hpp ****     static void w_scause(uint64 scause);
  23:src/../h/KRiscv.hpp ****     static uint64 r_sepc();
  24:src/../h/KRiscv.hpp ****     static void w_sepc(uint64 sepc);
  25:src/../h/KRiscv.hpp ****     static uint64 r_stvec();
  26:src/../h/KRiscv.hpp ****     static void w_stvec(uint64 stvec);
  27:src/../h/KRiscv.hpp ****     static uint64 r_stval();
  28:src/../h/KRiscv.hpp ****     static void w_stval(uint64 stval);
  29:src/../h/KRiscv.hpp **** 
GAS LISTING /tmp/cciSDMoU.s 			page 3


  30:src/../h/KRiscv.hpp ****     enum BitMaskSip {
  31:src/../h/KRiscv.hpp ****         SIP_SSIP = (1 << 1),
  32:src/../h/KRiscv.hpp ****         SIP_STIP = (1 << 5),
  33:src/../h/KRiscv.hpp ****         SIP_SEIP = (1 << 9)
  34:src/../h/KRiscv.hpp ****     };
  35:src/../h/KRiscv.hpp **** 
  36:src/../h/KRiscv.hpp ****     static void ms_sip(uint64 mask);
  37:src/../h/KRiscv.hpp ****     static void mc_sip(uint64 mask);
  38:src/../h/KRiscv.hpp ****     static uint64 r_sip();
  39:src/../h/KRiscv.hpp ****     static void w_sip(uint64 sip);
  40:src/../h/KRiscv.hpp **** 
  41:src/../h/KRiscv.hpp ****     enum BitMaskSstatus {
  42:src/../h/KRiscv.hpp ****         SSTATUS_SIE = (1 << 1),
  43:src/../h/KRiscv.hpp ****         SSTATUS_SPIE = (1 << 5),
  44:src/../h/KRiscv.hpp ****         SSTATUS_SPP = (1 << 8)
  45:src/../h/KRiscv.hpp ****     };
  46:src/../h/KRiscv.hpp **** 
  47:src/../h/KRiscv.hpp ****     static void ms_sstatus(uint64 mask);
  48:src/../h/KRiscv.hpp ****     static void mc_sstatus(uint64 mask);
  49:src/../h/KRiscv.hpp ****     static uint64 r_sstatus();
  50:src/../h/KRiscv.hpp ****     static void w_sstatus(uint64 sstatus);
  51:src/../h/KRiscv.hpp **** 
  52:src/../h/KRiscv.hpp **** };
  53:src/../h/KRiscv.hpp **** 
  54:src/../h/KRiscv.hpp **** inline uint64 KRiscv::r_scause() {
  55:src/../h/KRiscv.hpp ****     uint64 volatile scause;
  56:src/../h/KRiscv.hpp ****     asm volatile ("csrr %0, scause" : "=r"(scause));
  57:src/../h/KRiscv.hpp ****     return scause;
  58:src/../h/KRiscv.hpp **** }
  59:src/../h/KRiscv.hpp **** 
  60:src/../h/KRiscv.hpp **** inline void KRiscv::w_scause(uint64 scause) {
  61:src/../h/KRiscv.hpp ****     asm volatile ("csrw scause, %0" :: "r"(scause));
  62:src/../h/KRiscv.hpp **** }
  63:src/../h/KRiscv.hpp **** 
  64:src/../h/KRiscv.hpp **** inline uint64 KRiscv::r_sepc() {
  65:src/../h/KRiscv.hpp ****     uint64 volatile sepc;
  66:src/../h/KRiscv.hpp ****     asm volatile ("csrr %0, sepc" : "=r"(sepc));
  67:src/../h/KRiscv.hpp ****     return sepc;
  68:src/../h/KRiscv.hpp **** }
  69:src/../h/KRiscv.hpp **** 
  70:src/../h/KRiscv.hpp **** inline void KRiscv::w_sepc(uint64 sepc) {
  71:src/../h/KRiscv.hpp ****     asm volatile ("csrw sepc, %0" :: "r"(sepc));
  72:src/../h/KRiscv.hpp **** }
  73:src/../h/KRiscv.hpp **** 
  74:src/../h/KRiscv.hpp **** inline uint64 KRiscv::r_stvec() {
  75:src/../h/KRiscv.hpp ****     uint64 volatile stvec;
  76:src/../h/KRiscv.hpp ****     asm volatile ("csrr %0, stvec" : "=r"(stvec));
  77:src/../h/KRiscv.hpp ****     return stvec;
  78:src/../h/KRiscv.hpp **** }
  79:src/../h/KRiscv.hpp **** 
  80:src/../h/KRiscv.hpp **** inline void KRiscv::w_stvec(uint64 stvec) {
  81:src/../h/KRiscv.hpp ****     asm volatile ("csrw stvec, %0" :: "r"(stvec));
  63              		.loc 2 81 5 is_stmt 1
  64              		.loc 2 81 50 is_stmt 0
  65              	#APP
  66              	# 81 "src/../h/KRiscv.hpp" 1
  82              	}
GAS LISTING /tmp/cciSDMoU.s 			page 4


  67              		csrw stvec, a5
  68              	# 0 "" 2
  69              	.LVL3:
  70              	#NO_APP
  71              	.LBE12:
  72              	.LBE11:
  25:src/main.cpp  ****     KMemoryAllocator::initBlockHeader();
  73              		.loc 1 25 5 is_stmt 1
  74              		.loc 1 25 38 is_stmt 0
  75 0048 97000000 		call	_ZN16KMemoryAllocator15initBlockHeaderEv@plt
  75      E7800000 
  76              	.LVL4:
  26:src/main.cpp  ****     KConsole::initConsoleBuffers();
  77              		.loc 1 26 5 is_stmt 1
  78              		.loc 1 26 33 is_stmt 0
  79 0050 97000000 		call	_ZN8KConsole18initConsoleBuffersEv@plt
  79      E7800000 
  80              	.LVL5:
  27:src/main.cpp  **** 
  28:src/main.cpp  ****     KPCB* main = nullptr;
  81              		.loc 1 28 5 is_stmt 1
  29:src/main.cpp  ****     main = KPCB::createThread(nullptr, nullptr, nullptr);
  82              		.loc 1 29 5
  83              		.loc 1 29 30 is_stmt 0
  84 0058 13060000 		li	a2,0
  85 005c 93050000 		li	a1,0
  86 0060 13050000 		li	a0,0
  87 0064 97000000 		call	_ZN4KPCB12createThreadEPFvPvES0_S0_@plt
  87      E7800000 
  88              	.LVL6:
  30:src/main.cpp  ****     KPCB::running = main;
  89              		.loc 1 30 5 is_stmt 1
  90              		.loc 1 30 19 is_stmt 0
  91 006c 97070000 		la	a5,_ZN4KPCB7runningE
  91      83B70700 
  92 0074 23B0A700 		sd	a0,0(a5)
  31:src/main.cpp  **** 
  32:src/main.cpp  ****     KPCB* user = nullptr;
  93              		.loc 1 32 5 is_stmt 1
  94              		.loc 1 32 11 is_stmt 0
  95 0078 233C04FC 		sd	zero,-40(s0)
  33:src/main.cpp  ****     thread_create(&user, &userWrapper, nullptr);
  96              		.loc 1 33 5 is_stmt 1
  97              		.loc 1 33 18 is_stmt 0
  98 007c 13060000 		li	a2,0
  99 0080 97050000 		lla	a1,_Z11userWrapperPv
  99      93850500 
 100 0088 130584FD 		addi	a0,s0,-40
 101              	.LVL7:
 102 008c 97000000 		call	_Z13thread_createPP4KPCBPFvPvES2_@plt
 102      E7800000 
 103              	.LVL8:
  34:src/main.cpp  **** 
  35:src/main.cpp  ****     KRiscv::ms_sstatus(KRiscv::SSTATUS_SIE);
 104              		.loc 1 35 5 is_stmt 1
 105              	.LBB13:
 106              	.LBB14:
GAS LISTING /tmp/cciSDMoU.s 			page 5


  83:src/../h/KRiscv.hpp **** 
  84:src/../h/KRiscv.hpp **** inline uint64 KRiscv::r_stval() {
  85:src/../h/KRiscv.hpp ****     uint64 volatile stval;
  86:src/../h/KRiscv.hpp ****     asm volatile ("csrr %0, stval" : "=r"(stval));
  87:src/../h/KRiscv.hpp ****     return stval;
  88:src/../h/KRiscv.hpp **** }
  89:src/../h/KRiscv.hpp **** 
  90:src/../h/KRiscv.hpp **** inline void KRiscv::w_stval(uint64 stval) {
  91:src/../h/KRiscv.hpp ****     asm volatile ("csrw stval, %0" :: "r"(stval));
  92:src/../h/KRiscv.hpp **** }
  93:src/../h/KRiscv.hpp **** 
  94:src/../h/KRiscv.hpp **** inline void KRiscv::ms_sip(uint64 mask) {
  95:src/../h/KRiscv.hpp ****     asm volatile ("csrs sip, %0" :: "r"(mask));
  96:src/../h/KRiscv.hpp **** }
  97:src/../h/KRiscv.hpp **** 
  98:src/../h/KRiscv.hpp **** inline void KRiscv::mc_sip(uint64 mask) {
  99:src/../h/KRiscv.hpp ****     asm volatile ("csrc sip, %0" :: "r"(mask));
 100:src/../h/KRiscv.hpp **** }
 101:src/../h/KRiscv.hpp **** 
 102:src/../h/KRiscv.hpp **** inline uint64 KRiscv::r_sip() {
 103:src/../h/KRiscv.hpp ****     uint64 volatile sip;
 104:src/../h/KRiscv.hpp ****     asm volatile ("csrr %0, sip" : "=r"(sip));
 105:src/../h/KRiscv.hpp ****     return sip;
 106:src/../h/KRiscv.hpp **** }
 107:src/../h/KRiscv.hpp **** 
 108:src/../h/KRiscv.hpp **** inline void KRiscv::w_sip(uint64 sip) {
 109:src/../h/KRiscv.hpp ****     asm volatile ("csrw sip, %0" :: "r"(sip));
 110:src/../h/KRiscv.hpp **** }
 111:src/../h/KRiscv.hpp **** 
 112:src/../h/KRiscv.hpp **** inline void KRiscv::ms_sstatus(uint64 mask) {
 113:src/../h/KRiscv.hpp ****     asm volatile ("csrs sstatus, %0" :: "r"(mask));
 107              		.loc 2 113 5
 108              		.loc 2 113 51 is_stmt 0
 109 0094 93072000 		li	a5,2
 110              	#APP
 111              	# 113 "src/../h/KRiscv.hpp" 1
 114              	}
 112              		csrs sstatus, a5
 113              	# 0 "" 2
 114              	.LVL9:
 115              	#NO_APP
 116              	.LBE14:
 117              	.LBE13:
  36:src/main.cpp  ****     userMode();
 118              		.loc 1 36 5 is_stmt 1
 119              		.loc 1 36 13 is_stmt 0
 120 009c 97000000 		call	_Z8userModev@plt
 120      E7800000 
 121              	.LVL10:
 122              	.L5:
  37:src/main.cpp  **** 
  38:src/main.cpp  ****     //test_memory();
  39:src/main.cpp  ****     //test_thread();
  40:src/main.cpp  ****     //test_semaphore();
  41:src/main.cpp  ****     //test_complex();
  42:src/main.cpp  **** 
  43:src/main.cpp  ****     while (KPCB::counter) KPCB::yield();
GAS LISTING /tmp/cciSDMoU.s 			page 6


 123              		.loc 1 43 5 is_stmt 1
 124              		.loc 1 43 18
 125 00a4 97070000 		la	a5,_ZN4KPCB7counterE
 125      83B70700 
 126 00ac 83A70700 		lw	a5,0(a5)
 127 00b0 63880700 		beqz	a5,.L4
 128              		.loc 1 43 27 discriminator 1
 129              		.loc 1 43 38 is_stmt 0 discriminator 1
 130 00b4 97000000 		call	_ZN4KPCB5yieldEv@plt
 130      E7800000 
 131              	.LVL11:
 132 00bc 6FF09FFE 		j	.L5
 133              	.L4:
  44:src/main.cpp  ****     if (user) delete user;
 134              		.loc 1 44 5 is_stmt 1
 135              		.loc 1 44 13 is_stmt 0
 136 00c0 833484FD 		ld	s1,-40(s0)
 137              		.loc 1 44 5
 138 00c4 63800402 		beqz	s1,.L3
 139              		.loc 1 44 15 is_stmt 1
 140              	.LVL12:
 141              	.LBB15:
 142              	.LBB16:
 143              		.file 3 "src/../h/KPCB.hpp"
   1:src/../h/KPCB.hpp **** //
   2:src/../h/KPCB.hpp **** // Created by os on 6/22/22.
   3:src/../h/KPCB.hpp **** //
   4:src/../h/KPCB.hpp **** 
   5:src/../h/KPCB.hpp **** #ifndef PROJECT_BASE_V1_1_KPCB_HPP
   6:src/../h/KPCB.hpp **** #define PROJECT_BASE_V1_1_KPCB_HPP
   7:src/../h/KPCB.hpp **** 
   8:src/../h/KPCB.hpp **** #include "../lib/hw.h"
   9:src/../h/KPCB.hpp **** #include "../lib/mem.h"
  10:src/../h/KPCB.hpp **** #include "KScheduler.hpp"
  11:src/../h/KPCB.hpp **** #include "KMemoryAllocator.hpp"
  12:src/../h/KPCB.hpp **** 
  13:src/../h/KPCB.hpp **** class KPCB {
  14:src/../h/KPCB.hpp **** public:
  15:src/../h/KPCB.hpp ****     ~KPCB() { delete[] stack; }
 144              		.loc 3 15 15
 145              		.loc 3 15 24 is_stmt 0
 146 00c8 03B58401 		ld	a0,24(s1)
 147              		.loc 3 15 29
 148 00cc 63060500 		beqz	a0,.L7
 149              		.loc 3 15 24
 150 00d0 97000000 		call	_ZdaPv@plt
 150      E7800000 
 151              	.LVL13:
 152              	.L7:
 153              	.LBE16:
 154              	.LBE15:
 155              	.LBB17:
 156              	.LBB18:
  16:src/../h/KPCB.hpp ****     friend class KScheduler;
  17:src/../h/KPCB.hpp ****     friend class KSemaphore;
  18:src/../h/KPCB.hpp ****     friend class KRiscv;
  19:src/../h/KPCB.hpp ****     friend class KSleep;
GAS LISTING /tmp/cciSDMoU.s 			page 7


  20:src/../h/KPCB.hpp **** 
  21:src/../h/KPCB.hpp ****     void* operator new(size_t size) {
  22:src/../h/KPCB.hpp ****         size_t sizeBlock = (size + 16) / MEM_BLOCK_SIZE + ((size + 16) % MEM_BLOCK_SIZE ? 1 : 0);
  23:src/../h/KPCB.hpp ****         return KMemoryAllocator::mem_alloc(sizeBlock);
  24:src/../h/KPCB.hpp ****         //return __mem_alloc(size);
  25:src/../h/KPCB.hpp ****     }
  26:src/../h/KPCB.hpp ****     void* operator new[](size_t size) {
  27:src/../h/KPCB.hpp ****         size_t sizeBlock = (size + 16) / MEM_BLOCK_SIZE + ((size + 16) % MEM_BLOCK_SIZE ? 1 : 0);
  28:src/../h/KPCB.hpp ****         return KMemoryAllocator::mem_alloc(sizeBlock);
  29:src/../h/KPCB.hpp ****         //return __mem_alloc(size);
  30:src/../h/KPCB.hpp ****     }
  31:src/../h/KPCB.hpp ****     void operator delete(void* addr) {
  32:src/../h/KPCB.hpp ****         KMemoryAllocator::mem_free(addr);
 157              		.loc 3 32 9 is_stmt 1
 158              		.loc 3 32 35 is_stmt 0
 159 00d8 13850400 		mv	a0,s1
 160 00dc 97000000 		call	_ZN16KMemoryAllocator8mem_freeEPv@plt
 160      E7800000 
 161              	.LVL14:
 162              	.L3:
 163              	.LBE18:
 164              	.LBE17:
  45:src/main.cpp  **** }
 165              		.loc 1 45 1
 166 00e4 83308102 		ld	ra,40(sp)
 167              		.cfi_restore 1
 168 00e8 03340102 		ld	s0,32(sp)
 169              		.cfi_restore 8
 170              		.cfi_def_cfa 2, 48
 171 00ec 83348101 		ld	s1,24(sp)
 172              		.cfi_restore 9
 173 00f0 13010103 		addi	sp,sp,48
 174              		.cfi_def_cfa_offset 0
 175 00f4 67800000 		jr	ra
 176              		.cfi_endproc
 177              	.LFE38:
 179              		.globl	framePointer
 180              		.bss
 181              		.align	3
 184              	framePointer:
 185 0000 00000000 		.zero	8
 185      00000000 
 186              		.text
 187              	.Letext0:
 188              		.file 4 "src/../lib/hw.h"
 189              		.file 5 "src/../h/KMemoryAllocator.hpp"
 190              		.file 6 "src/../h/KConsole.hpp"
 191              		.file 7 "src/../h/syscall_c.h"
GAS LISTING /tmp/cciSDMoU.s 			page 8


DEFINED SYMBOLS
                            *ABS*:0000000000000000 main.cpp
     /tmp/cciSDMoU.s:9      .text:0000000000000000 _Z11userWrapperPv
     /tmp/cciSDMoU.s:13     .text:0000000000000000 .L0 
     /tmp/cciSDMoU.s:15     .text:0000000000000000 .L0 
     /tmp/cciSDMoU.s:16     .text:0000000000000004 .L0 
     /tmp/cciSDMoU.s:19     .text:000000000000000c .L0 
     /tmp/cciSDMoU.s:20     .text:000000000000000c .L0 
     /tmp/cciSDMoU.s:22     .text:0000000000000010 .L0 
     /tmp/cciSDMoU.s:24     .text:0000000000000010 .L0 
     /tmp/cciSDMoU.s:25     .text:0000000000000010 .L0 
     /tmp/cciSDMoU.s:28     .text:0000000000000018 .L0 
     /tmp/cciSDMoU.s:29     .text:000000000000001c .L0 
     /tmp/cciSDMoU.s:31     .text:0000000000000020 .L0 
     /tmp/cciSDMoU.s:32     .text:0000000000000020 .L0 
     /tmp/cciSDMoU.s:34     .text:0000000000000024 .L0 
     /tmp/cciSDMoU.s:36     .text:0000000000000028 .L0 
     /tmp/cciSDMoU.s:42     .text:0000000000000028 main
     /tmp/cciSDMoU.s:45     .text:0000000000000028 .L0 
     /tmp/cciSDMoU.s:46     .text:0000000000000028 .L0 
     /tmp/cciSDMoU.s:47     .text:000000000000002c .L0 
     /tmp/cciSDMoU.s:51     .text:0000000000000038 .L0 
     /tmp/cciSDMoU.s:52     .text:0000000000000038 .L0 
     /tmp/cciSDMoU.s:53     .text:0000000000000038 .L0 
     /tmp/cciSDMoU.s:55     .text:000000000000003c .L0 
     /tmp/cciSDMoU.s:57     .text:000000000000003c .L0 
     /tmp/cciSDMoU.s:58     .text:000000000000003c .L0 
     /tmp/cciSDMoU.s:64     .text:0000000000000044 .L0 
 src/../h/KRiscv.hpp:81     .text:0000000000000044 .L0 
     /tmp/cciSDMoU.s:74     .text:0000000000000048 .L0 
     /tmp/cciSDMoU.s:75     .text:0000000000000048 .L0 
     /tmp/cciSDMoU.s:78     .text:0000000000000050 .L0 
     /tmp/cciSDMoU.s:79     .text:0000000000000050 .L0 
     /tmp/cciSDMoU.s:82     .text:0000000000000058 .L0 
     /tmp/cciSDMoU.s:83     .text:0000000000000058 .L0 
     /tmp/cciSDMoU.s:84     .text:0000000000000058 .L0 
     /tmp/cciSDMoU.s:90     .text:000000000000006c .L0 
     /tmp/cciSDMoU.s:91     .text:000000000000006c .L0 
     /tmp/cciSDMoU.s:94     .text:0000000000000078 .L0 
     /tmp/cciSDMoU.s:95     .text:0000000000000078 .L0 
     /tmp/cciSDMoU.s:97     .text:000000000000007c .L0 
     /tmp/cciSDMoU.s:98     .text:000000000000007c .L0 
     /tmp/cciSDMoU.s:107    .text:0000000000000094 .L0 
     /tmp/cciSDMoU.s:108    .text:0000000000000094 .L0 
     /tmp/cciSDMoU.s:109    .text:0000000000000094 .L0 
     /tmp/cciSDMoU.s:119    .text:000000000000009c .L0 
     /tmp/cciSDMoU.s:120    .text:000000000000009c .L0 
     /tmp/cciSDMoU.s:124    .text:00000000000000a4 .L0 
     /tmp/cciSDMoU.s:125    .text:00000000000000a4 .L0 
     /tmp/cciSDMoU.s:129    .text:00000000000000b4 .L0 
     /tmp/cciSDMoU.s:130    .text:00000000000000b4 .L0 
     /tmp/cciSDMoU.s:135    .text:00000000000000c0 .L0 
     /tmp/cciSDMoU.s:136    .text:00000000000000c0 .L0 
     /tmp/cciSDMoU.s:138    .text:00000000000000c4 .L0 
     /tmp/cciSDMoU.s:144    .text:00000000000000c8 .L0 
     /tmp/cciSDMoU.s:145    .text:00000000000000c8 .L0 
     /tmp/cciSDMoU.s:146    .text:00000000000000c8 .L0 
GAS LISTING /tmp/cciSDMoU.s 			page 9


     /tmp/cciSDMoU.s:148    .text:00000000000000cc .L0 
     /tmp/cciSDMoU.s:150    .text:00000000000000d0 .L0 
     /tmp/cciSDMoU.s:158    .text:00000000000000d8 .L0 
     /tmp/cciSDMoU.s:159    .text:00000000000000d8 .L0 
     /tmp/cciSDMoU.s:166    .text:00000000000000e4 .L0 
     /tmp/cciSDMoU.s:167    .text:00000000000000e8 .L0 
     /tmp/cciSDMoU.s:169    .text:00000000000000ec .L0 
     /tmp/cciSDMoU.s:170    .text:00000000000000ec .L0 
     /tmp/cciSDMoU.s:172    .text:00000000000000f0 .L0 
     /tmp/cciSDMoU.s:174    .text:00000000000000f4 .L0 
     /tmp/cciSDMoU.s:176    .text:00000000000000f8 .L0 
     /tmp/cciSDMoU.s:184    .bss:0000000000000000 framePointer
     /tmp/cciSDMoU.s:192    .text:00000000000000f8 .L0 
     /tmp/cciSDMoU.s:58     .text:000000000000003c .L0 
     /tmp/cciSDMoU.s:91     .text:000000000000006c .L0 
     /tmp/cciSDMoU.s:99     .text:0000000000000080 .L0 
     /tmp/cciSDMoU.s:125    .text:00000000000000a4 .L0 
     /tmp/cciSDMoU.s:133    .text:00000000000000c0 .L4
     /tmp/cciSDMoU.s:122    .text:00000000000000a4 .L5
     /tmp/cciSDMoU.s:162    .text:00000000000000e4 .L3
     /tmp/cciSDMoU.s:152    .text:00000000000000d8 .L7
     /tmp/cciSDMoU.s:1607   .debug_abbrev:0000000000000000 .Ldebug_abbrev0
     /tmp/cciSDMoU.s:3026   .debug_str:0000000000000897 .LASF177
     /tmp/cciSDMoU.s:2812   .debug_str:00000000000002cd .LASF178
     /tmp/cciSDMoU.s:3036   .debug_str:000000000000098f .LASF179
     /tmp/cciSDMoU.s:5      .text:0000000000000000 .Ltext0
     /tmp/cciSDMoU.s:187    .text:00000000000000f8 .Letext0
     /tmp/cciSDMoU.s:2724   .debug_line:0000000000000000 .Ldebug_line0
     /tmp/cciSDMoU.s:2844   .debug_str:00000000000003b8 .LASF0
     /tmp/cciSDMoU.s:2872   .debug_str:000000000000049f .LASF1
     /tmp/cciSDMoU.s:2964   .debug_str:00000000000006cf .LASF2
     /tmp/cciSDMoU.s:2970   .debug_str:0000000000000702 .LASF4
     /tmp/cciSDMoU.s:2854   .debug_str:00000000000003f6 .LASF3
     /tmp/cciSDMoU.s:2740   .debug_str:0000000000000080 .LASF5
     /tmp/cciSDMoU.s:2934   .debug_str:000000000000060d .LASF6
     /tmp/cciSDMoU.s:2920   .debug_str:0000000000000591 .LASF7
     /tmp/cciSDMoU.s:2864   .debug_str:000000000000044d .LASF8
     /tmp/cciSDMoU.s:2822   .debug_str:000000000000030c .LASF9
     /tmp/cciSDMoU.s:2828   .debug_str:0000000000000340 .LASF10
     /tmp/cciSDMoU.s:2772   .debug_str:0000000000000183 .LASF11
     /tmp/cciSDMoU.s:2810   .debug_str:00000000000002be .LASF12
     /tmp/cciSDMoU.s:2780   .debug_str:00000000000001b1 .LASF13
     /tmp/cciSDMoU.s:2770   .debug_str:0000000000000173 .LASF14
     /tmp/cciSDMoU.s:3008   .debug_str:0000000000000817 .LASF15
     /tmp/cciSDMoU.s:2794   .debug_str:000000000000020f .LASF16
     /tmp/cciSDMoU.s:2994   .debug_str:00000000000007a9 .LASF17
     /tmp/cciSDMoU.s:2746   .debug_str:000000000000009f .LASF18
     /tmp/cciSDMoU.s:2958   .debug_str:00000000000006b4 .LASF65
     /tmp/cciSDMoU.s:3060   .debug_str:0000000000000a4c .LASF180
     /tmp/cciSDMoU.s:2804   .debug_str:0000000000000265 .LASF19
     /tmp/cciSDMoU.s:3024   .debug_str:000000000000088a .LASF20
     /tmp/cciSDMoU.s:2784   .debug_str:00000000000001ca .LASF21
     /tmp/cciSDMoU.s:2838   .debug_str:000000000000038e .LASF22
     /tmp/cciSDMoU.s:2942   .debug_str:0000000000000633 .LASF24
     /tmp/cciSDMoU.s:2890   .debug_str:00000000000004f0 .LASF23
     /tmp/cciSDMoU.s:2946   .debug_str:0000000000000657 .LASF25
     /tmp/cciSDMoU.s:2820   .debug_str:0000000000000302 .LASF26
GAS LISTING /tmp/cciSDMoU.s 			page 10


     /tmp/cciSDMoU.s:3102   .debug_str:0000000000000b86 .LASF27
     /tmp/cciSDMoU.s:2978   .debug_str:000000000000072b .LASF28
     /tmp/cciSDMoU.s:2786   .debug_str:00000000000001d6 .LASF29
     /tmp/cciSDMoU.s:2848   .debug_str:00000000000003d9 .LASF30
     /tmp/cciSDMoU.s:2856   .debug_str:0000000000000408 .LASF31
     /tmp/cciSDMoU.s:3054   .debug_str:0000000000000a25 .LASF32
     /tmp/cciSDMoU.s:2996   .debug_str:00000000000007bf .LASF34
     /tmp/cciSDMoU.s:2960   .debug_str:00000000000006bb .LASF36
     /tmp/cciSDMoU.s:2998   .debug_str:00000000000007d5 .LASF38
     /tmp/cciSDMoU.s:2938   .debug_str:000000000000061f .LASF33
     /tmp/cciSDMoU.s:3058   .debug_str:0000000000000a38 .LASF35
     /tmp/cciSDMoU.s:2912   .debug_str:0000000000000573 .LASF37
     /tmp/cciSDMoU.s:2846   .debug_str:00000000000003c5 .LASF39
     /tmp/cciSDMoU.s:3074   .debug_str:0000000000000aac .LASF40
     /tmp/cciSDMoU.s:2834   .debug_str:0000000000000371 .LASF41
     /tmp/cciSDMoU.s:2906   .debug_str:0000000000000559 .LASF42
     /tmp/cciSDMoU.s:2734   .debug_str:000000000000004b .LASF43
     /tmp/cciSDMoU.s:2878   .debug_str:00000000000004c2 .LASF44
     /tmp/cciSDMoU.s:2768   .debug_str:000000000000015e .LASF45
     /tmp/cciSDMoU.s:3100   .debug_str:0000000000000b7e .LASF46
     /tmp/cciSDMoU.s:3046   .debug_str:00000000000009db .LASF47
     /tmp/cciSDMoU.s:3004   .debug_str:0000000000000802 .LASF48
     /tmp/cciSDMoU.s:2948   .debug_str:0000000000000676 .LASF49
     /tmp/cciSDMoU.s:2974   .debug_str:0000000000000713 .LASF50
     /tmp/cciSDMoU.s:2760   .debug_str:0000000000000119 .LASF51
     /tmp/cciSDMoU.s:2790   .debug_str:00000000000001fb .LASF52
     /tmp/cciSDMoU.s:2898   .debug_str:0000000000000517 .LASF53
     /tmp/cciSDMoU.s:2850   .debug_str:00000000000003e6 .LASF54
     /tmp/cciSDMoU.s:2738   .debug_str:000000000000006d .LASF55
     /tmp/cciSDMoU.s:2742   .debug_str:0000000000000087 .LASF56
     /tmp/cciSDMoU.s:3082   .debug_str:0000000000000af7 .LASF57
     /tmp/cciSDMoU.s:2962   .debug_str:00000000000006c4 .LASF58
     /tmp/cciSDMoU.s:2924   .debug_str:00000000000005b2 .LASF59
     /tmp/cciSDMoU.s:3068   .debug_str:0000000000000a84 .LASF60
     /tmp/cciSDMoU.s:3048   .debug_str:00000000000009f0 .LASF61
     /tmp/cciSDMoU.s:3064   .debug_str:0000000000000a69 .LASF67
     /tmp/cciSDMoU.s:2860   .debug_str:000000000000042c .LASF69
     /tmp/cciSDMoU.s:2984   .debug_str:000000000000076d .LASF64
     /tmp/cciSDMoU.s:2774   .debug_str:0000000000000192 .LASF62
     /tmp/cciSDMoU.s:2870   .debug_str:000000000000049a .LASF63
     /tmp/cciSDMoU.s:2902   .debug_str:000000000000053a .LASF66
     /tmp/cciSDMoU.s:2954   .debug_str:00000000000006a3 .LASF133
     /tmp/cciSDMoU.s:2852   .debug_str:00000000000003ec .LASF68
     /tmp/cciSDMoU.s:3014   .debug_str:0000000000000835 .LASF70
     /tmp/cciSDMoU.s:2900   .debug_str:000000000000052a .LASF71
     /tmp/cciSDMoU.s:2726   .debug_str:0000000000000000 .LASF72
     /tmp/cciSDMoU.s:2894   .debug_str:0000000000000508 .LASF77
     /tmp/cciSDMoU.s:3080   .debug_str:0000000000000ad5 .LASF79
     /tmp/cciSDMoU.s:3012   .debug_str:000000000000082c .LASF73
     /tmp/cciSDMoU.s:2866   .debug_str:0000000000000460 .LASF74
     /tmp/cciSDMoU.s:2986   .debug_str:0000000000000779 .LASF75
     /tmp/cciSDMoU.s:2776   .debug_str:0000000000000197 .LASF76
     /tmp/cciSDMoU.s:3044   .debug_str:00000000000009d5 .LASF78
     /tmp/cciSDMoU.s:3018   .debug_str:0000000000000869 .LASF80
     /tmp/cciSDMoU.s:3094   .debug_str:0000000000000b5d .LASF81
     /tmp/cciSDMoU.s:2736   .debug_str:0000000000000060 .LASF82
     /tmp/cciSDMoU.s:2764   .debug_str:0000000000000149 .LASF83
GAS LISTING /tmp/cciSDMoU.s 			page 11


     /tmp/cciSDMoU.s:2940   .debug_str:0000000000000626 .LASF84
     /tmp/cciSDMoU.s:2732   .debug_str:000000000000003b .LASF85
     /tmp/cciSDMoU.s:3006   .debug_str:0000000000000809 .LASF86
     /tmp/cciSDMoU.s:2992   .debug_str:0000000000000796 .LASF87
     /tmp/cciSDMoU.s:2922   .debug_str:00000000000005a4 .LASF88
     /tmp/cciSDMoU.s:3030   .debug_str:0000000000000973 .LASF89
     /tmp/cciSDMoU.s:2806   .debug_str:0000000000000271 .LASF90
     /tmp/cciSDMoU.s:2918   .debug_str:000000000000058c .LASF181
     /tmp/cciSDMoU.s:2754   .debug_str:00000000000000e9 .LASF91
     /tmp/cciSDMoU.s:2876   .debug_str:00000000000004bc .LASF92
     /tmp/cciSDMoU.s:2814   .debug_str:00000000000002da .LASF93
     /tmp/cciSDMoU.s:2788   .debug_str:00000000000001f2 .LASF94
     /tmp/cciSDMoU.s:2750   .debug_str:00000000000000c2 .LASF95
     /tmp/cciSDMoU.s:3022   .debug_str:0000000000000882 .LASF96
     /tmp/cciSDMoU.s:3034   .debug_str:0000000000000987 .LASF97
     /tmp/cciSDMoU.s:3104   .debug_str:0000000000000b9d .LASF98
     /tmp/cciSDMoU.s:2832   .debug_str:0000000000000366 .LASF99
     /tmp/cciSDMoU.s:2830   .debug_str:000000000000034e .LASF101
     /tmp/cciSDMoU.s:3070   .debug_str:0000000000000a8e .LASF100
     /tmp/cciSDMoU.s:2826   .debug_str:0000000000000328 .LASF102
     /tmp/cciSDMoU.s:2882   .debug_str:00000000000004d0 .LASF103
     /tmp/cciSDMoU.s:2748   .debug_str:00000000000000ac .LASF104
     /tmp/cciSDMoU.s:3096   .debug_str:0000000000000b6a .LASF105
     /tmp/cciSDMoU.s:3002   .debug_str:00000000000007f0 .LASF106
     /tmp/cciSDMoU.s:3020   .debug_str:0000000000000876 .LASF107
     /tmp/cciSDMoU.s:3028   .debug_str:000000000000095b .LASF108
     /tmp/cciSDMoU.s:3038   .debug_str:00000000000009b2 .LASF109
     /tmp/cciSDMoU.s:2926   .debug_str:00000000000005cb .LASF110
     /tmp/cciSDMoU.s:2916   .debug_str:0000000000000581 .LASF111
     /tmp/cciSDMoU.s:3052   .debug_str:0000000000000a0e .LASF112
     /tmp/cciSDMoU.s:2892   .debug_str:0000000000000501 .LASF113
     /tmp/cciSDMoU.s:2818   .debug_str:00000000000002f0 .LASF114
     /tmp/cciSDMoU.s:2884   .debug_str:00000000000004da .LASF115
     /tmp/cciSDMoU.s:2932   .debug_str:00000000000005fa .LASF116
     /tmp/cciSDMoU.s:3076   .debug_str:0000000000000ab4 .LASF117
     /tmp/cciSDMoU.s:2762   .debug_str:000000000000012d .LASF118
     /tmp/cciSDMoU.s:2990   .debug_str:0000000000000784 .LASF119
     /tmp/cciSDMoU.s:2868   .debug_str:0000000000000482 .LASF120
     /tmp/cciSDMoU.s:2730   .debug_str:0000000000000036 .LASF121
     /tmp/cciSDMoU.s:3088   .debug_str:0000000000000b31 .LASF122
     /tmp/cciSDMoU.s:2988   .debug_str:000000000000077e .LASF123
     /tmp/cciSDMoU.s:3040   .debug_str:00000000000009be .LASF124
     /tmp/cciSDMoU.s:3010   .debug_str:0000000000000823 .LASF125
     /tmp/cciSDMoU.s:2782   .debug_str:00000000000001c1 .LASF126
     /tmp/cciSDMoU.s:2836   .debug_str:0000000000000386 .LASF127
     /tmp/cciSDMoU.s:2758   .debug_str:0000000000000111 .LASF128
     /tmp/cciSDMoU.s:2904   .debug_str:000000000000054b .LASF129
     /tmp/cciSDMoU.s:2728   .debug_str:0000000000000029 .LASF130
     /tmp/cciSDMoU.s:2792   .debug_str:0000000000000201 .LASF131
     /tmp/cciSDMoU.s:3078   .debug_str:0000000000000ac4 .LASF132
     /tmp/cciSDMoU.s:2980   .debug_str:0000000000000739 .LASF134
     /tmp/cciSDMoU.s:2936   .debug_str:0000000000000614 .LASF135
     /tmp/cciSDMoU.s:2968   .debug_str:00000000000006f7 .LASF136
     /tmp/cciSDMoU.s:3084   .debug_str:0000000000000b10 .LASF137
     /tmp/cciSDMoU.s:2808   .debug_str:0000000000000295 .LASF138
     /tmp/cciSDMoU.s:2930   .debug_str:00000000000005ec .LASF182
     /tmp/cciSDMoU.s:2966   .debug_str:00000000000006dd .LASF183
GAS LISTING /tmp/cciSDMoU.s 			page 12


     /tmp/cciSDMoU.s:2888   .debug_str:00000000000004eb .LASF139
     /tmp/cciSDMoU.s:2886   .debug_str:00000000000004e2 .LASF140
     /tmp/cciSDMoU.s:3032   .debug_str:0000000000000980 .LASF141
     /tmp/cciSDMoU.s:3000   .debug_str:00000000000007eb .LASF142
     /tmp/cciSDMoU.s:2908   .debug_str:0000000000000561 .LASF143
     /tmp/cciSDMoU.s:2950   .debug_str:000000000000068a .LASF144
     /tmp/cciSDMoU.s:2800   .debug_str:0000000000000242 .LASF145
     /tmp/cciSDMoU.s:2802   .debug_str:0000000000000253 .LASF146
     /tmp/cciSDMoU.s:2778   .debug_str:000000000000019f .LASF147
     /tmp/cciSDMoU.s:3042   .debug_str:00000000000009c6 .LASF148
     /tmp/cciSDMoU.s:3062   .debug_str:0000000000000a5b .LASF149
     /tmp/cciSDMoU.s:2874   .debug_str:00000000000004b2 .LASF150
     /tmp/cciSDMoU.s:3056   .debug_str:0000000000000a2e .LASF151
     /tmp/cciSDMoU.s:2976   .debug_str:000000000000071a .LASF152
     /tmp/cciSDMoU.s:2862   .debug_str:0000000000000443 .LASF153
     /tmp/cciSDMoU.s:3066   .debug_str:0000000000000a73 .LASF154
     /tmp/cciSDMoU.s:3072   .debug_str:0000000000000a99 .LASF184
     /tmp/cciSDMoU.s:2752   .debug_str:00000000000000d6 .LASF185
     /tmp/cciSDMoU.s:3050   .debug_str:0000000000000a07 .LASF155
     /tmp/cciSDMoU.s:2798   .debug_str:000000000000022c .LASF156
     /tmp/cciSDMoU.s:3086   .debug_str:0000000000000b1e .LASF157
     /tmp/cciSDMoU.s:2982   .debug_str:000000000000074a .LASF158
     /tmp/cciSDMoU.s:2952   .debug_str:000000000000069b .LASF159
     /tmp/cciSDMoU.s:2796   .debug_str:0000000000000225 .LASF160
     /tmp/cciSDMoU.s:2972   .debug_str:0000000000000709 .LASF186
     /tmp/cciSDMoU.s:3016   .debug_str:0000000000000864 .LASF161
     /tmp/cciSDMoU.s:2944   .debug_str:000000000000064c .LASF187
     /tmp/cciSDMoU.s:3090   .debug_str:0000000000000b36 .LASF162
     /tmp/cciSDMoU.s:43     .text:0000000000000028 .LFB38
     /tmp/cciSDMoU.s:177    .text:00000000000000f8 .LFE38
     /tmp/cciSDMoU.s:2663   .debug_loc:0000000000000000 .LLST1
     /tmp/cciSDMoU.s:2956   .debug_str:00000000000006af .LASF163
     /tmp/cciSDMoU.s:60     .text:0000000000000044 .LBB11
     /tmp/cciSDMoU.s:72     .text:0000000000000048 .LBE11
     /tmp/cciSDMoU.s:105    .text:0000000000000094 .LBB13
     /tmp/cciSDMoU.s:117    .text:000000000000009c .LBE13
     /tmp/cciSDMoU.s:2675   .debug_loc:0000000000000037 .LLST2
     /tmp/cciSDMoU.s:141    .text:00000000000000c8 .LBB15
     /tmp/cciSDMoU.s:154    .text:00000000000000d8 .LBE15
     /tmp/cciSDMoU.s:2683   .debug_loc:000000000000005b .LLST3
     /tmp/cciSDMoU.s:151    .text:00000000000000d8 .LVL13
     /tmp/cciSDMoU.s:155    .text:00000000000000d8 .LBB17
     /tmp/cciSDMoU.s:164    .text:00000000000000e4 .LBE17
     /tmp/cciSDMoU.s:2690   .debug_loc:000000000000007e .LLST4
     /tmp/cciSDMoU.s:161    .text:00000000000000e4 .LVL14
     /tmp/cciSDMoU.s:76     .text:0000000000000050 .LVL4
     /tmp/cciSDMoU.s:80     .text:0000000000000058 .LVL5
     /tmp/cciSDMoU.s:88     .text:000000000000006c .LVL6
     /tmp/cciSDMoU.s:103    .text:0000000000000094 .LVL8
     /tmp/cciSDMoU.s:121    .text:00000000000000a4 .LVL10
     /tmp/cciSDMoU.s:131    .text:00000000000000bc .LVL11
     /tmp/cciSDMoU.s:2824   .debug_str:000000000000031c .LASF164
     /tmp/cciSDMoU.s:2840   .debug_str:0000000000000399 .LASF165
     /tmp/cciSDMoU.s:10     .text:0000000000000000 .LFB37
     /tmp/cciSDMoU.s:37     .text:0000000000000028 .LFE37
     /tmp/cciSDMoU.s:2697   .debug_loc:00000000000000a1 .LLST0
     /tmp/cciSDMoU.s:26     .text:0000000000000018 .LVL1
GAS LISTING /tmp/cciSDMoU.s 			page 13


     /tmp/cciSDMoU.s:2766   .debug_str:0000000000000159 .LASF168
     /tmp/cciSDMoU.s:2816   .debug_str:00000000000002eb .LASF166
     /tmp/cciSDMoU.s:2756   .debug_str:0000000000000107 .LASF167
     /tmp/cciSDMoU.s:2744   .debug_str:0000000000000092 .LASF188
     /tmp/cciSDMoU.s:2896   .debug_str:0000000000000512 .LASF169
     /tmp/cciSDMoU.s:2880   .debug_str:00000000000004ca .LASF170
     /tmp/cciSDMoU.s:2914   .debug_str:000000000000057a .LASF189
     /tmp/cciSDMoU.s:3092   .debug_str:0000000000000b3b .LASF171
     /tmp/cciSDMoU.s:3098   .debug_str:0000000000000b70 .LASF173
     /tmp/cciSDMoU.s:2910   .debug_str:0000000000000566 .LASF172
     /tmp/cciSDMoU.s:2858   .debug_str:0000000000000423 .LASF174
     /tmp/cciSDMoU.s:2842   .debug_str:00000000000003ab .LASF175
     /tmp/cciSDMoU.s:2928   .debug_str:00000000000005e3 .LASF176
     /tmp/cciSDMoU.s:101    .text:000000000000008c .LVL7
     /tmp/cciSDMoU.s:114    .text:000000000000009c .LVL9
     /tmp/cciSDMoU.s:140    .text:00000000000000c8 .LVL12
     /tmp/cciSDMoU.s:14     .text:0000000000000000 .LVL0
     /tmp/cciSDMoU.s:193    .debug_info:0000000000000000 .Ldebug_info0

UNDEFINED SYMBOLS
_Z8userMainv
_ZN6KRiscv9interruptEv
_ZN16KMemoryAllocator15initBlockHeaderEv
_ZN8KConsole18initConsoleBuffersEv
_ZN4KPCB12createThreadEPFvPvES0_S0_
_ZN4KPCB7runningE
_Z13thread_createPP4KPCBPFvPvES2_
_Z8userModev
_ZN4KPCB7counterE
_ZN4KPCB5yieldEv
_ZdaPv
_ZN16KMemoryAllocator8mem_freeEPv
