GAS LISTING /tmp/cc6baEiQ.s 			page 1


   1              		.file	"syscall_cpp.cpp"
   2              		.option pic
   3              		.option norelax
   4              		.text
   5              	.Ltext0:
   6              		.section	.text._ZN6Thread3runEv,"axG",@progbits,_ZN6Thread3runEv,comdat
   7              		.align	2
   8              		.weak	_ZN6Thread3runEv
  10              	_ZN6Thread3runEv:
  11              	.LFB0:
  12              		.file 1 "src/../h/syscall_cpp.h"
   1:src/../h/syscall_cpp.h **** //
   2:src/../h/syscall_cpp.h **** // Created by os on 6/22/22.
   3:src/../h/syscall_cpp.h **** //
   4:src/../h/syscall_cpp.h **** 
   5:src/../h/syscall_cpp.h **** #ifndef PROJECT_BASE_V1_1_SYSCALL_CPP_H
   6:src/../h/syscall_cpp.h **** #define PROJECT_BASE_V1_1_SYSCALL_CPP_H
   7:src/../h/syscall_cpp.h **** 
   8:src/../h/syscall_cpp.h **** #include "syscall_c.h"
   9:src/../h/syscall_cpp.h **** 
  10:src/../h/syscall_cpp.h **** void* operator new (size_t);
  11:src/../h/syscall_cpp.h **** void operator delete (void*);
  12:src/../h/syscall_cpp.h **** void* operator new[] (size_t);
  13:src/../h/syscall_cpp.h **** void operator delete[] (void*);
  14:src/../h/syscall_cpp.h **** 
  15:src/../h/syscall_cpp.h **** class Thread {
  16:src/../h/syscall_cpp.h **** public:
  17:src/../h/syscall_cpp.h ****     Thread (void (*body)(void*), void* arg);
  18:src/../h/syscall_cpp.h ****     virtual ~Thread ();
  19:src/../h/syscall_cpp.h ****     int start ();
  20:src/../h/syscall_cpp.h ****     static void dispatch ();
  21:src/../h/syscall_cpp.h ****     static int sleep (time_t);
  22:src/../h/syscall_cpp.h **** protected:
  23:src/../h/syscall_cpp.h ****     Thread ();
  24:src/../h/syscall_cpp.h ****     virtual void run () {}
  13              		.loc 1 24 18
  14              		.cfi_startproc
  15              	.LVL0:
  16 0000 130101FF 		addi	sp,sp,-16
  17              		.cfi_def_cfa_offset 16
  18 0004 23348100 		sd	s0,8(sp)
  19              		.cfi_offset 8, -8
  20 0008 13040101 		addi	s0,sp,16
  21              		.cfi_def_cfa 8, 0
  22              		.loc 1 24 26 is_stmt 0
  23 000c 03348100 		ld	s0,8(sp)
  24              		.cfi_restore 8
  25              		.cfi_def_cfa 2, 16
  26 0010 13010101 		addi	sp,sp,16
  27              		.cfi_def_cfa_offset 0
  28 0014 67800000 		jr	ra
  29              		.cfi_endproc
  30              	.LFE0:
  32              		.section	.text._ZN14PeriodicThread18periodicActivationEv,"axG",@progbits,_ZN14PeriodicThread18peri
  33              		.align	2
  34              		.weak	_ZN14PeriodicThread18periodicActivationEv
  36              	_ZN14PeriodicThread18periodicActivationEv:
GAS LISTING /tmp/cc6baEiQ.s 			page 2


  37              	.LFB1:
  25:src/../h/syscall_cpp.h **** private:
  26:src/../h/syscall_cpp.h ****     thread_t myHandle;
  27:src/../h/syscall_cpp.h ****     static void wrapper(void* args);
  28:src/../h/syscall_cpp.h **** };
  29:src/../h/syscall_cpp.h **** 
  30:src/../h/syscall_cpp.h **** class Semaphore {
  31:src/../h/syscall_cpp.h **** public:
  32:src/../h/syscall_cpp.h ****     Semaphore (unsigned init = 1);
  33:src/../h/syscall_cpp.h ****     virtual ~Semaphore ();
  34:src/../h/syscall_cpp.h ****     int wait ();
  35:src/../h/syscall_cpp.h ****     int signal ();
  36:src/../h/syscall_cpp.h **** private:
  37:src/../h/syscall_cpp.h ****     sem_t myHandle;
  38:src/../h/syscall_cpp.h **** };
  39:src/../h/syscall_cpp.h **** 
  40:src/../h/syscall_cpp.h **** class PeriodicThread : public Thread {
  41:src/../h/syscall_cpp.h **** protected:
  42:src/../h/syscall_cpp.h ****     PeriodicThread (time_t period);
  43:src/../h/syscall_cpp.h ****     virtual void periodicActivation () {}
  38              		.loc 1 43 18 is_stmt 1
  39              		.cfi_startproc
  40              	.LVL1:
  41 0000 130101FF 		addi	sp,sp,-16
  42              		.cfi_def_cfa_offset 16
  43 0004 23348100 		sd	s0,8(sp)
  44              		.cfi_offset 8, -8
  45 0008 13040101 		addi	s0,sp,16
  46              		.cfi_def_cfa 8, 0
  47              		.loc 1 43 41 is_stmt 0
  48 000c 03348100 		ld	s0,8(sp)
  49              		.cfi_restore 8
  50              		.cfi_def_cfa 2, 16
  51 0010 13010101 		addi	sp,sp,16
  52              		.cfi_def_cfa_offset 0
  53 0014 67800000 		jr	ra
  54              		.cfi_endproc
  55              	.LFE1:
  57              		.text
  58              		.align	2
  59              		.globl	_ZN6ThreadD2Ev
  61              	_ZN6ThreadD2Ev:
  62              	.LFB27:
  63              		.file 2 "src/syscall_cpp.cpp"
   1:src/syscall_cpp.cpp **** //
   2:src/syscall_cpp.cpp **** // Created by os on 6/22/22.
   3:src/syscall_cpp.cpp **** //
   4:src/syscall_cpp.cpp **** 
   5:src/syscall_cpp.cpp **** #include "../h/syscall_cpp.h"
   6:src/syscall_cpp.cpp **** #include "../h/KPCB.hpp"
   7:src/syscall_cpp.cpp **** 
   8:src/syscall_cpp.cpp **** void* operator new(size_t size) {
   9:src/syscall_cpp.cpp ****     return mem_alloc(size);
  10:src/syscall_cpp.cpp **** }
  11:src/syscall_cpp.cpp **** 
  12:src/syscall_cpp.cpp **** void operator delete (void* addr) {
  13:src/syscall_cpp.cpp ****     mem_free(addr);
GAS LISTING /tmp/cc6baEiQ.s 			page 3


  14:src/syscall_cpp.cpp **** }
  15:src/syscall_cpp.cpp **** 
  16:src/syscall_cpp.cpp **** void* operator new[] (size_t size) {
  17:src/syscall_cpp.cpp ****     return mem_alloc(size);
  18:src/syscall_cpp.cpp **** }
  19:src/syscall_cpp.cpp **** 
  20:src/syscall_cpp.cpp **** void operator delete[] (void* addr) {
  21:src/syscall_cpp.cpp ****     mem_free(addr);
  22:src/syscall_cpp.cpp **** }
  23:src/syscall_cpp.cpp **** 
  24:src/syscall_cpp.cpp **** Thread::Thread(void (*body)(void *), void *arg) {
  25:src/syscall_cpp.cpp ****     thread_create_CPP(&myHandle, body, arg);
  26:src/syscall_cpp.cpp **** }
  27:src/syscall_cpp.cpp **** 
  28:src/syscall_cpp.cpp **** Thread::~Thread() {
  64              		.loc 2 28 1 is_stmt 1
  65              		.cfi_startproc
  66              	.LVL2:
  67 0000 130101FF 		addi	sp,sp,-16
  68              		.cfi_def_cfa_offset 16
  69 0004 23348100 		sd	s0,8(sp)
  70              		.cfi_offset 8, -8
  71 0008 13040101 		addi	s0,sp,16
  72              		.cfi_def_cfa 8, 0
  73              	.LBB10:
  74              		.loc 2 28 17 is_stmt 0
  75 000c 97070000 		lla	a5,_ZTV6Thread+16
  75      93870700 
  76 0014 2330F500 		sd	a5,0(a0)
  29:src/syscall_cpp.cpp ****     myHandle->setFinished(true);
  77              		.loc 2 29 5 is_stmt 1
  78 0018 83378500 		ld	a5,8(a0)
  79              	.LVL3:
  80              	.LBB11:
  81              	.LBB12:
  82              		.file 3 "src/../h/KPCB.hpp"
   1:src/../h/KPCB.hpp **** //
   2:src/../h/KPCB.hpp **** // Created by os on 6/22/22.
   3:src/../h/KPCB.hpp **** //
   4:src/../h/KPCB.hpp **** 
   5:src/../h/KPCB.hpp **** #ifndef PROJECT_BASE_V1_1_KPCB_HPP
   6:src/../h/KPCB.hpp **** #define PROJECT_BASE_V1_1_KPCB_HPP
   7:src/../h/KPCB.hpp **** 
   8:src/../h/KPCB.hpp **** #include "../lib/hw.h"
   9:src/../h/KPCB.hpp **** #include "../lib/mem.h"
  10:src/../h/KPCB.hpp **** #include "KScheduler.hpp"
  11:src/../h/KPCB.hpp **** #include "KMemoryAllocator.hpp"
  12:src/../h/KPCB.hpp **** 
  13:src/../h/KPCB.hpp **** class KPCB {
  14:src/../h/KPCB.hpp **** public:
  15:src/../h/KPCB.hpp ****     ~KPCB() { delete[] stack; }
  16:src/../h/KPCB.hpp ****     friend class KScheduler;
  17:src/../h/KPCB.hpp ****     friend class KSemaphore;
  18:src/../h/KPCB.hpp ****     friend class KRiscv;
  19:src/../h/KPCB.hpp ****     friend class KSleep;
  20:src/../h/KPCB.hpp **** 
  21:src/../h/KPCB.hpp ****     void* operator new(size_t size) {
GAS LISTING /tmp/cc6baEiQ.s 			page 4


  22:src/../h/KPCB.hpp ****         size_t sizeBlock = (size + 16) / MEM_BLOCK_SIZE + ((size + 16) % MEM_BLOCK_SIZE ? 1 : 0);
  23:src/../h/KPCB.hpp ****         return KMemoryAllocator::mem_alloc(sizeBlock);
  24:src/../h/KPCB.hpp ****         //return __mem_alloc(size);
  25:src/../h/KPCB.hpp ****     }
  26:src/../h/KPCB.hpp ****     void* operator new[](size_t size) {
  27:src/../h/KPCB.hpp ****         size_t sizeBlock = (size + 16) / MEM_BLOCK_SIZE + ((size + 16) % MEM_BLOCK_SIZE ? 1 : 0);
  28:src/../h/KPCB.hpp ****         return KMemoryAllocator::mem_alloc(sizeBlock);
  29:src/../h/KPCB.hpp ****         //return __mem_alloc(size);
  30:src/../h/KPCB.hpp ****     }
  31:src/../h/KPCB.hpp ****     void operator delete(void* addr) {
  32:src/../h/KPCB.hpp ****         KMemoryAllocator::mem_free(addr);
  33:src/../h/KPCB.hpp ****         //__mem_free(addr);
  34:src/../h/KPCB.hpp ****     }
  35:src/../h/KPCB.hpp ****     void operator delete[](void* addr) {
  36:src/../h/KPCB.hpp ****         KMemoryAllocator::mem_free(addr);
  37:src/../h/KPCB.hpp ****         //__mem_free(addr);
  38:src/../h/KPCB.hpp ****     }
  39:src/../h/KPCB.hpp **** 
  40:src/../h/KPCB.hpp ****     using Body = void (*)(void*);
  41:src/../h/KPCB.hpp ****     static KPCB* createThread(Body body, void* args, void* stek);
  42:src/../h/KPCB.hpp ****     static KPCB* createThread(Body body);
  43:src/../h/KPCB.hpp ****     static void yield();
  44:src/../h/KPCB.hpp ****     static void dispatch();
  45:src/../h/KPCB.hpp ****     static KPCB* running;
  46:src/../h/KPCB.hpp ****     static int counter;
  47:src/../h/KPCB.hpp ****     static int statID;
  48:src/../h/KPCB.hpp **** 
  49:src/../h/KPCB.hpp ****     bool isFinished() const { return finished; }
  50:src/../h/KPCB.hpp ****     bool isSleeping() const { return sleeping; }
  51:src/../h/KPCB.hpp ****     bool isWaiting() const { return waiting; }
  52:src/../h/KPCB.hpp ****     bool isErr() const { return err; }
  53:src/../h/KPCB.hpp ****     void setFinished(bool val) {
  54:src/../h/KPCB.hpp ****         if (finished) return;
  83              		.loc 3 54 9
  84              		.loc 3 54 13 is_stmt 0
  85 001c 03C70703 		lbu	a4,48(a5)
  86              		.loc 3 54 9
  87 0020 63100702 		bnez	a4,.L5
  55:src/../h/KPCB.hpp ****         finished = val;
  88              		.loc 3 55 9 is_stmt 1
  89              		.loc 3 55 18 is_stmt 0
  90 0024 13071000 		li	a4,1
  91 0028 2388E702 		sb	a4,48(a5)
  56:src/../h/KPCB.hpp ****         counter--;
  92              		.loc 3 56 9 is_stmt 1
  93              		.loc 3 56 16 is_stmt 0
  94 002c 17070000 		la	a4,_ZN4KPCB7counterE
  94      03370700 
  95 0034 83270700 		lw	a5,0(a4)
  96              	.LVL4:
  97 0038 9B87F7FF 		addiw	a5,a5,-1
  98 003c 2320F700 		sw	a5,0(a4)
  99              	.LVL5:
 100              	.L5:
 101              	.LBE12:
 102              	.LBE11:
 103              	.LBE10:
GAS LISTING /tmp/cc6baEiQ.s 			page 5


  30:src/syscall_cpp.cpp **** }
 104              		.loc 2 30 1
 105 0040 03348100 		ld	s0,8(sp)
 106              		.cfi_restore 8
 107              		.cfi_def_cfa 2, 16
 108 0044 13010101 		addi	sp,sp,16
 109              		.cfi_def_cfa_offset 0
 110 0048 67800000 		jr	ra
 111              		.cfi_endproc
 112              	.LFE27:
 114              		.globl	_ZN6ThreadD1Ev
 115              		.set	_ZN6ThreadD1Ev,_ZN6ThreadD2Ev
 116              		.align	2
 117              		.globl	_ZN6Thread7wrapperEPv
 119              	_ZN6Thread7wrapperEPv:
 120              	.LFB36:
  31:src/syscall_cpp.cpp **** 
  32:src/syscall_cpp.cpp **** int Thread::start() {
  33:src/syscall_cpp.cpp ****     return myHandle->startIt();
  34:src/syscall_cpp.cpp **** }
  35:src/syscall_cpp.cpp **** 
  36:src/syscall_cpp.cpp **** void Thread::dispatch() {
  37:src/syscall_cpp.cpp ****     thread_dispatch();
  38:src/syscall_cpp.cpp **** }
  39:src/syscall_cpp.cpp **** 
  40:src/syscall_cpp.cpp **** int Thread::sleep(time_t t) {
  41:src/syscall_cpp.cpp ****     return time_sleep(t);
  42:src/syscall_cpp.cpp **** }
  43:src/syscall_cpp.cpp **** 
  44:src/syscall_cpp.cpp **** Thread::Thread() {
  45:src/syscall_cpp.cpp ****     thread_create_CPP(&myHandle, &wrapper, this);
  46:src/syscall_cpp.cpp **** }
  47:src/syscall_cpp.cpp **** 
  48:src/syscall_cpp.cpp **** void Thread::wrapper(void *args) {
 121              		.loc 2 48 34 is_stmt 1
 122              		.cfi_startproc
 123              	.LVL6:
  49:src/syscall_cpp.cpp ****     Thread* thr = (Thread*)args;
 124              		.loc 2 49 5
  50:src/syscall_cpp.cpp ****     if (thr) thr->run();
 125              		.loc 2 50 5
 126 004c 63080502 		beqz	a0,.L11
  48:src/syscall_cpp.cpp ****     Thread* thr = (Thread*)args;
 127              		.loc 2 48 34 is_stmt 0 discriminator 1
 128 0050 130101FF 		addi	sp,sp,-16
 129              		.cfi_def_cfa_offset 16
 130 0054 23341100 		sd	ra,8(sp)
 131 0058 23308100 		sd	s0,0(sp)
 132              		.cfi_offset 1, -8
 133              		.cfi_offset 8, -16
 134 005c 13040101 		addi	s0,sp,16
 135              		.cfi_def_cfa 8, 0
 136              		.loc 2 50 14 is_stmt 1 discriminator 1
 137              		.loc 2 50 23 is_stmt 0 discriminator 1
 138 0060 83370500 		ld	a5,0(a0)
 139 0064 83B70701 		ld	a5,16(a5)
 140              		.loc 2 50 22 discriminator 1
GAS LISTING /tmp/cc6baEiQ.s 			page 6


 141 0068 E7800700 		jalr	a5
 142              	.LVL7:
  51:src/syscall_cpp.cpp **** }
 143              		.loc 2 51 1 discriminator 1
 144 006c 83308100 		ld	ra,8(sp)
 145              		.cfi_restore 1
 146 0070 03340100 		ld	s0,0(sp)
 147              		.cfi_restore 8
 148              		.cfi_def_cfa 2, 16
 149 0074 13010101 		addi	sp,sp,16
 150              		.cfi_def_cfa_offset 0
 151 0078 67800000 		jr	ra
 152              	.LVL8:
 153              	.L11:
 154 007c 67800000 		ret
 155              		.cfi_endproc
 156              	.LFE36:
 158              		.section	.text._ZN14PeriodicThreadD2Ev,"axG",@progbits,_ZN14PeriodicThreadD5Ev,comdat
 159              		.align	2
 160              		.weak	_ZN14PeriodicThreadD2Ev
 162              	_ZN14PeriodicThreadD2Ev:
 163              	.LFB53:
  40:src/../h/syscall_cpp.h **** protected:
 164              		.loc 1 40 7 is_stmt 1
 165              		.cfi_startproc
 166              	.LVL9:
 167 0000 130101FF 		addi	sp,sp,-16
 168              		.cfi_def_cfa_offset 16
 169 0004 23341100 		sd	ra,8(sp)
 170 0008 23308100 		sd	s0,0(sp)
 171              		.cfi_offset 1, -8
 172              		.cfi_offset 8, -16
 173 000c 13040101 		addi	s0,sp,16
 174              		.cfi_def_cfa 8, 0
 175              	.LBB13:
  40:src/../h/syscall_cpp.h **** protected:
 176              		.loc 1 40 7 is_stmt 0
 177 0010 97070000 		lla	a5,_ZTV14PeriodicThread+16
 177      93870700 
 178 0018 2330F500 		sd	a5,0(a0)
 179 001c 97000000 		call	_ZN6ThreadD2Ev
 179      E7800000 
 180              	.LVL10:
 181              	.LBE13:
 182 0024 83308100 		ld	ra,8(sp)
 183              		.cfi_restore 1
 184 0028 03340100 		ld	s0,0(sp)
 185              		.cfi_restore 8
 186              		.cfi_def_cfa 2, 16
 187 002c 13010101 		addi	sp,sp,16
 188              		.cfi_def_cfa_offset 0
 189 0030 67800000 		jr	ra
 190              		.cfi_endproc
 191              	.LFE53:
 193              		.weak	_ZN14PeriodicThreadD1Ev
 194              		.set	_ZN14PeriodicThreadD1Ev,_ZN14PeriodicThreadD2Ev
 195              		.text
GAS LISTING /tmp/cc6baEiQ.s 			page 7


 196              		.align	2
 197              		.globl	_ZN14PeriodicThread15wrapperPeriodicEPv
 199              	_ZN14PeriodicThread15wrapperPeriodicEPv:
 200              	.LFB51:
  52:src/syscall_cpp.cpp **** 
  53:src/syscall_cpp.cpp **** Semaphore::Semaphore(unsigned int init) {
  54:src/syscall_cpp.cpp ****     sem_open(&myHandle, init);
  55:src/syscall_cpp.cpp **** }
  56:src/syscall_cpp.cpp **** 
  57:src/syscall_cpp.cpp **** Semaphore::~Semaphore() {
  58:src/syscall_cpp.cpp ****     sem_close(myHandle);
  59:src/syscall_cpp.cpp **** }
  60:src/syscall_cpp.cpp **** 
  61:src/syscall_cpp.cpp **** int Semaphore::wait() {
  62:src/syscall_cpp.cpp ****     return sem_wait(myHandle);
  63:src/syscall_cpp.cpp **** }
  64:src/syscall_cpp.cpp **** 
  65:src/syscall_cpp.cpp **** int Semaphore::signal() {
  66:src/syscall_cpp.cpp ****     return sem_signal(myHandle);
  67:src/syscall_cpp.cpp **** }
  68:src/syscall_cpp.cpp **** 
  69:src/syscall_cpp.cpp **** char Console::getc() {
  70:src/syscall_cpp.cpp ****     return ::getc();
  71:src/syscall_cpp.cpp **** }
  72:src/syscall_cpp.cpp **** 
  73:src/syscall_cpp.cpp **** void Console::putc(char c) {
  74:src/syscall_cpp.cpp ****     ::putc(c);
  75:src/syscall_cpp.cpp **** }
  76:src/syscall_cpp.cpp **** 
  77:src/syscall_cpp.cpp **** PeriodicThread::PeriodicThread(time_t period)
  78:src/syscall_cpp.cpp ****     : Thread(&wrapperPeriodic, new pStruct({this, period})) {
  79:src/syscall_cpp.cpp **** 
  80:src/syscall_cpp.cpp **** }
  81:src/syscall_cpp.cpp **** 
  82:src/syscall_cpp.cpp **** void PeriodicThread::wrapperPeriodic(void *args) {
 201              		.loc 2 82 50 is_stmt 1
 202              		.cfi_startproc
 203              	.LVL11:
 204 0080 130101FE 		addi	sp,sp,-32
 205              		.cfi_def_cfa_offset 32
 206 0084 233C1100 		sd	ra,24(sp)
 207 0088 23388100 		sd	s0,16(sp)
 208 008c 23349100 		sd	s1,8(sp)
 209              		.cfi_offset 1, -8
 210              		.cfi_offset 8, -16
 211              		.cfi_offset 9, -24
 212 0090 13040102 		addi	s0,sp,32
 213              		.cfi_def_cfa 8, 0
 214 0094 93040500 		mv	s1,a0
  83:src/syscall_cpp.cpp ****     pStruct* pstr = (pStruct*) args;
 215              		.loc 2 83 5
 216              	.LVL12:
  84:src/syscall_cpp.cpp ****     if (pstr) {
 217              		.loc 2 84 5
 218 0098 63020502 		beqz	a0,.L16
 219              	.LVL13:
 220              	.L18:
GAS LISTING /tmp/cc6baEiQ.s 			page 8


  85:src/syscall_cpp.cpp ****         while (true) {
 221              		.loc 2 85 9 discriminator 1
  86:src/syscall_cpp.cpp ****             pstr->pthr->periodicActivation();
 222              		.loc 2 86 13 discriminator 1
 223              		.loc 2 86 19 is_stmt 0 discriminator 1
 224 009c 03B50400 		ld	a0,0(s1)
 225              		.loc 2 86 44 discriminator 1
 226 00a0 83370500 		ld	a5,0(a0)
 227 00a4 83B78701 		ld	a5,24(a5)
 228              		.loc 2 86 43 discriminator 1
 229 00a8 E7800700 		jalr	a5
 230              	.LVL14:
  87:src/syscall_cpp.cpp ****             time_sleep(pstr->pperiod);
 231              		.loc 2 87 13 is_stmt 1 discriminator 1
 232              		.loc 2 87 23 is_stmt 0 discriminator 1
 233 00ac 03B58400 		ld	a0,8(s1)
 234 00b0 97000000 		call	_Z10time_sleepm@plt
 234      E7800000 
 235              	.LVL15:
  85:src/syscall_cpp.cpp ****         while (true) {
 236              		.loc 2 85 9 is_stmt 1 discriminator 1
 237 00b8 6FF05FFE 		j	.L18
 238              	.L16:
  88:src/syscall_cpp.cpp ****         }
  89:src/syscall_cpp.cpp ****     }
  90:src/syscall_cpp.cpp **** }
 239              		.loc 2 90 1 is_stmt 0
 240 00bc 83308101 		ld	ra,24(sp)
 241              		.cfi_restore 1
 242 00c0 03340101 		ld	s0,16(sp)
 243              		.cfi_restore 8
 244              		.cfi_def_cfa 2, 32
 245 00c4 83348100 		ld	s1,8(sp)
 246              		.cfi_restore 9
 247              	.LVL16:
 248 00c8 13010102 		addi	sp,sp,32
 249              		.cfi_def_cfa_offset 0
 250 00cc 67800000 		jr	ra
 251              		.cfi_endproc
 252              	.LFE51:
 254              		.align	2
 255              		.globl	_ZN9SemaphoreD2Ev
 257              	_ZN9SemaphoreD2Ev:
 258              	.LFB41:
  57:src/syscall_cpp.cpp ****     sem_close(myHandle);
 259              		.loc 2 57 1 is_stmt 1
 260              		.cfi_startproc
 261              		.cfi_personality 0x9b,DW.ref.__gxx_personality_v0
 262              		.cfi_lsda 0x1b,.LLSDA41
 263              	.LVL17:
 264 00d0 130101FF 		addi	sp,sp,-16
 265              		.cfi_def_cfa_offset 16
 266 00d4 23341100 		sd	ra,8(sp)
 267 00d8 23308100 		sd	s0,0(sp)
 268              		.cfi_offset 1, -8
 269              		.cfi_offset 8, -16
 270 00dc 13040101 		addi	s0,sp,16
GAS LISTING /tmp/cc6baEiQ.s 			page 9


 271              		.cfi_def_cfa 8, 0
 272              	.LBB14:
  57:src/syscall_cpp.cpp ****     sem_close(myHandle);
 273              		.loc 2 57 23 is_stmt 0
 274 00e0 97070000 		lla	a5,_ZTV9Semaphore+16
 274      93870700 
 275 00e8 2330F500 		sd	a5,0(a0)
  58:src/syscall_cpp.cpp **** }
 276              		.loc 2 58 5 is_stmt 1
  58:src/syscall_cpp.cpp **** }
 277              		.loc 2 58 14 is_stmt 0
 278 00ec 03358500 		ld	a0,8(a0)
 279              	.LVL18:
 280 00f0 97000000 		call	_Z9sem_closeP10KSemaphore@plt
 280      E7800000 
 281              	.LVL19:
 282              	.LBE14:
  59:src/syscall_cpp.cpp **** 
 283              		.loc 2 59 1
 284 00f8 83308100 		ld	ra,8(sp)
 285              		.cfi_restore 1
 286 00fc 03340100 		ld	s0,0(sp)
 287              		.cfi_restore 8
 288              		.cfi_def_cfa 2, 16
 289 0100 13010101 		addi	sp,sp,16
 290              		.cfi_def_cfa_offset 0
 291 0104 67800000 		jr	ra
 292              		.cfi_endproc
 293              	.LFE41:
 294              		.globl	__gxx_personality_v0
 295              		.section	.gcc_except_table,"a",@progbits
 296              	.LLSDA41:
 297 0000 FF       		.byte	0xff
 298 0001 FF       		.byte	0xff
 299 0002 03       		.byte	0x3
 300 0003 00       		.byte	0
 301              		.text
 303              		.globl	_ZN9SemaphoreD1Ev
 304              		.set	_ZN9SemaphoreD1Ev,_ZN9SemaphoreD2Ev
 305              		.align	2
 306              		.globl	_Znwm
 308              	_Znwm:
 309              	.LFB19:
   8:src/syscall_cpp.cpp ****     return mem_alloc(size);
 310              		.loc 2 8 33 is_stmt 1
 311              		.cfi_startproc
 312              	.LVL20:
 313 0108 130101FF 		addi	sp,sp,-16
 314              		.cfi_def_cfa_offset 16
 315 010c 23341100 		sd	ra,8(sp)
 316 0110 23308100 		sd	s0,0(sp)
 317              		.cfi_offset 1, -8
 318              		.cfi_offset 8, -16
 319 0114 13040101 		addi	s0,sp,16
 320              		.cfi_def_cfa 8, 0
   9:src/syscall_cpp.cpp **** }
 321              		.loc 2 9 5
GAS LISTING /tmp/cc6baEiQ.s 			page 10


   9:src/syscall_cpp.cpp **** }
 322              		.loc 2 9 21 is_stmt 0
 323 0118 97000000 		call	_Z9mem_allocm@plt
 323      E7800000 
 324              	.LVL21:
  10:src/syscall_cpp.cpp **** 
 325              		.loc 2 10 1
 326 0120 83308100 		ld	ra,8(sp)
 327              		.cfi_restore 1
 328 0124 03340100 		ld	s0,0(sp)
 329              		.cfi_restore 8
 330              		.cfi_def_cfa 2, 16
 331 0128 13010101 		addi	sp,sp,16
 332              		.cfi_def_cfa_offset 0
 333 012c 67800000 		jr	ra
 334              		.cfi_endproc
 335              	.LFE19:
 337              		.align	2
 338              		.globl	_ZdlPv
 340              	_ZdlPv:
 341              	.LFB20:
  12:src/syscall_cpp.cpp ****     mem_free(addr);
 342              		.loc 2 12 35 is_stmt 1
 343              		.cfi_startproc
 344              	.LVL22:
 345 0130 130101FF 		addi	sp,sp,-16
 346              		.cfi_def_cfa_offset 16
 347 0134 23341100 		sd	ra,8(sp)
 348 0138 23308100 		sd	s0,0(sp)
 349              		.cfi_offset 1, -8
 350              		.cfi_offset 8, -16
 351 013c 13040101 		addi	s0,sp,16
 352              		.cfi_def_cfa 8, 0
  13:src/syscall_cpp.cpp **** }
 353              		.loc 2 13 5
  13:src/syscall_cpp.cpp **** }
 354              		.loc 2 13 13 is_stmt 0
 355 0140 97000000 		call	_Z8mem_freePv@plt
 355      E7800000 
 356              	.LVL23:
  14:src/syscall_cpp.cpp **** 
 357              		.loc 2 14 1
 358 0148 83308100 		ld	ra,8(sp)
 359              		.cfi_restore 1
 360 014c 03340100 		ld	s0,0(sp)
 361              		.cfi_restore 8
 362              		.cfi_def_cfa 2, 16
 363 0150 13010101 		addi	sp,sp,16
 364              		.cfi_def_cfa_offset 0
 365 0154 67800000 		jr	ra
 366              		.cfi_endproc
 367              	.LFE20:
 369              		.align	2
 370              		.globl	_ZN6ThreadD0Ev
 372              	_ZN6ThreadD0Ev:
 373              	.LFB29:
  28:src/syscall_cpp.cpp ****     myHandle->setFinished(true);
GAS LISTING /tmp/cc6baEiQ.s 			page 11


 374              		.loc 2 28 1 is_stmt 1
 375              		.cfi_startproc
 376              	.LVL24:
 377 0158 130101FE 		addi	sp,sp,-32
 378              		.cfi_def_cfa_offset 32
 379 015c 233C1100 		sd	ra,24(sp)
 380 0160 23388100 		sd	s0,16(sp)
 381 0164 23349100 		sd	s1,8(sp)
 382              		.cfi_offset 1, -8
 383              		.cfi_offset 8, -16
 384              		.cfi_offset 9, -24
 385 0168 13040102 		addi	s0,sp,32
 386              		.cfi_def_cfa 8, 0
 387 016c 93040500 		mv	s1,a0
  30:src/syscall_cpp.cpp **** 
 388              		.loc 2 30 1 is_stmt 0
 389 0170 97000000 		call	_ZN6ThreadD1Ev
 389      E7800000 
 390              	.LVL25:
 391 0178 13850400 		mv	a0,s1
 392 017c 97000000 		call	_ZdlPv
 392      E7800000 
 393              	.LVL26:
 394 0184 83308101 		ld	ra,24(sp)
 395              		.cfi_restore 1
 396 0188 03340101 		ld	s0,16(sp)
 397              		.cfi_restore 8
 398              		.cfi_def_cfa 2, 32
 399 018c 83348100 		ld	s1,8(sp)
 400              		.cfi_restore 9
 401              	.LVL27:
 402 0190 13010102 		addi	sp,sp,32
 403              		.cfi_def_cfa_offset 0
 404 0194 67800000 		jr	ra
 405              		.cfi_endproc
 406              	.LFE29:
 408              		.align	2
 409              		.globl	_ZN9SemaphoreD0Ev
 411              	_ZN9SemaphoreD0Ev:
 412              	.LFB43:
  57:src/syscall_cpp.cpp ****     sem_close(myHandle);
 413              		.loc 2 57 1 is_stmt 1
 414              		.cfi_startproc
 415              	.LVL28:
 416 0198 130101FE 		addi	sp,sp,-32
 417              		.cfi_def_cfa_offset 32
 418 019c 233C1100 		sd	ra,24(sp)
 419 01a0 23388100 		sd	s0,16(sp)
 420 01a4 23349100 		sd	s1,8(sp)
 421              		.cfi_offset 1, -8
 422              		.cfi_offset 8, -16
 423              		.cfi_offset 9, -24
 424 01a8 13040102 		addi	s0,sp,32
 425              		.cfi_def_cfa 8, 0
 426 01ac 93040500 		mv	s1,a0
  59:src/syscall_cpp.cpp **** 
 427              		.loc 2 59 1 is_stmt 0
GAS LISTING /tmp/cc6baEiQ.s 			page 12


 428 01b0 97000000 		call	_ZN9SemaphoreD1Ev
 428      E7800000 
 429              	.LVL29:
 430 01b8 13850400 		mv	a0,s1
 431 01bc 97000000 		call	_ZdlPv
 431      E7800000 
 432              	.LVL30:
 433 01c4 83308101 		ld	ra,24(sp)
 434              		.cfi_restore 1
 435 01c8 03340101 		ld	s0,16(sp)
 436              		.cfi_restore 8
 437              		.cfi_def_cfa 2, 32
 438 01cc 83348100 		ld	s1,8(sp)
 439              		.cfi_restore 9
 440              	.LVL31:
 441 01d0 13010102 		addi	sp,sp,32
 442              		.cfi_def_cfa_offset 0
 443 01d4 67800000 		jr	ra
 444              		.cfi_endproc
 445              	.LFE43:
 447              		.section	.text._ZN14PeriodicThreadD0Ev,"axG",@progbits,_ZN14PeriodicThreadD5Ev,comdat
 448              		.align	2
 449              		.weak	_ZN14PeriodicThreadD0Ev
 451              	_ZN14PeriodicThreadD0Ev:
 452              	.LFB55:
  40:src/../h/syscall_cpp.h **** protected:
 453              		.loc 1 40 7 is_stmt 1
 454              		.cfi_startproc
 455              	.LVL32:
 456 0000 130101FE 		addi	sp,sp,-32
 457              		.cfi_def_cfa_offset 32
 458 0004 233C1100 		sd	ra,24(sp)
 459 0008 23388100 		sd	s0,16(sp)
 460 000c 23349100 		sd	s1,8(sp)
 461              		.cfi_offset 1, -8
 462              		.cfi_offset 8, -16
 463              		.cfi_offset 9, -24
 464 0010 13040102 		addi	s0,sp,32
 465              		.cfi_def_cfa 8, 0
 466 0014 93040500 		mv	s1,a0
 467              	.LVL33:
 468              	.LBB15:
 469              	.LBB16:
  40:src/../h/syscall_cpp.h **** protected:
 470              		.loc 1 40 7 is_stmt 0
 471 0018 97070000 		lla	a5,_ZTV14PeriodicThread+16
 471      93870700 
 472 0020 2330F500 		sd	a5,0(a0)
 473 0024 97000000 		call	_ZN6ThreadD2Ev
 473      E7800000 
 474              	.LVL34:
 475              	.LBE16:
 476              	.LBE15:
 477 002c 13850400 		mv	a0,s1
 478 0030 97000000 		call	_ZdlPv
 478      E7800000 
 479              	.LVL35:
GAS LISTING /tmp/cc6baEiQ.s 			page 13


 480 0038 83308101 		ld	ra,24(sp)
 481              		.cfi_restore 1
 482 003c 03340101 		ld	s0,16(sp)
 483              		.cfi_restore 8
 484              		.cfi_def_cfa 2, 32
 485 0040 83348100 		ld	s1,8(sp)
 486              		.cfi_restore 9
 487              	.LVL36:
 488 0044 13010102 		addi	sp,sp,32
 489              		.cfi_def_cfa_offset 0
 490 0048 67800000 		jr	ra
 491              		.cfi_endproc
 492              	.LFE55:
 494              		.text
 495              		.align	2
 496              		.globl	_Znam
 498              	_Znam:
 499              	.LFB21:
  16:src/syscall_cpp.cpp ****     return mem_alloc(size);
 500              		.loc 2 16 36 is_stmt 1
 501              		.cfi_startproc
 502              	.LVL37:
 503 01d8 130101FF 		addi	sp,sp,-16
 504              		.cfi_def_cfa_offset 16
 505 01dc 23341100 		sd	ra,8(sp)
 506 01e0 23308100 		sd	s0,0(sp)
 507              		.cfi_offset 1, -8
 508              		.cfi_offset 8, -16
 509 01e4 13040101 		addi	s0,sp,16
 510              		.cfi_def_cfa 8, 0
  17:src/syscall_cpp.cpp **** }
 511              		.loc 2 17 5
  17:src/syscall_cpp.cpp **** }
 512              		.loc 2 17 21 is_stmt 0
 513 01e8 97000000 		call	_Z9mem_allocm@plt
 513      E7800000 
 514              	.LVL38:
  18:src/syscall_cpp.cpp **** 
 515              		.loc 2 18 1
 516 01f0 83308100 		ld	ra,8(sp)
 517              		.cfi_restore 1
 518 01f4 03340100 		ld	s0,0(sp)
 519              		.cfi_restore 8
 520              		.cfi_def_cfa 2, 16
 521 01f8 13010101 		addi	sp,sp,16
 522              		.cfi_def_cfa_offset 0
 523 01fc 67800000 		jr	ra
 524              		.cfi_endproc
 525              	.LFE21:
 527              		.align	2
 528              		.globl	_ZdaPv
 530              	_ZdaPv:
 531              	.LFB22:
  20:src/syscall_cpp.cpp ****     mem_free(addr);
 532              		.loc 2 20 37 is_stmt 1
 533              		.cfi_startproc
 534              	.LVL39:
GAS LISTING /tmp/cc6baEiQ.s 			page 14


 535 0200 130101FF 		addi	sp,sp,-16
 536              		.cfi_def_cfa_offset 16
 537 0204 23341100 		sd	ra,8(sp)
 538 0208 23308100 		sd	s0,0(sp)
 539              		.cfi_offset 1, -8
 540              		.cfi_offset 8, -16
 541 020c 13040101 		addi	s0,sp,16
 542              		.cfi_def_cfa 8, 0
  21:src/syscall_cpp.cpp **** }
 543              		.loc 2 21 5
  21:src/syscall_cpp.cpp **** }
 544              		.loc 2 21 13 is_stmt 0
 545 0210 97000000 		call	_Z8mem_freePv@plt
 545      E7800000 
 546              	.LVL40:
  22:src/syscall_cpp.cpp **** 
 547              		.loc 2 22 1
 548 0218 83308100 		ld	ra,8(sp)
 549              		.cfi_restore 1
 550 021c 03340100 		ld	s0,0(sp)
 551              		.cfi_restore 8
 552              		.cfi_def_cfa 2, 16
 553 0220 13010101 		addi	sp,sp,16
 554              		.cfi_def_cfa_offset 0
 555 0224 67800000 		jr	ra
 556              		.cfi_endproc
 557              	.LFE22:
 559              		.align	2
 560              		.globl	_ZN6ThreadC2EPFvPvES0_
 562              	_ZN6ThreadC2EPFvPvES0_:
 563              	.LFB24:
  24:src/syscall_cpp.cpp ****     thread_create_CPP(&myHandle, body, arg);
 564              		.loc 2 24 1 is_stmt 1
 565              		.cfi_startproc
 566              	.LVL41:
 567 0228 130101FF 		addi	sp,sp,-16
 568              		.cfi_def_cfa_offset 16
 569 022c 23341100 		sd	ra,8(sp)
 570 0230 23308100 		sd	s0,0(sp)
 571              		.cfi_offset 1, -8
 572              		.cfi_offset 8, -16
 573 0234 13040101 		addi	s0,sp,16
 574              		.cfi_def_cfa 8, 0
 575              	.LBB17:
  24:src/syscall_cpp.cpp ****     thread_create_CPP(&myHandle, body, arg);
 576              		.loc 2 24 47 is_stmt 0
 577 0238 97070000 		lla	a5,_ZTV6Thread+16
 577      93870700 
 578 0240 2330F500 		sd	a5,0(a0)
  25:src/syscall_cpp.cpp **** }
 579              		.loc 2 25 5 is_stmt 1
  25:src/syscall_cpp.cpp **** }
 580              		.loc 2 25 22 is_stmt 0
 581 0244 13058500 		addi	a0,a0,8
 582              	.LVL42:
 583 0248 97000000 		call	_Z17thread_create_CPPPP4KPCBPFvPvES2_@plt
 583      E7800000 
GAS LISTING /tmp/cc6baEiQ.s 			page 15


 584              	.LVL43:
 585              	.LBE17:
  26:src/syscall_cpp.cpp **** 
 586              		.loc 2 26 1
 587 0250 83308100 		ld	ra,8(sp)
 588              		.cfi_restore 1
 589 0254 03340100 		ld	s0,0(sp)
 590              		.cfi_restore 8
 591              		.cfi_def_cfa 2, 16
 592 0258 13010101 		addi	sp,sp,16
 593              		.cfi_def_cfa_offset 0
 594 025c 67800000 		jr	ra
 595              		.cfi_endproc
 596              	.LFE24:
 598              		.globl	_ZN6ThreadC1EPFvPvES0_
 599              		.set	_ZN6ThreadC1EPFvPvES0_,_ZN6ThreadC2EPFvPvES0_
 600              		.align	2
 601              		.globl	_ZN6Thread5startEv
 603              	_ZN6Thread5startEv:
 604              	.LFB30:
  32:src/syscall_cpp.cpp ****     return myHandle->startIt();
 605              		.loc 2 32 21 is_stmt 1
 606              		.cfi_startproc
 607              	.LVL44:
  33:src/syscall_cpp.cpp **** }
 608              		.loc 2 33 5
  33:src/syscall_cpp.cpp **** }
 609              		.loc 2 33 12 is_stmt 0
 610 0260 03358500 		ld	a0,8(a0)
 611              	.LVL45:
 612              	.LBB18:
 613              	.LBB19:
  57:src/../h/KPCB.hpp ****     }
  58:src/../h/KPCB.hpp ****     void setSleeping(bool val) { sleeping = val; }
  59:src/../h/KPCB.hpp ****     void setWaiting(bool val) { waiting = val; }
  60:src/../h/KPCB.hpp ****     void setErr(bool val) { err = val; }
  61:src/../h/KPCB.hpp ****     int startIt() {
  62:src/../h/KPCB.hpp ****         if (started) return -1;
 614              		.loc 3 62 9 is_stmt 1
 615              		.loc 3 62 13 is_stmt 0
 616 0264 83474503 		lbu	a5,52(a0)
 617              		.loc 3 62 9
 618 0268 639C0702 		bnez	a5,.L40
 619              	.LBE19:
 620              	.LBE18:
  32:src/syscall_cpp.cpp ****     return myHandle->startIt();
 621              		.loc 2 32 21
 622 026c 130101FF 		addi	sp,sp,-16
 623              		.cfi_def_cfa_offset 16
 624 0270 23341100 		sd	ra,8(sp)
 625 0274 23308100 		sd	s0,0(sp)
 626              		.cfi_offset 1, -8
 627              		.cfi_offset 8, -16
 628 0278 13040101 		addi	s0,sp,16
 629              		.cfi_def_cfa 8, 0
 630              	.LBB22:
 631              	.LBB20:
GAS LISTING /tmp/cc6baEiQ.s 			page 16


  63:src/../h/KPCB.hpp ****         started = true;
 632              		.loc 3 63 9 is_stmt 1
 633              		.loc 3 63 17 is_stmt 0
 634 027c 93071000 		li	a5,1
 635 0280 230AF502 		sb	a5,52(a0)
  64:src/../h/KPCB.hpp ****         KScheduler::put(this);
 636              		.loc 3 64 9 is_stmt 1
 637              		.loc 3 64 24 is_stmt 0
 638 0284 97000000 		call	_ZN10KScheduler3putEP4KPCB@plt
 638      E7800000 
 639              	.LVL46:
  65:src/../h/KPCB.hpp ****         return 0;
 640              		.loc 3 65 9 is_stmt 1
 641              		.loc 3 65 16 is_stmt 0
 642 028c 13050000 		li	a0,0
 643              	.LBE20:
 644              	.LBE22:
  34:src/syscall_cpp.cpp **** 
 645              		.loc 2 34 1
 646 0290 83308100 		ld	ra,8(sp)
 647              		.cfi_restore 1
 648 0294 03340100 		ld	s0,0(sp)
 649              		.cfi_restore 8
 650              		.cfi_def_cfa 2, 16
 651 0298 13010101 		addi	sp,sp,16
 652              		.cfi_def_cfa_offset 0
 653 029c 67800000 		jr	ra
 654              	.LVL47:
 655              	.L40:
 656              	.LBB23:
 657              	.LBB21:
  62:src/../h/KPCB.hpp ****         started = true;
 658              		.loc 3 62 30
 659 02a0 1305F0FF 		li	a0,-1
 660              	.LVL48:
 661              	.LBE21:
 662              	.LBE23:
  34:src/syscall_cpp.cpp **** 
 663              		.loc 2 34 1
 664 02a4 67800000 		ret
 665              		.cfi_endproc
 666              	.LFE30:
 668              		.align	2
 669              		.globl	_ZN6Thread8dispatchEv
 671              	_ZN6Thread8dispatchEv:
 672              	.LFB31:
  36:src/syscall_cpp.cpp ****     thread_dispatch();
 673              		.loc 2 36 25 is_stmt 1
 674              		.cfi_startproc
 675 02a8 130101FF 		addi	sp,sp,-16
 676              		.cfi_def_cfa_offset 16
 677 02ac 23341100 		sd	ra,8(sp)
 678 02b0 23308100 		sd	s0,0(sp)
 679              		.cfi_offset 1, -8
 680              		.cfi_offset 8, -16
 681 02b4 13040101 		addi	s0,sp,16
 682              		.cfi_def_cfa 8, 0
GAS LISTING /tmp/cc6baEiQ.s 			page 17


  37:src/syscall_cpp.cpp **** }
 683              		.loc 2 37 5
  37:src/syscall_cpp.cpp **** }
 684              		.loc 2 37 20 is_stmt 0
 685 02b8 97000000 		call	_Z15thread_dispatchv@plt
 685      E7800000 
 686              	.LVL49:
  38:src/syscall_cpp.cpp **** 
 687              		.loc 2 38 1
 688 02c0 83308100 		ld	ra,8(sp)
 689              		.cfi_restore 1
 690 02c4 03340100 		ld	s0,0(sp)
 691              		.cfi_restore 8
 692              		.cfi_def_cfa 2, 16
 693 02c8 13010101 		addi	sp,sp,16
 694              		.cfi_def_cfa_offset 0
 695 02cc 67800000 		jr	ra
 696              		.cfi_endproc
 697              	.LFE31:
 699              		.align	2
 700              		.globl	_ZN6Thread5sleepEm
 702              	_ZN6Thread5sleepEm:
 703              	.LFB32:
  40:src/syscall_cpp.cpp ****     return time_sleep(t);
 704              		.loc 2 40 29 is_stmt 1
 705              		.cfi_startproc
 706              	.LVL50:
 707 02d0 130101FF 		addi	sp,sp,-16
 708              		.cfi_def_cfa_offset 16
 709 02d4 23341100 		sd	ra,8(sp)
 710 02d8 23308100 		sd	s0,0(sp)
 711              		.cfi_offset 1, -8
 712              		.cfi_offset 8, -16
 713 02dc 13040101 		addi	s0,sp,16
 714              		.cfi_def_cfa 8, 0
  41:src/syscall_cpp.cpp **** }
 715              		.loc 2 41 5
  41:src/syscall_cpp.cpp **** }
 716              		.loc 2 41 22 is_stmt 0
 717 02e0 97000000 		call	_Z10time_sleepm@plt
 717      E7800000 
 718              	.LVL51:
  42:src/syscall_cpp.cpp **** 
 719              		.loc 2 42 1
 720 02e8 83308100 		ld	ra,8(sp)
 721              		.cfi_restore 1
 722 02ec 03340100 		ld	s0,0(sp)
 723              		.cfi_restore 8
 724              		.cfi_def_cfa 2, 16
 725 02f0 13010101 		addi	sp,sp,16
 726              		.cfi_def_cfa_offset 0
 727 02f4 67800000 		jr	ra
 728              		.cfi_endproc
 729              	.LFE32:
 731              		.align	2
 732              		.globl	_ZN6ThreadC2Ev
 734              	_ZN6ThreadC2Ev:
GAS LISTING /tmp/cc6baEiQ.s 			page 18


 735              	.LFB34:
  44:src/syscall_cpp.cpp ****     thread_create_CPP(&myHandle, &wrapper, this);
 736              		.loc 2 44 1 is_stmt 1
 737              		.cfi_startproc
 738              	.LVL52:
 739 02f8 130101FF 		addi	sp,sp,-16
 740              		.cfi_def_cfa_offset 16
 741 02fc 23341100 		sd	ra,8(sp)
 742 0300 23308100 		sd	s0,0(sp)
 743              		.cfi_offset 1, -8
 744              		.cfi_offset 8, -16
 745 0304 13040101 		addi	s0,sp,16
 746              		.cfi_def_cfa 8, 0
 747              	.LBB24:
  44:src/syscall_cpp.cpp ****     thread_create_CPP(&myHandle, &wrapper, this);
 748              		.loc 2 44 16 is_stmt 0
 749 0308 97070000 		lla	a5,_ZTV6Thread+16
 749      93870700 
 750 0310 2330F500 		sd	a5,0(a0)
  45:src/syscall_cpp.cpp **** }
 751              		.loc 2 45 5 is_stmt 1
  45:src/syscall_cpp.cpp **** }
 752              		.loc 2 45 22 is_stmt 0
 753 0314 13060500 		mv	a2,a0
 754 0318 97050000 		lla	a1,_ZN6Thread7wrapperEPv
 754      93850500 
 755 0320 13058500 		addi	a0,a0,8
 756              	.LVL53:
 757 0324 97000000 		call	_Z17thread_create_CPPPP4KPCBPFvPvES2_@plt
 757      E7800000 
 758              	.LVL54:
 759              	.LBE24:
  46:src/syscall_cpp.cpp **** 
 760              		.loc 2 46 1
 761 032c 83308100 		ld	ra,8(sp)
 762              		.cfi_restore 1
 763 0330 03340100 		ld	s0,0(sp)
 764              		.cfi_restore 8
 765              		.cfi_def_cfa 2, 16
 766 0334 13010101 		addi	sp,sp,16
 767              		.cfi_def_cfa_offset 0
 768 0338 67800000 		jr	ra
 769              		.cfi_endproc
 770              	.LFE34:
 772              		.globl	_ZN6ThreadC1Ev
 773              		.set	_ZN6ThreadC1Ev,_ZN6ThreadC2Ev
 774              		.align	2
 775              		.globl	_ZN9SemaphoreC2Ej
 777              	_ZN9SemaphoreC2Ej:
 778              	.LFB38:
  53:src/syscall_cpp.cpp ****     sem_open(&myHandle, init);
 779              		.loc 2 53 1 is_stmt 1
 780              		.cfi_startproc
 781              	.LVL55:
 782 033c 130101FF 		addi	sp,sp,-16
 783              		.cfi_def_cfa_offset 16
 784 0340 23341100 		sd	ra,8(sp)
GAS LISTING /tmp/cc6baEiQ.s 			page 19


 785 0344 23308100 		sd	s0,0(sp)
 786              		.cfi_offset 1, -8
 787              		.cfi_offset 8, -16
 788 0348 13040101 		addi	s0,sp,16
 789              		.cfi_def_cfa 8, 0
 790              	.LBB25:
  53:src/syscall_cpp.cpp ****     sem_open(&myHandle, init);
 791              		.loc 2 53 39 is_stmt 0
 792 034c 97070000 		lla	a5,_ZTV9Semaphore+16
 792      93870700 
 793 0354 2330F500 		sd	a5,0(a0)
  54:src/syscall_cpp.cpp **** }
 794              		.loc 2 54 5 is_stmt 1
  54:src/syscall_cpp.cpp **** }
 795              		.loc 2 54 13 is_stmt 0
 796 0358 13058500 		addi	a0,a0,8
 797              	.LVL56:
 798 035c 97000000 		call	_Z8sem_openPP10KSemaphorej@plt
 798      E7800000 
 799              	.LVL57:
 800              	.LBE25:
  55:src/syscall_cpp.cpp **** 
 801              		.loc 2 55 1
 802 0364 83308100 		ld	ra,8(sp)
 803              		.cfi_restore 1
 804 0368 03340100 		ld	s0,0(sp)
 805              		.cfi_restore 8
 806              		.cfi_def_cfa 2, 16
 807 036c 13010101 		addi	sp,sp,16
 808              		.cfi_def_cfa_offset 0
 809 0370 67800000 		jr	ra
 810              		.cfi_endproc
 811              	.LFE38:
 813              		.globl	_ZN9SemaphoreC1Ej
 814              		.set	_ZN9SemaphoreC1Ej,_ZN9SemaphoreC2Ej
 815              		.align	2
 816              		.globl	_ZN9Semaphore4waitEv
 818              	_ZN9Semaphore4waitEv:
 819              	.LFB44:
  61:src/syscall_cpp.cpp ****     return sem_wait(myHandle);
 820              		.loc 2 61 23 is_stmt 1
 821              		.cfi_startproc
 822              	.LVL58:
 823 0374 130101FF 		addi	sp,sp,-16
 824              		.cfi_def_cfa_offset 16
 825 0378 23341100 		sd	ra,8(sp)
 826 037c 23308100 		sd	s0,0(sp)
 827              		.cfi_offset 1, -8
 828              		.cfi_offset 8, -16
 829 0380 13040101 		addi	s0,sp,16
 830              		.cfi_def_cfa 8, 0
  62:src/syscall_cpp.cpp **** }
 831              		.loc 2 62 5
  62:src/syscall_cpp.cpp **** }
 832              		.loc 2 62 20 is_stmt 0
 833 0384 03358500 		ld	a0,8(a0)
 834              	.LVL59:
GAS LISTING /tmp/cc6baEiQ.s 			page 20


 835 0388 97000000 		call	_Z8sem_waitP10KSemaphore@plt
 835      E7800000 
 836              	.LVL60:
  63:src/syscall_cpp.cpp **** 
 837              		.loc 2 63 1
 838 0390 83308100 		ld	ra,8(sp)
 839              		.cfi_restore 1
 840 0394 03340100 		ld	s0,0(sp)
 841              		.cfi_restore 8
 842              		.cfi_def_cfa 2, 16
 843 0398 13010101 		addi	sp,sp,16
 844              		.cfi_def_cfa_offset 0
 845 039c 67800000 		jr	ra
 846              		.cfi_endproc
 847              	.LFE44:
 849              		.align	2
 850              		.globl	_ZN9Semaphore6signalEv
 852              	_ZN9Semaphore6signalEv:
 853              	.LFB45:
  65:src/syscall_cpp.cpp ****     return sem_signal(myHandle);
 854              		.loc 2 65 25 is_stmt 1
 855              		.cfi_startproc
 856              	.LVL61:
 857 03a0 130101FF 		addi	sp,sp,-16
 858              		.cfi_def_cfa_offset 16
 859 03a4 23341100 		sd	ra,8(sp)
 860 03a8 23308100 		sd	s0,0(sp)
 861              		.cfi_offset 1, -8
 862              		.cfi_offset 8, -16
 863 03ac 13040101 		addi	s0,sp,16
 864              		.cfi_def_cfa 8, 0
  66:src/syscall_cpp.cpp **** }
 865              		.loc 2 66 5
  66:src/syscall_cpp.cpp **** }
 866              		.loc 2 66 22 is_stmt 0
 867 03b0 03358500 		ld	a0,8(a0)
 868              	.LVL62:
 869 03b4 97000000 		call	_Z10sem_signalP10KSemaphore@plt
 869      E7800000 
 870              	.LVL63:
  67:src/syscall_cpp.cpp **** 
 871              		.loc 2 67 1
 872 03bc 83308100 		ld	ra,8(sp)
 873              		.cfi_restore 1
 874 03c0 03340100 		ld	s0,0(sp)
 875              		.cfi_restore 8
 876              		.cfi_def_cfa 2, 16
 877 03c4 13010101 		addi	sp,sp,16
 878              		.cfi_def_cfa_offset 0
 879 03c8 67800000 		jr	ra
 880              		.cfi_endproc
 881              	.LFE45:
 883              		.align	2
 884              		.globl	_ZN7Console4getcEv
 886              	_ZN7Console4getcEv:
 887              	.LFB46:
  69:src/syscall_cpp.cpp ****     return ::getc();
GAS LISTING /tmp/cc6baEiQ.s 			page 21


 888              		.loc 2 69 22 is_stmt 1
 889              		.cfi_startproc
 890 03cc 130101FF 		addi	sp,sp,-16
 891              		.cfi_def_cfa_offset 16
 892 03d0 23341100 		sd	ra,8(sp)
 893 03d4 23308100 		sd	s0,0(sp)
 894              		.cfi_offset 1, -8
 895              		.cfi_offset 8, -16
 896 03d8 13040101 		addi	s0,sp,16
 897              		.cfi_def_cfa 8, 0
  70:src/syscall_cpp.cpp **** }
 898              		.loc 2 70 5
  70:src/syscall_cpp.cpp **** }
 899              		.loc 2 70 18 is_stmt 0
 900 03dc 97000000 		call	_Z4getcv@plt
 900      E7800000 
 901              	.LVL64:
  71:src/syscall_cpp.cpp **** 
 902              		.loc 2 71 1
 903 03e4 83308100 		ld	ra,8(sp)
 904              		.cfi_restore 1
 905 03e8 03340100 		ld	s0,0(sp)
 906              		.cfi_restore 8
 907              		.cfi_def_cfa 2, 16
 908 03ec 13010101 		addi	sp,sp,16
 909              		.cfi_def_cfa_offset 0
 910 03f0 67800000 		jr	ra
 911              		.cfi_endproc
 912              	.LFE46:
 914              		.align	2
 915              		.globl	_ZN7Console4putcEc
 917              	_ZN7Console4putcEc:
 918              	.LFB47:
  73:src/syscall_cpp.cpp ****     ::putc(c);
 919              		.loc 2 73 28 is_stmt 1
 920              		.cfi_startproc
 921              	.LVL65:
 922 03f4 130101FF 		addi	sp,sp,-16
 923              		.cfi_def_cfa_offset 16
 924 03f8 23341100 		sd	ra,8(sp)
 925 03fc 23308100 		sd	s0,0(sp)
 926              		.cfi_offset 1, -8
 927              		.cfi_offset 8, -16
 928 0400 13040101 		addi	s0,sp,16
 929              		.cfi_def_cfa 8, 0
  74:src/syscall_cpp.cpp **** }
 930              		.loc 2 74 5
  74:src/syscall_cpp.cpp **** }
 931              		.loc 2 74 11 is_stmt 0
 932 0404 97000000 		call	_Z4putcc@plt
 932      E7800000 
 933              	.LVL66:
  75:src/syscall_cpp.cpp **** 
 934              		.loc 2 75 1
 935 040c 83308100 		ld	ra,8(sp)
 936              		.cfi_restore 1
 937 0410 03340100 		ld	s0,0(sp)
GAS LISTING /tmp/cc6baEiQ.s 			page 22


 938              		.cfi_restore 8
 939              		.cfi_def_cfa 2, 16
 940 0414 13010101 		addi	sp,sp,16
 941              		.cfi_def_cfa_offset 0
 942 0418 67800000 		jr	ra
 943              		.cfi_endproc
 944              	.LFE47:
 946              		.align	2
 947              		.globl	_ZN14PeriodicThreadC2Em
 949              	_ZN14PeriodicThreadC2Em:
 950              	.LFB49:
  77:src/syscall_cpp.cpp ****     : Thread(&wrapperPeriodic, new pStruct({this, period})) {
 951              		.loc 2 77 1 is_stmt 1
 952              		.cfi_startproc
 953              	.LVL67:
 954 041c 130101FE 		addi	sp,sp,-32
 955              		.cfi_def_cfa_offset 32
 956 0420 233C1100 		sd	ra,24(sp)
 957 0424 23388100 		sd	s0,16(sp)
 958 0428 23349100 		sd	s1,8(sp)
 959 042c 23302101 		sd	s2,0(sp)
 960              		.cfi_offset 1, -8
 961              		.cfi_offset 8, -16
 962              		.cfi_offset 9, -24
 963              		.cfi_offset 18, -32
 964 0430 13040102 		addi	s0,sp,32
 965              		.cfi_def_cfa 8, 0
 966 0434 93040500 		mv	s1,a0
 967 0438 13890500 		mv	s2,a1
 968              	.LBB26:
  78:src/syscall_cpp.cpp **** 
 969              		.loc 2 78 58 is_stmt 0
 970 043c 13050001 		li	a0,16
 971              	.LVL68:
 972 0440 97000000 		call	_Znwm
 972      E7800000 
 973              	.LVL69:
 974 0448 13060500 		mv	a2,a0
 975 044c 23309500 		sd	s1,0(a0)
 976 0450 23342501 		sd	s2,8(a0)
  78:src/syscall_cpp.cpp **** 
 977              		.loc 2 78 59
 978 0454 97050000 		lla	a1,_ZN14PeriodicThread15wrapperPeriodicEPv
 978      93850500 
 979 045c 13850400 		mv	a0,s1
 980 0460 97000000 		call	_ZN6ThreadC2EPFvPvES0_
 980      E7800000 
 981              	.LVL70:
 982 0468 97070000 		lla	a5,_ZTV14PeriodicThread+16
 982      93870700 
 983 0470 23B0F400 		sd	a5,0(s1)
 984              	.LBE26:
  80:src/syscall_cpp.cpp **** 
 985              		.loc 2 80 1
 986 0474 83308101 		ld	ra,24(sp)
 987              		.cfi_restore 1
 988 0478 03340101 		ld	s0,16(sp)
GAS LISTING /tmp/cc6baEiQ.s 			page 23


 989              		.cfi_restore 8
 990              		.cfi_def_cfa 2, 32
 991 047c 83348100 		ld	s1,8(sp)
 992              		.cfi_restore 9
 993              	.LVL71:
 994 0480 03390100 		ld	s2,0(sp)
 995              		.cfi_restore 18
 996              	.LVL72:
 997 0484 13010102 		addi	sp,sp,32
 998              		.cfi_def_cfa_offset 0
 999 0488 67800000 		jr	ra
 1000              		.cfi_endproc
 1001              	.LFE49:
 1003              		.globl	_ZN14PeriodicThreadC1Em
 1004              		.set	_ZN14PeriodicThreadC1Em,_ZN14PeriodicThreadC2Em
 1005              		.weak	_ZTV14PeriodicThread
 1006              		.section	.data.rel.ro.local._ZTV14PeriodicThread,"awG",@progbits,_ZTV14PeriodicThread,comdat
 1007              		.align	3
 1010              	_ZTV14PeriodicThread:
 1011 0000 00000000 		.dword	0
 1011      00000000 
 1012 0008 00000000 		.dword	0
 1012      00000000 
 1013 0010 00000000 		.dword	_ZN14PeriodicThreadD1Ev
 1013      00000000 
 1014 0018 00000000 		.dword	_ZN14PeriodicThreadD0Ev
 1014      00000000 
 1015 0020 00000000 		.dword	_ZN6Thread3runEv
 1015      00000000 
 1016 0028 00000000 		.dword	_ZN14PeriodicThread18periodicActivationEv
 1016      00000000 
 1017              		.weak	_ZTV6Thread
 1018              		.section	.data.rel.ro.local._ZTV6Thread,"awG",@progbits,_ZTV6Thread,comdat
 1019              		.align	3
 1022              	_ZTV6Thread:
 1023 0000 00000000 		.dword	0
 1023      00000000 
 1024 0008 00000000 		.dword	0
 1024      00000000 
 1025 0010 00000000 		.dword	_ZN6ThreadD1Ev
 1025      00000000 
 1026 0018 00000000 		.dword	_ZN6ThreadD0Ev
 1026      00000000 
 1027 0020 00000000 		.dword	_ZN6Thread3runEv
 1027      00000000 
 1028              		.weak	_ZTV9Semaphore
 1029              		.section	.data.rel.ro.local._ZTV9Semaphore,"awG",@progbits,_ZTV9Semaphore,comdat
 1030              		.align	3
 1033              	_ZTV9Semaphore:
 1034 0000 00000000 		.dword	0
 1034      00000000 
 1035 0008 00000000 		.dword	0
 1035      00000000 
 1036 0010 00000000 		.dword	_ZN9SemaphoreD1Ev
 1036      00000000 
 1037 0018 00000000 		.dword	_ZN9SemaphoreD0Ev
 1037      00000000 
GAS LISTING /tmp/cc6baEiQ.s 			page 24


 1038              		.text
 1039              	.Letext0:
 1040              		.file 4 "src/../h/../lib/hw.h"
 1041              		.file 5 "src/../h/syscall_c.h"
 1042              		.file 6 "src/../h/KScheduler.hpp"
 5214              		.align	3
 5217              	DW.ref.__gxx_personality_v0:
 5218 0000 00000000 		.dword	__gxx_personality_v0
 5218      00000000 
 5219              		.ident	"GCC: (Ubuntu 9.4.0-1ubuntu1~20.04) 9.4.0"
 5220              		.section	.note.GNU-stack,"",@progbits
GAS LISTING /tmp/cc6baEiQ.s 			page 25


DEFINED SYMBOLS
                            *ABS*:0000000000000000 syscall_cpp.cpp
     /tmp/cc6baEiQ.s:10     .text._ZN6Thread3runEv:0000000000000000 _ZN6Thread3runEv
     /tmp/cc6baEiQ.s:14     .text._ZN6Thread3runEv:0000000000000000 .L0 
     /tmp/cc6baEiQ.s:16     .text._ZN6Thread3runEv:0000000000000000 .L0 
     /tmp/cc6baEiQ.s:17     .text._ZN6Thread3runEv:0000000000000004 .L0 
     /tmp/cc6baEiQ.s:19     .text._ZN6Thread3runEv:0000000000000008 .L0 
     /tmp/cc6baEiQ.s:21     .text._ZN6Thread3runEv:000000000000000c .L0 
     /tmp/cc6baEiQ.s:23     .text._ZN6Thread3runEv:000000000000000c .L0 
     /tmp/cc6baEiQ.s:24     .text._ZN6Thread3runEv:0000000000000010 .L0 
     /tmp/cc6baEiQ.s:25     .text._ZN6Thread3runEv:0000000000000010 .L0 
     /tmp/cc6baEiQ.s:27     .text._ZN6Thread3runEv:0000000000000014 .L0 
     /tmp/cc6baEiQ.s:29     .text._ZN6Thread3runEv:0000000000000018 .L0 
     /tmp/cc6baEiQ.s:36     .text._ZN14PeriodicThread18periodicActivationEv:0000000000000000 _ZN14PeriodicThread18periodicActivationEv
     /tmp/cc6baEiQ.s:39     .text._ZN14PeriodicThread18periodicActivationEv:0000000000000000 .L0 
     /tmp/cc6baEiQ.s:41     .text._ZN14PeriodicThread18periodicActivationEv:0000000000000000 .L0 
     /tmp/cc6baEiQ.s:42     .text._ZN14PeriodicThread18periodicActivationEv:0000000000000004 .L0 
     /tmp/cc6baEiQ.s:44     .text._ZN14PeriodicThread18periodicActivationEv:0000000000000008 .L0 
     /tmp/cc6baEiQ.s:46     .text._ZN14PeriodicThread18periodicActivationEv:000000000000000c .L0 
     /tmp/cc6baEiQ.s:48     .text._ZN14PeriodicThread18periodicActivationEv:000000000000000c .L0 
     /tmp/cc6baEiQ.s:49     .text._ZN14PeriodicThread18periodicActivationEv:0000000000000010 .L0 
     /tmp/cc6baEiQ.s:50     .text._ZN14PeriodicThread18periodicActivationEv:0000000000000010 .L0 
     /tmp/cc6baEiQ.s:52     .text._ZN14PeriodicThread18periodicActivationEv:0000000000000014 .L0 
     /tmp/cc6baEiQ.s:54     .text._ZN14PeriodicThread18periodicActivationEv:0000000000000018 .L0 
     /tmp/cc6baEiQ.s:61     .text:0000000000000000 _ZN6ThreadD2Ev
     /tmp/cc6baEiQ.s:65     .text:0000000000000000 .L0 
     /tmp/cc6baEiQ.s:67     .text:0000000000000000 .L0 
     /tmp/cc6baEiQ.s:68     .text:0000000000000004 .L0 
     /tmp/cc6baEiQ.s:70     .text:0000000000000008 .L0 
     /tmp/cc6baEiQ.s:72     .text:000000000000000c .L0 
     /tmp/cc6baEiQ.s:1022   .data.rel.ro.local._ZTV6Thread:0000000000000000 _ZTV6Thread
     /tmp/cc6baEiQ.s:75     .text:000000000000000c .L0 
     /tmp/cc6baEiQ.s:78     .text:0000000000000018 .L0 
     /tmp/cc6baEiQ.s:84     .text:000000000000001c .L0 
     /tmp/cc6baEiQ.s:85     .text:000000000000001c .L0 
     /tmp/cc6baEiQ.s:87     .text:0000000000000020 .L0 
     /tmp/cc6baEiQ.s:89     .text:0000000000000024 .L0 
     /tmp/cc6baEiQ.s:90     .text:0000000000000024 .L0 
     /tmp/cc6baEiQ.s:93     .text:000000000000002c .L0 
     /tmp/cc6baEiQ.s:94     .text:000000000000002c .L0 
     /tmp/cc6baEiQ.s:105    .text:0000000000000040 .L0 
     /tmp/cc6baEiQ.s:106    .text:0000000000000044 .L0 
     /tmp/cc6baEiQ.s:107    .text:0000000000000044 .L0 
     /tmp/cc6baEiQ.s:109    .text:0000000000000048 .L0 
     /tmp/cc6baEiQ.s:111    .text:000000000000004c .L0 
     /tmp/cc6baEiQ.s:61     .text:0000000000000000 _ZN6ThreadD1Ev
     /tmp/cc6baEiQ.s:119    .text:000000000000004c _ZN6Thread7wrapperEPv
     /tmp/cc6baEiQ.s:122    .text:000000000000004c .L0 
     /tmp/cc6baEiQ.s:124    .text:000000000000004c .L0 
     /tmp/cc6baEiQ.s:125    .text:000000000000004c .L0 
     /tmp/cc6baEiQ.s:126    .text:000000000000004c .L0 
     /tmp/cc6baEiQ.s:128    .text:0000000000000050 .L0 
     /tmp/cc6baEiQ.s:129    .text:0000000000000054 .L0 
     /tmp/cc6baEiQ.s:132    .text:000000000000005c .L0 
     /tmp/cc6baEiQ.s:133    .text:000000000000005c .L0 
     /tmp/cc6baEiQ.s:135    .text:0000000000000060 .L0 
     /tmp/cc6baEiQ.s:137    .text:0000000000000060 .L0 
GAS LISTING /tmp/cc6baEiQ.s 			page 26


     /tmp/cc6baEiQ.s:138    .text:0000000000000060 .L0 
     /tmp/cc6baEiQ.s:141    .text:0000000000000068 .L0 
     /tmp/cc6baEiQ.s:144    .text:000000000000006c .L0 
     /tmp/cc6baEiQ.s:145    .text:0000000000000070 .L0 
     /tmp/cc6baEiQ.s:147    .text:0000000000000074 .L0 
     /tmp/cc6baEiQ.s:148    .text:0000000000000074 .L0 
     /tmp/cc6baEiQ.s:150    .text:0000000000000078 .L0 
     /tmp/cc6baEiQ.s:155    .text:0000000000000080 .L0 
     /tmp/cc6baEiQ.s:162    .text._ZN14PeriodicThreadD2Ev:0000000000000000 _ZN14PeriodicThreadD2Ev
     /tmp/cc6baEiQ.s:165    .text._ZN14PeriodicThreadD2Ev:0000000000000000 .L0 
     /tmp/cc6baEiQ.s:167    .text._ZN14PeriodicThreadD2Ev:0000000000000000 .L0 
     /tmp/cc6baEiQ.s:168    .text._ZN14PeriodicThreadD2Ev:0000000000000004 .L0 
     /tmp/cc6baEiQ.s:171    .text._ZN14PeriodicThreadD2Ev:000000000000000c .L0 
     /tmp/cc6baEiQ.s:172    .text._ZN14PeriodicThreadD2Ev:000000000000000c .L0 
     /tmp/cc6baEiQ.s:174    .text._ZN14PeriodicThreadD2Ev:0000000000000010 .L0 
     /tmp/cc6baEiQ.s:1010   .data.rel.ro.local._ZTV14PeriodicThread:0000000000000000 _ZTV14PeriodicThread
     /tmp/cc6baEiQ.s:177    .text._ZN14PeriodicThreadD2Ev:0000000000000010 .L0 
     /tmp/cc6baEiQ.s:183    .text._ZN14PeriodicThreadD2Ev:0000000000000028 .L0 
     /tmp/cc6baEiQ.s:185    .text._ZN14PeriodicThreadD2Ev:000000000000002c .L0 
     /tmp/cc6baEiQ.s:186    .text._ZN14PeriodicThreadD2Ev:000000000000002c .L0 
     /tmp/cc6baEiQ.s:188    .text._ZN14PeriodicThreadD2Ev:0000000000000030 .L0 
     /tmp/cc6baEiQ.s:190    .text._ZN14PeriodicThreadD2Ev:0000000000000034 .L0 
     /tmp/cc6baEiQ.s:162    .text._ZN14PeriodicThreadD2Ev:0000000000000000 _ZN14PeriodicThreadD1Ev
     /tmp/cc6baEiQ.s:199    .text:0000000000000080 _ZN14PeriodicThread15wrapperPeriodicEPv
     /tmp/cc6baEiQ.s:202    .text:0000000000000080 .L0 
     /tmp/cc6baEiQ.s:204    .text:0000000000000080 .L0 
     /tmp/cc6baEiQ.s:205    .text:0000000000000084 .L0 
     /tmp/cc6baEiQ.s:209    .text:0000000000000090 .L0 
     /tmp/cc6baEiQ.s:210    .text:0000000000000090 .L0 
     /tmp/cc6baEiQ.s:211    .text:0000000000000090 .L0 
     /tmp/cc6baEiQ.s:213    .text:0000000000000094 .L0 
     /tmp/cc6baEiQ.s:217    .text:0000000000000098 .L0 
     /tmp/cc6baEiQ.s:218    .text:0000000000000098 .L0 
     /tmp/cc6baEiQ.s:222    .text:000000000000009c .L0 
     /tmp/cc6baEiQ.s:223    .text:000000000000009c .L0 
     /tmp/cc6baEiQ.s:224    .text:000000000000009c .L0 
     /tmp/cc6baEiQ.s:226    .text:00000000000000a0 .L0 
     /tmp/cc6baEiQ.s:229    .text:00000000000000a8 .L0 
     /tmp/cc6baEiQ.s:232    .text:00000000000000ac .L0 
     /tmp/cc6baEiQ.s:233    .text:00000000000000ac .L0 
     /tmp/cc6baEiQ.s:237    .text:00000000000000b8 .L0 
     /tmp/cc6baEiQ.s:240    .text:00000000000000bc .L0 
     /tmp/cc6baEiQ.s:241    .text:00000000000000c0 .L0 
     /tmp/cc6baEiQ.s:243    .text:00000000000000c4 .L0 
     /tmp/cc6baEiQ.s:244    .text:00000000000000c4 .L0 
     /tmp/cc6baEiQ.s:246    .text:00000000000000c8 .L0 
     /tmp/cc6baEiQ.s:249    .text:00000000000000cc .L0 
     /tmp/cc6baEiQ.s:251    .text:00000000000000d0 .L0 
     /tmp/cc6baEiQ.s:257    .text:00000000000000d0 _ZN9SemaphoreD2Ev
     /tmp/cc6baEiQ.s:260    .text:00000000000000d0 .L0 
     /tmp/cc6baEiQ.s:5217   .data.rel.local.DW.ref.__gxx_personality_v0:0000000000000000 DW.ref.__gxx_personality_v0
     /tmp/cc6baEiQ.s:264    .text:00000000000000d0 .L0 
     /tmp/cc6baEiQ.s:265    .text:00000000000000d4 .L0 
     /tmp/cc6baEiQ.s:268    .text:00000000000000dc .L0 
     /tmp/cc6baEiQ.s:269    .text:00000000000000dc .L0 
     /tmp/cc6baEiQ.s:271    .text:00000000000000e0 .L0 
     /tmp/cc6baEiQ.s:1033   .data.rel.ro.local._ZTV9Semaphore:0000000000000000 _ZTV9Semaphore
GAS LISTING /tmp/cc6baEiQ.s 			page 27


     /tmp/cc6baEiQ.s:274    .text:00000000000000e0 .L0 
     /tmp/cc6baEiQ.s:277    .text:00000000000000ec .L0 
     /tmp/cc6baEiQ.s:278    .text:00000000000000ec .L0 
     /tmp/cc6baEiQ.s:284    .text:00000000000000f8 .L0 
     /tmp/cc6baEiQ.s:285    .text:00000000000000fc .L0 
     /tmp/cc6baEiQ.s:287    .text:0000000000000100 .L0 
     /tmp/cc6baEiQ.s:288    .text:0000000000000100 .L0 
     /tmp/cc6baEiQ.s:290    .text:0000000000000104 .L0 
     /tmp/cc6baEiQ.s:292    .text:0000000000000108 .L0 
     /tmp/cc6baEiQ.s:257    .text:00000000000000d0 _ZN9SemaphoreD1Ev
     /tmp/cc6baEiQ.s:308    .text:0000000000000108 _Znwm
     /tmp/cc6baEiQ.s:311    .text:0000000000000108 .L0 
     /tmp/cc6baEiQ.s:313    .text:0000000000000108 .L0 
     /tmp/cc6baEiQ.s:314    .text:000000000000010c .L0 
     /tmp/cc6baEiQ.s:317    .text:0000000000000114 .L0 
     /tmp/cc6baEiQ.s:318    .text:0000000000000114 .L0 
     /tmp/cc6baEiQ.s:320    .text:0000000000000118 .L0 
     /tmp/cc6baEiQ.s:322    .text:0000000000000118 .L0 
     /tmp/cc6baEiQ.s:323    .text:0000000000000118 .L0 
     /tmp/cc6baEiQ.s:326    .text:0000000000000120 .L0 
     /tmp/cc6baEiQ.s:327    .text:0000000000000124 .L0 
     /tmp/cc6baEiQ.s:329    .text:0000000000000128 .L0 
     /tmp/cc6baEiQ.s:330    .text:0000000000000128 .L0 
     /tmp/cc6baEiQ.s:332    .text:000000000000012c .L0 
     /tmp/cc6baEiQ.s:334    .text:0000000000000130 .L0 
     /tmp/cc6baEiQ.s:340    .text:0000000000000130 _ZdlPv
     /tmp/cc6baEiQ.s:343    .text:0000000000000130 .L0 
     /tmp/cc6baEiQ.s:345    .text:0000000000000130 .L0 
     /tmp/cc6baEiQ.s:346    .text:0000000000000134 .L0 
     /tmp/cc6baEiQ.s:349    .text:000000000000013c .L0 
     /tmp/cc6baEiQ.s:350    .text:000000000000013c .L0 
     /tmp/cc6baEiQ.s:352    .text:0000000000000140 .L0 
     /tmp/cc6baEiQ.s:354    .text:0000000000000140 .L0 
     /tmp/cc6baEiQ.s:355    .text:0000000000000140 .L0 
     /tmp/cc6baEiQ.s:358    .text:0000000000000148 .L0 
     /tmp/cc6baEiQ.s:359    .text:000000000000014c .L0 
     /tmp/cc6baEiQ.s:361    .text:0000000000000150 .L0 
     /tmp/cc6baEiQ.s:362    .text:0000000000000150 .L0 
     /tmp/cc6baEiQ.s:364    .text:0000000000000154 .L0 
     /tmp/cc6baEiQ.s:366    .text:0000000000000158 .L0 
     /tmp/cc6baEiQ.s:372    .text:0000000000000158 _ZN6ThreadD0Ev
     /tmp/cc6baEiQ.s:375    .text:0000000000000158 .L0 
     /tmp/cc6baEiQ.s:377    .text:0000000000000158 .L0 
     /tmp/cc6baEiQ.s:378    .text:000000000000015c .L0 
     /tmp/cc6baEiQ.s:382    .text:0000000000000168 .L0 
     /tmp/cc6baEiQ.s:383    .text:0000000000000168 .L0 
     /tmp/cc6baEiQ.s:384    .text:0000000000000168 .L0 
     /tmp/cc6baEiQ.s:386    .text:000000000000016c .L0 
     /tmp/cc6baEiQ.s:389    .text:0000000000000170 .L0 
     /tmp/cc6baEiQ.s:395    .text:0000000000000188 .L0 
     /tmp/cc6baEiQ.s:397    .text:000000000000018c .L0 
     /tmp/cc6baEiQ.s:398    .text:000000000000018c .L0 
     /tmp/cc6baEiQ.s:400    .text:0000000000000190 .L0 
     /tmp/cc6baEiQ.s:403    .text:0000000000000194 .L0 
     /tmp/cc6baEiQ.s:405    .text:0000000000000198 .L0 
     /tmp/cc6baEiQ.s:411    .text:0000000000000198 _ZN9SemaphoreD0Ev
     /tmp/cc6baEiQ.s:414    .text:0000000000000198 .L0 
GAS LISTING /tmp/cc6baEiQ.s 			page 28


     /tmp/cc6baEiQ.s:416    .text:0000000000000198 .L0 
     /tmp/cc6baEiQ.s:417    .text:000000000000019c .L0 
     /tmp/cc6baEiQ.s:421    .text:00000000000001a8 .L0 
     /tmp/cc6baEiQ.s:422    .text:00000000000001a8 .L0 
     /tmp/cc6baEiQ.s:423    .text:00000000000001a8 .L0 
     /tmp/cc6baEiQ.s:425    .text:00000000000001ac .L0 
     /tmp/cc6baEiQ.s:428    .text:00000000000001b0 .L0 
     /tmp/cc6baEiQ.s:434    .text:00000000000001c8 .L0 
     /tmp/cc6baEiQ.s:436    .text:00000000000001cc .L0 
     /tmp/cc6baEiQ.s:437    .text:00000000000001cc .L0 
     /tmp/cc6baEiQ.s:439    .text:00000000000001d0 .L0 
     /tmp/cc6baEiQ.s:442    .text:00000000000001d4 .L0 
     /tmp/cc6baEiQ.s:444    .text:00000000000001d8 .L0 
     /tmp/cc6baEiQ.s:451    .text._ZN14PeriodicThreadD0Ev:0000000000000000 _ZN14PeriodicThreadD0Ev
     /tmp/cc6baEiQ.s:454    .text._ZN14PeriodicThreadD0Ev:0000000000000000 .L0 
     /tmp/cc6baEiQ.s:456    .text._ZN14PeriodicThreadD0Ev:0000000000000000 .L0 
     /tmp/cc6baEiQ.s:457    .text._ZN14PeriodicThreadD0Ev:0000000000000004 .L0 
     /tmp/cc6baEiQ.s:461    .text._ZN14PeriodicThreadD0Ev:0000000000000010 .L0 
     /tmp/cc6baEiQ.s:462    .text._ZN14PeriodicThreadD0Ev:0000000000000010 .L0 
     /tmp/cc6baEiQ.s:463    .text._ZN14PeriodicThreadD0Ev:0000000000000010 .L0 
     /tmp/cc6baEiQ.s:465    .text._ZN14PeriodicThreadD0Ev:0000000000000014 .L0 
     /tmp/cc6baEiQ.s:471    .text._ZN14PeriodicThreadD0Ev:0000000000000018 .L0 
     /tmp/cc6baEiQ.s:481    .text._ZN14PeriodicThreadD0Ev:000000000000003c .L0 
     /tmp/cc6baEiQ.s:483    .text._ZN14PeriodicThreadD0Ev:0000000000000040 .L0 
     /tmp/cc6baEiQ.s:484    .text._ZN14PeriodicThreadD0Ev:0000000000000040 .L0 
     /tmp/cc6baEiQ.s:486    .text._ZN14PeriodicThreadD0Ev:0000000000000044 .L0 
     /tmp/cc6baEiQ.s:489    .text._ZN14PeriodicThreadD0Ev:0000000000000048 .L0 
     /tmp/cc6baEiQ.s:491    .text._ZN14PeriodicThreadD0Ev:000000000000004c .L0 
     /tmp/cc6baEiQ.s:498    .text:00000000000001d8 _Znam
     /tmp/cc6baEiQ.s:501    .text:00000000000001d8 .L0 
     /tmp/cc6baEiQ.s:503    .text:00000000000001d8 .L0 
     /tmp/cc6baEiQ.s:504    .text:00000000000001dc .L0 
     /tmp/cc6baEiQ.s:507    .text:00000000000001e4 .L0 
     /tmp/cc6baEiQ.s:508    .text:00000000000001e4 .L0 
     /tmp/cc6baEiQ.s:510    .text:00000000000001e8 .L0 
     /tmp/cc6baEiQ.s:512    .text:00000000000001e8 .L0 
     /tmp/cc6baEiQ.s:513    .text:00000000000001e8 .L0 
     /tmp/cc6baEiQ.s:516    .text:00000000000001f0 .L0 
     /tmp/cc6baEiQ.s:517    .text:00000000000001f4 .L0 
     /tmp/cc6baEiQ.s:519    .text:00000000000001f8 .L0 
     /tmp/cc6baEiQ.s:520    .text:00000000000001f8 .L0 
     /tmp/cc6baEiQ.s:522    .text:00000000000001fc .L0 
     /tmp/cc6baEiQ.s:524    .text:0000000000000200 .L0 
     /tmp/cc6baEiQ.s:530    .text:0000000000000200 _ZdaPv
     /tmp/cc6baEiQ.s:533    .text:0000000000000200 .L0 
     /tmp/cc6baEiQ.s:535    .text:0000000000000200 .L0 
     /tmp/cc6baEiQ.s:536    .text:0000000000000204 .L0 
     /tmp/cc6baEiQ.s:539    .text:000000000000020c .L0 
     /tmp/cc6baEiQ.s:540    .text:000000000000020c .L0 
     /tmp/cc6baEiQ.s:542    .text:0000000000000210 .L0 
     /tmp/cc6baEiQ.s:544    .text:0000000000000210 .L0 
     /tmp/cc6baEiQ.s:545    .text:0000000000000210 .L0 
     /tmp/cc6baEiQ.s:548    .text:0000000000000218 .L0 
     /tmp/cc6baEiQ.s:549    .text:000000000000021c .L0 
     /tmp/cc6baEiQ.s:551    .text:0000000000000220 .L0 
     /tmp/cc6baEiQ.s:552    .text:0000000000000220 .L0 
     /tmp/cc6baEiQ.s:554    .text:0000000000000224 .L0 
GAS LISTING /tmp/cc6baEiQ.s 			page 29


     /tmp/cc6baEiQ.s:556    .text:0000000000000228 .L0 
     /tmp/cc6baEiQ.s:562    .text:0000000000000228 _ZN6ThreadC2EPFvPvES0_
     /tmp/cc6baEiQ.s:565    .text:0000000000000228 .L0 
     /tmp/cc6baEiQ.s:567    .text:0000000000000228 .L0 
     /tmp/cc6baEiQ.s:568    .text:000000000000022c .L0 
     /tmp/cc6baEiQ.s:571    .text:0000000000000234 .L0 
     /tmp/cc6baEiQ.s:572    .text:0000000000000234 .L0 
     /tmp/cc6baEiQ.s:574    .text:0000000000000238 .L0 
     /tmp/cc6baEiQ.s:577    .text:0000000000000238 .L0 
     /tmp/cc6baEiQ.s:580    .text:0000000000000244 .L0 
     /tmp/cc6baEiQ.s:581    .text:0000000000000244 .L0 
     /tmp/cc6baEiQ.s:587    .text:0000000000000250 .L0 
     /tmp/cc6baEiQ.s:588    .text:0000000000000254 .L0 
     /tmp/cc6baEiQ.s:590    .text:0000000000000258 .L0 
     /tmp/cc6baEiQ.s:591    .text:0000000000000258 .L0 
     /tmp/cc6baEiQ.s:593    .text:000000000000025c .L0 
     /tmp/cc6baEiQ.s:595    .text:0000000000000260 .L0 
     /tmp/cc6baEiQ.s:562    .text:0000000000000228 _ZN6ThreadC1EPFvPvES0_
     /tmp/cc6baEiQ.s:603    .text:0000000000000260 _ZN6Thread5startEv
     /tmp/cc6baEiQ.s:606    .text:0000000000000260 .L0 
     /tmp/cc6baEiQ.s:608    .text:0000000000000260 .L0 
     /tmp/cc6baEiQ.s:609    .text:0000000000000260 .L0 
     /tmp/cc6baEiQ.s:610    .text:0000000000000260 .L0 
     /tmp/cc6baEiQ.s:615    .text:0000000000000264 .L0 
     /tmp/cc6baEiQ.s:616    .text:0000000000000264 .L0 
     /tmp/cc6baEiQ.s:618    .text:0000000000000268 .L0 
     /tmp/cc6baEiQ.s:622    .text:000000000000026c .L0 
     /tmp/cc6baEiQ.s:623    .text:0000000000000270 .L0 
     /tmp/cc6baEiQ.s:626    .text:0000000000000278 .L0 
     /tmp/cc6baEiQ.s:627    .text:0000000000000278 .L0 
     /tmp/cc6baEiQ.s:629    .text:000000000000027c .L0 
     /tmp/cc6baEiQ.s:633    .text:000000000000027c .L0 
     /tmp/cc6baEiQ.s:634    .text:000000000000027c .L0 
     /tmp/cc6baEiQ.s:637    .text:0000000000000284 .L0 
     /tmp/cc6baEiQ.s:638    .text:0000000000000284 .L0 
     /tmp/cc6baEiQ.s:641    .text:000000000000028c .L0 
     /tmp/cc6baEiQ.s:642    .text:000000000000028c .L0 
     /tmp/cc6baEiQ.s:646    .text:0000000000000290 .L0 
     /tmp/cc6baEiQ.s:647    .text:0000000000000294 .L0 
     /tmp/cc6baEiQ.s:649    .text:0000000000000298 .L0 
     /tmp/cc6baEiQ.s:650    .text:0000000000000298 .L0 
     /tmp/cc6baEiQ.s:652    .text:000000000000029c .L0 
     /tmp/cc6baEiQ.s:659    .text:00000000000002a0 .L0 
     /tmp/cc6baEiQ.s:664    .text:00000000000002a4 .L0 
     /tmp/cc6baEiQ.s:665    .text:00000000000002a8 .L0 
     /tmp/cc6baEiQ.s:671    .text:00000000000002a8 _ZN6Thread8dispatchEv
     /tmp/cc6baEiQ.s:674    .text:00000000000002a8 .L0 
     /tmp/cc6baEiQ.s:675    .text:00000000000002a8 .L0 
     /tmp/cc6baEiQ.s:676    .text:00000000000002ac .L0 
     /tmp/cc6baEiQ.s:679    .text:00000000000002b4 .L0 
     /tmp/cc6baEiQ.s:680    .text:00000000000002b4 .L0 
     /tmp/cc6baEiQ.s:682    .text:00000000000002b8 .L0 
     /tmp/cc6baEiQ.s:684    .text:00000000000002b8 .L0 
     /tmp/cc6baEiQ.s:685    .text:00000000000002b8 .L0 
     /tmp/cc6baEiQ.s:688    .text:00000000000002c0 .L0 
     /tmp/cc6baEiQ.s:689    .text:00000000000002c4 .L0 
     /tmp/cc6baEiQ.s:691    .text:00000000000002c8 .L0 
GAS LISTING /tmp/cc6baEiQ.s 			page 30


     /tmp/cc6baEiQ.s:692    .text:00000000000002c8 .L0 
     /tmp/cc6baEiQ.s:694    .text:00000000000002cc .L0 
     /tmp/cc6baEiQ.s:696    .text:00000000000002d0 .L0 
     /tmp/cc6baEiQ.s:702    .text:00000000000002d0 _ZN6Thread5sleepEm
     /tmp/cc6baEiQ.s:705    .text:00000000000002d0 .L0 
     /tmp/cc6baEiQ.s:707    .text:00000000000002d0 .L0 
     /tmp/cc6baEiQ.s:708    .text:00000000000002d4 .L0 
     /tmp/cc6baEiQ.s:711    .text:00000000000002dc .L0 
     /tmp/cc6baEiQ.s:712    .text:00000000000002dc .L0 
     /tmp/cc6baEiQ.s:714    .text:00000000000002e0 .L0 
     /tmp/cc6baEiQ.s:716    .text:00000000000002e0 .L0 
     /tmp/cc6baEiQ.s:717    .text:00000000000002e0 .L0 
     /tmp/cc6baEiQ.s:720    .text:00000000000002e8 .L0 
     /tmp/cc6baEiQ.s:721    .text:00000000000002ec .L0 
     /tmp/cc6baEiQ.s:723    .text:00000000000002f0 .L0 
     /tmp/cc6baEiQ.s:724    .text:00000000000002f0 .L0 
     /tmp/cc6baEiQ.s:726    .text:00000000000002f4 .L0 
     /tmp/cc6baEiQ.s:728    .text:00000000000002f8 .L0 
     /tmp/cc6baEiQ.s:734    .text:00000000000002f8 _ZN6ThreadC2Ev
     /tmp/cc6baEiQ.s:737    .text:00000000000002f8 .L0 
     /tmp/cc6baEiQ.s:739    .text:00000000000002f8 .L0 
     /tmp/cc6baEiQ.s:740    .text:00000000000002fc .L0 
     /tmp/cc6baEiQ.s:743    .text:0000000000000304 .L0 
     /tmp/cc6baEiQ.s:744    .text:0000000000000304 .L0 
     /tmp/cc6baEiQ.s:746    .text:0000000000000308 .L0 
     /tmp/cc6baEiQ.s:749    .text:0000000000000308 .L0 
     /tmp/cc6baEiQ.s:752    .text:0000000000000314 .L0 
     /tmp/cc6baEiQ.s:753    .text:0000000000000314 .L0 
     /tmp/cc6baEiQ.s:761    .text:000000000000032c .L0 
     /tmp/cc6baEiQ.s:762    .text:0000000000000330 .L0 
     /tmp/cc6baEiQ.s:764    .text:0000000000000334 .L0 
     /tmp/cc6baEiQ.s:765    .text:0000000000000334 .L0 
     /tmp/cc6baEiQ.s:767    .text:0000000000000338 .L0 
     /tmp/cc6baEiQ.s:769    .text:000000000000033c .L0 
     /tmp/cc6baEiQ.s:734    .text:00000000000002f8 _ZN6ThreadC1Ev
     /tmp/cc6baEiQ.s:777    .text:000000000000033c _ZN9SemaphoreC2Ej
     /tmp/cc6baEiQ.s:780    .text:000000000000033c .L0 
     /tmp/cc6baEiQ.s:782    .text:000000000000033c .L0 
     /tmp/cc6baEiQ.s:783    .text:0000000000000340 .L0 
     /tmp/cc6baEiQ.s:786    .text:0000000000000348 .L0 
     /tmp/cc6baEiQ.s:787    .text:0000000000000348 .L0 
     /tmp/cc6baEiQ.s:789    .text:000000000000034c .L0 
     /tmp/cc6baEiQ.s:792    .text:000000000000034c .L0 
     /tmp/cc6baEiQ.s:795    .text:0000000000000358 .L0 
     /tmp/cc6baEiQ.s:796    .text:0000000000000358 .L0 
     /tmp/cc6baEiQ.s:802    .text:0000000000000364 .L0 
     /tmp/cc6baEiQ.s:803    .text:0000000000000368 .L0 
     /tmp/cc6baEiQ.s:805    .text:000000000000036c .L0 
     /tmp/cc6baEiQ.s:806    .text:000000000000036c .L0 
     /tmp/cc6baEiQ.s:808    .text:0000000000000370 .L0 
     /tmp/cc6baEiQ.s:810    .text:0000000000000374 .L0 
     /tmp/cc6baEiQ.s:777    .text:000000000000033c _ZN9SemaphoreC1Ej
     /tmp/cc6baEiQ.s:818    .text:0000000000000374 _ZN9Semaphore4waitEv
     /tmp/cc6baEiQ.s:821    .text:0000000000000374 .L0 
     /tmp/cc6baEiQ.s:823    .text:0000000000000374 .L0 
     /tmp/cc6baEiQ.s:824    .text:0000000000000378 .L0 
     /tmp/cc6baEiQ.s:827    .text:0000000000000380 .L0 
GAS LISTING /tmp/cc6baEiQ.s 			page 31


     /tmp/cc6baEiQ.s:828    .text:0000000000000380 .L0 
     /tmp/cc6baEiQ.s:830    .text:0000000000000384 .L0 
     /tmp/cc6baEiQ.s:832    .text:0000000000000384 .L0 
     /tmp/cc6baEiQ.s:833    .text:0000000000000384 .L0 
     /tmp/cc6baEiQ.s:838    .text:0000000000000390 .L0 
     /tmp/cc6baEiQ.s:839    .text:0000000000000394 .L0 
     /tmp/cc6baEiQ.s:841    .text:0000000000000398 .L0 
     /tmp/cc6baEiQ.s:842    .text:0000000000000398 .L0 
     /tmp/cc6baEiQ.s:844    .text:000000000000039c .L0 
     /tmp/cc6baEiQ.s:846    .text:00000000000003a0 .L0 
     /tmp/cc6baEiQ.s:852    .text:00000000000003a0 _ZN9Semaphore6signalEv
     /tmp/cc6baEiQ.s:855    .text:00000000000003a0 .L0 
     /tmp/cc6baEiQ.s:857    .text:00000000000003a0 .L0 
     /tmp/cc6baEiQ.s:858    .text:00000000000003a4 .L0 
     /tmp/cc6baEiQ.s:861    .text:00000000000003ac .L0 
     /tmp/cc6baEiQ.s:862    .text:00000000000003ac .L0 
     /tmp/cc6baEiQ.s:864    .text:00000000000003b0 .L0 
     /tmp/cc6baEiQ.s:866    .text:00000000000003b0 .L0 
     /tmp/cc6baEiQ.s:867    .text:00000000000003b0 .L0 
     /tmp/cc6baEiQ.s:872    .text:00000000000003bc .L0 
     /tmp/cc6baEiQ.s:873    .text:00000000000003c0 .L0 
     /tmp/cc6baEiQ.s:875    .text:00000000000003c4 .L0 
     /tmp/cc6baEiQ.s:876    .text:00000000000003c4 .L0 
     /tmp/cc6baEiQ.s:878    .text:00000000000003c8 .L0 
     /tmp/cc6baEiQ.s:880    .text:00000000000003cc .L0 
     /tmp/cc6baEiQ.s:886    .text:00000000000003cc _ZN7Console4getcEv
     /tmp/cc6baEiQ.s:889    .text:00000000000003cc .L0 
     /tmp/cc6baEiQ.s:890    .text:00000000000003cc .L0 
     /tmp/cc6baEiQ.s:891    .text:00000000000003d0 .L0 
     /tmp/cc6baEiQ.s:894    .text:00000000000003d8 .L0 
     /tmp/cc6baEiQ.s:895    .text:00000000000003d8 .L0 
     /tmp/cc6baEiQ.s:897    .text:00000000000003dc .L0 
     /tmp/cc6baEiQ.s:899    .text:00000000000003dc .L0 
     /tmp/cc6baEiQ.s:900    .text:00000000000003dc .L0 
     /tmp/cc6baEiQ.s:903    .text:00000000000003e4 .L0 
     /tmp/cc6baEiQ.s:904    .text:00000000000003e8 .L0 
     /tmp/cc6baEiQ.s:906    .text:00000000000003ec .L0 
     /tmp/cc6baEiQ.s:907    .text:00000000000003ec .L0 
     /tmp/cc6baEiQ.s:909    .text:00000000000003f0 .L0 
     /tmp/cc6baEiQ.s:911    .text:00000000000003f4 .L0 
     /tmp/cc6baEiQ.s:917    .text:00000000000003f4 _ZN7Console4putcEc
     /tmp/cc6baEiQ.s:920    .text:00000000000003f4 .L0 
     /tmp/cc6baEiQ.s:922    .text:00000000000003f4 .L0 
     /tmp/cc6baEiQ.s:923    .text:00000000000003f8 .L0 
     /tmp/cc6baEiQ.s:926    .text:0000000000000400 .L0 
     /tmp/cc6baEiQ.s:927    .text:0000000000000400 .L0 
     /tmp/cc6baEiQ.s:929    .text:0000000000000404 .L0 
     /tmp/cc6baEiQ.s:931    .text:0000000000000404 .L0 
     /tmp/cc6baEiQ.s:932    .text:0000000000000404 .L0 
     /tmp/cc6baEiQ.s:935    .text:000000000000040c .L0 
     /tmp/cc6baEiQ.s:936    .text:0000000000000410 .L0 
     /tmp/cc6baEiQ.s:938    .text:0000000000000414 .L0 
     /tmp/cc6baEiQ.s:939    .text:0000000000000414 .L0 
     /tmp/cc6baEiQ.s:941    .text:0000000000000418 .L0 
     /tmp/cc6baEiQ.s:943    .text:000000000000041c .L0 
     /tmp/cc6baEiQ.s:949    .text:000000000000041c _ZN14PeriodicThreadC2Em
     /tmp/cc6baEiQ.s:952    .text:000000000000041c .L0 
GAS LISTING /tmp/cc6baEiQ.s 			page 32


     /tmp/cc6baEiQ.s:954    .text:000000000000041c .L0 
     /tmp/cc6baEiQ.s:955    .text:0000000000000420 .L0 
     /tmp/cc6baEiQ.s:960    .text:0000000000000430 .L0 
     /tmp/cc6baEiQ.s:961    .text:0000000000000430 .L0 
     /tmp/cc6baEiQ.s:962    .text:0000000000000430 .L0 
     /tmp/cc6baEiQ.s:963    .text:0000000000000430 .L0 
     /tmp/cc6baEiQ.s:965    .text:0000000000000434 .L0 
     /tmp/cc6baEiQ.s:970    .text:000000000000043c .L0 
     /tmp/cc6baEiQ.s:978    .text:0000000000000454 .L0 
     /tmp/cc6baEiQ.s:986    .text:0000000000000474 .L0 
     /tmp/cc6baEiQ.s:987    .text:0000000000000478 .L0 
     /tmp/cc6baEiQ.s:989    .text:000000000000047c .L0 
     /tmp/cc6baEiQ.s:990    .text:000000000000047c .L0 
     /tmp/cc6baEiQ.s:992    .text:0000000000000480 .L0 
     /tmp/cc6baEiQ.s:995    .text:0000000000000484 .L0 
     /tmp/cc6baEiQ.s:998    .text:0000000000000488 .L0 
     /tmp/cc6baEiQ.s:1000   .text:000000000000048c .L0 
     /tmp/cc6baEiQ.s:949    .text:000000000000041c _ZN14PeriodicThreadC1Em
     /tmp/cc6baEiQ.s:32     .text._ZN6Thread3runEv:0000000000000018 .L0 
     /tmp/cc6baEiQ.s:57     .text._ZN14PeriodicThread18periodicActivationEv:0000000000000018 .L0 
     /tmp/cc6baEiQ.s:1043   .text:000000000000048c .L0 
     /tmp/cc6baEiQ.s:195    .text._ZN14PeriodicThreadD2Ev:0000000000000034 .L0 
     /tmp/cc6baEiQ.s:494    .text._ZN14PeriodicThreadD0Ev:000000000000004c .L0 
     /tmp/cc6baEiQ.s:75     .text:000000000000000c .L0 
     /tmp/cc6baEiQ.s:94     .text:000000000000002c .L0 
     /tmp/cc6baEiQ.s:274    .text:00000000000000e0 .L0 
     /tmp/cc6baEiQ.s:577    .text:0000000000000238 .L0 
     /tmp/cc6baEiQ.s:749    .text:0000000000000308 .L0 
     /tmp/cc6baEiQ.s:754    .text:0000000000000318 .L0 
     /tmp/cc6baEiQ.s:792    .text:000000000000034c .L0 
     /tmp/cc6baEiQ.s:978    .text:0000000000000454 .L0 
     /tmp/cc6baEiQ.s:982    .text:0000000000000468 .L0 
     /tmp/cc6baEiQ.s:100    .text:0000000000000040 .L5
     /tmp/cc6baEiQ.s:153    .text:000000000000007c .L11
     /tmp/cc6baEiQ.s:238    .text:00000000000000bc .L16
     /tmp/cc6baEiQ.s:220    .text:000000000000009c .L18
     /tmp/cc6baEiQ.s:655    .text:00000000000002a0 .L40
     /tmp/cc6baEiQ.s:177    .text._ZN14PeriodicThreadD2Ev:0000000000000010 .L0 
     /tmp/cc6baEiQ.s:471    .text._ZN14PeriodicThreadD0Ev:0000000000000018 .L0 
     /tmp/cc6baEiQ.s:3012   .debug_abbrev:0000000000000000 .Ldebug_abbrev0
     /tmp/cc6baEiQ.s:5139   .debug_str:000000000000087c .LASF166
     /tmp/cc6baEiQ.s:4975   .debug_str:000000000000041c .LASF167
     /tmp/cc6baEiQ.s:5153   .debug_str:00000000000009ac .LASF168
     /tmp/cc6baEiQ.s:4823   .debug_ranges:0000000000000000 .Ldebug_ranges0
     /tmp/cc6baEiQ.s:4845   .debug_line:0000000000000000 .Ldebug_line0
     /tmp/cc6baEiQ.s:4967   .debug_str:00000000000003ef .LASF0
     /tmp/cc6baEiQ.s:4991   .debug_str:00000000000004bf .LASF1
     /tmp/cc6baEiQ.s:5083   .debug_str:000000000000071f .LASF2
     /tmp/cc6baEiQ.s:5089   .debug_str:0000000000000747 .LASF4
     /tmp/cc6baEiQ.s:4977   .debug_str:0000000000000430 .LASF3
     /tmp/cc6baEiQ.s:4863   .debug_str:0000000000000078 .LASF5
     /tmp/cc6baEiQ.s:5057   .debug_str:0000000000000665 .LASF6
     /tmp/cc6baEiQ.s:5043   .debug_str:00000000000005f3 .LASF7
     /tmp/cc6baEiQ.s:4983   .debug_str:0000000000000475 .LASF8
     /tmp/cc6baEiQ.s:4937   .debug_str:00000000000002d9 .LASF9
     /tmp/cc6baEiQ.s:4949   .debug_str:0000000000000356 .LASF10
     /tmp/cc6baEiQ.s:4893   .debug_str:000000000000017a .LASF11
GAS LISTING /tmp/cc6baEiQ.s 			page 33


     /tmp/cc6baEiQ.s:4931   .debug_str:00000000000002b4 .LASF12
     /tmp/cc6baEiQ.s:4903   .debug_str:00000000000001c4 .LASF13
     /tmp/cc6baEiQ.s:4891   .debug_str:000000000000016a .LASF14
     /tmp/cc6baEiQ.s:5117   .debug_str:0000000000000802 .LASF15
     /tmp/cc6baEiQ.s:4923   .debug_str:0000000000000242 .LASF16
     /tmp/cc6baEiQ.s:5109   .debug_str:00000000000007c1 .LASF17
     /tmp/cc6baEiQ.s:5177   .debug_str:0000000000000a65 .LASF18
     /tmp/cc6baEiQ.s:5097   .debug_str:0000000000000779 .LASF59
     /tmp/cc6baEiQ.s:5125   .debug_str:0000000000000827 .LASF83
     /tmp/cc6baEiQ.s:4911   .debug_str:00000000000001fb .LASF19
     /tmp/cc6baEiQ.s:5133   .debug_str:0000000000000851 .LASF21
     /tmp/cc6baEiQ.s:5203   .debug_str:0000000000000af9 .LASF20
     /tmp/cc6baEiQ.s:4859   .debug_str:0000000000000061 .LASF22
     /tmp/cc6baEiQ.s:4885   .debug_str:000000000000012f .LASF23
     /tmp/cc6baEiQ.s:4847   .debug_str:0000000000000000 .LASF24
     /tmp/cc6baEiQ.s:4855   .debug_str:0000000000000049 .LASF25
     /tmp/cc6baEiQ.s:5115   .debug_str:00000000000007f4 .LASF27
     /tmp/cc6baEiQ.s:5107   .debug_str:00000000000007ae .LASF26
     /tmp/cc6baEiQ.s:5045   .debug_str:0000000000000606 .LASF28
     /tmp/cc6baEiQ.s:5143   .debug_str:0000000000000958 .LASF29
     /tmp/cc6baEiQ.s:4925   .debug_str:0000000000000258 .LASF30
     /tmp/cc6baEiQ.s:5039   .debug_str:00000000000005d8 .LASF169
     /tmp/cc6baEiQ.s:4877   .debug_str:00000000000000e1 .LASF31
     /tmp/cc6baEiQ.s:4993   .debug_str:00000000000004d2 .LASF32
     /tmp/cc6baEiQ.s:4933   .debug_str:00000000000002c3 .LASF34
     /tmp/cc6baEiQ.s:4913   .debug_str:0000000000000201 .LASF33
     /tmp/cc6baEiQ.s:4873   .debug_str:00000000000000c7 .LASF35
     /tmp/cc6baEiQ.s:5137   .debug_str:0000000000000874 .LASF36
     /tmp/cc6baEiQ.s:5091   .debug_str:000000000000074e .LASF37
     /tmp/cc6baEiQ.s:5205   .debug_str:0000000000000b06 .LASF38
     /tmp/cc6baEiQ.s:5127   .debug_str:000000000000082f .LASF39
     /tmp/cc6baEiQ.s:4951   .debug_str:0000000000000364 .LASF41
     /tmp/cc6baEiQ.s:5019   .debug_str:0000000000000566 .LASF40
     /tmp/cc6baEiQ.s:4939   .debug_str:00000000000002e9 .LASF42
     /tmp/cc6baEiQ.s:5001   .debug_str:000000000000050c .LASF43
     /tmp/cc6baEiQ.s:4871   .debug_str:00000000000000b1 .LASF44
     /tmp/cc6baEiQ.s:5023   .debug_str:000000000000057f .LASF45
     /tmp/cc6baEiQ.s:4917   .debug_str:000000000000020f .LASF46
     /tmp/cc6baEiQ.s:4881   .debug_str:0000000000000107 .LASF47
     /tmp/cc6baEiQ.s:5141   .debug_str:0000000000000940 .LASF48
     /tmp/cc6baEiQ.s:5155   .debug_str:00000000000009cf .LASF49
     /tmp/cc6baEiQ.s:5049   .debug_str:000000000000061c .LASF50
     /tmp/cc6baEiQ.s:5035   .debug_str:00000000000005c6 .LASF51
     /tmp/cc6baEiQ.s:5163   .debug_str:0000000000000a02 .LASF52
     /tmp/cc6baEiQ.s:5013   .debug_str:0000000000000540 .LASF53
     /tmp/cc6baEiQ.s:4971   .debug_str:0000000000000401 .LASF54
     /tmp/cc6baEiQ.s:5003   .debug_str:0000000000000516 .LASF55
     /tmp/cc6baEiQ.s:5053   .debug_str:0000000000000642 .LASF56
     /tmp/cc6baEiQ.s:5183   .debug_str:0000000000000a7e .LASF57
     /tmp/cc6baEiQ.s:4883   .debug_str:0000000000000113 .LASF58
     /tmp/cc6baEiQ.s:5191   .debug_str:0000000000000ab6 .LASF60
     /tmp/cc6baEiQ.s:4987   .debug_str:00000000000004a2 .LASF61
     /tmp/cc6baEiQ.s:4853   .debug_str:0000000000000044 .LASF62
     /tmp/cc6baEiQ.s:5199   .debug_str:0000000000000ae4 .LASF63
     /tmp/cc6baEiQ.s:5101   .debug_str:0000000000000787 .LASF64
     /tmp/cc6baEiQ.s:5157   .debug_str:00000000000009db .LASF65
     /tmp/cc6baEiQ.s:5123   .debug_str:000000000000081e .LASF66
GAS LISTING /tmp/cc6baEiQ.s 			page 34


     /tmp/cc6baEiQ.s:4907   .debug_str:00000000000001df .LASF67
     /tmp/cc6baEiQ.s:4959   .debug_str:00000000000003a4 .LASF68
     /tmp/cc6baEiQ.s:4879   .debug_str:00000000000000ff .LASF69
     /tmp/cc6baEiQ.s:5021   .debug_str:0000000000000571 .LASF70
     /tmp/cc6baEiQ.s:4851   .debug_str:0000000000000037 .LASF71
     /tmp/cc6baEiQ.s:4921   .debug_str:0000000000000234 .LASF72
     /tmp/cc6baEiQ.s:5187   .debug_str:0000000000000a9f .LASF73
     /tmp/cc6baEiQ.s:5093   .debug_str:0000000000000756 .LASF97
     /tmp/cc6baEiQ.s:5059   .debug_str:000000000000066c .LASF74
     /tmp/cc6baEiQ.s:5087   .debug_str:000000000000073c .LASF75
     /tmp/cc6baEiQ.s:5195   .debug_str:0000000000000ad0 .LASF78
     /tmp/cc6baEiQ.s:4929   .debug_str:000000000000028b .LASF80
     /tmp/cc6baEiQ.s:5051   .debug_str:0000000000000634 .LASF170
     /tmp/cc6baEiQ.s:4865   .debug_str:000000000000007f .LASF171
     /tmp/cc6baEiQ.s:5189   .debug_str:0000000000000ab0 .LASF76
     /tmp/cc6baEiQ.s:5071   .debug_str:00000000000006b6 .LASF172
     /tmp/cc6baEiQ.s:5009   .debug_str:0000000000000533 .LASF77
     /tmp/cc6baEiQ.s:4969   .debug_str:00000000000003fc .LASF96
     /tmp/cc6baEiQ.s:4909   .debug_str:00000000000001e8 .LASF173
     /tmp/cc6baEiQ.s:5011   .debug_str:000000000000053b .LASF79
     /tmp/cc6baEiQ.s:4919   .debug_str:0000000000000221 .LASF81
     /tmp/cc6baEiQ.s:5129   .debug_str:000000000000083a .LASF82
     /tmp/cc6baEiQ.s:5193   .debug_str:0000000000000ac8 .LASF84
     /tmp/cc6baEiQ.s:4895   .debug_str:0000000000000189 .LASF85
     /tmp/cc6baEiQ.s:5047   .debug_str:0000000000000614 .LASF86
     /tmp/cc6baEiQ.s:4899   .debug_str:00000000000001a3 .LASF87
     /tmp/cc6baEiQ.s:5159   .debug_str:00000000000009e3 .LASF88
     /tmp/cc6baEiQ.s:5165   .debug_str:0000000000000a19 .LASF89
     /tmp/cc6baEiQ.s:4981   .debug_str:000000000000045d .LASF90
     /tmp/cc6baEiQ.s:4945   .debug_str:0000000000000335 .LASF124
     /tmp/cc6baEiQ.s:4849   .debug_str:000000000000000d .LASF174
     /tmp/cc6baEiQ.s:5005   .debug_str:000000000000051e .LASF91
     /tmp/cc6baEiQ.s:4961   .debug_str:00000000000003ac .LASF92
     /tmp/cc6baEiQ.s:5029   .debug_str:000000000000059d .LASF93
     /tmp/cc6baEiQ.s:4943   .debug_str:000000000000031d .LASF175
     /tmp/cc6baEiQ.s:4857   .debug_str:0000000000000059 .LASF94
     /tmp/cc6baEiQ.s:4963   .debug_str:00000000000003d4 .LASF95
     /tmp/cc6baEiQ.s:5069   .debug_str:00000000000006a0 .LASF176
     /tmp/cc6baEiQ.s:5079   .debug_str:00000000000006ec .LASF177
     /tmp/cc6baEiQ.s:5111   .debug_str:00000000000007d7 .LASF98
     /tmp/cc6baEiQ.s:5025   .debug_str:0000000000000585 .LASF99
     /tmp/cc6baEiQ.s:5007   .debug_str:000000000000052e .LASF100
     /tmp/cc6baEiQ.s:5169   .debug_str:0000000000000a3a .LASF101
     /tmp/cc6baEiQ.s:5075   .debug_str:00000000000006ca .LASF102
     /tmp/cc6baEiQ.s:5201   .debug_str:0000000000000ae9 .LASF111
     /tmp/cc6baEiQ.s:5131   .debug_str:000000000000083f .LASF103
     /tmp/cc6baEiQ.s:5065   .debug_str:000000000000068b .LASF114
     /tmp/cc6baEiQ.s:5095   .debug_str:0000000000000767 .LASF116
     /tmp/cc6baEiQ.s:4915   .debug_str:000000000000020a .LASF104
     /tmp/cc6baEiQ.s:4897   .debug_str:000000000000018e .LASF105
     /tmp/cc6baEiQ.s:5121   .debug_str:0000000000000817 .LASF106
     /tmp/cc6baEiQ.s:5151   .debug_str:0000000000000995 .LASF107
     /tmp/cc6baEiQ.s:4973   .debug_str:0000000000000413 .LASF108
     /tmp/cc6baEiQ.s:4965   .debug_str:00000000000003df .LASF178
     /tmp/cc6baEiQ.s:5179   .debug_str:0000000000000a6e .LASF109
     /tmp/cc6baEiQ.s:4901   .debug_str:00000000000001b2 .LASF110
     /tmp/cc6baEiQ.s:5077   .debug_str:00000000000006df .LASF112
GAS LISTING /tmp/cc6baEiQ.s 			page 35


     /tmp/cc6baEiQ.s:5207   .debug_str:0000000000000b0d .LASF113
     /tmp/cc6baEiQ.s:5105   .debug_str:00000000000007a6 .LASF115
     /tmp/cc6baEiQ.s:4927   .debug_str:000000000000027c .LASF117
     /tmp/cc6baEiQ.s:5197   .debug_str:0000000000000ade .LASF118
     /tmp/cc6baEiQ.s:4995   .debug_str:00000000000004d8 .LASF119
     /tmp/cc6baEiQ.s:5041   .debug_str:00000000000005dd .LASF120
     /tmp/cc6baEiQ.s:4875   .debug_str:00000000000000db .LASF121
     /tmp/cc6baEiQ.s:5027   .debug_str:000000000000058a .LASF122
     /tmp/cc6baEiQ.s:4955   .debug_str:000000000000038a .LASF123
     /tmp/cc6baEiQ.s:5185   .debug_str:0000000000000a8e .LASF179
     /tmp/cc6baEiQ.s:5171   .debug_str:0000000000000a44 .LASF180
     /tmp/cc6baEiQ.s:5135   .debug_str:000000000000085e .LASF181
     /tmp/cc6baEiQ.s:4935   .debug_str:00000000000002d4 .LASF125
     /tmp/cc6baEiQ.s:4861   .debug_str:000000000000006e .LASF126
     /tmp/cc6baEiQ.s:5209   .debug_str:0000000000000b24 .LASF127
     /tmp/cc6baEiQ.s:452    .text._ZN14PeriodicThreadD0Ev:0000000000000000 .LFB55
     /tmp/cc6baEiQ.s:492    .text._ZN14PeriodicThreadD0Ev:000000000000004c .LFE55
     /tmp/cc6baEiQ.s:4355   .debug_loc:0000000000000000 .LLST12
     /tmp/cc6baEiQ.s:468    .text._ZN14PeriodicThreadD0Ev:0000000000000018 .LBB15
     /tmp/cc6baEiQ.s:476    .text._ZN14PeriodicThreadD0Ev:000000000000002c .LBE15
     /tmp/cc6baEiQ.s:4373   .debug_loc:000000000000004c .LLST13
     /tmp/cc6baEiQ.s:474    .text._ZN14PeriodicThreadD0Ev:000000000000002c .LVL34
     /tmp/cc6baEiQ.s:479    .text._ZN14PeriodicThreadD0Ev:0000000000000038 .LVL35
     /tmp/cc6baEiQ.s:5081   .debug_str:0000000000000707 .LASF128
     /tmp/cc6baEiQ.s:163    .text._ZN14PeriodicThreadD2Ev:0000000000000000 .LFB53
     /tmp/cc6baEiQ.s:191    .text._ZN14PeriodicThreadD2Ev:0000000000000034 .LFE53
     /tmp/cc6baEiQ.s:4384   .debug_loc:0000000000000082 .LLST4
     /tmp/cc6baEiQ.s:180    .text._ZN14PeriodicThreadD2Ev:0000000000000024 .LVL10
     /tmp/cc6baEiQ.s:200    .text:0000000000000080 .LFB51
     /tmp/cc6baEiQ.s:252    .text:00000000000000d0 .LFE51
     /tmp/cc6baEiQ.s:4398   .debug_loc:00000000000000bb .LLST5
     /tmp/cc6baEiQ.s:5161   .debug_str:00000000000009fd .LASF129
     /tmp/cc6baEiQ.s:4413   .debug_loc:0000000000000104 .LLST6
     /tmp/cc6baEiQ.s:235    .text:00000000000000b8 .LVL15
     /tmp/cc6baEiQ.s:5149   .debug_str:000000000000098e .LASF133
     /tmp/cc6baEiQ.s:5113   .debug_str:00000000000007dc .LASF130
     /tmp/cc6baEiQ.s:950    .text:000000000000041c .LFB49
     /tmp/cc6baEiQ.s:1001   .text:000000000000048c .LFE49
     /tmp/cc6baEiQ.s:4428   .debug_loc:000000000000014d .LLST28
     /tmp/cc6baEiQ.s:4446   .debug_loc:0000000000000199 .LLST29
     /tmp/cc6baEiQ.s:973    .text:0000000000000448 .LVL69
     /tmp/cc6baEiQ.s:981    .text:0000000000000468 .LVL70
     /tmp/cc6baEiQ.s:918    .text:00000000000003f4 .LFB47
     /tmp/cc6baEiQ.s:944    .text:000000000000041c .LFE47
     /tmp/cc6baEiQ.s:4464   .debug_loc:00000000000001e5 .LLST27
     /tmp/cc6baEiQ.s:933    .text:000000000000040c .LVL66
     /tmp/cc6baEiQ.s:887    .text:00000000000003cc .LFB46
     /tmp/cc6baEiQ.s:912    .text:00000000000003f4 .LFE46
     /tmp/cc6baEiQ.s:901    .text:00000000000003e4 .LVL64
     /tmp/cc6baEiQ.s:853    .text:00000000000003a0 .LFB45
     /tmp/cc6baEiQ.s:881    .text:00000000000003cc .LFE45
     /tmp/cc6baEiQ.s:4478   .debug_loc:000000000000021e .LLST26
     /tmp/cc6baEiQ.s:870    .text:00000000000003bc .LVL63
     /tmp/cc6baEiQ.s:819    .text:0000000000000374 .LFB44
     /tmp/cc6baEiQ.s:847    .text:00000000000003a0 .LFE44
     /tmp/cc6baEiQ.s:4492   .debug_loc:0000000000000257 .LLST25
     /tmp/cc6baEiQ.s:836    .text:0000000000000390 .LVL60
GAS LISTING /tmp/cc6baEiQ.s 			page 36


     /tmp/cc6baEiQ.s:4997   .debug_str:00000000000004eb .LASF131
     /tmp/cc6baEiQ.s:412    .text:0000000000000198 .LFB43
     /tmp/cc6baEiQ.s:445    .text:00000000000001d8 .LFE43
     /tmp/cc6baEiQ.s:4506   .debug_loc:0000000000000290 .LLST11
     /tmp/cc6baEiQ.s:429    .text:00000000000001b8 .LVL29
     /tmp/cc6baEiQ.s:432    .text:00000000000001c4 .LVL30
     /tmp/cc6baEiQ.s:4867   .debug_str:0000000000000099 .LASF132
     /tmp/cc6baEiQ.s:258    .text:00000000000000d0 .LFB41
     /tmp/cc6baEiQ.s:293    .text:0000000000000108 .LFE41
     /tmp/cc6baEiQ.s:4524   .debug_loc:00000000000002dc .LLST7
     /tmp/cc6baEiQ.s:281    .text:00000000000000f8 .LVL19
     /tmp/cc6baEiQ.s:5063   .debug_str:0000000000000686 .LASF134
     /tmp/cc6baEiQ.s:5031   .debug_str:00000000000005ad .LASF135
     /tmp/cc6baEiQ.s:778    .text:000000000000033c .LFB38
     /tmp/cc6baEiQ.s:811    .text:0000000000000374 .LFE38
     /tmp/cc6baEiQ.s:4538   .debug_loc:0000000000000315 .LLST23
     /tmp/cc6baEiQ.s:4558   .debug_loc:0000000000000363 .LLST24
     /tmp/cc6baEiQ.s:799    .text:0000000000000364 .LVL57
     /tmp/cc6baEiQ.s:120    .text:000000000000004c .LFB36
     /tmp/cc6baEiQ.s:156    .text:0000000000000080 .LFE36
     /tmp/cc6baEiQ.s:4572   .debug_loc:000000000000039c .LLST2
     /tmp/cc6baEiQ.s:4590   .debug_loc:00000000000003e8 .LLST3
     /tmp/cc6baEiQ.s:142    .text:000000000000006c .LVL7
     /tmp/cc6baEiQ.s:5085   .debug_str:000000000000072d .LASF136
     /tmp/cc6baEiQ.s:735    .text:00000000000002f8 .LFB34
     /tmp/cc6baEiQ.s:770    .text:000000000000033c .LFE34
     /tmp/cc6baEiQ.s:4608   .debug_loc:0000000000000434 .LLST22
     /tmp/cc6baEiQ.s:758    .text:000000000000032c .LVL54
     /tmp/cc6baEiQ.s:703    .text:00000000000002d0 .LFB32
     /tmp/cc6baEiQ.s:729    .text:00000000000002f8 .LFE32
     /tmp/cc6baEiQ.s:4626   .debug_loc:0000000000000480 .LLST21
     /tmp/cc6baEiQ.s:718    .text:00000000000002e8 .LVL51
     /tmp/cc6baEiQ.s:672    .text:00000000000002a8 .LFB31
     /tmp/cc6baEiQ.s:697    .text:00000000000002d0 .LFE31
     /tmp/cc6baEiQ.s:686    .text:00000000000002c0 .LVL49
     /tmp/cc6baEiQ.s:604    .text:0000000000000260 .LFB30
     /tmp/cc6baEiQ.s:666    .text:00000000000002a8 .LFE30
     /tmp/cc6baEiQ.s:4640   .debug_loc:00000000000004b9 .LLST19
     /tmp/cc6baEiQ.s:612    .text:0000000000000264 .LBB18
     /tmp/cc6baEiQ.s:4654   .debug_loc:00000000000004f2 .LLST20
     /tmp/cc6baEiQ.s:639    .text:000000000000028c .LVL46
     /tmp/cc6baEiQ.s:4999   .debug_str:00000000000004fd .LASF137
     /tmp/cc6baEiQ.s:373    .text:0000000000000158 .LFB29
     /tmp/cc6baEiQ.s:406    .text:0000000000000198 .LFE29
     /tmp/cc6baEiQ.s:4665   .debug_loc:0000000000000528 .LLST10
     /tmp/cc6baEiQ.s:390    .text:0000000000000178 .LVL25
     /tmp/cc6baEiQ.s:393    .text:0000000000000184 .LVL26
     /tmp/cc6baEiQ.s:5061   .debug_str:0000000000000677 .LASF138
     /tmp/cc6baEiQ.s:62     .text:0000000000000000 .LFB27
     /tmp/cc6baEiQ.s:112    .text:000000000000004c .LFE27
     /tmp/cc6baEiQ.s:80     .text:000000000000001c .LBB11
     /tmp/cc6baEiQ.s:102    .text:0000000000000040 .LBE11
     /tmp/cc6baEiQ.s:4683   .debug_loc:0000000000000574 .LLST0
     /tmp/cc6baEiQ.s:4691   .debug_loc:0000000000000598 .LLST1
     /tmp/cc6baEiQ.s:5147   .debug_str:0000000000000977 .LASF139
     /tmp/cc6baEiQ.s:563    .text:0000000000000228 .LFB24
     /tmp/cc6baEiQ.s:596    .text:0000000000000260 .LFE24
GAS LISTING /tmp/cc6baEiQ.s 			page 37


     /tmp/cc6baEiQ.s:4698   .debug_loc:00000000000005bb .LLST16
     /tmp/cc6baEiQ.s:4718   .debug_loc:0000000000000609 .LLST17
     /tmp/cc6baEiQ.s:4732   .debug_loc:0000000000000642 .LLST18
     /tmp/cc6baEiQ.s:584    .text:0000000000000250 .LVL43
     /tmp/cc6baEiQ.s:5033   .debug_str:00000000000005bf .LASF140
     /tmp/cc6baEiQ.s:531    .text:0000000000000200 .LFB22
     /tmp/cc6baEiQ.s:557    .text:0000000000000228 .LFE22
     /tmp/cc6baEiQ.s:4887   .debug_str:000000000000013f .LASF141
     /tmp/cc6baEiQ.s:4746   .debug_loc:000000000000067b .LLST15
     /tmp/cc6baEiQ.s:546    .text:0000000000000218 .LVL40
     /tmp/cc6baEiQ.s:4869   .debug_str:00000000000000ab .LASF142
     /tmp/cc6baEiQ.s:499    .text:00000000000001d8 .LFB21
     /tmp/cc6baEiQ.s:525    .text:0000000000000200 .LFE21
     /tmp/cc6baEiQ.s:4989   .debug_str:00000000000004ba .LASF143
     /tmp/cc6baEiQ.s:4760   .debug_loc:00000000000006b4 .LLST14
     /tmp/cc6baEiQ.s:514    .text:00000000000001f0 .LVL38
     /tmp/cc6baEiQ.s:5037   .debug_str:00000000000005d1 .LASF144
     /tmp/cc6baEiQ.s:341    .text:0000000000000130 .LFB20
     /tmp/cc6baEiQ.s:367    .text:0000000000000158 .LFE20
     /tmp/cc6baEiQ.s:4774   .debug_loc:00000000000006ed .LLST9
     /tmp/cc6baEiQ.s:356    .text:0000000000000148 .LVL23
     /tmp/cc6baEiQ.s:5167   .debug_str:0000000000000a34 .LASF145
     /tmp/cc6baEiQ.s:309    .text:0000000000000108 .LFB19
     /tmp/cc6baEiQ.s:335    .text:0000000000000130 .LFE19
     /tmp/cc6baEiQ.s:4788   .debug_loc:0000000000000726 .LLST8
     /tmp/cc6baEiQ.s:324    .text:0000000000000120 .LVL21
     /tmp/cc6baEiQ.s:37     .text._ZN14PeriodicThread18periodicActivationEv:0000000000000000 .LFB1
     /tmp/cc6baEiQ.s:55     .text._ZN14PeriodicThread18periodicActivationEv:0000000000000018 .LFE1
     /tmp/cc6baEiQ.s:11     .text._ZN6Thread3runEv:0000000000000000 .LFB0
     /tmp/cc6baEiQ.s:30     .text._ZN6Thread3runEv:0000000000000018 .LFE0
     /tmp/cc6baEiQ.s:5055   .debug_str:0000000000000655 .LASF146
     /tmp/cc6baEiQ.s:4905   .debug_str:00000000000001d4 .LASF148
     /tmp/cc6baEiQ.s:5119   .debug_str:000000000000080e .LASF147
     /tmp/cc6baEiQ.s:5175   .debug_str:0000000000000a5c .LASF149
     /tmp/cc6baEiQ.s:4941   .debug_str:0000000000000301 .LASF150
     /tmp/cc6baEiQ.s:4957   .debug_str:0000000000000399 .LASF151
     /tmp/cc6baEiQ.s:5103   .debug_str:000000000000078d .LASF152
     /tmp/cc6baEiQ.s:5099   .debug_str:000000000000077e .LASF153
     /tmp/cc6baEiQ.s:4985   .debug_str:0000000000000488 .LASF154
     /tmp/cc6baEiQ.s:5067   .debug_str:0000000000000696 .LASF155
     /tmp/cc6baEiQ.s:4979   .debug_str:0000000000000442 .LASF156
     /tmp/cc6baEiQ.s:5073   .debug_str:00000000000006c1 .LASF157
     /tmp/cc6baEiQ.s:4889   .debug_str:0000000000000144 .LASF158
     /tmp/cc6baEiQ.s:5145   .debug_str:0000000000000965 .LASF159
     /tmp/cc6baEiQ.s:5017   .debug_str:0000000000000551 .LASF160
     /tmp/cc6baEiQ.s:5173   .debug_str:0000000000000a4c .LASF161
     /tmp/cc6baEiQ.s:4953   .debug_str:000000000000037c .LASF162
     /tmp/cc6baEiQ.s:5181   .debug_str:0000000000000a75 .LASF163
     /tmp/cc6baEiQ.s:4947   .debug_str:0000000000000348 .LASF164
     /tmp/cc6baEiQ.s:5015   .debug_str:0000000000000547 .LASF165
     /tmp/cc6baEiQ.s:455    .text._ZN14PeriodicThreadD0Ev:0000000000000000 .LVL32
     /tmp/cc6baEiQ.s:487    .text._ZN14PeriodicThreadD0Ev:0000000000000044 .LVL36
     /tmp/cc6baEiQ.s:467    .text._ZN14PeriodicThreadD0Ev:0000000000000018 .LVL33
     /tmp/cc6baEiQ.s:166    .text._ZN14PeriodicThreadD2Ev:0000000000000000 .LVL9
     /tmp/cc6baEiQ.s:203    .text:0000000000000080 .LVL11
     /tmp/cc6baEiQ.s:219    .text:000000000000009c .LVL13
     /tmp/cc6baEiQ.s:247    .text:00000000000000c8 .LVL16
GAS LISTING /tmp/cc6baEiQ.s 			page 38


     /tmp/cc6baEiQ.s:216    .text:0000000000000098 .LVL12
     /tmp/cc6baEiQ.s:953    .text:000000000000041c .LVL67
     /tmp/cc6baEiQ.s:971    .text:0000000000000440 .LVL68
     /tmp/cc6baEiQ.s:993    .text:0000000000000480 .LVL71
     /tmp/cc6baEiQ.s:996    .text:0000000000000484 .LVL72
     /tmp/cc6baEiQ.s:921    .text:00000000000003f4 .LVL65
     /tmp/cc6baEiQ.s:856    .text:00000000000003a0 .LVL61
     /tmp/cc6baEiQ.s:868    .text:00000000000003b4 .LVL62
     /tmp/cc6baEiQ.s:822    .text:0000000000000374 .LVL58
     /tmp/cc6baEiQ.s:834    .text:0000000000000388 .LVL59
     /tmp/cc6baEiQ.s:415    .text:0000000000000198 .LVL28
     /tmp/cc6baEiQ.s:440    .text:00000000000001d0 .LVL31
     /tmp/cc6baEiQ.s:263    .text:00000000000000d0 .LVL17
     /tmp/cc6baEiQ.s:279    .text:00000000000000f0 .LVL18
     /tmp/cc6baEiQ.s:781    .text:000000000000033c .LVL55
     /tmp/cc6baEiQ.s:797    .text:000000000000035c .LVL56
     /tmp/cc6baEiQ.s:123    .text:000000000000004c .LVL6
     /tmp/cc6baEiQ.s:152    .text:000000000000007c .LVL8
     /tmp/cc6baEiQ.s:738    .text:00000000000002f8 .LVL52
     /tmp/cc6baEiQ.s:756    .text:0000000000000324 .LVL53
     /tmp/cc6baEiQ.s:706    .text:00000000000002d0 .LVL50
     /tmp/cc6baEiQ.s:607    .text:0000000000000260 .LVL44
     /tmp/cc6baEiQ.s:611    .text:0000000000000264 .LVL45
     /tmp/cc6baEiQ.s:654    .text:00000000000002a0 .LVL47
     /tmp/cc6baEiQ.s:660    .text:00000000000002a4 .LVL48
     /tmp/cc6baEiQ.s:376    .text:0000000000000158 .LVL24
     /tmp/cc6baEiQ.s:401    .text:0000000000000190 .LVL27
     /tmp/cc6baEiQ.s:79     .text:000000000000001c .LVL3
     /tmp/cc6baEiQ.s:99     .text:0000000000000040 .LVL5
     /tmp/cc6baEiQ.s:96     .text:0000000000000038 .LVL4
     /tmp/cc6baEiQ.s:566    .text:0000000000000228 .LVL41
     /tmp/cc6baEiQ.s:582    .text:0000000000000248 .LVL42
     /tmp/cc6baEiQ.s:534    .text:0000000000000200 .LVL39
     /tmp/cc6baEiQ.s:502    .text:00000000000001d8 .LVL37
     /tmp/cc6baEiQ.s:344    .text:0000000000000130 .LVL22
     /tmp/cc6baEiQ.s:312    .text:0000000000000108 .LVL20
     /tmp/cc6baEiQ.s:1044   .debug_info:0000000000000000 .Ldebug_info0
     /tmp/cc6baEiQ.s:5      .text:0000000000000000 .Ltext0
     /tmp/cc6baEiQ.s:1039   .text:000000000000048c .Letext0
     /tmp/cc6baEiQ.s:620    .text:000000000000026c .LBE18
     /tmp/cc6baEiQ.s:630    .text:000000000000027c .LBB22
     /tmp/cc6baEiQ.s:644    .text:0000000000000290 .LBE22
     /tmp/cc6baEiQ.s:656    .text:00000000000002a0 .LBB23
     /tmp/cc6baEiQ.s:662    .text:00000000000002a4 .LBE23
     /tmp/cc6baEiQ.s:296    .gcc_except_table:0000000000000000 .LLSDA41
                           .group:0000000000000000 _ZN14PeriodicThreadD5Ev

UNDEFINED SYMBOLS
_ZN4KPCB7counterE
_Z10time_sleepm
_Z9sem_closeP10KSemaphore
__gxx_personality_v0
_Z9mem_allocm
_Z8mem_freePv
_Z17thread_create_CPPPP4KPCBPFvPvES2_
_ZN10KScheduler3putEP4KPCB
_Z15thread_dispatchv
GAS LISTING /tmp/cc6baEiQ.s 			page 39


_Z8sem_openPP10KSemaphorej
_Z8sem_waitP10KSemaphore
_Z10sem_signalP10KSemaphore
_Z4getcv
_Z4putcc
