GAS LISTING /tmp/ccmJ46xs.s 			page 1


   1              		.file	"syscall_c.cpp"
   2              		.option pic
   3              		.option norelax
   4              		.text
   5              	.Ltext0:
   6              		.align	2
   7              		.globl	_Z9mem_allocm
   9              	_Z9mem_allocm:
  10              	.LFB21:
  11              		.file 1 "src/syscall_c.cpp"
   1:src/syscall_c.cpp **** //
   2:src/syscall_c.cpp **** // Created by os on 6/22/22.
   3:src/syscall_c.cpp **** //
   4:src/syscall_c.cpp **** 
   5:src/syscall_c.cpp **** #include "../h/syscall_c.h"
   6:src/syscall_c.cpp **** #include "../h/KPCB.hpp"
   7:src/syscall_c.cpp **** #include "../h/KConsole.hpp"
   8:src/syscall_c.cpp **** 
   9:src/syscall_c.cpp **** void *mem_alloc(size_t size) {
  12              		.loc 1 9 30
  13              		.cfi_startproc
  14              	.LVL0:
  15 0000 130101FF 		addi	sp,sp,-16
  16              		.cfi_def_cfa_offset 16
  17 0004 23348100 		sd	s0,8(sp)
  18              		.cfi_offset 8, -8
  19 0008 13040101 		addi	s0,sp,16
  20              		.cfi_def_cfa 8, 0
  10:src/syscall_c.cpp ****     size_t sizeBlock = (size + 16) / MEM_BLOCK_SIZE + ((size + 16) % MEM_BLOCK_SIZE ? 1 : 0);
  21              		.loc 1 10 5
  22              		.loc 1 10 30 is_stmt 0
  23 000c 13050501 		addi	a0,a0,16
  24              	.LVL1:
  25              		.loc 1 10 36
  26 0010 93576500 		srli	a5,a0,6
  27              		.loc 1 10 68
  28 0014 1375F503 		andi	a0,a0,63
  29              	.LVL2:
  30              		.loc 1 10 85
  31 0018 63040500 		beqz	a0,.L2
  32 001c 13051000 		li	a0,1
  33              	.L2:
  34              		.loc 1 10 12 discriminator 4
  35 0020 3385A700 		add	a0,a5,a0
  36              	.LVL3:
  11:src/syscall_c.cpp ****     asm volatile("mv a1, %0" : : "r" (sizeBlock));
  37              		.loc 1 11 5 is_stmt 1 discriminator 4
  38              		.loc 1 11 50 is_stmt 0 discriminator 4
  39              	#APP
  40              	# 11 "src/syscall_c.cpp" 1
  12              	    asm volatile("li a0, 0x01");
  41              		mv a1, a0
  42              	# 0 "" 2
  43              		.loc 1 12 5 is_stmt 1 discriminator 4
  44              		.loc 1 12 32 is_stmt 0 discriminator 4
  45              	# 12 "src/syscall_c.cpp" 1
  13              	    asm volatile("ecall");
GAS LISTING /tmp/ccmJ46xs.s 			page 2


  46              		li a0, 0x01
  47              	# 0 "" 2
  48              		.loc 1 13 5 is_stmt 1 discriminator 4
  49              		.loc 1 13 26 is_stmt 0 discriminator 4
  50              	# 13 "src/syscall_c.cpp" 1
  14              	    uint64 res;
  51              		ecall
  52              	# 0 "" 2
  53              		.loc 1 14 5 is_stmt 1 discriminator 4
  15:src/syscall_c.cpp ****     asm volatile("mv %0, a0" : "=r" (res));
  54              		.loc 1 15 5 discriminator 4
  55              		.loc 1 15 43 is_stmt 0 discriminator 4
  56              	# 15 "src/syscall_c.cpp" 1
  16              	    return (void*)res;
  57              		mv a0, a0
  58              	# 0 "" 2
  59              	.LVL4:
  60              		.loc 1 16 5 is_stmt 1 discriminator 4
  17:src/syscall_c.cpp **** }
  61              		.loc 1 17 1 is_stmt 0 discriminator 4
  62              	#NO_APP
  63 0034 03348100 		ld	s0,8(sp)
  64              		.cfi_restore 8
  65              		.cfi_def_cfa 2, 16
  66 0038 13010101 		addi	sp,sp,16
  67              		.cfi_def_cfa_offset 0
  68 003c 67800000 		jr	ra
  69              		.cfi_endproc
  70              	.LFE21:
  72              		.align	2
  73              		.globl	_Z8mem_freePv
  75              	_Z8mem_freePv:
  76              	.LFB22:
  18:src/syscall_c.cpp **** 
  19:src/syscall_c.cpp **** int mem_free(void* addr) {
  77              		.loc 1 19 26 is_stmt 1
  78              		.cfi_startproc
  79              	.LVL5:
  80 0040 130101FF 		addi	sp,sp,-16
  81              		.cfi_def_cfa_offset 16
  82 0044 23348100 		sd	s0,8(sp)
  83              		.cfi_offset 8, -8
  84 0048 13040101 		addi	s0,sp,16
  85              		.cfi_def_cfa 8, 0
  20:src/syscall_c.cpp ****     uint64 adr = (uint64)addr;
  86              		.loc 1 20 5
  87              	.LVL6:
  21:src/syscall_c.cpp ****     asm volatile("mv a1, %0" : : "r" (adr));
  88              		.loc 1 21 5
  89              		.loc 1 21 44 is_stmt 0
  90              	#APP
  91              	# 21 "src/syscall_c.cpp" 1
  22              	    asm volatile("li a0, 0x02");
  92              		mv a1, a0
  93              	# 0 "" 2
  94              		.loc 1 22 5 is_stmt 1
  95              		.loc 1 22 32 is_stmt 0
GAS LISTING /tmp/ccmJ46xs.s 			page 3


  96              	# 22 "src/syscall_c.cpp" 1
  23              	    asm volatile("ecall");
  97              		li a0, 0x02
  98              	# 0 "" 2
  99              		.loc 1 23 5 is_stmt 1
 100              		.loc 1 23 26 is_stmt 0
 101              	# 23 "src/syscall_c.cpp" 1
  24              	    int res;
 102              		ecall
 103              	# 0 "" 2
 104              		.loc 1 24 5 is_stmt 1
  25:src/syscall_c.cpp ****     asm volatile("mv %0, a0" : "=r" (res));
 105              		.loc 1 25 5
 106              		.loc 1 25 43 is_stmt 0
 107              	# 25 "src/syscall_c.cpp" 1
  26              	    return res;
 108              		mv a0, a0
 109              	# 0 "" 2
 110              	.LVL7:
 111              		.loc 1 26 5 is_stmt 1
  27:src/syscall_c.cpp **** }
 112              		.loc 1 27 1 is_stmt 0
 113              	#NO_APP
 114 005c 1B050500 		sext.w	a0,a0
 115 0060 03348100 		ld	s0,8(sp)
 116              		.cfi_restore 8
 117              		.cfi_def_cfa 2, 16
 118 0064 13010101 		addi	sp,sp,16
 119              		.cfi_def_cfa_offset 0
 120 0068 67800000 		jr	ra
 121              		.cfi_endproc
 122              	.LFE22:
 124              		.align	2
 125              		.globl	_Z8userModev
 127              	_Z8userModev:
 128              	.LFB23:
  28:src/syscall_c.cpp **** 
  29:src/syscall_c.cpp **** void userMode() {
 129              		.loc 1 29 17 is_stmt 1
 130              		.cfi_startproc
 131 006c 130101FF 		addi	sp,sp,-16
 132              		.cfi_def_cfa_offset 16
 133 0070 23348100 		sd	s0,8(sp)
 134              		.cfi_offset 8, -8
 135 0074 13040101 		addi	s0,sp,16
 136              		.cfi_def_cfa 8, 0
  30:src/syscall_c.cpp ****     asm volatile("li a0, 0x05");
 137              		.loc 1 30 5
 138              		.loc 1 30 32 is_stmt 0
 139              	#APP
 140              	# 30 "src/syscall_c.cpp" 1
  31              	    asm volatile("ecall");
 141              		li a0, 0x05
 142              	# 0 "" 2
 143              		.loc 1 31 5 is_stmt 1
 144              		.loc 1 31 26 is_stmt 0
 145              	# 31 "src/syscall_c.cpp" 1
GAS LISTING /tmp/ccmJ46xs.s 			page 4


  32              	}
 146              		ecall
 147              	# 0 "" 2
 148              		.loc 1 32 1
 149              	#NO_APP
 150 0080 03348100 		ld	s0,8(sp)
 151              		.cfi_restore 8
 152              		.cfi_def_cfa 2, 16
 153 0084 13010101 		addi	sp,sp,16
 154              		.cfi_def_cfa_offset 0
 155 0088 67800000 		jr	ra
 156              		.cfi_endproc
 157              	.LFE23:
 159              		.align	2
 160              		.globl	_Z17thread_create_CPPPP4KPCBPFvPvES2_
 162              	_Z17thread_create_CPPPP4KPCBPFvPvES2_:
 163              	.LFB24:
  33:src/syscall_c.cpp **** 
  34:src/syscall_c.cpp **** int thread_create_CPP(thread_t* handle, void(*start_routine)(void*), void* arg) {
 164              		.loc 1 34 81 is_stmt 1
 165              		.cfi_startproc
 166              	.LVL8:
  35:src/syscall_c.cpp ****     if (!handle || !start_routine) return -1;
 167              		.loc 1 35 5
 168 008c 63020508 		beqz	a0,.L11
  34:src/syscall_c.cpp ****     if (!handle || !start_routine) return -1;
 169              		.loc 1 34 81 is_stmt 0 discriminator 2
 170 0090 130101FD 		addi	sp,sp,-48
 171              		.cfi_def_cfa_offset 48
 172 0094 23341102 		sd	ra,40(sp)
 173 0098 23308102 		sd	s0,32(sp)
 174 009c 233C9100 		sd	s1,24(sp)
 175 00a0 23382101 		sd	s2,16(sp)
 176 00a4 23343101 		sd	s3,8(sp)
 177              		.cfi_offset 1, -8
 178              		.cfi_offset 8, -16
 179              		.cfi_offset 9, -24
 180              		.cfi_offset 18, -32
 181              		.cfi_offset 19, -40
 182 00a8 13040103 		addi	s0,sp,48
 183              		.cfi_def_cfa 8, 0
 184 00ac 13090500 		mv	s2,a0
 185 00b0 93890500 		mv	s3,a1
 186              		.loc 1 35 17 discriminator 2
 187 00b4 63820506 		beqz	a1,.L12
  36:src/syscall_c.cpp ****     uint64 rucka = (uint64)handle;
 188              		.loc 1 36 5 is_stmt 1
 189              	.LVL9:
  37:src/syscall_c.cpp ****     uint64 fja = (uint64)start_routine;
 190              		.loc 1 37 5
  38:src/syscall_c.cpp ****     uint64 args = (arg != nullptr ? (uint64)arg : 0);
 191              		.loc 1 38 5
 192              		.loc 1 38 35 is_stmt 0
 193 00b8 63080604 		beqz	a2,.L13
 194              		.loc 1 38 35 discriminator 1
 195 00bc 93040600 		mv	s1,a2
 196              	.L10:
GAS LISTING /tmp/ccmJ46xs.s 			page 5


 197              	.LVL10:
  39:src/syscall_c.cpp ****     void* stack = mem_alloc(2 * DEFAULT_STACK_SIZE);
 198              		.loc 1 39 5 is_stmt 1 discriminator 4
 199              		.loc 1 39 28 is_stmt 0 discriminator 4
 200 00c0 37250000 		li	a0,8192
 201              	.LVL11:
 202 00c4 97000000 		call	_Z9mem_allocm
 202      E7800000 
 203              	.LVL12:
  40:src/syscall_c.cpp ****     asm volatile("mv a4, %0" :: "r"((uint64)stack));
 204              		.loc 1 40 5 is_stmt 1 discriminator 4
 205              		.loc 1 40 52 is_stmt 0 discriminator 4
 206              	#APP
 207              	# 40 "src/syscall_c.cpp" 1
  41              	    asm volatile("mv a3, %0" :: "r"(args));
 208              		mv a4, a0
 209              	# 0 "" 2
 210              		.loc 1 41 5 is_stmt 1 discriminator 4
 211              		.loc 1 41 43 is_stmt 0 discriminator 4
 212              	# 41 "src/syscall_c.cpp" 1
  42              	    asm volatile("mv a2, %0" :: "r"(fja));
 213              		mv a3, s1
 214              	# 0 "" 2
 215              		.loc 1 42 5 is_stmt 1 discriminator 4
 216              		.loc 1 42 42 is_stmt 0 discriminator 4
 217              	# 42 "src/syscall_c.cpp" 1
  43              	    asm volatile("mv a1, %0" :: "r"(rucka));
 218              		mv a2, s3
 219              	# 0 "" 2
 220              		.loc 1 43 5 is_stmt 1 discriminator 4
 221              		.loc 1 43 44 is_stmt 0 discriminator 4
 222              	# 43 "src/syscall_c.cpp" 1
  44              	    asm volatile("li a0, 0x10");
 223              		mv a1, s2
 224              	# 0 "" 2
 225              		.loc 1 44 5 is_stmt 1 discriminator 4
 226              		.loc 1 44 32 is_stmt 0 discriminator 4
 227              	# 44 "src/syscall_c.cpp" 1
  45              	    asm volatile("ecall");
 228              		li a0, 0x10
 229              	# 0 "" 2
 230              		.loc 1 45 5 is_stmt 1 discriminator 4
 231              		.loc 1 45 26 is_stmt 0 discriminator 4
 232              	# 45 "src/syscall_c.cpp" 1
  46              	    int res;
 233              		ecall
 234              	# 0 "" 2
 235              		.loc 1 46 5 is_stmt 1 discriminator 4
  47:src/syscall_c.cpp ****     asm volatile("mv %0, a0" : "=r"(res));
 236              		.loc 1 47 5 discriminator 4
 237              		.loc 1 47 42 is_stmt 0 discriminator 4
 238              	# 47 "src/syscall_c.cpp" 1
  48              	    return res;
 239              		mv a0, a0
 240              	# 0 "" 2
 241              	.LVL13:
 242              	#NO_APP
GAS LISTING /tmp/ccmJ46xs.s 			page 6


 243 00e8 1B050500 		sext.w	a0,a0
 244              	.LVL14:
 245              		.loc 1 48 5 is_stmt 1 discriminator 4
 246              	.L9:
  49:src/syscall_c.cpp **** }
 247              		.loc 1 49 1 is_stmt 0
 248 00ec 83308102 		ld	ra,40(sp)
 249              		.cfi_remember_state
 250              		.cfi_restore 1
 251 00f0 03340102 		ld	s0,32(sp)
 252              		.cfi_restore 8
 253              		.cfi_def_cfa 2, 48
 254 00f4 83348101 		ld	s1,24(sp)
 255              		.cfi_restore 9
 256 00f8 03390101 		ld	s2,16(sp)
 257              		.cfi_restore 18
 258              	.LVL15:
 259 00fc 83398100 		ld	s3,8(sp)
 260              		.cfi_restore 19
 261              	.LVL16:
 262 0100 13010103 		addi	sp,sp,48
 263              		.cfi_def_cfa_offset 0
 264 0104 67800000 		jr	ra
 265              	.LVL17:
 266              	.L13:
 267              		.cfi_restore_state
  38:src/syscall_c.cpp ****     void* stack = mem_alloc(2 * DEFAULT_STACK_SIZE);
 268              		.loc 1 38 35
 269 0108 93040000 		li	s1,0
 270 010c 6FF05FFB 		j	.L10
 271              	.LVL18:
 272              	.L11:
 273              		.cfi_def_cfa_register 2
 274              		.cfi_restore 1
 275              		.cfi_restore 8
 276              		.cfi_restore 9
 277              		.cfi_restore 18
 278              		.cfi_restore 19
  35:src/syscall_c.cpp ****     uint64 rucka = (uint64)handle;
 279              		.loc 1 35 44
 280 0110 1305F0FF 		li	a0,-1
 281              	.LVL19:
 282              		.loc 1 49 1
 283 0114 67800000 		ret
 284              	.LVL20:
 285              	.L12:
 286              		.cfi_def_cfa_register 8
 287              		.cfi_offset 1, -8
 288              		.cfi_offset 8, -16
 289              		.cfi_offset 9, -24
 290              		.cfi_offset 18, -32
 291              		.cfi_offset 19, -40
  35:src/syscall_c.cpp ****     uint64 rucka = (uint64)handle;
 292              		.loc 1 35 44
 293 0118 1305F0FF 		li	a0,-1
 294              	.LVL21:
 295 011c 6FF01FFD 		j	.L9
GAS LISTING /tmp/ccmJ46xs.s 			page 7


 296              		.cfi_endproc
 297              	.LFE24:
 299              		.align	2
 300              		.globl	_Z13thread_createPP4KPCBPFvPvES2_
 302              	_Z13thread_createPP4KPCBPFvPvES2_:
 303              	.LFB25:
  50:src/syscall_c.cpp **** 
  51:src/syscall_c.cpp **** int thread_create(thread_t* handle, void(*start_routine)(void*), void* arg) {
 304              		.loc 1 51 77 is_stmt 1
 305              		.cfi_startproc
 306              	.LVL22:
  52:src/syscall_c.cpp ****     if (!handle || !start_routine) return -1;
 307              		.loc 1 52 5
 308 0120 63020508 		beqz	a0,.L21
  51:src/syscall_c.cpp ****     if (!handle || !start_routine) return -1;
 309              		.loc 1 51 77 is_stmt 0 discriminator 2
 310 0124 130101FD 		addi	sp,sp,-48
 311              		.cfi_def_cfa_offset 48
 312 0128 23341102 		sd	ra,40(sp)
 313 012c 23308102 		sd	s0,32(sp)
 314 0130 233C9100 		sd	s1,24(sp)
 315 0134 23382101 		sd	s2,16(sp)
 316 0138 23343101 		sd	s3,8(sp)
 317              		.cfi_offset 1, -8
 318              		.cfi_offset 8, -16
 319              		.cfi_offset 9, -24
 320              		.cfi_offset 18, -32
 321              		.cfi_offset 19, -40
 322 013c 13040103 		addi	s0,sp,48
 323              		.cfi_def_cfa 8, 0
 324 0140 13090500 		mv	s2,a0
 325 0144 93890500 		mv	s3,a1
 326              		.loc 1 52 17 discriminator 2
 327 0148 63820506 		beqz	a1,.L22
  53:src/syscall_c.cpp ****     uint64 rucka = (uint64)handle;
 328              		.loc 1 53 5 is_stmt 1
 329              	.LVL23:
  54:src/syscall_c.cpp ****     uint64 fja = (uint64)start_routine;
 330              		.loc 1 54 5
  55:src/syscall_c.cpp ****     uint64 args = (arg != nullptr ? (uint64)arg : 0);
 331              		.loc 1 55 5
 332              		.loc 1 55 35 is_stmt 0
 333 014c 63080604 		beqz	a2,.L23
 334              		.loc 1 55 35 discriminator 1
 335 0150 93040600 		mv	s1,a2
 336              	.L20:
 337              	.LVL24:
  56:src/syscall_c.cpp ****     void* stack = mem_alloc(2 * DEFAULT_STACK_SIZE);
 338              		.loc 1 56 5 is_stmt 1 discriminator 4
 339              		.loc 1 56 28 is_stmt 0 discriminator 4
 340 0154 37250000 		li	a0,8192
 341              	.LVL25:
 342 0158 97000000 		call	_Z9mem_allocm
 342      E7800000 
 343              	.LVL26:
  57:src/syscall_c.cpp ****     asm volatile("mv a4, %0" :: "r"((uint64)stack));
 344              		.loc 1 57 5 is_stmt 1 discriminator 4
GAS LISTING /tmp/ccmJ46xs.s 			page 8


 345              		.loc 1 57 52 is_stmt 0 discriminator 4
 346              	#APP
 347              	# 57 "src/syscall_c.cpp" 1
  58              	    asm volatile("mv a3, %0" :: "r"(args));
 348              		mv a4, a0
 349              	# 0 "" 2
 350              		.loc 1 58 5 is_stmt 1 discriminator 4
 351              		.loc 1 58 43 is_stmt 0 discriminator 4
 352              	# 58 "src/syscall_c.cpp" 1
  59              	    asm volatile("mv a2, %0" :: "r"(fja));
 353              		mv a3, s1
 354              	# 0 "" 2
 355              		.loc 1 59 5 is_stmt 1 discriminator 4
 356              		.loc 1 59 42 is_stmt 0 discriminator 4
 357              	# 59 "src/syscall_c.cpp" 1
  60              	    asm volatile("mv a1, %0" :: "r"(rucka));
 358              		mv a2, s3
 359              	# 0 "" 2
 360              		.loc 1 60 5 is_stmt 1 discriminator 4
 361              		.loc 1 60 44 is_stmt 0 discriminator 4
 362              	# 60 "src/syscall_c.cpp" 1
  61              	    asm volatile("li a0, 0x11");
 363              		mv a1, s2
 364              	# 0 "" 2
 365              		.loc 1 61 5 is_stmt 1 discriminator 4
 366              		.loc 1 61 32 is_stmt 0 discriminator 4
 367              	# 61 "src/syscall_c.cpp" 1
  62              	    asm volatile("ecall");
 368              		li a0, 0x11
 369              	# 0 "" 2
 370              		.loc 1 62 5 is_stmt 1 discriminator 4
 371              		.loc 1 62 26 is_stmt 0 discriminator 4
 372              	# 62 "src/syscall_c.cpp" 1
  63              	    int res;
 373              		ecall
 374              	# 0 "" 2
 375              		.loc 1 63 5 is_stmt 1 discriminator 4
  64:src/syscall_c.cpp ****     asm volatile("mv %0, a0" : "=r"(res));
 376              		.loc 1 64 5 discriminator 4
 377              		.loc 1 64 42 is_stmt 0 discriminator 4
 378              	# 64 "src/syscall_c.cpp" 1
  65              	    return res;
 379              		mv a0, a0
 380              	# 0 "" 2
 381              	.LVL27:
 382              	#NO_APP
 383 017c 1B050500 		sext.w	a0,a0
 384              	.LVL28:
 385              		.loc 1 65 5 is_stmt 1 discriminator 4
 386              	.L19:
  66:src/syscall_c.cpp **** }
 387              		.loc 1 66 1 is_stmt 0
 388 0180 83308102 		ld	ra,40(sp)
 389              		.cfi_remember_state
 390              		.cfi_restore 1
 391 0184 03340102 		ld	s0,32(sp)
 392              		.cfi_restore 8
GAS LISTING /tmp/ccmJ46xs.s 			page 9


 393              		.cfi_def_cfa 2, 48
 394 0188 83348101 		ld	s1,24(sp)
 395              		.cfi_restore 9
 396 018c 03390101 		ld	s2,16(sp)
 397              		.cfi_restore 18
 398              	.LVL29:
 399 0190 83398100 		ld	s3,8(sp)
 400              		.cfi_restore 19
 401              	.LVL30:
 402 0194 13010103 		addi	sp,sp,48
 403              		.cfi_def_cfa_offset 0
 404 0198 67800000 		jr	ra
 405              	.LVL31:
 406              	.L23:
 407              		.cfi_restore_state
  55:src/syscall_c.cpp ****     void* stack = mem_alloc(2 * DEFAULT_STACK_SIZE);
 408              		.loc 1 55 35
 409 019c 93040000 		li	s1,0
 410 01a0 6FF05FFB 		j	.L20
 411              	.LVL32:
 412              	.L21:
 413              		.cfi_def_cfa_register 2
 414              		.cfi_restore 1
 415              		.cfi_restore 8
 416              		.cfi_restore 9
 417              		.cfi_restore 18
 418              		.cfi_restore 19
  52:src/syscall_c.cpp ****     uint64 rucka = (uint64)handle;
 419              		.loc 1 52 44
 420 01a4 1305F0FF 		li	a0,-1
 421              	.LVL33:
 422              		.loc 1 66 1
 423 01a8 67800000 		ret
 424              	.LVL34:
 425              	.L22:
 426              		.cfi_def_cfa_register 8
 427              		.cfi_offset 1, -8
 428              		.cfi_offset 8, -16
 429              		.cfi_offset 9, -24
 430              		.cfi_offset 18, -32
 431              		.cfi_offset 19, -40
  52:src/syscall_c.cpp ****     uint64 rucka = (uint64)handle;
 432              		.loc 1 52 44
 433 01ac 1305F0FF 		li	a0,-1
 434              	.LVL35:
 435 01b0 6FF01FFD 		j	.L19
 436              		.cfi_endproc
 437              	.LFE25:
 439              		.align	2
 440              		.globl	_Z11thread_exitv
 442              	_Z11thread_exitv:
 443              	.LFB26:
  67:src/syscall_c.cpp **** 
  68:src/syscall_c.cpp **** int thread_exit() {
 444              		.loc 1 68 19 is_stmt 1
 445              		.cfi_startproc
 446 01b4 130101FF 		addi	sp,sp,-16
GAS LISTING /tmp/ccmJ46xs.s 			page 10


 447              		.cfi_def_cfa_offset 16
 448 01b8 23348100 		sd	s0,8(sp)
 449              		.cfi_offset 8, -8
 450 01bc 13040101 		addi	s0,sp,16
 451              		.cfi_def_cfa 8, 0
  69:src/syscall_c.cpp ****     asm volatile("li a0, 0x12");
 452              		.loc 1 69 5
 453              		.loc 1 69 32 is_stmt 0
 454              	#APP
 455              	# 69 "src/syscall_c.cpp" 1
  70              	    asm volatile("ecall");
 456              		li a0, 0x12
 457              	# 0 "" 2
 458              		.loc 1 70 5 is_stmt 1
 459              		.loc 1 70 26 is_stmt 0
 460              	# 70 "src/syscall_c.cpp" 1
  71              	    return -1;
 461              		ecall
 462              	# 0 "" 2
 463              		.loc 1 71 5 is_stmt 1
  72:src/syscall_c.cpp **** }
 464              		.loc 1 72 1 is_stmt 0
 465              	#NO_APP
 466 01c8 1305F0FF 		li	a0,-1
 467 01cc 03348100 		ld	s0,8(sp)
 468              		.cfi_restore 8
 469              		.cfi_def_cfa 2, 16
 470 01d0 13010101 		addi	sp,sp,16
 471              		.cfi_def_cfa_offset 0
 472 01d4 67800000 		jr	ra
 473              		.cfi_endproc
 474              	.LFE26:
 476              		.align	2
 477              		.globl	_Z15thread_dispatchv
 479              	_Z15thread_dispatchv:
 480              	.LFB27:
  73:src/syscall_c.cpp **** 
  74:src/syscall_c.cpp **** void thread_dispatch() {
 481              		.loc 1 74 24 is_stmt 1
 482              		.cfi_startproc
 483 01d8 130101FF 		addi	sp,sp,-16
 484              		.cfi_def_cfa_offset 16
 485 01dc 23348100 		sd	s0,8(sp)
 486              		.cfi_offset 8, -8
 487 01e0 13040101 		addi	s0,sp,16
 488              		.cfi_def_cfa 8, 0
  75:src/syscall_c.cpp ****     asm volatile("li a0, 0x13");
 489              		.loc 1 75 5
 490              		.loc 1 75 32 is_stmt 0
 491              	#APP
 492              	# 75 "src/syscall_c.cpp" 1
  76              	    asm volatile("ecall");
 493              		li a0, 0x13
 494              	# 0 "" 2
 495              		.loc 1 76 5 is_stmt 1
 496              		.loc 1 76 26 is_stmt 0
 497              	# 76 "src/syscall_c.cpp" 1
GAS LISTING /tmp/ccmJ46xs.s 			page 11


  77              	}
 498              		ecall
 499              	# 0 "" 2
 500              		.loc 1 77 1
 501              	#NO_APP
 502 01ec 03348100 		ld	s0,8(sp)
 503              		.cfi_restore 8
 504              		.cfi_def_cfa 2, 16
 505 01f0 13010101 		addi	sp,sp,16
 506              		.cfi_def_cfa_offset 0
 507 01f4 67800000 		jr	ra
 508              		.cfi_endproc
 509              	.LFE27:
 511              		.align	2
 512              		.globl	_Z8sem_openPP10KSemaphorej
 514              	_Z8sem_openPP10KSemaphorej:
 515              	.LFB28:
  78:src/syscall_c.cpp **** 
  79:src/syscall_c.cpp **** int sem_open(sem_t* handle, unsigned init) {
 516              		.loc 1 79 44 is_stmt 1
 517              		.cfi_startproc
 518              	.LVL36:
 519 01f8 130101FF 		addi	sp,sp,-16
 520              		.cfi_def_cfa_offset 16
 521 01fc 23348100 		sd	s0,8(sp)
 522              		.cfi_offset 8, -8
 523 0200 13040101 		addi	s0,sp,16
 524              		.cfi_def_cfa 8, 0
  80:src/syscall_c.cpp ****     asm volatile("mv a2, %0" :: "r"((uint64)init));
 525              		.loc 1 80 5
 526              		.loc 1 80 37 is_stmt 0
 527 0204 93950502 		slli	a1,a1,32
 528              	.LVL37:
 529 0208 93D50502 		srli	a1,a1,32
 530              		.loc 1 80 51
 531              	#APP
 532              	# 80 "src/syscall_c.cpp" 1
  81              	    asm volatile("mv a1, %0" :: "r"((uint64)handle));
 533              		mv a2, a1
 534              	# 0 "" 2
 535              		.loc 1 81 5 is_stmt 1
 536              		.loc 1 81 53 is_stmt 0
 537              	# 81 "src/syscall_c.cpp" 1
  82              	    asm volatile("li a0, 0x21");
 538              		mv a1, a0
 539              	# 0 "" 2
 540              		.loc 1 82 5 is_stmt 1
 541              		.loc 1 82 32 is_stmt 0
 542              	# 82 "src/syscall_c.cpp" 1
  83              	    asm volatile("ecall");
 543              		li a0, 0x21
 544              	# 0 "" 2
 545              		.loc 1 83 5 is_stmt 1
 546              		.loc 1 83 26 is_stmt 0
 547              	# 83 "src/syscall_c.cpp" 1
  84              	    int res;
 548              		ecall
GAS LISTING /tmp/ccmJ46xs.s 			page 12


 549              	# 0 "" 2
 550              		.loc 1 84 5 is_stmt 1
  85:src/syscall_c.cpp ****     asm volatile("mv %0, a0" : "=r" (res));
 551              		.loc 1 85 5
 552              		.loc 1 85 43 is_stmt 0
 553              	# 85 "src/syscall_c.cpp" 1
  86              	    return res;
 554              		mv a0, a0
 555              	# 0 "" 2
 556              	.LVL38:
 557              		.loc 1 86 5 is_stmt 1
  87:src/syscall_c.cpp **** }
 558              		.loc 1 87 1 is_stmt 0
 559              	#NO_APP
 560 0220 1B050500 		sext.w	a0,a0
 561 0224 03348100 		ld	s0,8(sp)
 562              		.cfi_restore 8
 563              		.cfi_def_cfa 2, 16
 564 0228 13010101 		addi	sp,sp,16
 565              		.cfi_def_cfa_offset 0
 566 022c 67800000 		jr	ra
 567              		.cfi_endproc
 568              	.LFE28:
 570              		.align	2
 571              		.globl	_Z9sem_closeP10KSemaphore
 573              	_Z9sem_closeP10KSemaphore:
 574              	.LFB29:
  88:src/syscall_c.cpp **** 
  89:src/syscall_c.cpp **** int sem_close(sem_t handle) {
 575              		.loc 1 89 29 is_stmt 1
 576              		.cfi_startproc
 577              	.LVL39:
 578 0230 130101FF 		addi	sp,sp,-16
 579              		.cfi_def_cfa_offset 16
 580 0234 23348100 		sd	s0,8(sp)
 581              		.cfi_offset 8, -8
 582 0238 13040101 		addi	s0,sp,16
 583              		.cfi_def_cfa 8, 0
  90:src/syscall_c.cpp ****     asm volatile("mv a1, %0" :: "r"((uint64)handle));
 584              		.loc 1 90 5
 585              		.loc 1 90 53 is_stmt 0
 586              	#APP
 587              	# 90 "src/syscall_c.cpp" 1
  91              	    asm volatile("li a0, 0x22");
 588              		mv a1, a0
 589              	# 0 "" 2
 590              		.loc 1 91 5 is_stmt 1
 591              		.loc 1 91 32 is_stmt 0
 592              	# 91 "src/syscall_c.cpp" 1
  92              	    asm volatile("ecall");
 593              		li a0, 0x22
 594              	# 0 "" 2
 595              		.loc 1 92 5 is_stmt 1
 596              		.loc 1 92 26 is_stmt 0
 597              	# 92 "src/syscall_c.cpp" 1
  93              	    return 0;
 598              		ecall
GAS LISTING /tmp/ccmJ46xs.s 			page 13


 599              	# 0 "" 2
 600              		.loc 1 93 5 is_stmt 1
  94:src/syscall_c.cpp **** }
 601              		.loc 1 94 1 is_stmt 0
 602              	#NO_APP
 603 0248 13050000 		li	a0,0
 604              	.LVL40:
 605 024c 03348100 		ld	s0,8(sp)
 606              		.cfi_restore 8
 607              		.cfi_def_cfa 2, 16
 608 0250 13010101 		addi	sp,sp,16
 609              		.cfi_def_cfa_offset 0
 610 0254 67800000 		jr	ra
 611              		.cfi_endproc
 612              	.LFE29:
 614              		.align	2
 615              		.globl	_Z8sem_waitP10KSemaphore
 617              	_Z8sem_waitP10KSemaphore:
 618              	.LFB30:
  95:src/syscall_c.cpp **** 
  96:src/syscall_c.cpp **** int sem_wait(sem_t id) {
 619              		.loc 1 96 24 is_stmt 1
 620              		.cfi_startproc
 621              	.LVL41:
 622 0258 130101FF 		addi	sp,sp,-16
 623              		.cfi_def_cfa_offset 16
 624 025c 23348100 		sd	s0,8(sp)
 625              		.cfi_offset 8, -8
 626 0260 13040101 		addi	s0,sp,16
 627              		.cfi_def_cfa 8, 0
  97:src/syscall_c.cpp ****     asm volatile("mv a1, %0" :: "r"((uint64)id));
 628              		.loc 1 97 5
 629              		.loc 1 97 49 is_stmt 0
 630              	#APP
 631              	# 97 "src/syscall_c.cpp" 1
  98              	    asm volatile("li a0, 0x23");
 632              		mv a1, a0
 633              	# 0 "" 2
 634              		.loc 1 98 5 is_stmt 1
 635              		.loc 1 98 32 is_stmt 0
 636              	# 98 "src/syscall_c.cpp" 1
  99              	    asm volatile("ecall");
 637              		li a0, 0x23
 638              	# 0 "" 2
 639              		.loc 1 99 5 is_stmt 1
 640              		.loc 1 99 26 is_stmt 0
 641              	# 99 "src/syscall_c.cpp" 1
 100              	    int res = 0;
 642              		ecall
 643              	# 0 "" 2
 644              		.loc 1 100 5 is_stmt 1
 645              	.LVL42:
 101:src/syscall_c.cpp ****     if (KPCB::running->isErr()) {
 646              		.loc 1 101 5
 647              		.loc 1 101 29 is_stmt 0
 648              	#NO_APP
 649 0270 97070000 		la	a5,_ZN4KPCB7runningE
GAS LISTING /tmp/ccmJ46xs.s 			page 14


 649      83B70700 
 650 0278 83B70700 		ld	a5,0(a5)
 651              	.LVL43:
 652              	.LBB6:
 653              	.LBB7:
 654              		.file 2 "src/../h/KPCB.hpp"
   1:src/../h/KPCB.hpp **** //
   2:src/../h/KPCB.hpp **** // Created by os on 6/22/22.
   3:src/../h/KPCB.hpp **** //
   4:src/../h/KPCB.hpp **** 
   5:src/../h/KPCB.hpp **** #ifndef PROJECT_BASE_V1_1_KPCB_HPP
   6:src/../h/KPCB.hpp **** #define PROJECT_BASE_V1_1_KPCB_HPP
   7:src/../h/KPCB.hpp **** 
   8:src/../h/KPCB.hpp **** #include "../lib/hw.h"
   9:src/../h/KPCB.hpp **** #include "../lib/mem.h"
  10:src/../h/KPCB.hpp **** #include "KScheduler.hpp"
  11:src/../h/KPCB.hpp **** #include "KMemoryAllocator.hpp"
  12:src/../h/KPCB.hpp **** 
  13:src/../h/KPCB.hpp **** class KPCB {
  14:src/../h/KPCB.hpp **** public:
  15:src/../h/KPCB.hpp ****     ~KPCB() { delete[] stack; }
  16:src/../h/KPCB.hpp ****     friend class KScheduler;
  17:src/../h/KPCB.hpp ****     friend class KSemaphore;
  18:src/../h/KPCB.hpp ****     friend class KRiscv;
  19:src/../h/KPCB.hpp ****     friend class KSleep;
  20:src/../h/KPCB.hpp **** 
  21:src/../h/KPCB.hpp ****     void* operator new(size_t size) {
  22:src/../h/KPCB.hpp ****         size_t sizeBlock = (size + 16) / MEM_BLOCK_SIZE + ((size + 16) % MEM_BLOCK_SIZE ? 1 : 0);
  23:src/../h/KPCB.hpp ****         return KMemoryAllocator::mem_alloc(sizeBlock);
  24:src/../h/KPCB.hpp ****         //return __mem_alloc(size);
  25:src/../h/KPCB.hpp ****     }
  26:src/../h/KPCB.hpp ****     void* operator new[](size_t size) {
  27:src/../h/KPCB.hpp ****         size_t sizeBlock = (size + 16) / MEM_BLOCK_SIZE + ((size + 16) % MEM_BLOCK_SIZE ? 1 : 0);
  28:src/../h/KPCB.hpp ****         return KMemoryAllocator::mem_alloc(sizeBlock);
  29:src/../h/KPCB.hpp ****         //return __mem_alloc(size);
  30:src/../h/KPCB.hpp ****     }
  31:src/../h/KPCB.hpp ****     void operator delete(void* addr) {
  32:src/../h/KPCB.hpp ****         KMemoryAllocator::mem_free(addr);
  33:src/../h/KPCB.hpp ****         //__mem_free(addr);
  34:src/../h/KPCB.hpp ****     }
  35:src/../h/KPCB.hpp ****     void operator delete[](void* addr) {
  36:src/../h/KPCB.hpp ****         KMemoryAllocator::mem_free(addr);
  37:src/../h/KPCB.hpp ****         //__mem_free(addr);
  38:src/../h/KPCB.hpp ****     }
  39:src/../h/KPCB.hpp **** 
  40:src/../h/KPCB.hpp ****     using Body = void (*)(void*);
  41:src/../h/KPCB.hpp ****     static KPCB* createThread(Body body, void* args, void* stek);
  42:src/../h/KPCB.hpp ****     static KPCB* createThread(Body body);
  43:src/../h/KPCB.hpp ****     static void yield();
  44:src/../h/KPCB.hpp ****     static void dispatch();
  45:src/../h/KPCB.hpp ****     static KPCB* running;
  46:src/../h/KPCB.hpp ****     static int counter;
  47:src/../h/KPCB.hpp ****     static int statID;
  48:src/../h/KPCB.hpp **** 
  49:src/../h/KPCB.hpp ****     bool isFinished() const { return finished; }
  50:src/../h/KPCB.hpp ****     bool isSleeping() const { return sleeping; }
  51:src/../h/KPCB.hpp ****     bool isWaiting() const { return waiting; }
GAS LISTING /tmp/ccmJ46xs.s 			page 15


  52:src/../h/KPCB.hpp ****     bool isErr() const { return err; }
 655              		.loc 2 52 26 is_stmt 1
 656              		.loc 2 52 33 is_stmt 0
 657 027c 03C73703 		lbu	a4,51(a5)
 658              	.LVL44:
 659              	.LBE7:
 660              	.LBE6:
 661              		.loc 1 101 5
 662 0280 631A0700 		bnez	a4,.L40
 100:src/syscall_c.cpp ****     if (KPCB::running->isErr()) {
 663              		.loc 1 100 9
 664 0284 13050000 		li	a0,0
 665              	.LVL45:
 666              	.L37:
 102:src/syscall_c.cpp ****         res = -1;
 103:src/syscall_c.cpp ****         KPCB::running->setErr(false);
 104:src/syscall_c.cpp ****     }
 105:src/syscall_c.cpp ****     return res;
 667              		.loc 1 105 5 is_stmt 1
 106:src/syscall_c.cpp **** }
 668              		.loc 1 106 1 is_stmt 0
 669 0288 03348100 		ld	s0,8(sp)
 670              		.cfi_remember_state
 671              		.cfi_restore 8
 672              		.cfi_def_cfa 2, 16
 673 028c 13010101 		addi	sp,sp,16
 674              		.cfi_def_cfa_offset 0
 675 0290 67800000 		jr	ra
 676              	.LVL46:
 677              	.L40:
 678              		.cfi_restore_state
 102:src/syscall_c.cpp ****         res = -1;
 679              		.loc 1 102 9 is_stmt 1
 103:src/syscall_c.cpp ****     }
 680              		.loc 1 103 9
 681              	.LBB8:
 682              	.LBB9:
  53:src/../h/KPCB.hpp ****     void setFinished(bool val) {
  54:src/../h/KPCB.hpp ****         if (finished) return;
  55:src/../h/KPCB.hpp ****         finished = val;
  56:src/../h/KPCB.hpp ****         counter--;
  57:src/../h/KPCB.hpp ****     }
  58:src/../h/KPCB.hpp ****     void setSleeping(bool val) { sleeping = val; }
  59:src/../h/KPCB.hpp ****     void setWaiting(bool val) { waiting = val; }
  60:src/../h/KPCB.hpp ****     void setErr(bool val) { err = val; }
 683              		.loc 2 60 29
 684              		.loc 2 60 33 is_stmt 0
 685 0294 A3890702 		sb	zero,51(a5)
 686              	.LBE9:
 687              	.LBE8:
 102:src/syscall_c.cpp ****         KPCB::running->setErr(false);
 688              		.loc 1 102 13
 689 0298 1305F0FF 		li	a0,-1
 690              	.LVL47:
 691              	.LBB11:
 692              	.LBB10:
 693              		.loc 2 60 40
GAS LISTING /tmp/ccmJ46xs.s 			page 16


 694 029c 6FF0DFFE 		j	.L37
 695              	.LBE10:
 696              	.LBE11:
 697              		.cfi_endproc
 698              	.LFE30:
 700              		.align	2
 701              		.globl	_Z10sem_signalP10KSemaphore
 703              	_Z10sem_signalP10KSemaphore:
 704              	.LFB31:
 107:src/syscall_c.cpp **** 
 108:src/syscall_c.cpp **** int sem_signal(sem_t id) {
 705              		.loc 1 108 26 is_stmt 1
 706              		.cfi_startproc
 707              	.LVL48:
 708 02a0 130101FF 		addi	sp,sp,-16
 709              		.cfi_def_cfa_offset 16
 710 02a4 23348100 		sd	s0,8(sp)
 711              		.cfi_offset 8, -8
 712 02a8 13040101 		addi	s0,sp,16
 713              		.cfi_def_cfa 8, 0
 109:src/syscall_c.cpp ****     asm volatile("mv a1, %0" :: "r"((uint64)id));
 714              		.loc 1 109 5
 715              		.loc 1 109 49 is_stmt 0
 716              	#APP
 717              	# 109 "src/syscall_c.cpp" 1
 110              	    asm volatile("li a0, 0x24");
 718              		mv a1, a0
 719              	# 0 "" 2
 720              		.loc 1 110 5 is_stmt 1
 721              		.loc 1 110 32 is_stmt 0
 722              	# 110 "src/syscall_c.cpp" 1
 111              	    asm volatile("ecall");
 723              		li a0, 0x24
 724              	# 0 "" 2
 725              		.loc 1 111 5 is_stmt 1
 726              		.loc 1 111 26 is_stmt 0
 727              	# 111 "src/syscall_c.cpp" 1
 112              	    return 0;
 728              		ecall
 729              	# 0 "" 2
 730              		.loc 1 112 5 is_stmt 1
 113:src/syscall_c.cpp **** }
 731              		.loc 1 113 1 is_stmt 0
 732              	#NO_APP
 733 02b8 13050000 		li	a0,0
 734              	.LVL49:
 735 02bc 03348100 		ld	s0,8(sp)
 736              		.cfi_restore 8
 737              		.cfi_def_cfa 2, 16
 738 02c0 13010101 		addi	sp,sp,16
 739              		.cfi_def_cfa_offset 0
 740 02c4 67800000 		jr	ra
 741              		.cfi_endproc
 742              	.LFE31:
 744              		.align	2
 745              		.globl	_Z10time_sleepm
 747              	_Z10time_sleepm:
GAS LISTING /tmp/ccmJ46xs.s 			page 17


 748              	.LFB32:
 114:src/syscall_c.cpp **** 
 115:src/syscall_c.cpp **** int time_sleep(time_t time) {
 749              		.loc 1 115 29 is_stmt 1
 750              		.cfi_startproc
 751              	.LVL50:
 752 02c8 130101FF 		addi	sp,sp,-16
 753              		.cfi_def_cfa_offset 16
 754 02cc 23348100 		sd	s0,8(sp)
 755              		.cfi_offset 8, -8
 756 02d0 13040101 		addi	s0,sp,16
 757              		.cfi_def_cfa 8, 0
 116:src/syscall_c.cpp ****     asm volatile("mv a1, %0" : : "r" (time));
 758              		.loc 1 116 5
 759              		.loc 1 116 45 is_stmt 0
 760              	#APP
 761              	# 116 "src/syscall_c.cpp" 1
 117              	    asm volatile("li a0, 0x31");
 762              		mv a1, a0
 763              	# 0 "" 2
 764              		.loc 1 117 5 is_stmt 1
 765              		.loc 1 117 32 is_stmt 0
 766              	# 117 "src/syscall_c.cpp" 1
 118              	    asm volatile("ecall");
 767              		li a0, 0x31
 768              	# 0 "" 2
 769              		.loc 1 118 5 is_stmt 1
 770              		.loc 1 118 26 is_stmt 0
 771              	# 118 "src/syscall_c.cpp" 1
 119              	    return 0;
 772              		ecall
 773              	# 0 "" 2
 774              		.loc 1 119 5 is_stmt 1
 120:src/syscall_c.cpp **** }
 775              		.loc 1 120 1 is_stmt 0
 776              	#NO_APP
 777 02e0 13050000 		li	a0,0
 778              	.LVL51:
 779 02e4 03348100 		ld	s0,8(sp)
 780              		.cfi_restore 8
 781              		.cfi_def_cfa 2, 16
 782 02e8 13010101 		addi	sp,sp,16
 783              		.cfi_def_cfa_offset 0
 784 02ec 67800000 		jr	ra
 785              		.cfi_endproc
 786              	.LFE32:
 788              		.align	2
 789              		.globl	_Z4getcv
 791              	_Z4getcv:
 792              	.LFB33:
 121:src/syscall_c.cpp **** 
 122:src/syscall_c.cpp **** char getc() {
 793              		.loc 1 122 13 is_stmt 1
 794              		.cfi_startproc
 795 02f0 130101FF 		addi	sp,sp,-16
 796              		.cfi_def_cfa_offset 16
 797 02f4 23348100 		sd	s0,8(sp)
GAS LISTING /tmp/ccmJ46xs.s 			page 18


 798              		.cfi_offset 8, -8
 799 02f8 13040101 		addi	s0,sp,16
 800              		.cfi_def_cfa 8, 0
 123:src/syscall_c.cpp ****     asm volatile("li a0, 0x41");
 801              		.loc 1 123 5
 802              		.loc 1 123 32 is_stmt 0
 803              	#APP
 804              	# 123 "src/syscall_c.cpp" 1
 124              	    asm volatile("ecall");
 805              		li a0, 0x41
 806              	# 0 "" 2
 807              		.loc 1 124 5 is_stmt 1
 808              		.loc 1 124 26 is_stmt 0
 809              	# 124 "src/syscall_c.cpp" 1
 125              	    char res;
 810              		ecall
 811              	# 0 "" 2
 812              		.loc 1 125 5 is_stmt 1
 126:src/syscall_c.cpp ****     asm volatile("mv %0, a0" : "=r" (res));
 813              		.loc 1 126 5
 814              		.loc 1 126 43 is_stmt 0
 815              	# 126 "src/syscall_c.cpp" 1
 127              	    return res;
 816              		mv a0, a0
 817              	# 0 "" 2
 818              	.LVL52:
 819              		.loc 1 127 5 is_stmt 1
 128:src/syscall_c.cpp **** }
 820              		.loc 1 128 1 is_stmt 0
 821              	#NO_APP
 822 0308 1375F50F 		andi	a0,a0,0xff
 823 030c 03348100 		ld	s0,8(sp)
 824              		.cfi_restore 8
 825              		.cfi_def_cfa 2, 16
 826 0310 13010101 		addi	sp,sp,16
 827              		.cfi_def_cfa_offset 0
 828 0314 67800000 		jr	ra
 829              		.cfi_endproc
 830              	.LFE33:
 832              		.align	2
 833              		.globl	_Z4putcc
 835              	_Z4putcc:
 836              	.LFB34:
 129:src/syscall_c.cpp **** 
 130:src/syscall_c.cpp **** void putc(char c) {
 837              		.loc 1 130 19 is_stmt 1
 838              		.cfi_startproc
 839              	.LVL53:
 840 0318 130101FF 		addi	sp,sp,-16
 841              		.cfi_def_cfa_offset 16
 842 031c 23348100 		sd	s0,8(sp)
 843              		.cfi_offset 8, -8
 844 0320 13040101 		addi	s0,sp,16
 845              		.cfi_def_cfa 8, 0
 131:src/syscall_c.cpp ****     asm volatile("mv a1, %0" : : "r" ((uint64)c));
 846              		.loc 1 131 5
 847              		.loc 1 131 50 is_stmt 0
GAS LISTING /tmp/ccmJ46xs.s 			page 19


 848              	#APP
 849              	# 131 "src/syscall_c.cpp" 1
 132              	    asm volatile("li a0, 0x42");
 850              		mv a1, a0
 851              	# 0 "" 2
 852              		.loc 1 132 5 is_stmt 1
 853              		.loc 1 132 32 is_stmt 0
 854              	# 132 "src/syscall_c.cpp" 1
 133              	    asm volatile("ecall");
 855              		li a0, 0x42
 856              	# 0 "" 2
 857              		.loc 1 133 5 is_stmt 1
 858              		.loc 1 133 26 is_stmt 0
 859              	# 133 "src/syscall_c.cpp" 1
 134              	}...
 860              		ecall
 861              	# 0 "" 2
 862              		.loc 1 134 1
 863              	#NO_APP
 864 0330 03348100 		ld	s0,8(sp)
 865              		.cfi_restore 8
 866              		.cfi_def_cfa 2, 16
 867 0334 13010101 		addi	sp,sp,16
 868              		.cfi_def_cfa_offset 0
 869 0338 67800000 		jr	ra
 870              		.cfi_endproc
 871              	.LFE34:
 873              	.Letext0:
 874              		.file 3 "src/../h/../lib/hw.h"
 875              		.file 4 "src/../h/syscall_c.h"
GAS LISTING /tmp/ccmJ46xs.s 			page 20

