GAS LISTING /tmp/cc6baEiQ.s 			page 1


   1              		.file	"syscall_cpp.cpp"
   2              		.option pic
   3              		.option norelax
   4              		.text
   5              	.Ltext0:
   6              		.section	.text._ZN6Thread3runEv,"axG",@progbits,_ZN6Thread3runEv,comdat
   7              		.align	2
   8              		.weak	_ZN6Thread3runEv
  10              	_ZN6Thread3runEv:
  11              	.LFB0:
  12              		.file 1 "src/../h/syscall_cpp.h"
   1:src/../h/syscall_cpp.h **** //
   2:src/../h/syscall_cpp.h **** // Created by os on 6/22/22.
   3:src/../h/syscall_cpp.h **** //
   4:src/../h/syscall_cpp.h **** 
   5:src/../h/syscall_cpp.h **** #ifndef PROJECT_BASE_V1_1_SYSCALL_CPP_H
   6:src/../h/syscall_cpp.h **** #define PROJECT_BASE_V1_1_SYSCALL_CPP_H
   7:src/../h/syscall_cpp.h **** 
   8:src/../h/syscall_cpp.h **** #include "syscall_c.h"
   9:src/../h/syscall_cpp.h **** 
  10:src/../h/syscall_cpp.h **** void* operator new (size_t);
  11:src/../h/syscall_cpp.h **** void operator delete (void*);
  12:src/../h/syscall_cpp.h **** void* operator new[] (size_t);
  13:src/../h/syscall_cpp.h **** void operator delete[] (void*);
  14:src/../h/syscall_cpp.h **** 
  15:src/../h/syscall_cpp.h **** class Thread {
  16:src/../h/syscall_cpp.h **** public:
  17:src/../h/syscall_cpp.h ****     Thread (void (*body)(void*), void* arg);
  18:src/../h/syscall_cpp.h ****     virtual ~Thread ();
  19:src/../h/syscall_cpp.h ****     int start ();
  20:src/../h/syscall_cpp.h ****     static void dispatch ();
  21:src/../h/syscall_cpp.h ****     static int sleep (time_t);
  22:src/../h/syscall_cpp.h **** protected:
  23:src/../h/syscall_cpp.h ****     Thread ();
  24:src/../h/syscall_cpp.h ****     virtual void run () {}
  13              		.loc 1 24 18
  14              		.cfi_startproc
  15              	.LVL0:
  16 0000 130101FF 		addi	sp,sp,-16
  17              		.cfi_def_cfa_offset 16
  18 0004 23348100 		sd	s0,8(sp)
  19              		.cfi_offset 8, -8
  20 0008 13040101 		addi	s0,sp,16
  21              		.cfi_def_cfa 8, 0
  22              		.loc 1 24 26 is_stmt 0
  23 000c 03348100 		ld	s0,8(sp)
  24              		.cfi_restore 8
  25              		.cfi_def_cfa 2, 16
  26 0010 13010101 		addi	sp,sp,16
  27              		.cfi_def_cfa_offset 0
  28 0014 67800000 		jr	ra
  29              		.cfi_endproc
  30              	.LFE0:
  32              		.section	.text._ZN14PeriodicThread18periodicActivationEv,"axG",@progbits,_ZN14PeriodicThread18peri
  33              		.align	2
  34              		.weak	_ZN14PeriodicThread18periodicActivationEv
  36              	_ZN14PeriodicThread18periodicActivationEv:
GAS LISTING /tmp/cc6baEiQ.s 			page 2


  37              	.LFB1:
  25:src/../h/syscall_cpp.h **** private:
  26:src/../h/syscall_cpp.h ****     thread_t myHandle;
  27:src/../h/syscall_cpp.h ****     static void wrapper(void* args);
  28:src/../h/syscall_cpp.h **** };
  29:src/../h/syscall_cpp.h **** 
  30:src/../h/syscall_cpp.h **** class Semaphore {
  31:src/../h/syscall_cpp.h **** public:
  32:src/../h/syscall_cpp.h ****     Semaphore (unsigned init = 1);
  33:src/../h/syscall_cpp.h ****     virtual ~Semaphore ();
  34:src/../h/syscall_cpp.h ****     int wait ();
  35:src/../h/syscall_cpp.h ****     int signal ();
  36:src/../h/syscall_cpp.h **** private:
  37:src/../h/syscall_cpp.h ****     sem_t myHandle;
  38:src/../h/syscall_cpp.h **** };
  39:src/../h/syscall_cpp.h **** 
  40:src/../h/syscall_cpp.h **** class PeriodicThread : public Thread {
  41:src/../h/syscall_cpp.h **** protected:
  42:src/../h/syscall_cpp.h ****     PeriodicThread (time_t period);
  43:src/../h/syscall_cpp.h ****     virtual void periodicActivation () {}
  38              		.loc 1 43 18 is_stmt 1
  39              		.cfi_startproc
  40              	.LVL1:
  41 0000 130101FF 		addi	sp,sp,-16
  42              		.cfi_def_cfa_offset 16
  43 0004 23348100 		sd	s0,8(sp)
  44              		.cfi_offset 8, -8
  45 0008 13040101 		addi	s0,sp,16
  46              		.cfi_def_cfa 8, 0
  47              		.loc 1 43 41 is_stmt 0
  48 000c 03348100 		ld	s0,8(sp)
  49              		.cfi_restore 8
  50              		.cfi_def_cfa 2, 16
  51 0010 13010101 		addi	sp,sp,16
  52              		.cfi_def_cfa_offset 0
  53 0014 67800000 		jr	ra
  54              		.cfi_endproc
  55              	.LFE1:
  57              		.text
  58              		.align	2
  59              		.globl	_ZN6ThreadD2Ev
  61              	_ZN6ThreadD2Ev:
  62              	.LFB27:
  63              		.file 2 "src/syscall_cpp.cpp"
   1:src/syscall_cpp.cpp **** //
   2:src/syscall_cpp.cpp **** // Created by os on 6/22/22.
   3:src/syscall_cpp.cpp **** //
   4:src/syscall_cpp.cpp **** 
   5:src/syscall_cpp.cpp **** #include "../h/syscall_cpp.h"
   6:src/syscall_cpp.cpp **** #include "../h/KPCB.hpp"
   7:src/syscall_cpp.cpp **** 
   8:src/syscall_cpp.cpp **** void* operator new(size_t size) {
   9:src/syscall_cpp.cpp ****     return mem_alloc(size);
  10:src/syscall_cpp.cpp **** }
  11:src/syscall_cpp.cpp **** 
  12:src/syscall_cpp.cpp **** void operator delete (void* addr) {
  13:src/syscall_cpp.cpp ****     mem_free(addr);
GAS LISTING /tmp/cc6baEiQ.s 			page 3


  14:src/syscall_cpp.cpp **** }
  15:src/syscall_cpp.cpp **** 
  16:src/syscall_cpp.cpp **** void* operator new[] (size_t size) {
  17:src/syscall_cpp.cpp ****     return mem_alloc(size);
  18:src/syscall_cpp.cpp **** }
  19:src/syscall_cpp.cpp **** 
  20:src/syscall_cpp.cpp **** void operator delete[] (void* addr) {
  21:src/syscall_cpp.cpp ****     mem_free(addr);
  22:src/syscall_cpp.cpp **** }
  23:src/syscall_cpp.cpp **** 
  24:src/syscall_cpp.cpp **** Thread::Thread(void (*body)(void *), void *arg) {
  25:src/syscall_cpp.cpp ****     thread_create_CPP(&myHandle, body, arg);
  26:src/syscall_cpp.cpp **** }
  27:src/syscall_cpp.cpp **** 
  28:src/syscall_cpp.cpp **** Thread::~Thread() {
  64              		.loc 2 28 1 is_stmt 1
  65              		.cfi_startproc
  66              	.LVL2:
  67 0000 130101FF 		addi	sp,sp,-16
  68              		.cfi_def_cfa_offset 16
  69 0004 23348100 		sd	s0,8(sp)
  70              		.cfi_offset 8, -8
  71 0008 13040101 		addi	s0,sp,16
  72              		.cfi_def_cfa 8, 0
  73              	.LBB10:
  74              		.loc 2 28 17 is_stmt 0
  75 000c 97070000 		lla	a5,_ZTV6Thread+16
  75      93870700 
  76 0014 2330F500 		sd	a5,0(a0)
  29:src/syscall_cpp.cpp ****     myHandle->setFinished(true);
  77              		.loc 2 29 5 is_stmt 1
  78 0018 83378500 		ld	a5,8(a0)
  79              	.LVL3:
  80              	.LBB11:
  81              	.LBB12:
  82              		.file 3 "src/../h/KPCB.hpp"
   1:src/../h/KPCB.hpp **** //
   2:src/../h/KPCB.hpp **** // Created by os on 6/22/22.
   3:src/../h/KPCB.hpp **** //
   4:src/../h/KPCB.hpp **** 
   5:src/../h/KPCB.hpp **** #ifndef PROJECT_BASE_V1_1_KPCB_HPP
   6:src/../h/KPCB.hpp **** #define PROJECT_BASE_V1_1_KPCB_HPP
   7:src/../h/KPCB.hpp **** 
   8:src/../h/KPCB.hpp **** #include "../lib/hw.h"
   9:src/../h/KPCB.hpp **** #include "../lib/mem.h"
  10:src/../h/KPCB.hpp **** #include "KScheduler.hpp"
  11:src/../h/KPCB.hpp **** #include "KMemoryAllocator.hpp"
  12:src/../h/KPCB.hpp **** 
  13:src/../h/KPCB.hpp **** class KPCB {
  14:src/../h/KPCB.hpp **** public:
  15:src/../h/KPCB.hpp ****     ~KPCB() { delete[] stack; }
  16:src/../h/KPCB.hpp ****     friend class KScheduler;
  17:src/../h/KPCB.hpp ****     friend class KSemaphore;
  18:src/../h/KPCB.hpp ****     friend class KRiscv;
  19:src/../h/KPCB.hpp ****     friend class KSleep;
  20:src/../h/KPCB.hpp **** 
  21:src/../h/KPCB.hpp ****     void* operator new(size_t size) {
GAS LISTING /tmp/cc6baEiQ.s 			page 4


  22:src/../h/KPCB.hpp ****         size_t sizeBlock = (size + 16) / MEM_BLOCK_SIZE + ((size + 16) % MEM_BLOCK_SIZE ? 1 : 0);
  23:src/../h/KPCB.hpp ****         return KMemoryAllocator::mem_alloc(sizeBlock);
  24:src/../h/KPCB.hpp ****         //return __mem_alloc(size);
  25:src/../h/KPCB.hpp ****     }
  26:src/../h/KPCB.hpp ****     void* operator new[](size_t size) {
  27:src/../h/KPCB.hpp ****         size_t sizeBlock = (size + 16) / MEM_BLOCK_SIZE + ((size + 16) % MEM_BLOCK_SIZE ? 1 : 0);
  28:src/../h/KPCB.hpp ****         return KMemoryAllocator::mem_alloc(sizeBlock);
  29:src/../h/KPCB.hpp ****         //return __mem_alloc(size);
  30:src/../h/KPCB.hpp ****     }
  31:src/../h/KPCB.hpp ****     void operator delete(void* addr) {
  32:src/../h/KPCB.hpp ****         KMemoryAllocator::mem_free(addr);
  33:src/../h/KPCB.hpp ****         //__mem_free(addr);
  34:src/../h/KPCB.hpp ****     }
  35:src/../h/KPCB.hpp ****     void operator delete[](void* addr) {
  36:src/../h/KPCB.hpp ****         KMemoryAllocator::mem_free(addr);
  37:src/../h/KPCB.hpp ****         //__mem_free(addr);
  38:src/../h/KPCB.hpp ****     }
  39:src/../h/KPCB.hpp **** 
  40:src/../h/KPCB.hpp ****     using Body = void (*)(void*);
  41:src/../h/KPCB.hpp ****     static KPCB* createThread(Body body, void* args, void* stek);
  42:src/../h/KPCB.hpp ****     static KPCB* createThread(Body body);
  43:src/../h/KPCB.hpp ****     static void yield();
  44:src/../h/KPCB.hpp ****     static void dispatch();
  45:src/../h/KPCB.hpp ****     static KPCB* running;
  46:src/../h/KPCB.hpp ****     static int counter;
  47:src/../h/KPCB.hpp ****     static int statID;
  48:src/../h/KPCB.hpp **** 
  49:src/../h/KPCB.hpp ****     bool isFinished() const { return finished; }
  50:src/../h/KPCB.hpp ****     bool isSleeping() const { return sleeping; }
  51:src/../h/KPCB.hpp ****     bool isWaiting() const { return waiting; }
  52:src/../h/KPCB.hpp ****     bool isErr() const { return err; }
  53:src/../h/KPCB.hpp ****     void setFinished(bool val) {
  54:src/../h/KPCB.hpp ****         if (finished) return;
  83              		.loc 3 54 9
  84              		.loc 3 54 13 is_stmt 0
  85 001c 03C70703 		lbu	a4,48(a5)
  86              		.loc 3 54 9
  87 0020 63100702 		bnez	a4,.L5
  55:src/../h/KPCB.hpp ****         finished = val;
  88              		.loc 3 55 9 is_stmt 1
  89              		.loc 3 55 18 is_stmt 0
  90 0024 13071000 		li	a4,1
  91 0028 2388E702 		sb	a4,48(a5)
  56:src/../h/KPCB.hpp ****         counter--;
  92              		.loc 3 56 9 is_stmt 1
  93              		.loc 3 56 16 is_stmt 0
  94 002c 17070000 		la	a4,_ZN4KPCB7counterE
  94      03370700 
  95 0034 83270700 		lw	a5,0(a4)
  96              	.LVL4:
  97 0038 9B87F7FF 		addiw	a5,a5,-1
  98 003c 2320F700 		sw	a5,0(a4)
  99              	.LVL5:
 100              	.L5:
 101              	.LBE12:
 102              	.LBE11:
 103              	.LBE10:
GAS LISTING /tmp/cc6baEiQ.s 			page 5


  30:src/syscall_cpp.cpp **** }
 104              		.loc 2 30 1
 105 0040 03348100 		ld	s0,8(sp)
 106              		.cfi_restore 8
 107              		.cfi_def_cfa 2, 16
 108 0044 13010101 		addi	sp,sp,16
 109              		.cfi_def_cfa_offset 0
 110 0048 67800000 		jr	ra
 111              		.cfi_endproc
 112              	.LFE27:
 114              		.globl	_ZN6ThreadD1Ev
 115              		.set	_ZN6ThreadD1Ev,_ZN6ThreadD2Ev
 116              		.align	2
 117              		.globl	_ZN6Thread7wrapperEPv
 119              	_ZN6Thread7wrapperEPv:
 120              	.LFB36:
  31:src/syscall_cpp.cpp **** 
  32:src/syscall_cpp.cpp **** int Thread::start() {
  33:src/syscall_cpp.cpp ****     return myHandle->startIt();
  34:src/syscall_cpp.cpp **** }
  35:src/syscall_cpp.cpp **** 
  36:src/syscall_cpp.cpp **** void Thread::dispatch() {
  37:src/syscall_cpp.cpp ****     thread_dispatch();
  38:src/syscall_cpp.cpp **** }
  39:src/syscall_cpp.cpp **** 
  40:src/syscall_cpp.cpp **** int Thread::sleep(time_t t) {
  41:src/syscall_cpp.cpp ****     return time_sleep(t);
  42:src/syscall_cpp.cpp **** }
  43:src/syscall_cpp.cpp **** 
  44:src/syscall_cpp.cpp **** Thread::Thread() {
  45:src/syscall_cpp.cpp ****     thread_create_CPP(&myHandle, &wrapper, this);
  46:src/syscall_cpp.cpp **** }
  47:src/syscall_cpp.cpp **** 
  48:src/syscall_cpp.cpp **** void Thread::wrapper(void *args) {
 121              		.loc 2 48 34 is_stmt 1
 122              		.cfi_startproc
 123              	.LVL6:
  49:src/syscall_cpp.cpp ****     Thread* thr = (Thread*)args;
 124              		.loc 2 49 5
  50:src/syscall_cpp.cpp ****     if (thr) thr->run();
 125              		.loc 2 50 5
 126 004c 63080502 		beqz	a0,.L11
  48:src/syscall_cpp.cpp ****     Thread* thr = (Thread*)args;
 127              		.loc 2 48 34 is_stmt 0 discriminator 1
 128 0050 130101FF 		addi	sp,sp,-16
 129              		.cfi_def_cfa_offset 16
 130 0054 23341100 		sd	ra,8(sp)
 131 0058 23308100 		sd	s0,0(sp)
 132              		.cfi_offset 1, -8
 133              		.cfi_offset 8, -16
 134 005c 13040101 		addi	s0,sp,16
 135              		.cfi_def_cfa 8, 0
 136              		.loc 2 50 14 is_stmt 1 discriminator 1
 137              		.loc 2 50 23 is_stmt 0 discriminator 1
 138 0060 83370500 		ld	a5,0(a0)
 139 0064 83B70701 		ld	a5,16(a5)
 140              		.loc 2 50 22 discriminator 1
GAS LISTING /tmp/cc6baEiQ.s 			page 6


 141 0068 E7800700 		jalr	a5
 142              	.LVL7:
  51:src/syscall_cpp.cpp **** }
 143              		.loc 2 51 1 discriminator 1
 144 006c 83308100 		ld	ra,8(sp)
 145              		.cfi_restore 1
 146 0070 03340100 		ld	s0,0(sp)
 147              		.cfi_restore 8
 148              		.cfi_def_cfa 2, 16
 149 0074 13010101 		addi	sp,sp,16
 150              		.cfi_def_cfa_offset 0
 151 0078 67800000 		jr	ra
 152              	.LVL8:
 153              	.L11:
 154 007c 67800000 		ret
 155              		.cfi_endproc
 156              	.LFE36:
 158              		.section	.text._ZN14PeriodicThreadD2Ev,"axG",@progbits,_ZN14PeriodicThreadD5Ev,comdat
 159              		.align	2
 160              		.weak	_ZN14PeriodicThreadD2Ev
 162              	_ZN14PeriodicThreadD2Ev:
 163              	.LFB53:
  40:src/../h/syscall_cpp.h **** protected:
 164              		.loc 1 40 7 is_stmt 1
 165              		.cfi_startproc
 166              	.LVL9:
 167 0000 130101FF 		addi	sp,sp,-16
 168              		.cfi_def_cfa_offset 16
 169 0004 23341100 		sd	ra,8(sp)
 170 0008 23308100 		sd	s0,0(sp)
 171              		.cfi_offset 1, -8
 172              		.cfi_offset 8, -16
 173 000c 13040101 		addi	s0,sp,16
 174              		.cfi_def_cfa 8, 0
 175              	.LBB13:
  40:src/../h/syscall_cpp.h **** protected:
 176              		.loc 1 40 7 is_stmt 0
 177 0010 97070000 		lla	a5,_ZTV14PeriodicThread+16
 177      93870700 
 178 0018 2330F500 		sd	a5,0(a0)
 179 001c 97000000 		call	_ZN6ThreadD2Ev
 179      E7800000 
 180              	.LVL10:
 181              	.LBE13:
 182 0024 83308100 		ld	ra,8(sp)
 183              		.cfi_restore 1
 184 0028 03340100 		ld	s0,0(sp)
 185              		.cfi_restore 8
 186              		.cfi_def_cfa 2, 16
 187 002c 13010101 		addi	sp,sp,16
 188              		.cfi_def_cfa_offset 0
 189 0030 67800000 		jr	ra
 190              		.cfi_endproc
 191              	.LFE53:
 193              		.weak	_ZN14PeriodicThreadD1Ev
 194              		.set	_ZN14PeriodicThreadD1Ev,_ZN14PeriodicThreadD2Ev
 195              		.text
GAS LISTING /tmp/cc6baEiQ.s 			page 7


 196              		.align	2
 197              		.globl	_ZN14PeriodicThread15wrapperPeriodicEPv
 199              	_ZN14PeriodicThread15wrapperPeriodicEPv:
 200              	.LFB51:
  52:src/syscall_cpp.cpp **** 
  53:src/syscall_cpp.cpp **** Semaphore::Semaphore(unsigned int init) {
  54:src/syscall_cpp.cpp ****     sem_open(&myHandle, init);
  55:src/syscall_cpp.cpp **** }
  56:src/syscall_cpp.cpp **** 
  57:src/syscall_cpp.cpp **** Semaphore::~Semaphore() {
  58:src/syscall_cpp.cpp ****     sem_close(myHandle);
  59:src/syscall_cpp.cpp **** }
  60:src/syscall_cpp.cpp **** 
  61:src/syscall_cpp.cpp **** int Semaphore::wait() {
  62:src/syscall_cpp.cpp ****     return sem_wait(myHandle);
  63:src/syscall_cpp.cpp **** }
  64:src/syscall_cpp.cpp **** 
  65:src/syscall_cpp.cpp **** int Semaphore::signal() {
  66:src/syscall_cpp.cpp ****     return sem_signal(myHandle);
  67:src/syscall_cpp.cpp **** }
  68:src/syscall_cpp.cpp **** 
  69:src/syscall_cpp.cpp **** char Console::getc() {
  70:src/syscall_cpp.cpp ****     return ::getc();
  71:src/syscall_cpp.cpp **** }
  72:src/syscall_cpp.cpp **** 
  73:src/syscall_cpp.cpp **** void Console::putc(char c) {
  74:src/syscall_cpp.cpp ****     ::putc(c);
  75:src/syscall_cpp.cpp **** }
  76:src/syscall_cpp.cpp **** 
  77:src/syscall_cpp.cpp **** PeriodicThread::PeriodicThread(time_t period)
  78:src/syscall_cpp.cpp ****     : Thread(&wrapperPeriodic, new pStruct({this, period})) {
  79:src/syscall_cpp.cpp **** 
  80:src/syscall_cpp.cpp **** }
  81:src/syscall_cpp.cpp **** 
  82:src/syscall_cpp.cpp **** void PeriodicThread::wrapperPeriodic(void *args) {
 201              		.loc 2 82 50 is_stmt 1
 202              		.cfi_startproc
 203              	.LVL11:
 204 0080 130101FE 		addi	sp,sp,-32
 205              		.cfi_def_cfa_offset 32
 206 0084 233C1100 		sd	ra,24(sp)
 207 0088 23388100 		sd	s0,16(sp)
 208 008c 23349100 		sd	s1,8(sp)
 209              		.cfi_offset 1, -8
 210              		.cfi_offset 8, -16
 211              		.cfi_offset 9, -24
 212 0090 13040102 		addi	s0,sp,32
 213              		.cfi_def_cfa 8, 0
 214 0094 93040500 		mv	s1,a0
  83:src/syscall_cpp.cpp ****     pStruct* pstr = (pStruct*) args;
 215              		.loc 2 83 5
 216              	.LVL12:
  84:src/syscall_cpp.cpp ****     if (pstr) {
 217              		.loc 2 84 5
 218 0098 63020502 		beqz	a0,.L16
 219              	.LVL13:
 220              	.L18:
GAS LISTING /tmp/cc6baEiQ.s 			page 8


  85:src/syscall_cpp.cpp ****         while (true) {
 221              		.loc 2 85 9 discriminator 1
  86:src/syscall_cpp.cpp ****             pstr->pthr->periodicActivation();
 222              		.loc 2 86 13 discriminator 1
 223              		.loc 2 86 19 is_stmt 0 discriminator 1
 224 009c 03B50400 		ld	a0,0(s1)
 225              		.loc 2 86 44 discriminator 1
 226 00a0 83370500 		ld	a5,0(a0)
 227 00a4 83B78701 		ld	a5,24(a5)
 228              		.loc 2 86 43 discriminator 1
 229 00a8 E7800700 		jalr	a5
 230              	.LVL14:
  87:src/syscall_cpp.cpp ****             time_sleep(pstr->pperiod);
 231              		.loc 2 87 13 is_stmt 1 discriminator 1
 232              		.loc 2 87 23 is_stmt 0 discriminator 1
 233 00ac 03B58400 		ld	a0,8(s1)
 234 00b0 97000000 		call	_Z10time_sleepm@plt
 234      E7800000 
 235              	.LVL15:
  85:src/syscall_cpp.cpp ****         while (true) {
 236              		.loc 2 85 9 is_stmt 1 discriminator 1
 237 00b8 6FF05FFE 		j	.L18
 238              	.L16:
  88:src/syscall_cpp.cpp ****         }
  89:src/syscall_cpp.cpp ****     }
  90:src/syscall_cpp.cpp **** }
 239              		.loc 2 90 1 is_stmt 0
 240 00bc 83308101 		ld	ra,24(sp)
 241              		.cfi_restore 1
 242 00c0 03340101 		ld	s0,16(sp)
 243              		.cfi_restore 8
 244              		.cfi_def_cfa 2, 32
 245 00c4 83348100 		ld	s1,8(sp)
 246              		.cfi_restore 9
 247              	.LVL16:
 248 00c8 13010102 		addi	sp,sp,32
 249              		.cfi_def_cfa_offset 0
 250 00cc 67800000 		jr	ra
 251              		.cfi_endproc
 252              	.LFE51:
 254              		.align	2
 255              		.globl	_ZN9SemaphoreD2Ev
 257              	_ZN9SemaphoreD2Ev:
 258              	.LFB41:
  57:src/syscall_cpp.cpp ****     sem_close(myHandle);
 259              		.loc 2 57 1 is_stmt 1
 260              		.cfi_startproc
 261              		.cfi_personality 0x9b,DW.ref.__gxx_personality_v0
 262              		.cfi_lsda 0x1b,.LLSDA41
 263              	.LVL17:
 264 00d0 130101FF 		addi	sp,sp,-16
 265              		.cfi_def_cfa_offset 16
 266 00d4 23341100 		sd	ra,8(sp)
 267 00d8 23308100 		sd	s0,0(sp)
 268              		.cfi_offset 1, -8
 269              		.cfi_offset 8, -16
 270 00dc 13040101 		addi	s0,sp,16
GAS LISTING /tmp/cc6baEiQ.s 			page 9


 271              		.cfi_def_cfa 8, 0
 272              	.LBB14:
  57:src/syscall_cpp.cpp ****     sem_close(myHandle);
 273              		.loc 2 57 23 is_stmt 0
 274 00e0 97070000 		lla	a5,_ZTV9Semaphore+16
 274      93870700 
 275 00e8 2330F500 		sd	a5,0(a0)
  58:src/syscall_cpp.cpp **** }
 276              		.loc 2 58 5 is_stmt 1
  58:src/syscall_cpp.cpp **** }
 277              		.loc 2 58 14 is_stmt 0
 278 00ec 03358500 		ld	a0,8(a0)
 279              	.LVL18:
 280 00f0 97000000 		call	_Z9sem_closeP10KSemaphore@plt
 280      E7800000 
 281              	.LVL19:
 282              	.LBE14:
  59:src/syscall_cpp.cpp **** 
 283              		.loc 2 59 1
 284 00f8 83308100 		ld	ra,8(sp)
 285              		.cfi_restore 1
 286 00fc 03340100 		ld	s0,0(sp)
 287              		.cfi_restore 8
 288              		.cfi_def_cfa 2, 16
 289 0100 13010101 		addi	sp,sp,16
 290              		.cfi_def_cfa_offset 0
 291 0104 67800000 		jr	ra
 292              		.cfi_endproc
 293              	.LFE41:
 294              		.globl	__gxx_personality_v0
 295              		.section	.gcc_except_table,"a",@progbits
 296              	.LLSDA41:
 297 0000 FF       		.byte	0xff
 298 0001 FF       		.byte	0xff
 299 0002 03       		.byte	0x3
 300 0003 00       		.byte	0
 301              		.text
 303              		.globl	_ZN9SemaphoreD1Ev
 304              		.set	_ZN9SemaphoreD1Ev,_ZN9SemaphoreD2Ev
 305              		.align	2
 306              		.globl	_Znwm
 308              	_Znwm:
 309              	.LFB19:
   8:src/syscall_cpp.cpp ****     return mem_alloc(size);
 310              		.loc 2 8 33 is_stmt 1
 311              		.cfi_startproc
 312              	.LVL20:
 313 0108 130101FF 		addi	sp,sp,-16
 314              		.cfi_def_cfa_offset 16
 315 010c 23341100 		sd	ra,8(sp)
 316 0110 23308100 		sd	s0,0(sp)
 317              		.cfi_offset 1, -8
 318              		.cfi_offset 8, -16
 319 0114 13040101 		addi	s0,sp,16
 320              		.cfi_def_cfa 8, 0
   9:src/syscall_cpp.cpp **** }
 321              		.loc 2 9 5
GAS LISTING /tmp/cc6baEiQ.s 			page 10


   9:src/syscall_cpp.cpp **** }
 322              		.loc 2 9 21 is_stmt 0
 323 0118 97000000 		call	_Z9mem_allocm@plt
 323      E7800000 
 324              	.LVL21:
  10:src/syscall_cpp.cpp **** 
 325              		.loc 2 10 1
 326 0120 83308100 		ld	ra,8(sp)
 327              		.cfi_restore 1
 328 0124 03340100 		ld	s0,0(sp)
 329              		.cfi_restore 8
 330              		.cfi_def_cfa 2, 16
 331 0128 13010101 		addi	sp,sp,16
 332              		.cfi_def_cfa_offset 0
 333 012c 67800000 		jr	ra
 334              		.cfi_endproc
 335              	.LFE19:
 337              		.align	2
 338              		.globl	_ZdlPv
 340              	_ZdlPv:
 341              	.LFB20:
  12:src/syscall_cpp.cpp ****     mem_free(addr);
 342              		.loc 2 12 35 is_stmt 1
 343              		.cfi_startproc
 344              	.LVL22:
 345 0130 130101FF 		addi	sp,sp,-16
 346              		.cfi_def_cfa_offset 16
 347 0134 23341100 		sd	ra,8(sp)
 348 0138 23308100 		sd	s0,0(sp)
 349              		.cfi_offset 1, -8
 350              		.cfi_offset 8, -16
 351 013c 13040101 		addi	s0,sp,16
 352              		.cfi_def_cfa 8, 0
  13:src/syscall_cpp.cpp **** }
 353              		.loc 2 13 5
  13:src/syscall_cpp.cpp **** }
 354              		.loc 2 13 13 is_stmt 0
 355 0140 97000000 		call	_Z8mem_freePv@plt
 355      E7800000 
 356              	.LVL23:
  14:src/syscall_cpp.cpp **** 
 357              		.loc 2 14 1
 358 0148 83308100 		ld	ra,8(sp)
 359              		.cfi_restore 1
 360 014c 03340100 		ld	s0,0(sp)
 361              		.cfi_restore 8
 362              		.cfi_def_cfa 2, 16
 363 0150 13010101 		addi	sp,sp,16
 364              		.cfi_def_cfa_offset 0
 365 0154 67800000 		jr	ra
 366              		.cfi_endproc
 367              	.LFE20:
 369              		.align	2
 370              		.globl	_ZN6ThreadD0Ev
 372              	_ZN6ThreadD0Ev:
 373              	.LFB29:
  28:src/syscall_cpp.cpp ****     myHandle->setFinished(true);
GAS LISTING /tmp/cc6baEiQ.s 			page 11


 374              		.loc 2 28 1 is_stmt 1
 375              		.cfi_startproc
 376              	.LVL24:
 377 0158 130101FE 		addi	sp,sp,-32
 378              		.cfi_def_cfa_offset 32
 379 015c 233C1100 		sd	ra,24(sp)
 380 0160 23388100 		sd	s0,16(sp)
 381 0164 23349100 		sd	s1,8(sp)
 382              		.cfi_offset 1, -8
 383              		.cfi_offset 8, -16
 384              		.cfi_offset 9, -24
 385 0168 13040102 		addi	s0,sp,32
 386              		.cfi_def_cfa 8, 0
 387 016c 93040500 		mv	s1,a0
  30:src/syscall_cpp.cpp **** 
 388              		.loc 2 30 1 is_stmt 0
 389 0170 97000000 		call	_ZN6ThreadD1Ev
 389      E7800000 
 390              	.LVL25:
 391 0178 13850400 		mv	a0,s1
 392 017c 97000000 		call	_ZdlPv
 392      E7800000 
 393              	.LVL26:
 394 0184 83308101 		ld	ra,24(sp)
 395              		.cfi_restore 1
 396 0188 03340101 		ld	s0,16(sp)
 397              		.cfi_restore 8
 398              		.cfi_def_cfa 2, 32
 399 018c 83348100 		ld	s1,8(sp)
 400              		.cfi_restore 9
 401              	.LVL27:
 402 0190 13010102 		addi	sp,sp,32
 403              		.cfi_def_cfa_offset 0
 404 0194 67800000 		jr	ra
 405              		.cfi_endproc
 406              	.LFE29:
 408              		.align	2
 409              		.globl	_ZN9SemaphoreD0Ev
 411              	_ZN9SemaphoreD0Ev:
 412              	.LFB43:
  57:src/syscall_cpp.cpp ****     sem_close(myHandle);
 413              		.loc 2 57 1 is_stmt 1
 414              		.cfi_startproc
 415              	.LVL28:
 416 0198 130101FE 		addi	sp,sp,-32
 417              		.cfi_def_cfa_offset 32
 418 019c 233C1100 		sd	ra,24(sp)
 419 01a0 23388100 		sd	s0,16(sp)
 420 01a4 23349100 		sd	s1,8(sp)
 421              		.cfi_offset 1, -8
 422              		.cfi_offset 8, -16
 423              		.cfi_offset 9, -24
 424 01a8 13040102 		addi	s0,sp,32
 425              		.cfi_def_cfa 8, 0
 426 01ac 93040500 		mv	s1,a0
  59:src/syscall_cpp.cpp **** 
 427              		.loc 2 59 1 is_stmt 0
GAS LISTING /tmp/cc6baEiQ.s 			page 12


 428 01b0 97000000 		call	_ZN9SemaphoreD1Ev
 428      E7800000 
 429              	.LVL29:
 430 01b8 13850400 		mv	a0,s1
 431 01bc 97000000 		call	_ZdlPv
 431      E7800000 
 432              	.LVL30:
 433 01c4 83308101 		ld	ra,24(sp)
 434              		.cfi_restore 1
 435 01c8 03340101 		ld	s0,16(sp)
 436              		.cfi_restore 8
 437              		.cfi_def_cfa 2, 32
 438 01cc 83348100 		ld	s1,8(sp)
 439              		.cfi_restore 9
 440              	.LVL31:
 441 01d0 13010102 		addi	sp,sp,32
 442              		.cfi_def_cfa_offset 0
 443 01d4 67800000 		jr	ra
 444              		.cfi_endproc
 445              	.LFE43:
 447              		.section	.text._ZN14PeriodicThreadD0Ev,"axG",@progbits,_ZN14PeriodicThreadD5Ev,comdat
 448              		.align	2
 449              		.weak	_ZN14PeriodicThreadD0Ev
 451              	_ZN14PeriodicThreadD0Ev:
 452              	.LFB55:
  40:src/../h/syscall_cpp.h **** protected:
 453              		.loc 1 40 7 is_stmt 1
 454              		.cfi_startproc
 455              	.LVL32:
 456 0000 130101FE 		addi	sp,sp,-32
 457              		.cfi_def_cfa_offset 32
 458 0004 233C1100 		sd	ra,24(sp)
 459 0008 23388100 		sd	s0,16(sp)
 460 000c 23349100 		sd	s1,8(sp)
 461              		.cfi_offset 1, -8
 462              		.cfi_offset 8, -16
 463              		.cfi_offset 9, -24
 464 0010 13040102 		addi	s0,sp,32
 465              		.cfi_def_cfa 8, 0
 466 0014 93040500 		mv	s1,a0
 467              	.LVL33:
 468              	.LBB15:
 469              	.LBB16:
  40:src/../h/syscall_cpp.h **** protected:
 470              		.loc 1 40 7 is_stmt 0
 471 0018 97070000 		lla	a5,_ZTV14PeriodicThread+16
 471      93870700 
 472 0020 2330F500 		sd	a5,0(a0)
 473 0024 97000000 		call	_ZN6ThreadD2Ev
 473      E7800000 
 474              	.LVL34:
 475              	.LBE16:
 476              	.LBE15:
 477 002c 13850400 		mv	a0,s1
 478 0030 97000000 		call	_ZdlPv
 478      E7800000 
 479              	.LVL35:
GAS LISTING /tmp/cc6baEiQ.s 			page 13


 480 0038 83308101 		ld	ra,24(sp)
 481              		.cfi_restore 1
 482 003c 03340101 		ld	s0,16(sp)
 483              		.cfi_restore 8
 484              		.cfi_def_cfa 2, 32
 485 0040 83348100 		ld	s1,8(sp)
 486              		.cfi_restore 9
 487              	.LVL36:
 488 0044 13010102 		addi	sp,sp,32
 489              		.cfi_def_cfa_offset 0
 490 0048 67800000 		jr	ra
 491              		.cfi_endproc
 492              	.LFE55:
 494              		.text
 495              		.align	2
 496              		.globl	_Znam
 498              	_Znam:
 499              	.LFB21:
  16:src/syscall_cpp.cpp ****     return mem_alloc(size);
 500              		.loc 2 16 36 is_stmt 1
 501              		.cfi_startproc
 502              	.LVL37:
 503 01d8 130101FF 		addi	sp,sp,-16
 504              		.cfi_def_cfa_offset 16
 505 01dc 23341100 		sd	ra,8(sp)
 506 01e0 23308100 		sd	s0,0(sp)
 507              		.cfi_offset 1, -8
 508              		.cfi_offset 8, -16
 509 01e4 13040101 		addi	s0,sp,16
 510              		.cfi_def_cfa 8, 0
  17:src/syscall_cpp.cpp **** }
 511              		.loc 2 17 5
  17:src/syscall_cpp.cpp **** }
 512              		.loc 2 17 21 is_stmt 0
 513 01e8 97000000 		call	_Z9mem_allocm@plt
 513      E7800000 
 514              	.LVL38:
  18:src/syscall_cpp.cpp **** 
 515              		.loc 2 18 1
 516 01f0 83308100 		ld	ra,8(sp)
 517              		.cfi_restore 1
 518 01f4 03340100 		ld	s0,0(sp)
 519              		.cfi_restore 8
 520              		.cfi_def_cfa 2, 16
 521 01f8 13010101 		addi	sp,sp,16
 522              		.cfi_def_cfa_offset 0
 523 01fc 67800000 		jr	ra
 524              		.cfi_endproc
 525              	.LFE21:
 527              		.align	2
 528              		.globl	_ZdaPv
 530              	_ZdaPv:
 531              	.LFB22:
  20:src/syscall_cpp.cpp ****     mem_free(addr);
 532              		.loc 2 20 37 is_stmt 1
 533              		.cfi_startproc
 534              	.LVL39:
GAS LISTING /tmp/cc6baEiQ.s 			page 14


 535 0200 130101FF 		addi	sp,sp,-16
 536              		.cfi_def_cfa_offset 16
 537 0204 23341100 		sd	ra,8(sp)
 538 0208 23308100 		sd	s0,0(sp)
 539              		.cfi_offset 1, -8
 540              		.cfi_offset 8, -16
 541 020c 13040101 		addi	s0,sp,16
 542              		.cfi_def_cfa 8, 0
  21:src/syscall_cpp.cpp **** }
 543              		.loc 2 21 5
  21:src/syscall_cpp.cpp **** }
 544              		.loc 2 21 13 is_stmt 0
 545 0210 97000000 		call	_Z8mem_freePv@plt
 545      E7800000 
 546              	.LVL40:
  22:src/syscall_cpp.cpp **** 
 547              		.loc 2 22 1
 548 0218 83308100 		ld	ra,8(sp)
 549              		.cfi_restore 1
 550 021c 03340100 		ld	s0,0(sp)
 551              		.cfi_restore 8
 552              		.cfi_def_cfa 2, 16
 553 0220 13010101 		addi	sp,sp,16
 554              		.cfi_def_cfa_offset 0
 555 0224 67800000 		jr	ra
 556              		.cfi_endproc
 557              	.LFE22:
 559              		.align	2
 560              		.globl	_ZN6ThreadC2EPFvPvES0_
 562              	_ZN6ThreadC2EPFvPvES0_:
 563              	.LFB24:
  24:src/syscall_cpp.cpp ****     thread_create_CPP(&myHandle, body, arg);
 564              		.loc 2 24 1 is_stmt 1
 565              		.cfi_startproc
 566              	.LVL41:
 567 0228 130101FF 		addi	sp,sp,-16
 568              		.cfi_def_cfa_offset 16
 569 022c 23341100 		sd	ra,8(sp)
 570 0230 23308100 		sd	s0,0(sp)
 571              		.cfi_offset 1, -8
 572              		.cfi_offset 8, -16
 573 0234 13040101 		addi	s0,sp,16
 574              		.cfi_def_cfa 8, 0
 575              	.LBB17:
  24:src/syscall_cpp.cpp ****     thread_create_CPP(&myHandle, body, arg);
 576              		.loc 2 24 47 is_stmt 0
 577 0238 97070000 		lla	a5,_ZTV6Thread+16
 577      93870700 
 578 0240 2330F500 		sd	a5,0(a0)
  25:src/syscall_cpp.cpp **** }
 579              		.loc 2 25 5 is_stmt 1
  25:src/syscall_cpp.cpp **** }
 580              		.loc 2 25 22 is_stmt 0
 581 0244 13058500 		addi	a0,a0,8
 582              	.LVL42:
 583 0248 97000000 		call	_Z17thread_create_CPPPP4KPCBPFvPvES2_@plt
 583      E7800000 
GAS LISTING /tmp/cc6baEiQ.s 			page 15


 584              	.LVL43:
 585              	.LBE17:
  26:src/syscall_cpp.cpp **** 
 586              		.loc 2 26 1
 587 0250 83308100 		ld	ra,8(sp)
 588              		.cfi_restore 1
 589 0254 03340100 		ld	s0,0(sp)
 590              		.cfi_restore 8
 591              		.cfi_def_cfa 2, 16
 592 0258 13010101 		addi	sp,sp,16
 593              		.cfi_def_cfa_offset 0
 594 025c 67800000 		jr	ra
 595              		.cfi_endproc
 596              	.LFE24:
 598              		.globl	_ZN6ThreadC1EPFvPvES0_
 599              		.set	_ZN6ThreadC1EPFvPvES0_,_ZN6ThreadC2EPFvPvES0_
 600              		.align	2
 601              		.globl	_ZN6Thread5startEv
 603              	_ZN6Thread5startEv:
 604              	.LFB30:
  32:src/syscall_cpp.cpp ****     return myHandle->startIt();
 605              		.loc 2 32 21 is_stmt 1
 606              		.cfi_startproc
 607              	.LVL44:
  33:src/syscall_cpp.cpp **** }
 608              		.loc 2 33 5
  33:src/syscall_cpp.cpp **** }
 609              		.loc 2 33 12 is_stmt 0
 610 0260 03358500 		ld	a0,8(a0)
 611              	.LVL45:
 612              	.LBB18:
 613              	.LBB19:
  57:src/../h/KPCB.hpp ****     }
  58:src/../h/KPCB.hpp ****     void setSleeping(bool val) { sleeping = val; }
  59:src/../h/KPCB.hpp ****     void setWaiting(bool val) { waiting = val; }
  60:src/../h/KPCB.hpp ****     void setErr(bool val) { err = val; }
  61:src/../h/KPCB.hpp ****     int startIt() {
  62:src/../h/KPCB.hpp ****         if (started) return -1;
 614              		.loc 3 62 9 is_stmt 1
 615              		.loc 3 62 13 is_stmt 0
 616 0264 83474503 		lbu	a5,52(a0)
 617              		.loc 3 62 9
 618 0268 639C0702 		bnez	a5,.L40
 619              	.LBE19:
 620              	.LBE18:
  32:src/syscall_cpp.cpp ****     return myHandle->startIt();
 621              		.loc 2 32 21
 622 026c 130101FF 		addi	sp,sp,-16
 623              		.cfi_def_cfa_offset 16
 624 0270 23341100 		sd	ra,8(sp)
 625 0274 23308100 		sd	s0,0(sp)
 626              		.cfi_offset 1, -8
 627              		.cfi_offset 8, -16
 628 0278 13040101 		addi	s0,sp,16
 629              		.cfi_def_cfa 8, 0
 630              	.LBB22:
 631              	.LBB20:
GAS LISTING /tmp/cc6baEiQ.s 			page 16


  63:src/../h/KPCB.hpp ****         started = true;
 632              		.loc 3 63 9 is_stmt 1
 633              		.loc 3 63 17 is_stmt 0
 634 027c 93071000 		li	a5,1
 635 0280 230AF502 		sb	a5,52(a0)
  64:src/../h/KPCB.hpp ****         KScheduler::put(this);
 636              		.loc 3 64 9 is_stmt 1
 637              		.loc 3 64 24 is_stmt 0
 638 0284 97000000 		call	_ZN10KScheduler3putEP4KPCB@plt
 638      E7800000 
 639              	.LVL46:
  65:src/../h/KPCB.hpp ****         return 0;
 640              		.loc 3 65 9 is_stmt 1
 641              		.loc 3 65 16 is_stmt 0
 642 028c 13050000 		li	a0,0
 643              	.LBE20:
 644              	.LBE22:
  34:src/syscall_cpp.cpp **** 
 645              		.loc 2 34 1
 646 0290 83308100 		ld	ra,8(sp)
 647              		.cfi_restore 1
 648 0294 03340100 		ld	s0,0(sp)
 649              		.cfi_restore 8
 650              		.cfi_def_cfa 2, 16
 651 0298 13010101 		addi	sp,sp,16
 652              		.cfi_def_cfa_offset 0
 653 029c 67800000 		jr	ra
 654              	.LVL47:
 655              	.L40:
 656              	.LBB23:
 657              	.LBB21:
  62:src/../h/KPCB.hpp ****         started = true;
 658              		.loc 3 62 30
 659 02a0 1305F0FF 		li	a0,-1
 660              	.LVL48:
 661              	.LBE21:
 662              	.LBE23:
  34:src/syscall_cpp.cpp **** 
 663              		.loc 2 34 1
 664 02a4 67800000 		ret
 665              		.cfi_endproc
 666              	.LFE30:
 668              		.align	2
 669              		.globl	_ZN6Thread8dispatchEv
 671              	_ZN6Thread8dispatchEv:
 672              	.LFB31:
  36:src/syscall_cpp.cpp ****     thread_dispatch();
 673              		.loc 2 36 25 is_stmt 1
 674              		.cfi_startproc
 675 02a8 130101FF 		addi	sp,sp,-16
 676              		.cfi_def_cfa_offset 16
 677 02ac 23341100 		sd	ra,8(sp)
 678 02b0 23308100 		sd	s0,0(sp)
 679              		.cfi_offset 1, -8
 680              		.cfi_offset 8, -16
 681 02b4 13040101 		addi	s0,sp,16
 682              		.cfi_def_cfa 8, 0
GAS LISTING /tmp/cc6baEiQ.s 			page 17


  37:src/syscall_cpp.cpp **** }
 683              		.loc 2 37 5
  37:src/syscall_cpp.cpp **** }
 684              		.loc 2 37 20 is_stmt 0
 685 02b8 97000000 		call	_Z15thread_dispatchv@plt
 685      E7800000 
 686              	.LVL49:
  38:src/syscall_cpp.cpp **** 
 687              		.loc 2 38 1
 688 02c0 83308100 		ld	ra,8(sp)
 689              		.cfi_restore 1
 690 02c4 03340100 		ld	s0,0(sp)
 691              		.cfi_restore 8
 692              		.cfi_def_cfa 2, 16
 693 02c8 13010101 		addi	sp,sp,16
 694              		.cfi_def_cfa_offset 0
 695 02cc 67800000 		jr	ra
 696              		.cfi_endproc
 697              	.LFE31:
 699              		.align	2
 700              		.globl	_ZN6Thread5sleepEm
 702              	_ZN6Thread5sleepEm:
 703              	.LFB32:
  40:src/syscall_cpp.cpp ****     return time_sleep(t);
 704              		.loc 2 40 29 is_stmt 1
 705              		.cfi_startproc
 706              	.LVL50:
 707 02d0 130101FF 		addi	sp,sp,-16
 708              		.cfi_def_cfa_offset 16
 709 02d4 23341100 		sd	ra,8(sp)
 710 02d8 23308100 		sd	s0,0(sp)
 711              		.cfi_offset 1, -8
 712              		.cfi_offset 8, -16
 713 02dc 13040101 		addi	s0,sp,16
 714              		.cfi_def_cfa 8, 0
  41:src/syscall_cpp.cpp **** }
 715              		.loc 2 41 5
  41:src/syscall_cpp.cpp **** }
 716              		.loc 2 41 22 is_stmt 0
 717 02e0 97000000 		call	_Z10time_sleepm@plt
 717      E7800000 
 718              	.LVL51:
  42:src/syscall_cpp.cpp **** 
 719              		.loc 2 42 1
 720 02e8 83308100 		ld	ra,8(sp)
 721              		.cfi_restore 1
 722 02ec 03340100 		ld	s0,0(sp)
 723              		.cfi_restore 8
 724              		.cfi_def_cfa 2, 16
 725 02f0 13010101 		addi	sp,sp,16
 726              		.cfi_def_cfa_offset 0
 727 02f4 67800000 		jr	ra
 728              		.cfi_endproc
 729              	.LFE32:
 731              		.align	2
 732              		.globl	_ZN6ThreadC2Ev
 734              	_ZN6ThreadC2Ev:
GAS LISTING /tmp/cc6baEiQ.s 			page 18


 735              	.LFB34:
  44:src/syscall_cpp.cpp ****     thread_create_CPP(&myHandle, &wrapper, this);
 736              		.loc 2 44 1 is_stmt 1
 737              		.cfi_startproc
 738              	.LVL52:
 739 02f8 130101FF 		addi	sp,sp,-16
 740              		.cfi_def_cfa_offset 16
 741 02fc 23341100 		sd	ra,8(sp)
 742 0300 23308100 		sd	s0,0(sp)
 743              		.cfi_offset 1, -8
 744              		.cfi_offset 8, -16
 745 0304 13040101 		addi	s0,sp,16
 746              		.cfi_def_cfa 8, 0
 747              	.LBB24:
  44:src/syscall_cpp.cpp ****     thread_create_CPP(&myHandle, &wrapper, this);
 748              		.loc 2 44 16 is_stmt 0
 749 0308 97070000 		lla	a5,_ZTV6Thread+16
 749      93870700 
 750 0310 2330F500 		sd	a5,0(a0)
  45:src/syscall_cpp.cpp **** }
 751              		.loc 2 45 5 is_stmt 1
  45:src/syscall_cpp.cpp **** }
 752              		.loc 2 45 22 is_stmt 0
 753 0314 13060500 		mv	a2,a0
 754 0318 97050000 		lla	a1,_ZN6Thread7wrapperEPv
 754      93850500 
 755 0320 13058500 		addi	a0,a0,8
 756              	.LVL53:
 757 0324 97000000 		call	_Z17thread_create_CPPPP4KPCBPFvPvES2_@plt
 757      E7800000 
 758              	.LVL54:
 759              	.LBE24:
  46:src/syscall_cpp.cpp **** 
 760              		.loc 2 46 1
 761 032c 83308100 		ld	ra,8(sp)
 762              		.cfi_restore 1
 763 0330 03340100 		ld	s0,0(sp)
 764              		.cfi_restore 8
 765              		.cfi_def_cfa 2, 16
 766 0334 13010101 		addi	sp,sp,16
 767              		.cfi_def_cfa_offset 0
 768 0338 67800000 		jr	ra
 769              		.cfi_endproc
 770              	.LFE34:
 772              		.globl	_ZN6ThreadC1Ev
 773              		.set	_ZN6ThreadC1Ev,_ZN6ThreadC2Ev
 774              		.align	2
 775              		.globl	_ZN9SemaphoreC2Ej
 777              	_ZN9SemaphoreC2Ej:
 778              	.LFB38:
  53:src/syscall_cpp.cpp ****     sem_open(&myHandle, init);
 779              		.loc 2 53 1 is_stmt 1
 780              		.cfi_startproc
 781              	.LVL55:
 782 033c 130101FF 		addi	sp,sp,-16
 783              		.cfi_def_cfa_offset 16
 784 0340 23341100 		sd	ra,8(sp)
GAS LISTING /tmp/cc6baEiQ.s 			page 19


 785 0344 23308100 		sd	s0,0(sp)
 786              		.cfi_offset 1, -8
 787              		.cfi_offset 8, -16
 788 0348 13040101 		addi	s0,sp,16
 789              		.cfi_def_cfa 8, 0
 790              	.LBB25:
  53:src/syscall_cpp.cpp ****     sem_open(&myHandle, init);
 791              		.loc 2 53 39 is_stmt 0
 792 034c 97070000 		lla	a5,_ZTV9Semaphore+16
 792      93870700 
 793 0354 2330F500 		sd	a5,0(a0)
  54:src/syscall_cpp.cpp **** }
 794              		.loc 2 54 5 is_stmt 1
  54:src/syscall_cpp.cpp **** }
 795              		.loc 2 54 13 is_stmt 0
 796 0358 13058500 		addi	a0,a0,8
 797              	.LVL56:
 798 035c 97000000 		call	_Z8sem_openPP10KSemaphorej@plt
 798      E7800000 
 799              	.LVL57:
 800              	.LBE25:
  55:src/syscall_cpp.cpp **** 
 801              		.loc 2 55 1
 802 0364 83308100 		ld	ra,8(sp)
 803              		.cfi_restore 1
 804 0368 03340100 		ld	s0,0(sp)
 805              		.cfi_restore 8
 806              		.cfi_def_cfa 2, 16
 807 036c 13010101 		addi	sp,sp,16
 808              		.cfi_def_cfa_offset 0
 809 0370 67800000 		jr	ra
 810              		.cfi_endproc
 811              	.LFE38:
 813              		.globl	_ZN9SemaphoreC1Ej
 814              		.set	_ZN9SemaphoreC1Ej,_ZN9SemaphoreC2Ej
 815              		.align	2
 816              		.globl	_ZN9Semaphore4waitEv
 818              	_ZN9Semaphore4waitEv:
 819              	.LFB44:
  61:src/syscall_cpp.cpp ****     return sem_wait(myHandle);
 820              		.loc 2 61 23 is_stmt 1
 821              		.cfi_startproc
 822              	.LVL58:
 823 0374 130101FF 		addi	sp,sp,-16
 824              		.cfi_def_cfa_offset 16
 825 0378 23341100 		sd	ra,8(sp)
 826 037c 23308100 		sd	s0,0(sp)
 827              		.cfi_offset 1, -8
 828              		.cfi_offset 8, -16
 829 0380 13040101 		addi	s0,sp,16
 830              		.cfi_def_cfa 8, 0
  62:src/syscall_cpp.cpp **** }
 831              		.loc 2 62 5
  62:src/syscall_cpp.cpp **** }
 832              		.loc 2 62 20 is_stmt 0
 833 0384 03358500 		ld	a0,8(a0)
 834              	.LVL59:
GAS LISTING /tmp/cc6baEiQ.s 			page 20


 835 0388 97000000 		call	_Z8sem_waitP10KSemaphore@plt
 835      E7800000 
 836              	.LVL60:
  63:src/syscall_cpp.cpp **** 
 837              		.loc 2 63 1
 838 0390 83308100 		ld	ra,8(sp)
 839              		.cfi_restore 1
 840 0394 03340100 		ld	s0,0(sp)
 841              		.cfi_restore 8
 842              		.cfi_def_cfa 2, 16
 843 0398 13010101 		addi	sp,sp,16
 844              		.cfi_def_cfa_offset 0
 845 039c 67800000 		jr	ra
 846              		.cfi_endproc
 847              	.LFE44:
 849              		.align	2
 850              		.globl	_ZN9Semaphore6signalEv
 852              	_ZN9Semaphore6signalEv:
 853              	.LFB45:
  65:src/syscall_cpp.cpp ****     return sem_signal(myHandle);
 854              		.loc 2 65 25 is_stmt 1
 855              		.cfi_startproc
 856              	.LVL61:
 857 03a0 130101FF 		addi	sp,sp,-16
 858              		.cfi_def_cfa_offset 16
 859 03a4 23341100 		sd	ra,8(sp)
 860 03a8 23308100 		sd	s0,0(sp)
 861              		.cfi_offset 1, -8
 862              		.cfi_offset 8, -16
 863 03ac 13040101 		addi	s0,sp,16
 864              		.cfi_def_cfa 8, 0
  66:src/syscall_cpp.cpp **** }
 865              		.loc 2 66 5
  66:src/syscall_cpp.cpp **** }
 866              		.loc 2 66 22 is_stmt 0
 867 03b0 03358500 		ld	a0,8(a0)
 868              	.LVL62:
 869 03b4 97000000 		call	_Z10sem_signalP10KSemaphore@plt
 869      E7800000 
 870              	.LVL63:
  67:src/syscall_cpp.cpp **** 
 871              		.loc 2 67 1
 872 03bc 83308100 		ld	ra,8(sp)
 873              		.cfi_restore 1
 874 03c0 03340100 		ld	s0,0(sp)
 875              		.cfi_restore 8
 876              		.cfi_def_cfa 2, 16
 877 03c4 13010101 		addi	sp,sp,16
 878              		.cfi_def_cfa_offset 0
 879 03c8 67800000 		jr	ra
 880              		.cfi_endproc
 881              	.LFE45:
 883              		.align	2
 884              		.globl	_ZN7Console4getcEv
 886              	_ZN7Console4getcEv:
 887              	.LFB46:
  69:src/syscall_cpp.cpp ****     return ::getc();
GAS LISTING /tmp/cc6baEiQ.s 			page 21


 888              		.loc 2 69 22 is_stmt 1
 889              		.cfi_startproc
 890 03cc 130101FF 		addi	sp,sp,-16
 891              		.cfi_def_cfa_offset 16
 892 03d0 23341100 		sd	ra,8(sp)
 893 03d4 23308100 		sd	s0,0(sp)
 894              		.cfi_offset 1, -8
 895              		.cfi_offset 8, -16
 896 03d8 13040101 		addi	s0,sp,16
 897              		.cfi_def_cfa 8, 0
  70:src/syscall_cpp.cpp **** }
 898              		.loc 2 70 5
  70:src/syscall_cpp.cpp **** }
 899              		.loc 2 70 18 is_stmt 0
 900 03dc 97000000 		call	_Z4getcv@plt
 900      E7800000 
 901              	.LVL64:
  71:src/syscall_cpp.cpp **** 
 902              		.loc 2 71 1
 903 03e4 83308100 		ld	ra,8(sp)
 904              		.cfi_restore 1
 905 03e8 03340100 		ld	s0,0(sp)
 906              		.cfi_restore 8
 907              		.cfi_def_cfa 2, 16
 908 03ec 13010101 		addi	sp,sp,16
 909              		.cfi_def_cfa_offset 0
 910 03f0 67800000 		jr	ra
 911              		.cfi_endproc
 912              	.LFE46:
 914              		.align	2
 915              		.globl	_ZN7Console4putcEc
 917              	_ZN7Console4putcEc:
 918              	.LFB47:
  73:src/syscall_cpp.cpp ****     ::putc(c);
 919              		.loc 2 73 28 is_stmt 1
 920              		.cfi_startproc
 921              	.LVL65:
 922 03f4 130101FF 		addi	sp,sp,-16
 923              		.cfi_def_cfa_offset 16
 924 03f8 23341100 		sd	ra,8(sp)
 925 03fc 23308100 		sd	s0,0(sp)
 926              		.cfi_offset 1, -8
 927              		.cfi_offset 8, -16
 928 0400 13040101 		addi	s0,sp,16
 929              		.cfi_def_cfa 8, 0
  74:src/syscall_cpp.cpp **** }
 930              		.loc 2 74 5
  74:src/syscall_cpp.cpp **** }
 931              		.loc 2 74 11 is_stmt 0
 932 0404 97000000 		call	_Z4putcc@plt
 932      E7800000 
 933              	.LVL66:
  75:src/syscall_cpp.cpp **** 
 934              		.loc 2 75 1
 935 040c 83308100 		ld	ra,8(sp)
 936              		.cfi_restore 1
 937 0410 03340100 		ld	s0,0(sp)
GAS LISTING /tmp/cc6baEiQ.s 			page 22


 938              		.cfi_restore 8
 939              		.cfi_def_cfa 2, 16
 940 0414 13010101 		addi	sp,sp,16
 941              		.cfi_def_cfa_offset 0
 942 0418 67800000 		jr	ra
 943              		.cfi_endproc
 944              	.LFE47:
 946              		.align	2
 947              		.globl	_ZN14PeriodicThreadC2Em
 949              	_ZN14PeriodicThreadC2Em:
 950              	.LFB49:
  77:src/syscall_cpp.cpp ****     : Thread(&wrapperPeriodic, new pStruct({this, period})) {
 951              		.loc 2 77 1 is_stmt 1
 952              		.cfi_startproc
 953              	.LVL67:
 954 041c 130101FE 		addi	sp,sp,-32
 955              		.cfi_def_cfa_offset 32
 956 0420 233C1100 		sd	ra,24(sp)
 957 0424 23388100 		sd	s0,16(sp)
 958 0428 23349100 		sd	s1,8(sp)
 959 042c 23302101 		sd	s2,0(sp)
 960              		.cfi_offset 1, -8
 961              		.cfi_offset 8, -16
 962              		.cfi_offset 9, -24
 963              		.cfi_offset 18, -32
 964 0430 13040102 		addi	s0,sp,32
 965              		.cfi_def_cfa 8, 0
 966 0434 93040500 		mv	s1,a0
 967 0438 13890500 		mv	s2,a1
 968              	.LBB26:
  78:src/syscall_cpp.cpp **** 
 969              		.loc 2 78 58 is_stmt 0
 970 043c 13050001 		li	a0,16
 971              	.LVL68:
 972 0440 97000000 		call	_Znwm
 972      E7800000 
 973              	.LVL69:
 974 0448 13060500 		mv	a2,a0
 975 044c 23309500 		sd	s1,0(a0)
 976 0450 23342501 		sd	s2,8(a0)
  78:src/syscall_cpp.cpp **** 
 977              		.loc 2 78 59
 978 0454 97050000 		lla	a1,_ZN14PeriodicThread15wrapperPeriodicEPv
 978      93850500 
 979 045c 13850400 		mv	a0,s1
 980 0460 97000000 		call	_ZN6ThreadC2EPFvPvES0_
 980      E7800000 
 981              	.LVL70:
 982 0468 97070000 		lla	a5,_ZTV14PeriodicThread+16
 982      93870700 
 983 0470 23B0F400 		sd	a5,0(s1)
 984              	.LBE26:
  80:src/syscall_cpp.cpp **** 
 985              		.loc 2 80 1
 986 0474 83308101 		ld	ra,24(sp)
 987              		.cfi_restore 1
 988 0478 03340101 		ld	s0,16(sp)
GAS LISTING /tmp/cc6baEiQ.s 			page 23


 989              		.cfi_restore 8
 990              		.cfi_def_cfa 2, 32
 991 047c 83348100 		ld	s1,8(sp)
 992              		.cfi_restore 9
 993              	.LVL71:
 994 0480 03390100 		ld	s2,0(sp)
 995              		.cfi_restore 18
 996              	.LVL72:
 997 0484 13010102 		addi	sp,sp,32
 998              		.cfi_def_cfa_offset 0
 999 0488 67800000 		jr	ra
 1000              		.cfi_endproc
 1001              	.LFE49:
 1003              		.globl	_ZN14PeriodicThreadC1Em
 1004              		.set	_ZN14PeriodicThreadC1Em,_ZN14PeriodicThreadC2Em
 1005              		.weak	_ZTV14PeriodicThread
 1006              		.section	.data.rel.ro.local._ZTV14PeriodicThread,"awG",@progbits,_ZTV14PeriodicThread,comdat
 1007              		.align	3
 1010              	_ZTV14PeriodicThread:
 1011 0000 00000000 		.dword	0
 1011      00000000 
 1012 0008 00000000 		.dword	0
 1012      00000000 
 1013 0010 00000000 		.dword	_ZN14PeriodicThreadD1Ev
 1013      00000000 
 1014 0018 00000000 		.dword	_ZN14PeriodicThreadD0Ev
 1014      00000000 
 1015 0020 00000000 		.dword	_ZN6Thread3runEv
 1015      00000000 
 1016 0028 00000000 		.dword	_ZN14PeriodicThread18periodicActivationEv
 1016      00000000 
 1017              		.weak	_ZTV6Thread
 1018              		.section	.data.rel.ro.local._ZTV6Thread,"awG",@progbits,_ZTV6Thread,comdat
 1019              		.align	3
 1022              	_ZTV6Thread:
 1023 0000 00000000 		.dword	0
 1023      00000000 
 1024 0008 00000000 		.dword	0
 1024      00000000 
 1025 0010 00000000 		.dword	_ZN6ThreadD1Ev
 1025      00000000 
 1026 0018 00000000 		.dword	_ZN6ThreadD0Ev
 1026      00000000 
 1027 0020 00000000 		.dword	_ZN6Thread3runEv
 1027      00000000 
 1028              		.weak	_ZTV9Semaphore
 1029              		.section	.data.rel.ro.local._ZTV9Semaphore,"awG",@progbits,_ZTV9Semaphore,comdat
 1030              		.align	3
 1033              	_ZTV9Semaphore:
 1034 0000 00000000 		.dword	0
 1034      00000000 
 1035 0008 00000000 		.dword	0
 1035      00000000 
 1036 0010 00000000 		.dword	_ZN9SemaphoreD1Ev
 1036      00000000 
 1037 0018 00000000 		.dword	_ZN9SemaphoreD0Ev
 1037      00000000 
GAS LISTING /tmp/cc6baEiQ.s 			page 24


 1038              		.text
 1039              	.Letext0:
 1040              		.file 4 "src/../h/../lib/hw.h"
 1041              		.file 5 "src/../h/syscall_c.h"
 1042              		.file 6 "src/../h/KScheduler.hpp"
 5214              		.align	3
 5217              	DW.ref.__gxx_personality_v0:
 5218 0000 00000000 		.dword	__gxx_personality_v0
 5218      00000000 
 5219              		.ident	"GCC: (Ubuntu 9.4.0-1ubuntu1~20.04) 9.4.0"
 5220              		.section	.note.GNU-stack,"",@progbits
GAS LISTING /tmp/cc6baEiQ.s 			page 25

