GAS LISTING /tmp/ccwxAIsx.s 			page 1


   1              		.file	"test_semaphore.cpp"
   2              		.option pic
   3              		.option norelax
   4              		.text
   5              	.Ltext0:
   6              		.align	2
   7              		.globl	_Z10increment1Pv
   9              	_Z10increment1Pv:
  10              	.LFB30:
  11              		.file 1 "src/test_semaphore.cpp"
   1:src/test_semaphore.cpp **** //
   2:src/test_semaphore.cpp **** // Created by os on 6/23/22.
   3:src/test_semaphore.cpp **** //
   4:src/test_semaphore.cpp **** 
   5:src/test_semaphore.cpp **** #include "../h/KPCB.hpp"
   6:src/test_semaphore.cpp **** #include "../h/KSemaphore.hpp"
   7:src/test_semaphore.cpp **** #include "../test/printing.hpp"
   8:src/test_semaphore.cpp **** #include "../h/syscall_c.h"
   9:src/test_semaphore.cpp **** 
  10:src/test_semaphore.cpp **** int changeIt = 0;
  11:src/test_semaphore.cpp **** KSemaphore* mutex = nullptr;
  12:src/test_semaphore.cpp **** 
  13:src/test_semaphore.cpp **** void increment1(void* arg) {
  12              		.loc 1 13 28
  13              		.cfi_startproc
  14              	.LVL0:
  15 0000 130101FE 		addi	sp,sp,-32
  16              		.cfi_def_cfa_offset 32
  17 0004 233C1100 		sd	ra,24(sp)
  18 0008 23388100 		sd	s0,16(sp)
  19 000c 23349100 		sd	s1,8(sp)
  20 0010 23302101 		sd	s2,0(sp)
  21              		.cfi_offset 1, -8
  22              		.cfi_offset 8, -16
  23              		.cfi_offset 9, -24
  24              		.cfi_offset 18, -32
  25 0014 13040102 		addi	s0,sp,32
  26              		.cfi_def_cfa 8, 0
  14:src/test_semaphore.cpp ****     sem_wait(mutex);
  27              		.loc 1 14 5
  28              		.loc 1 14 13 is_stmt 0
  29 0018 97040000 		lla	s1,.LANCHOR0
  29      93840400 
  30 0020 03B50400 		ld	a0,0(s1)
  31              	.LVL1:
  32 0024 97000000 		call	_Z8sem_waitP10KSemaphore@plt
  32      E7800000 
  33              	.LVL2:
  15:src/test_semaphore.cpp ****     int tmp = changeIt;
  34              		.loc 1 15 5 is_stmt 1
  35              		.loc 1 15 9 is_stmt 0
  36 002c 03A98400 		lw	s2,8(s1)
  37              	.LVL3:
  16:src/test_semaphore.cpp ****     ++tmp;
  38              		.loc 1 16 5 is_stmt 1
  39 0030 1B091900 		addiw	s2,s2,1
  40              	.LVL4:
GAS LISTING /tmp/ccwxAIsx.s 			page 2


  17:src/test_semaphore.cpp ****     thread_dispatch();
  41              		.loc 1 17 5
  42              		.loc 1 17 20 is_stmt 0
  43 0034 97000000 		call	_Z15thread_dispatchv@plt
  43      E7800000 
  44              	.LVL5:
  18:src/test_semaphore.cpp ****     sem_close(mutex);
  45              		.loc 1 18 5 is_stmt 1
  46              		.loc 1 18 14 is_stmt 0
  47 003c 03B50400 		ld	a0,0(s1)
  48 0040 97000000 		call	_Z9sem_closeP10KSemaphore@plt
  48      E7800000 
  49              	.LVL6:
  19:src/test_semaphore.cpp ****     mutex = nullptr;
  50              		.loc 1 19 5 is_stmt 1
  51              		.loc 1 19 11 is_stmt 0
  52 0048 23B00400 		sd	zero,0(s1)
  20:src/test_semaphore.cpp ****     changeIt = tmp;
  53              		.loc 1 20 5 is_stmt 1
  54              		.loc 1 20 14 is_stmt 0
  55 004c 23A42401 		sw	s2,8(s1)
  21:src/test_semaphore.cpp ****     sem_signal(mutex);
  56              		.loc 1 21 5 is_stmt 1
  57              		.loc 1 21 15 is_stmt 0
  58 0050 13050000 		li	a0,0
  59 0054 97000000 		call	_Z10sem_signalP10KSemaphore@plt
  59      E7800000 
  60              	.LVL7:
  22:src/test_semaphore.cpp **** }
  61              		.loc 1 22 1
  62 005c 83308101 		ld	ra,24(sp)
  63              		.cfi_restore 1
  64 0060 03340101 		ld	s0,16(sp)
  65              		.cfi_restore 8
  66              		.cfi_def_cfa 2, 32
  67 0064 83348100 		ld	s1,8(sp)
  68              		.cfi_restore 9
  69 0068 03390100 		ld	s2,0(sp)
  70              		.cfi_restore 18
  71              	.LVL8:
  72 006c 13010102 		addi	sp,sp,32
  73              		.cfi_def_cfa_offset 0
  74 0070 67800000 		jr	ra
  75              		.cfi_endproc
  76              	.LFE30:
  78              		.align	2
  79              		.globl	_Z10increment2Pv
  81              	_Z10increment2Pv:
  82              	.LFB31:
  23:src/test_semaphore.cpp **** void increment2(void* arg) {
  83              		.loc 1 23 28 is_stmt 1
  84              		.cfi_startproc
  85              	.LVL9:
  86 0074 130101FE 		addi	sp,sp,-32
  87              		.cfi_def_cfa_offset 32
  88 0078 233C1100 		sd	ra,24(sp)
  89 007c 23388100 		sd	s0,16(sp)
GAS LISTING /tmp/ccwxAIsx.s 			page 3


  90 0080 23349100 		sd	s1,8(sp)
  91 0084 23302101 		sd	s2,0(sp)
  92              		.cfi_offset 1, -8
  93              		.cfi_offset 8, -16
  94              		.cfi_offset 9, -24
  95              		.cfi_offset 18, -32
  96 0088 13040102 		addi	s0,sp,32
  97              		.cfi_def_cfa 8, 0
  24:src/test_semaphore.cpp ****     sem_wait(mutex);
  98              		.loc 1 24 5
  99              		.loc 1 24 13 is_stmt 0
 100 008c 97040000 		lla	s1,.LANCHOR0
 100      93840400 
 101 0094 03B50400 		ld	a0,0(s1)
 102              	.LVL10:
 103 0098 97000000 		call	_Z8sem_waitP10KSemaphore@plt
 103      E7800000 
 104              	.LVL11:
  25:src/test_semaphore.cpp ****     int tmp = changeIt;
 105              		.loc 1 25 5 is_stmt 1
 106              		.loc 1 25 9 is_stmt 0
 107 00a0 03A98400 		lw	s2,8(s1)
 108              	.LVL12:
  26:src/test_semaphore.cpp ****     ++tmp;
 109              		.loc 1 26 5 is_stmt 1
 110 00a4 1B091900 		addiw	s2,s2,1
 111              	.LVL13:
  27:src/test_semaphore.cpp ****     thread_dispatch();
 112              		.loc 1 27 5
 113              		.loc 1 27 20 is_stmt 0
 114 00a8 97000000 		call	_Z15thread_dispatchv@plt
 114      E7800000 
 115              	.LVL14:
  28:src/test_semaphore.cpp ****     changeIt = tmp;
 116              		.loc 1 28 5 is_stmt 1
 117              		.loc 1 28 14 is_stmt 0
 118 00b0 23A42401 		sw	s2,8(s1)
  29:src/test_semaphore.cpp ****     sem_signal(mutex);
 119              		.loc 1 29 5 is_stmt 1
 120              		.loc 1 29 15 is_stmt 0
 121 00b4 03B50400 		ld	a0,0(s1)
 122 00b8 97000000 		call	_Z10sem_signalP10KSemaphore@plt
 122      E7800000 
 123              	.LVL15:
  30:src/test_semaphore.cpp **** }
 124              		.loc 1 30 1
 125 00c0 83308101 		ld	ra,24(sp)
 126              		.cfi_restore 1
 127 00c4 03340101 		ld	s0,16(sp)
 128              		.cfi_restore 8
 129              		.cfi_def_cfa 2, 32
 130 00c8 83348100 		ld	s1,8(sp)
 131              		.cfi_restore 9
 132 00cc 03390100 		ld	s2,0(sp)
 133              		.cfi_restore 18
 134              	.LVL16:
 135 00d0 13010102 		addi	sp,sp,32
GAS LISTING /tmp/ccwxAIsx.s 			page 4


 136              		.cfi_def_cfa_offset 0
 137 00d4 67800000 		jr	ra
 138              		.cfi_endproc
 139              	.LFE31:
 141              		.section	.rodata.str1.8,"aMS",@progbits,1
 142              		.align	3
 143              	.LC0:
 144 0000 54687265 		.string	"Thread "
 144      61642000 
 145              		.align	3
 146              	.LC1:
 147 0008 20637265 		.string	" created\n"
 147      61746564 
 147      0A00
 148 0012 00000000 		.align	3
 148      0000
 149              	.LC2:
 150 0018 6368616E 		.string	"changeIt: "
 150      67654974 
 150      3A2000
 151 0023 00000000 		.align	3
 151      00
 152              	.LC3:
 153 0028 0A46696E 		.string	"\nFinished\n"
 153      69736865 
 153      640A00
 154              		.text
 155              		.align	2
 156              		.globl	_Z15test_semaphore1v
 158              	_Z15test_semaphore1v:
 159              	.LFB32:
  31:src/test_semaphore.cpp **** void test_semaphore1() {
 160              		.loc 1 31 24 is_stmt 1
 161              		.cfi_startproc
 162 00d8 130101F4 		addi	sp,sp,-192
 163              		.cfi_def_cfa_offset 192
 164 00dc 233C110A 		sd	ra,184(sp)
 165 00e0 2338810A 		sd	s0,176(sp)
 166 00e4 2334910A 		sd	s1,168(sp)
 167 00e8 2330210B 		sd	s2,160(sp)
 168              		.cfi_offset 1, -8
 169              		.cfi_offset 8, -16
 170              		.cfi_offset 9, -24
 171              		.cfi_offset 18, -32
 172 00ec 1304010C 		addi	s0,sp,192
 173              		.cfi_def_cfa 8, 0
  32:src/test_semaphore.cpp ****     KPCB* threads[20];
 174              		.loc 1 32 5
  33:src/test_semaphore.cpp ****     sem_open(&mutex, 1);
 175              		.loc 1 33 5
 176              		.loc 1 33 13 is_stmt 0
 177 00f0 93051000 		li	a1,1
 178 00f4 17050000 		lla	a0,.LANCHOR0
 178      13050500 
 179 00fc 97000000 		call	_Z8sem_openPP10KSemaphorej@plt
 179      E7800000 
 180              	.LVL17:
GAS LISTING /tmp/ccwxAIsx.s 			page 5


 181              	.LBB16:
  34:src/test_semaphore.cpp **** 
  35:src/test_semaphore.cpp ****     for (int i = 0; i < 20; i++) {
 182              		.loc 1 35 14
 183 0104 93040000 		li	s1,0
 184 0108 6F00C005 		j	.L7
 185              	.LVL18:
 186              	.L14:
  36:src/test_semaphore.cpp ****         thread_create(&threads[i], &increment1, nullptr);
 187              		.loc 1 36 9 is_stmt 1
 188              		.loc 1 36 22 is_stmt 0
 189 010c 93973400 		slli	a5,s1,3
 190 0110 13060000 		li	a2,0
 191 0114 97050000 		lla	a1,_Z10increment1Pv
 191      93850500 
 192 011c 130504F4 		addi	a0,s0,-192
 193 0120 3305F500 		add	a0,a0,a5
 194 0124 97000000 		call	_Z13thread_createPP4KPCBPFvPvES2_@plt
 194      E7800000 
 195              	.LVL19:
  37:src/test_semaphore.cpp ****         printString("Thread ");
 196              		.loc 1 37 9 is_stmt 1
 197              		.loc 1 37 20 is_stmt 0
 198 012c 17050000 		lla	a0,.LC0
 198      13050500 
 199 0134 97000000 		call	_Z11printStringPKc@plt
 199      E7800000 
 200              	.LVL20:
  38:src/test_semaphore.cpp ****         printInt(i);
 201              		.loc 1 38 9 is_stmt 1
 202              		.loc 1 38 17 is_stmt 0
 203 013c 13060000 		li	a2,0
 204 0140 9305A000 		li	a1,10
 205 0144 13850400 		mv	a0,s1
 206 0148 97000000 		call	_Z8printIntiii@plt
 206      E7800000 
 207              	.LVL21:
  39:src/test_semaphore.cpp ****         printString(" created\n");
 208              		.loc 1 39 9 is_stmt 1
 209              		.loc 1 39 20 is_stmt 0
 210 0150 17050000 		lla	a0,.LC1
 210      13050500 
 211 0158 97000000 		call	_Z11printStringPKc@plt
 211      E7800000 
 212              	.LVL22:
  35:src/test_semaphore.cpp ****         thread_create(&threads[i], &increment1, nullptr);
 213              		.loc 1 35 5 is_stmt 1
 214 0160 9B841400 		addiw	s1,s1,1
 215              	.LVL23:
 216              	.L7:
  35:src/test_semaphore.cpp ****         thread_create(&threads[i], &increment1, nullptr);
 217              		.loc 1 35 23 discriminator 1
 218 0164 93073001 		li	a5,19
 219 0168 E3D297FA 		ble	s1,a5,.L14
 220              	.L6:
 221              	.LBE16:
  40:src/test_semaphore.cpp ****     }
GAS LISTING /tmp/ccwxAIsx.s 			page 6


  41:src/test_semaphore.cpp **** 
  42:src/test_semaphore.cpp ****     while (KPCB::counter) KPCB::yield();
 222              		.loc 1 42 5
 223              		.loc 1 42 18
 224 016c 97070000 		la	a5,_ZN4KPCB7counterE
 224      83B70700 
 225 0174 83A70700 		lw	a5,0(a5)
 226 0178 63880700 		beqz	a5,.L12
 227              		.loc 1 42 27 discriminator 1
 228              		.loc 1 42 38 is_stmt 0 discriminator 1
 229 017c 97000000 		call	_ZN4KPCB5yieldEv@plt
 229      E7800000 
 230              	.LVL24:
 231 0184 6FF09FFE 		j	.L6
 232              	.L12:
 233              	.LBB17:
  43:src/test_semaphore.cpp ****     //delete threads[0];
  44:src/test_semaphore.cpp ****     for (auto& thr: threads) delete thr;
 234              		.loc 1 44 21
 235 0188 930404F4 		addi	s1,s0,-192
 236              	.LVL25:
 237 018c 6F00C001 		j	.L8
 238              	.LVL26:
 239              	.L15:
 240              	.LBB18:
 241              	.LBB19:
 242              		.file 2 "src/../h/KPCB.hpp"
   1:src/../h/KPCB.hpp **** //
   2:src/../h/KPCB.hpp **** // Created by os on 6/22/22.
   3:src/../h/KPCB.hpp **** //
   4:src/../h/KPCB.hpp **** 
   5:src/../h/KPCB.hpp **** #ifndef PROJECT_BASE_V1_1_KPCB_HPP
   6:src/../h/KPCB.hpp **** #define PROJECT_BASE_V1_1_KPCB_HPP
   7:src/../h/KPCB.hpp **** 
   8:src/../h/KPCB.hpp **** #include "../lib/hw.h"
   9:src/../h/KPCB.hpp **** #include "../lib/mem.h"
  10:src/../h/KPCB.hpp **** #include "KScheduler.hpp"
  11:src/../h/KPCB.hpp **** #include "KMemoryAllocator.hpp"
  12:src/../h/KPCB.hpp **** 
  13:src/../h/KPCB.hpp **** class KPCB {
  14:src/../h/KPCB.hpp **** public:
  15:src/../h/KPCB.hpp ****     ~KPCB() { delete[] stack; }
 243              		.loc 2 15 24
 244 0190 97000000 		call	_ZdaPv@plt
 244      E7800000 
 245              	.LVL27:
 246              	.L11:
 247              	.LBE19:
 248              	.LBE18:
 249              	.LBB21:
 250              	.LBB22:
  16:src/../h/KPCB.hpp ****     friend class KScheduler;
  17:src/../h/KPCB.hpp ****     friend class KSemaphore;
  18:src/../h/KPCB.hpp ****     friend class KRiscv;
  19:src/../h/KPCB.hpp ****     friend class KSleep;
  20:src/../h/KPCB.hpp **** 
  21:src/../h/KPCB.hpp ****     void* operator new(size_t size) {
GAS LISTING /tmp/ccwxAIsx.s 			page 7


  22:src/../h/KPCB.hpp ****         size_t sizeBlock = (size + 16) / MEM_BLOCK_SIZE + ((size + 16) % MEM_BLOCK_SIZE ? 1 : 0);
  23:src/../h/KPCB.hpp ****         return KMemoryAllocator::mem_alloc(sizeBlock);
  24:src/../h/KPCB.hpp ****         //return __mem_alloc(size);
  25:src/../h/KPCB.hpp ****     }
  26:src/../h/KPCB.hpp ****     void* operator new[](size_t size) {
  27:src/../h/KPCB.hpp ****         size_t sizeBlock = (size + 16) / MEM_BLOCK_SIZE + ((size + 16) % MEM_BLOCK_SIZE ? 1 : 0);
  28:src/../h/KPCB.hpp ****         return KMemoryAllocator::mem_alloc(sizeBlock);
  29:src/../h/KPCB.hpp ****         //return __mem_alloc(size);
  30:src/../h/KPCB.hpp ****     }
  31:src/../h/KPCB.hpp ****     void operator delete(void* addr) {
  32:src/../h/KPCB.hpp ****         KMemoryAllocator::mem_free(addr);
 251              		.loc 2 32 9 is_stmt 1
 252              		.loc 2 32 35 is_stmt 0
 253 0198 13050900 		mv	a0,s2
 254 019c 97000000 		call	_ZN16KMemoryAllocator8mem_freeEPv@plt
 254      E7800000 
 255              	.LVL28:
 256              	.L10:
 257              	.LBE22:
 258              	.LBE21:
 259              		.loc 1 44 5 is_stmt 1 discriminator 4
 260 01a4 93848400 		addi	s1,s1,8
 261              	.LVL29:
 262              	.L8:
 263              		.loc 1 44 21 discriminator 5
 264 01a8 930704FE 		addi	a5,s0,-32
 265 01ac 638CF400 		beq	s1,a5,.L9
 266              	.LVL30:
 267              		.loc 1 44 30 discriminator 2
 268              		.loc 1 44 37 is_stmt 0 discriminator 2
 269 01b0 03B90400 		ld	s2,0(s1)
 270              		.loc 1 44 40 discriminator 2
 271 01b4 E30809FE 		beqz	s2,.L10
 272              	.LVL31:
 273              	.LBB23:
 274              	.LBB20:
  15:src/../h/KPCB.hpp ****     friend class KScheduler;
 275              		.loc 2 15 15 is_stmt 1
  15:src/../h/KPCB.hpp ****     friend class KScheduler;
 276              		.loc 2 15 24 is_stmt 0
 277 01b8 03358901 		ld	a0,24(s2)
  15:src/../h/KPCB.hpp ****     friend class KScheduler;
 278              		.loc 2 15 29
 279 01bc E31A05FC 		bnez	a0,.L15
 280 01c0 6FF09FFD 		j	.L11
 281              	.LVL32:
 282              	.L9:
 283              	.LBE20:
 284              	.LBE23:
 285              	.LBE17:
  45:src/test_semaphore.cpp ****     printString("changeIt: ");
 286              		.loc 1 45 5 is_stmt 1
 287              		.loc 1 45 16 is_stmt 0
 288 01c4 17050000 		lla	a0,.LC2
 288      13050500 
 289 01cc 97000000 		call	_Z11printStringPKc@plt
 289      E7800000 
GAS LISTING /tmp/ccwxAIsx.s 			page 8


 290              	.LVL33:
  46:src/test_semaphore.cpp ****     printInt(changeIt);
 291              		.loc 1 46 5 is_stmt 1
 292              		.loc 1 46 13 is_stmt 0
 293 01d4 97040000 		lla	s1,.LANCHOR0
 293      93840400 
 294              	.LVL34:
 295 01dc 13060000 		li	a2,0
 296 01e0 9305A000 		li	a1,10
 297 01e4 03A58400 		lw	a0,8(s1)
 298 01e8 97000000 		call	_Z8printIntiii@plt
 298      E7800000 
 299              	.LVL35:
  47:src/test_semaphore.cpp ****     sem_close(mutex);
 300              		.loc 1 47 5 is_stmt 1
 301              		.loc 1 47 14 is_stmt 0
 302 01f0 03B50400 		ld	a0,0(s1)
 303 01f4 97000000 		call	_Z9sem_closeP10KSemaphore@plt
 303      E7800000 
 304              	.LVL36:
  48:src/test_semaphore.cpp ****     mutex = nullptr;
 305              		.loc 1 48 5 is_stmt 1
 306              		.loc 1 48 11 is_stmt 0
 307 01fc 23B00400 		sd	zero,0(s1)
  49:src/test_semaphore.cpp ****     printString("\nFinished\n");
 308              		.loc 1 49 5 is_stmt 1
 309              		.loc 1 49 16 is_stmt 0
 310 0200 17050000 		lla	a0,.LC3
 310      13050500 
 311 0208 97000000 		call	_Z11printStringPKc@plt
 311      E7800000 
 312              	.LVL37:
  50:src/test_semaphore.cpp **** }
 313              		.loc 1 50 1
 314 0210 8330810B 		ld	ra,184(sp)
 315              		.cfi_restore 1
 316 0214 0334010B 		ld	s0,176(sp)
 317              		.cfi_restore 8
 318              		.cfi_def_cfa 2, 192
 319 0218 8334810A 		ld	s1,168(sp)
 320              		.cfi_restore 9
 321 021c 0339010A 		ld	s2,160(sp)
 322              		.cfi_restore 18
 323 0220 1301010C 		addi	sp,sp,192
 324              		.cfi_def_cfa_offset 0
 325 0224 67800000 		jr	ra
 326              		.cfi_endproc
 327              	.LFE32:
 329              		.align	2
 330              		.globl	_Z15test_semaphore2v
 332              	_Z15test_semaphore2v:
 333              	.LFB33:
  51:src/test_semaphore.cpp **** void test_semaphore2() {
 334              		.loc 1 51 24 is_stmt 1
 335              		.cfi_startproc
 336 0228 130101F4 		addi	sp,sp,-192
 337              		.cfi_def_cfa_offset 192
GAS LISTING /tmp/ccwxAIsx.s 			page 9


 338 022c 233C110A 		sd	ra,184(sp)
 339 0230 2338810A 		sd	s0,176(sp)
 340 0234 2334910A 		sd	s1,168(sp)
 341 0238 2330210B 		sd	s2,160(sp)
 342              		.cfi_offset 1, -8
 343              		.cfi_offset 8, -16
 344              		.cfi_offset 9, -24
 345              		.cfi_offset 18, -32
 346 023c 1304010C 		addi	s0,sp,192
 347              		.cfi_def_cfa 8, 0
  52:src/test_semaphore.cpp ****     KPCB* threads[20];
 348              		.loc 1 52 5
  53:src/test_semaphore.cpp ****     sem_open(&mutex, 1);
 349              		.loc 1 53 5
 350              		.loc 1 53 13 is_stmt 0
 351 0240 93051000 		li	a1,1
 352 0244 17050000 		lla	a0,.LANCHOR0
 352      13050500 
 353 024c 97000000 		call	_Z8sem_openPP10KSemaphorej@plt
 353      E7800000 
 354              	.LVL38:
 355              	.LBB24:
  54:src/test_semaphore.cpp **** 
  55:src/test_semaphore.cpp ****     for (int i = 0; i < 20; i++) {
 356              		.loc 1 55 14
 357 0254 93040000 		li	s1,0
 358 0258 6F00C005 		j	.L18
 359              	.LVL39:
 360              	.L25:
  56:src/test_semaphore.cpp ****         thread_create(&threads[i], &increment2, nullptr);
 361              		.loc 1 56 9 is_stmt 1
 362              		.loc 1 56 22 is_stmt 0
 363 025c 93973400 		slli	a5,s1,3
 364 0260 13060000 		li	a2,0
 365 0264 97050000 		lla	a1,_Z10increment2Pv
 365      93850500 
 366 026c 130504F4 		addi	a0,s0,-192
 367 0270 3305F500 		add	a0,a0,a5
 368 0274 97000000 		call	_Z13thread_createPP4KPCBPFvPvES2_@plt
 368      E7800000 
 369              	.LVL40:
  57:src/test_semaphore.cpp ****         printString("Thread ");
 370              		.loc 1 57 9 is_stmt 1
 371              		.loc 1 57 20 is_stmt 0
 372 027c 17050000 		lla	a0,.LC0
 372      13050500 
 373 0284 97000000 		call	_Z11printStringPKc@plt
 373      E7800000 
 374              	.LVL41:
  58:src/test_semaphore.cpp ****         printInt(i);
 375              		.loc 1 58 9 is_stmt 1
 376              		.loc 1 58 17 is_stmt 0
 377 028c 13060000 		li	a2,0
 378 0290 9305A000 		li	a1,10
 379 0294 13850400 		mv	a0,s1
 380 0298 97000000 		call	_Z8printIntiii@plt
 380      E7800000 
GAS LISTING /tmp/ccwxAIsx.s 			page 10


 381              	.LVL42:
  59:src/test_semaphore.cpp ****         printString(" created\n");
 382              		.loc 1 59 9 is_stmt 1
 383              		.loc 1 59 20 is_stmt 0
 384 02a0 17050000 		lla	a0,.LC1
 384      13050500 
 385 02a8 97000000 		call	_Z11printStringPKc@plt
 385      E7800000 
 386              	.LVL43:
  55:src/test_semaphore.cpp ****         thread_create(&threads[i], &increment2, nullptr);
 387              		.loc 1 55 5 is_stmt 1
 388 02b0 9B841400 		addiw	s1,s1,1
 389              	.LVL44:
 390              	.L18:
  55:src/test_semaphore.cpp ****         thread_create(&threads[i], &increment2, nullptr);
 391              		.loc 1 55 23 discriminator 1
 392 02b4 93073001 		li	a5,19
 393 02b8 E3D297FA 		ble	s1,a5,.L25
 394              	.L17:
 395              	.LBE24:
  60:src/test_semaphore.cpp ****     }
  61:src/test_semaphore.cpp **** 
  62:src/test_semaphore.cpp ****     while (KPCB::counter) KPCB::yield();
 396              		.loc 1 62 5
 397              		.loc 1 62 18
 398 02bc 97070000 		la	a5,_ZN4KPCB7counterE
 398      83B70700 
 399 02c4 83A70700 		lw	a5,0(a5)
 400 02c8 63880700 		beqz	a5,.L23
 401              		.loc 1 62 27 discriminator 1
 402              		.loc 1 62 38 is_stmt 0 discriminator 1
 403 02cc 97000000 		call	_ZN4KPCB5yieldEv@plt
 403      E7800000 
 404              	.LVL45:
 405 02d4 6FF09FFE 		j	.L17
 406              	.L23:
 407              	.LBB25:
  63:src/test_semaphore.cpp ****     //delete threads[0];
  64:src/test_semaphore.cpp ****     for (auto& thr: threads) delete thr;
 408              		.loc 1 64 21
 409 02d8 930404F4 		addi	s1,s0,-192
 410              	.LVL46:
 411 02dc 6F00C001 		j	.L19
 412              	.LVL47:
 413              	.L26:
 414              	.LBB26:
 415              	.LBB27:
  15:src/../h/KPCB.hpp ****     friend class KScheduler;
 416              		.loc 2 15 24
 417 02e0 97000000 		call	_ZdaPv@plt
 417      E7800000 
 418              	.LVL48:
 419              	.L22:
 420              	.LBE27:
 421              	.LBE26:
 422              	.LBB29:
 423              	.LBB30:
GAS LISTING /tmp/ccwxAIsx.s 			page 11


 424              		.loc 2 32 9 is_stmt 1
 425              		.loc 2 32 35 is_stmt 0
 426 02e8 13050900 		mv	a0,s2
 427 02ec 97000000 		call	_ZN16KMemoryAllocator8mem_freeEPv@plt
 427      E7800000 
 428              	.LVL49:
 429              	.L21:
 430              	.LBE30:
 431              	.LBE29:
 432              		.loc 1 64 5 is_stmt 1 discriminator 4
 433 02f4 93848400 		addi	s1,s1,8
 434              	.LVL50:
 435              	.L19:
 436              		.loc 1 64 21 discriminator 5
 437 02f8 930704FE 		addi	a5,s0,-32
 438 02fc 638CF400 		beq	s1,a5,.L20
 439              	.LVL51:
 440              		.loc 1 64 30 discriminator 2
 441              		.loc 1 64 37 is_stmt 0 discriminator 2
 442 0300 03B90400 		ld	s2,0(s1)
 443              		.loc 1 64 40 discriminator 2
 444 0304 E30809FE 		beqz	s2,.L21
 445              	.LVL52:
 446              	.LBB31:
 447              	.LBB28:
  15:src/../h/KPCB.hpp ****     friend class KScheduler;
 448              		.loc 2 15 15 is_stmt 1
  15:src/../h/KPCB.hpp ****     friend class KScheduler;
 449              		.loc 2 15 24 is_stmt 0
 450 0308 03358901 		ld	a0,24(s2)
  15:src/../h/KPCB.hpp ****     friend class KScheduler;
 451              		.loc 2 15 29
 452 030c E31A05FC 		bnez	a0,.L26
 453 0310 6FF09FFD 		j	.L22
 454              	.LVL53:
 455              	.L20:
 456              	.LBE28:
 457              	.LBE31:
 458              	.LBE25:
  65:src/test_semaphore.cpp ****     printString("changeIt: ");
 459              		.loc 1 65 5 is_stmt 1
 460              		.loc 1 65 16 is_stmt 0
 461 0314 17050000 		lla	a0,.LC2
 461      13050500 
 462 031c 97000000 		call	_Z11printStringPKc@plt
 462      E7800000 
 463              	.LVL54:
  66:src/test_semaphore.cpp ****     printInt(changeIt);
 464              		.loc 1 66 5 is_stmt 1
 465              		.loc 1 66 13 is_stmt 0
 466 0324 97040000 		lla	s1,.LANCHOR0
 466      93840400 
 467              	.LVL55:
 468 032c 13060000 		li	a2,0
 469 0330 9305A000 		li	a1,10
 470 0334 03A58400 		lw	a0,8(s1)
 471 0338 97000000 		call	_Z8printIntiii@plt
GAS LISTING /tmp/ccwxAIsx.s 			page 12


 471      E7800000 
 472              	.LVL56:
  67:src/test_semaphore.cpp ****     sem_close(mutex);
 473              		.loc 1 67 5 is_stmt 1
 474              		.loc 1 67 14 is_stmt 0
 475 0340 03B50400 		ld	a0,0(s1)
 476 0344 97000000 		call	_Z9sem_closeP10KSemaphore@plt
 476      E7800000 
 477              	.LVL57:
  68:src/test_semaphore.cpp ****     mutex = nullptr;
 478              		.loc 1 68 5 is_stmt 1
 479              		.loc 1 68 11 is_stmt 0
 480 034c 23B00400 		sd	zero,0(s1)
  69:src/test_semaphore.cpp ****     printString("\nFinished\n");
 481              		.loc 1 69 5 is_stmt 1
 482              		.loc 1 69 16 is_stmt 0
 483 0350 17050000 		lla	a0,.LC3
 483      13050500 
 484 0358 97000000 		call	_Z11printStringPKc@plt
 484      E7800000 
 485              	.LVL58:
  70:src/test_semaphore.cpp **** }
 486              		.loc 1 70 1
 487 0360 8330810B 		ld	ra,184(sp)
 488              		.cfi_restore 1
 489 0364 0334010B 		ld	s0,176(sp)
 490              		.cfi_restore 8
 491              		.cfi_def_cfa 2, 192
 492 0368 8334810A 		ld	s1,168(sp)
 493              		.cfi_restore 9
 494 036c 0339010A 		ld	s2,160(sp)
 495              		.cfi_restore 18
 496 0370 1301010C 		addi	sp,sp,192
 497              		.cfi_def_cfa_offset 0
 498 0374 67800000 		jr	ra
 499              		.cfi_endproc
 500              	.LFE33:
 502              		.align	2
 503              		.globl	_Z14test_semaphorev
 505              	_Z14test_semaphorev:
 506              	.LFB34:
  71:src/test_semaphore.cpp **** 
  72:src/test_semaphore.cpp **** void test_semaphore() {
 507              		.loc 1 72 23 is_stmt 1
 508              		.cfi_startproc
 509 0378 130101FF 		addi	sp,sp,-16
 510              		.cfi_def_cfa_offset 16
 511 037c 23341100 		sd	ra,8(sp)
 512 0380 23308100 		sd	s0,0(sp)
 513              		.cfi_offset 1, -8
 514              		.cfi_offset 8, -16
 515 0384 13040101 		addi	s0,sp,16
 516              		.cfi_def_cfa 8, 0
  73:src/test_semaphore.cpp ****     //test_semaphore1();
  74:src/test_semaphore.cpp ****     test_semaphore2();
 517              		.loc 1 74 5
 518              		.loc 1 74 20 is_stmt 0
GAS LISTING /tmp/ccwxAIsx.s 			page 13


 519 0388 97000000 		call	_Z15test_semaphore2v
 519      E7800000 
 520              	.LVL59:
  75:src/test_semaphore.cpp **** }...
 521              		.loc 1 75 1
 522 0390 83308100 		ld	ra,8(sp)
 523              		.cfi_restore 1
 524 0394 03340100 		ld	s0,0(sp)
 525              		.cfi_restore 8
 526              		.cfi_def_cfa 2, 16
 527 0398 13010101 		addi	sp,sp,16
 528              		.cfi_def_cfa_offset 0
 529 039c 67800000 		jr	ra
 530              		.cfi_endproc
 531              	.LFE34:
 533              		.globl	mutex
 534              		.globl	changeIt
 535              		.bss
 536              		.align	3
 537              		.set	.LANCHOR0,. + 0
 540              	mutex:
 541 0000 00000000 		.zero	8
 541      00000000 
 544              	changeIt:
 545 0008 00000000 		.zero	4
 546              		.text
 547              	.Letext0:
 548              		.file 3 "src/../h/../lib/hw.h"
 549              		.file 4 "src/../h/KMemoryAllocator.hpp"
 550              		.file 5 "src/../h/KSemaphore.hpp"
 551              		.file 6 "src/../test/../h/syscall_c.h"
 552              		.file 7 "src/../test/printing.hpp"
GAS LISTING /tmp/ccwxAIsx.s 			page 14


DEFINED SYMBOLS
                            *ABS*:0000000000000000 test_semaphore.cpp
     /tmp/ccwxAIsx.s:9      .text:0000000000000000 _Z10increment1Pv
     /tmp/ccwxAIsx.s:13     .text:0000000000000000 .L0 
     /tmp/ccwxAIsx.s:15     .text:0000000000000000 .L0 
     /tmp/ccwxAIsx.s:16     .text:0000000000000004 .L0 
     /tmp/ccwxAIsx.s:21     .text:0000000000000014 .L0 
     /tmp/ccwxAIsx.s:22     .text:0000000000000014 .L0 
     /tmp/ccwxAIsx.s:23     .text:0000000000000014 .L0 
     /tmp/ccwxAIsx.s:24     .text:0000000000000014 .L0 
     /tmp/ccwxAIsx.s:26     .text:0000000000000018 .L0 
     /tmp/ccwxAIsx.s:28     .text:0000000000000018 .L0 
     /tmp/ccwxAIsx.s:29     .text:0000000000000018 .L0 
     /tmp/ccwxAIsx.s:35     .text:000000000000002c .L0 
     /tmp/ccwxAIsx.s:36     .text:000000000000002c .L0 
     /tmp/ccwxAIsx.s:39     .text:0000000000000030 .L0 
     /tmp/ccwxAIsx.s:42     .text:0000000000000034 .L0 
     /tmp/ccwxAIsx.s:43     .text:0000000000000034 .L0 
     /tmp/ccwxAIsx.s:46     .text:000000000000003c .L0 
     /tmp/ccwxAIsx.s:47     .text:000000000000003c .L0 
     /tmp/ccwxAIsx.s:51     .text:0000000000000048 .L0 
     /tmp/ccwxAIsx.s:52     .text:0000000000000048 .L0 
     /tmp/ccwxAIsx.s:54     .text:000000000000004c .L0 
     /tmp/ccwxAIsx.s:55     .text:000000000000004c .L0 
     /tmp/ccwxAIsx.s:57     .text:0000000000000050 .L0 
     /tmp/ccwxAIsx.s:58     .text:0000000000000050 .L0 
     /tmp/ccwxAIsx.s:62     .text:000000000000005c .L0 
     /tmp/ccwxAIsx.s:63     .text:0000000000000060 .L0 
     /tmp/ccwxAIsx.s:65     .text:0000000000000064 .L0 
     /tmp/ccwxAIsx.s:66     .text:0000000000000064 .L0 
     /tmp/ccwxAIsx.s:68     .text:0000000000000068 .L0 
     /tmp/ccwxAIsx.s:70     .text:000000000000006c .L0 
     /tmp/ccwxAIsx.s:73     .text:0000000000000070 .L0 
     /tmp/ccwxAIsx.s:75     .text:0000000000000074 .L0 
     /tmp/ccwxAIsx.s:81     .text:0000000000000074 _Z10increment2Pv
     /tmp/ccwxAIsx.s:84     .text:0000000000000074 .L0 
     /tmp/ccwxAIsx.s:86     .text:0000000000000074 .L0 
     /tmp/ccwxAIsx.s:87     .text:0000000000000078 .L0 
     /tmp/ccwxAIsx.s:92     .text:0000000000000088 .L0 
     /tmp/ccwxAIsx.s:93     .text:0000000000000088 .L0 
     /tmp/ccwxAIsx.s:94     .text:0000000000000088 .L0 
     /tmp/ccwxAIsx.s:95     .text:0000000000000088 .L0 
     /tmp/ccwxAIsx.s:97     .text:000000000000008c .L0 
     /tmp/ccwxAIsx.s:99     .text:000000000000008c .L0 
     /tmp/ccwxAIsx.s:100    .text:000000000000008c .L0 
     /tmp/ccwxAIsx.s:106    .text:00000000000000a0 .L0 
     /tmp/ccwxAIsx.s:107    .text:00000000000000a0 .L0 
     /tmp/ccwxAIsx.s:110    .text:00000000000000a4 .L0 
     /tmp/ccwxAIsx.s:113    .text:00000000000000a8 .L0 
     /tmp/ccwxAIsx.s:114    .text:00000000000000a8 .L0 
     /tmp/ccwxAIsx.s:117    .text:00000000000000b0 .L0 
     /tmp/ccwxAIsx.s:118    .text:00000000000000b0 .L0 
     /tmp/ccwxAIsx.s:120    .text:00000000000000b4 .L0 
     /tmp/ccwxAIsx.s:121    .text:00000000000000b4 .L0 
     /tmp/ccwxAIsx.s:125    .text:00000000000000c0 .L0 
     /tmp/ccwxAIsx.s:126    .text:00000000000000c4 .L0 
     /tmp/ccwxAIsx.s:128    .text:00000000000000c8 .L0 
GAS LISTING /tmp/ccwxAIsx.s 			page 15


     /tmp/ccwxAIsx.s:129    .text:00000000000000c8 .L0 
     /tmp/ccwxAIsx.s:131    .text:00000000000000cc .L0 
     /tmp/ccwxAIsx.s:133    .text:00000000000000d0 .L0 
     /tmp/ccwxAIsx.s:136    .text:00000000000000d4 .L0 
     /tmp/ccwxAIsx.s:138    .text:00000000000000d8 .L0 
     /tmp/ccwxAIsx.s:158    .text:00000000000000d8 _Z15test_semaphore1v
     /tmp/ccwxAIsx.s:161    .text:00000000000000d8 .L0 
     /tmp/ccwxAIsx.s:162    .text:00000000000000d8 .L0 
     /tmp/ccwxAIsx.s:163    .text:00000000000000dc .L0 
     /tmp/ccwxAIsx.s:168    .text:00000000000000ec .L0 
     /tmp/ccwxAIsx.s:169    .text:00000000000000ec .L0 
     /tmp/ccwxAIsx.s:170    .text:00000000000000ec .L0 
     /tmp/ccwxAIsx.s:171    .text:00000000000000ec .L0 
     /tmp/ccwxAIsx.s:173    .text:00000000000000f0 .L0 
     /tmp/ccwxAIsx.s:175    .text:00000000000000f0 .L0 
     /tmp/ccwxAIsx.s:176    .text:00000000000000f0 .L0 
     /tmp/ccwxAIsx.s:177    .text:00000000000000f0 .L0 
     /tmp/ccwxAIsx.s:183    .text:0000000000000104 .L0 
     /tmp/ccwxAIsx.s:188    .text:000000000000010c .L0 
     /tmp/ccwxAIsx.s:189    .text:000000000000010c .L0 
     /tmp/ccwxAIsx.s:197    .text:000000000000012c .L0 
     /tmp/ccwxAIsx.s:198    .text:000000000000012c .L0 
     /tmp/ccwxAIsx.s:202    .text:000000000000013c .L0 
     /tmp/ccwxAIsx.s:203    .text:000000000000013c .L0 
     /tmp/ccwxAIsx.s:209    .text:0000000000000150 .L0 
     /tmp/ccwxAIsx.s:210    .text:0000000000000150 .L0 
     /tmp/ccwxAIsx.s:214    .text:0000000000000160 .L0 
     /tmp/ccwxAIsx.s:218    .text:0000000000000164 .L0 
     /tmp/ccwxAIsx.s:223    .text:000000000000016c .L0 
     /tmp/ccwxAIsx.s:224    .text:000000000000016c .L0 
     /tmp/ccwxAIsx.s:228    .text:000000000000017c .L0 
     /tmp/ccwxAIsx.s:229    .text:000000000000017c .L0 
     /tmp/ccwxAIsx.s:235    .text:0000000000000188 .L0 
     /tmp/ccwxAIsx.s:244    .text:0000000000000190 .L0 
     /tmp/ccwxAIsx.s:252    .text:0000000000000198 .L0 
     /tmp/ccwxAIsx.s:253    .text:0000000000000198 .L0 
     /tmp/ccwxAIsx.s:260    .text:00000000000001a4 .L0 
     /tmp/ccwxAIsx.s:264    .text:00000000000001a8 .L0 
     /tmp/ccwxAIsx.s:268    .text:00000000000001b0 .L0 
     /tmp/ccwxAIsx.s:269    .text:00000000000001b0 .L0 
     /tmp/ccwxAIsx.s:271    .text:00000000000001b4 .L0 
     /tmp/ccwxAIsx.s:276    .text:00000000000001b8 .L0 
     /tmp/ccwxAIsx.s:277    .text:00000000000001b8 .L0 
     /tmp/ccwxAIsx.s:279    .text:00000000000001bc .L0 
     /tmp/ccwxAIsx.s:287    .text:00000000000001c4 .L0 
     /tmp/ccwxAIsx.s:288    .text:00000000000001c4 .L0 
     /tmp/ccwxAIsx.s:292    .text:00000000000001d4 .L0 
     /tmp/ccwxAIsx.s:293    .text:00000000000001d4 .L0 
     /tmp/ccwxAIsx.s:301    .text:00000000000001f0 .L0 
     /tmp/ccwxAIsx.s:302    .text:00000000000001f0 .L0 
     /tmp/ccwxAIsx.s:306    .text:00000000000001fc .L0 
     /tmp/ccwxAIsx.s:307    .text:00000000000001fc .L0 
     /tmp/ccwxAIsx.s:309    .text:0000000000000200 .L0 
     /tmp/ccwxAIsx.s:310    .text:0000000000000200 .L0 
     /tmp/ccwxAIsx.s:314    .text:0000000000000210 .L0 
     /tmp/ccwxAIsx.s:315    .text:0000000000000214 .L0 
     /tmp/ccwxAIsx.s:317    .text:0000000000000218 .L0 
GAS LISTING /tmp/ccwxAIsx.s 			page 16


     /tmp/ccwxAIsx.s:318    .text:0000000000000218 .L0 
     /tmp/ccwxAIsx.s:320    .text:000000000000021c .L0 
     /tmp/ccwxAIsx.s:322    .text:0000000000000220 .L0 
     /tmp/ccwxAIsx.s:324    .text:0000000000000224 .L0 
     /tmp/ccwxAIsx.s:326    .text:0000000000000228 .L0 
     /tmp/ccwxAIsx.s:332    .text:0000000000000228 _Z15test_semaphore2v
     /tmp/ccwxAIsx.s:335    .text:0000000000000228 .L0 
     /tmp/ccwxAIsx.s:336    .text:0000000000000228 .L0 
     /tmp/ccwxAIsx.s:337    .text:000000000000022c .L0 
     /tmp/ccwxAIsx.s:342    .text:000000000000023c .L0 
     /tmp/ccwxAIsx.s:343    .text:000000000000023c .L0 
     /tmp/ccwxAIsx.s:344    .text:000000000000023c .L0 
     /tmp/ccwxAIsx.s:345    .text:000000000000023c .L0 
     /tmp/ccwxAIsx.s:347    .text:0000000000000240 .L0 
     /tmp/ccwxAIsx.s:349    .text:0000000000000240 .L0 
     /tmp/ccwxAIsx.s:350    .text:0000000000000240 .L0 
     /tmp/ccwxAIsx.s:351    .text:0000000000000240 .L0 
     /tmp/ccwxAIsx.s:357    .text:0000000000000254 .L0 
     /tmp/ccwxAIsx.s:362    .text:000000000000025c .L0 
     /tmp/ccwxAIsx.s:363    .text:000000000000025c .L0 
     /tmp/ccwxAIsx.s:371    .text:000000000000027c .L0 
     /tmp/ccwxAIsx.s:372    .text:000000000000027c .L0 
     /tmp/ccwxAIsx.s:376    .text:000000000000028c .L0 
     /tmp/ccwxAIsx.s:377    .text:000000000000028c .L0 
     /tmp/ccwxAIsx.s:383    .text:00000000000002a0 .L0 
     /tmp/ccwxAIsx.s:384    .text:00000000000002a0 .L0 
     /tmp/ccwxAIsx.s:388    .text:00000000000002b0 .L0 
     /tmp/ccwxAIsx.s:392    .text:00000000000002b4 .L0 
     /tmp/ccwxAIsx.s:397    .text:00000000000002bc .L0 
     /tmp/ccwxAIsx.s:398    .text:00000000000002bc .L0 
     /tmp/ccwxAIsx.s:402    .text:00000000000002cc .L0 
     /tmp/ccwxAIsx.s:403    .text:00000000000002cc .L0 
     /tmp/ccwxAIsx.s:409    .text:00000000000002d8 .L0 
     /tmp/ccwxAIsx.s:417    .text:00000000000002e0 .L0 
     /tmp/ccwxAIsx.s:425    .text:00000000000002e8 .L0 
     /tmp/ccwxAIsx.s:426    .text:00000000000002e8 .L0 
     /tmp/ccwxAIsx.s:433    .text:00000000000002f4 .L0 
     /tmp/ccwxAIsx.s:437    .text:00000000000002f8 .L0 
     /tmp/ccwxAIsx.s:441    .text:0000000000000300 .L0 
     /tmp/ccwxAIsx.s:442    .text:0000000000000300 .L0 
     /tmp/ccwxAIsx.s:444    .text:0000000000000304 .L0 
     /tmp/ccwxAIsx.s:449    .text:0000000000000308 .L0 
     /tmp/ccwxAIsx.s:450    .text:0000000000000308 .L0 
     /tmp/ccwxAIsx.s:452    .text:000000000000030c .L0 
     /tmp/ccwxAIsx.s:460    .text:0000000000000314 .L0 
     /tmp/ccwxAIsx.s:461    .text:0000000000000314 .L0 
     /tmp/ccwxAIsx.s:465    .text:0000000000000324 .L0 
     /tmp/ccwxAIsx.s:466    .text:0000000000000324 .L0 
     /tmp/ccwxAIsx.s:474    .text:0000000000000340 .L0 
     /tmp/ccwxAIsx.s:475    .text:0000000000000340 .L0 
     /tmp/ccwxAIsx.s:479    .text:000000000000034c .L0 
     /tmp/ccwxAIsx.s:480    .text:000000000000034c .L0 
     /tmp/ccwxAIsx.s:482    .text:0000000000000350 .L0 
     /tmp/ccwxAIsx.s:483    .text:0000000000000350 .L0 
     /tmp/ccwxAIsx.s:487    .text:0000000000000360 .L0 
     /tmp/ccwxAIsx.s:488    .text:0000000000000364 .L0 
     /tmp/ccwxAIsx.s:490    .text:0000000000000368 .L0 
GAS LISTING /tmp/ccwxAIsx.s 			page 17


     /tmp/ccwxAIsx.s:491    .text:0000000000000368 .L0 
     /tmp/ccwxAIsx.s:493    .text:000000000000036c .L0 
     /tmp/ccwxAIsx.s:495    .text:0000000000000370 .L0 
     /tmp/ccwxAIsx.s:497    .text:0000000000000374 .L0 
     /tmp/ccwxAIsx.s:499    .text:0000000000000378 .L0 
     /tmp/ccwxAIsx.s:505    .text:0000000000000378 _Z14test_semaphorev
     /tmp/ccwxAIsx.s:508    .text:0000000000000378 .L0 
     /tmp/ccwxAIsx.s:509    .text:0000000000000378 .L0 
     /tmp/ccwxAIsx.s:510    .text:000000000000037c .L0 
     /tmp/ccwxAIsx.s:513    .text:0000000000000384 .L0 
     /tmp/ccwxAIsx.s:514    .text:0000000000000384 .L0 
     /tmp/ccwxAIsx.s:516    .text:0000000000000388 .L0 
     /tmp/ccwxAIsx.s:518    .text:0000000000000388 .L0 
     /tmp/ccwxAIsx.s:519    .text:0000000000000388 .L0 
     /tmp/ccwxAIsx.s:522    .text:0000000000000390 .L0 
     /tmp/ccwxAIsx.s:523    .text:0000000000000394 .L0 
     /tmp/ccwxAIsx.s:525    .text:0000000000000398 .L0 
     /tmp/ccwxAIsx.s:526    .text:0000000000000398 .L0 
     /tmp/ccwxAIsx.s:528    .text:000000000000039c .L0 
     /tmp/ccwxAIsx.s:530    .text:00000000000003a0 .L0 
     /tmp/ccwxAIsx.s:540    .bss:0000000000000000 mutex
     /tmp/ccwxAIsx.s:544    .bss:0000000000000008 changeIt
     /tmp/ccwxAIsx.s:537    .bss:0000000000000000 .LANCHOR0
     /tmp/ccwxAIsx.s:553    .text:00000000000003a0 .L0 
     /tmp/ccwxAIsx.s:29     .text:0000000000000018 .L0 
     /tmp/ccwxAIsx.s:100    .text:000000000000008c .L0 
     /tmp/ccwxAIsx.s:178    .text:00000000000000f4 .L0 
     /tmp/ccwxAIsx.s:191    .text:0000000000000114 .L0 
     /tmp/ccwxAIsx.s:143    .rodata.str1.8:0000000000000000 .LC0
     /tmp/ccwxAIsx.s:198    .text:000000000000012c .L0 
     /tmp/ccwxAIsx.s:146    .rodata.str1.8:0000000000000008 .LC1
     /tmp/ccwxAIsx.s:210    .text:0000000000000150 .L0 
     /tmp/ccwxAIsx.s:224    .text:000000000000016c .L0 
     /tmp/ccwxAIsx.s:149    .rodata.str1.8:0000000000000018 .LC2
     /tmp/ccwxAIsx.s:288    .text:00000000000001c4 .L0 
     /tmp/ccwxAIsx.s:293    .text:00000000000001d4 .L0 
     /tmp/ccwxAIsx.s:152    .rodata.str1.8:0000000000000028 .LC3
     /tmp/ccwxAIsx.s:310    .text:0000000000000200 .L0 
     /tmp/ccwxAIsx.s:352    .text:0000000000000244 .L0 
     /tmp/ccwxAIsx.s:365    .text:0000000000000264 .L0 
     /tmp/ccwxAIsx.s:372    .text:000000000000027c .L0 
     /tmp/ccwxAIsx.s:384    .text:00000000000002a0 .L0 
     /tmp/ccwxAIsx.s:398    .text:00000000000002bc .L0 
     /tmp/ccwxAIsx.s:461    .text:0000000000000314 .L0 
     /tmp/ccwxAIsx.s:466    .text:0000000000000324 .L0 
     /tmp/ccwxAIsx.s:483    .text:0000000000000350 .L0 
     /tmp/ccwxAIsx.s:216    .text:0000000000000164 .L7
     /tmp/ccwxAIsx.s:186    .text:000000000000010c .L14
     /tmp/ccwxAIsx.s:232    .text:0000000000000188 .L12
     /tmp/ccwxAIsx.s:220    .text:000000000000016c .L6
     /tmp/ccwxAIsx.s:262    .text:00000000000001a8 .L8
     /tmp/ccwxAIsx.s:282    .text:00000000000001c4 .L9
     /tmp/ccwxAIsx.s:256    .text:00000000000001a4 .L10
     /tmp/ccwxAIsx.s:239    .text:0000000000000190 .L15
     /tmp/ccwxAIsx.s:246    .text:0000000000000198 .L11
     /tmp/ccwxAIsx.s:390    .text:00000000000002b4 .L18
     /tmp/ccwxAIsx.s:360    .text:000000000000025c .L25
GAS LISTING /tmp/ccwxAIsx.s 			page 18


     /tmp/ccwxAIsx.s:406    .text:00000000000002d8 .L23
     /tmp/ccwxAIsx.s:394    .text:00000000000002bc .L17
     /tmp/ccwxAIsx.s:435    .text:00000000000002f8 .L19
     /tmp/ccwxAIsx.s:455    .text:0000000000000314 .L20
     /tmp/ccwxAIsx.s:429    .text:00000000000002f4 .L21
     /tmp/ccwxAIsx.s:413    .text:00000000000002e0 .L26
     /tmp/ccwxAIsx.s:419    .text:00000000000002e8 .L22
     /tmp/ccwxAIsx.s:2131   .debug_abbrev:0000000000000000 .Ldebug_abbrev0
     /tmp/ccwxAIsx.s:3503   .debug_str:0000000000000789 .LASF149
     /tmp/ccwxAIsx.s:3385   .debug_str:0000000000000408 .LASF150
     /tmp/ccwxAIsx.s:3303   .debug_str:00000000000001c0 .LASF151
     /tmp/ccwxAIsx.s:5      .text:0000000000000000 .Ltext0
     /tmp/ccwxAIsx.s:547    .text:00000000000003a0 .Letext0
     /tmp/ccwxAIsx.s:3243   .debug_line:0000000000000000 .Ldebug_line0
     /tmp/ccwxAIsx.s:3417   .debug_str:0000000000000512 .LASF0
     /tmp/ccwxAIsx.s:3439   .debug_str:000000000000059b .LASF1
     /tmp/ccwxAIsx.s:3395   .debug_str:0000000000000463 .LASF2
     /tmp/ccwxAIsx.s:3363   .debug_str:000000000000037c .LASF4
     /tmp/ccwxAIsx.s:3485   .debug_str:00000000000006f7 .LASF3
     /tmp/ccwxAIsx.s:3273   .debug_str:00000000000000ea .LASF5
     /tmp/ccwxAIsx.s:3313   .debug_str:0000000000000212 .LASF6
     /tmp/ccwxAIsx.s:3443   .debug_str:00000000000005bd .LASF7
     /tmp/ccwxAIsx.s:3415   .debug_str:00000000000004ff .LASF8
     /tmp/ccwxAIsx.s:3521   .debug_str:00000000000008f1 .LASF9
     /tmp/ccwxAIsx.s:3347   .debug_str:00000000000002fc .LASF10
     /tmp/ccwxAIsx.s:3455   .debug_str:0000000000000623 .LASF11
     /tmp/ccwxAIsx.s:3507   .debug_str:000000000000085b .LASF12
     /tmp/ccwxAIsx.s:3277   .debug_str:0000000000000106 .LASF13
     /tmp/ccwxAIsx.s:3249   .debug_str:0000000000000014 .LASF14
     /tmp/ccwxAIsx.s:3291   .debug_str:0000000000000169 .LASF15
     /tmp/ccwxAIsx.s:3477   .debug_str:00000000000006ba .LASF16
     /tmp/ccwxAIsx.s:3305   .debug_str:00000000000001e3 .LASF17
     /tmp/ccwxAIsx.s:3563   .debug_str:0000000000000a67 .LASF58
     /tmp/ccwxAIsx.s:3255   .debug_str:0000000000000041 .LASF75
     /tmp/ccwxAIsx.s:3259   .debug_str:000000000000006b .LASF18
     /tmp/ccwxAIsx.s:3529   .debug_str:0000000000000937 .LASF20
     /tmp/ccwxAIsx.s:3537   .debug_str:000000000000096a .LASF19
     /tmp/ccwxAIsx.s:3245   .debug_str:0000000000000000 .LASF21
     /tmp/ccwxAIsx.s:3345   .debug_str:00000000000002ec .LASF22
     /tmp/ccwxAIsx.s:3269   .debug_str:00000000000000c2 .LASF23
     /tmp/ccwxAIsx.s:3493   .debug_str:0000000000000735 .LASF24
     /tmp/ccwxAIsx.s:3297   .debug_str:0000000000000193 .LASF26
     /tmp/ccwxAIsx.s:3495   .debug_str:0000000000000745 .LASF25
     /tmp/ccwxAIsx.s:3421   .debug_str:0000000000000528 .LASF27
     /tmp/ccwxAIsx.s:3373   .debug_str:00000000000003bf .LASF28
     /tmp/ccwxAIsx.s:3515   .debug_str:00000000000008a9 .LASF29
     /tmp/ccwxAIsx.s:3469   .debug_str:0000000000000675 .LASF152
     /tmp/ccwxAIsx.s:3473   .debug_str:000000000000068a .LASF30
     /tmp/ccwxAIsx.s:3479   .debug_str:00000000000006d0 .LASF31
     /tmp/ccwxAIsx.s:3283   .debug_str:0000000000000133 .LASF33
     /tmp/ccwxAIsx.s:3419   .debug_str:000000000000051f .LASF32
     /tmp/ccwxAIsx.s:3357   .debug_str:0000000000000353 .LASF34
     /tmp/ccwxAIsx.s:3323   .debug_str:000000000000025f .LASF35
     /tmp/ccwxAIsx.s:3399   .debug_str:000000000000047d .LASF36
     /tmp/ccwxAIsx.s:3463   .debug_str:0000000000000655 .LASF37
     /tmp/ccwxAIsx.s:3445   .debug_str:00000000000005d0 .LASF38
     /tmp/ccwxAIsx.s:3453   .debug_str:000000000000060b .LASF40
GAS LISTING /tmp/ccwxAIsx.s 			page 19


     /tmp/ccwxAIsx.s:3409   .debug_str:00000000000004d2 .LASF39
     /tmp/ccwxAIsx.s:3267   .debug_str:00000000000000aa .LASF41
     /tmp/ccwxAIsx.s:3549   .debug_str:00000000000009dd .LASF42
     /tmp/ccwxAIsx.s:3387   .debug_str:000000000000041f .LASF43
     /tmp/ccwxAIsx.s:3377   .debug_str:00000000000003e6 .LASF44
     /tmp/ccwxAIsx.s:3475   .debug_str:00000000000006a8 .LASF45
     /tmp/ccwxAIsx.s:3397   .debug_str:0000000000000471 .LASF46
     /tmp/ccwxAIsx.s:3525   .debug_str:000000000000091a .LASF47
     /tmp/ccwxAIsx.s:3319   .debug_str:0000000000000238 .LASF48
     /tmp/ccwxAIsx.s:3509   .debug_str:000000000000086a .LASF49
     /tmp/ccwxAIsx.s:3551   .debug_str:00000000000009e7 .LASF50
     /tmp/ccwxAIsx.s:3299   .debug_str:00000000000001a1 .LASF51
     /tmp/ccwxAIsx.s:3435   .debug_str:000000000000058c .LASF52
     /tmp/ccwxAIsx.s:3513   .debug_str:0000000000000897 .LASF53
     /tmp/ccwxAIsx.s:3301   .debug_str:00000000000001b8 .LASF54
     /tmp/ccwxAIsx.s:3285   .debug_str:0000000000000144 .LASF55
     /tmp/ccwxAIsx.s:3261   .debug_str:0000000000000071 .LASF56
     /tmp/ccwxAIsx.s:3337   .debug_str:00000000000002b4 .LASF57
     /tmp/ccwxAIsx.s:3403   .debug_str:000000000000048a .LASF59
     /tmp/ccwxAIsx.s:3371   .debug_str:00000000000003a7 .LASF60
     /tmp/ccwxAIsx.s:3367   .debug_str:000000000000038c .LASF61
     /tmp/ccwxAIsx.s:3425   .debug_str:000000000000053c .LASF62
     /tmp/ccwxAIsx.s:3423   .debug_str:0000000000000536 .LASF63
     /tmp/ccwxAIsx.s:3427   .debug_str:0000000000000541 .LASF64
     /tmp/ccwxAIsx.s:3365   .debug_str:0000000000000383 .LASF65
     /tmp/ccwxAIsx.s:3457   .debug_str:0000000000000632 .LASF66
     /tmp/ccwxAIsx.s:3535   .debug_str:0000000000000962 .LASF67
     /tmp/ccwxAIsx.s:3437   .debug_str:0000000000000593 .LASF68
     /tmp/ccwxAIsx.s:3561   .debug_str:0000000000000a59 .LASF69
     /tmp/ccwxAIsx.s:3449   .debug_str:00000000000005e4 .LASF70
     /tmp/ccwxAIsx.s:3505   .debug_str:000000000000084d .LASF71
     /tmp/ccwxAIsx.s:3281   .debug_str:0000000000000122 .LASF72
     /tmp/ccwxAIsx.s:3487   .debug_str:0000000000000709 .LASF80
     /tmp/ccwxAIsx.s:3355   .debug_str:0000000000000348 .LASF73
     /tmp/ccwxAIsx.s:3381   .debug_str:00000000000003f5 .LASF74
     /tmp/ccwxAIsx.s:3531   .debug_str:0000000000000944 .LASF82
     /tmp/ccwxAIsx.s:3405   .debug_str:000000000000049c .LASF84
     /tmp/ccwxAIsx.s:3391   .debug_str:0000000000000445 .LASF153
     /tmp/ccwxAIsx.s:3451   .debug_str:00000000000005f1 .LASF154
     /tmp/ccwxAIsx.s:3279   .debug_str:0000000000000116 .LASF76
     /tmp/ccwxAIsx.s:3559   .debug_str:0000000000000a54 .LASF77
     /tmp/ccwxAIsx.s:3499   .debug_str:0000000000000762 .LASF78
     /tmp/ccwxAIsx.s:3253   .debug_str:0000000000000030 .LASF79
     /tmp/ccwxAIsx.s:3251   .debug_str:0000000000000024 .LASF81
     /tmp/ccwxAIsx.s:3361   .debug_str:0000000000000372 .LASF83
     /tmp/ccwxAIsx.s:3557   .debug_str:0000000000000a25 .LASF85
     /tmp/ccwxAIsx.s:3393   .debug_str:0000000000000453 .LASF86
     /tmp/ccwxAIsx.s:3555   .debug_str:00000000000009fc .LASF87
     /tmp/ccwxAIsx.s:3489   .debug_str:000000000000071a .LASF88
     /tmp/ccwxAIsx.s:3257   .debug_str:0000000000000049 .LASF89
     /tmp/ccwxAIsx.s:3461   .debug_str:000000000000064c .LASF90
     /tmp/ccwxAIsx.s:3431   .debug_str:000000000000055e .LASF91
     /tmp/ccwxAIsx.s:3331   .debug_str:000000000000028e .LASF92
     /tmp/ccwxAIsx.s:3317   .debug_str:000000000000022d .LASF93
     /tmp/ccwxAIsx.s:3333   .debug_str:0000000000000293 .LASF94
     /tmp/ccwxAIsx.s:3295   .debug_str:000000000000017f .LASF95
     /tmp/ccwxAIsx.s:3329   .debug_str:0000000000000289 .LASF96
GAS LISTING /tmp/ccwxAIsx.s 			page 20


     /tmp/ccwxAIsx.s:3351   .debug_str:0000000000000322 .LASF97
     /tmp/ccwxAIsx.s:3481   .debug_str:00000000000006d6 .LASF98
     /tmp/ccwxAIsx.s:3523   .debug_str:0000000000000901 .LASF99
     /tmp/ccwxAIsx.s:3307   .debug_str:00000000000001f9 .LASF100
     /tmp/ccwxAIsx.s:3517   .debug_str:00000000000008cd .LASF101
     /tmp/ccwxAIsx.s:3543   .debug_str:00000000000009a6 .LASF102
     /tmp/ccwxAIsx.s:3539   .debug_str:0000000000000977 .LASF103
     /tmp/ccwxAIsx.s:3467   .debug_str:0000000000000661 .LASF104
     /tmp/ccwxAIsx.s:3315   .debug_str:0000000000000219 .LASF105
     /tmp/ccwxAIsx.s:3335   .debug_str:000000000000029f .LASF106
     /tmp/ccwxAIsx.s:3429   .debug_str:0000000000000549 .LASF107
     /tmp/ccwxAIsx.s:3411   .debug_str:00000000000004dd .LASF108
     /tmp/ccwxAIsx.s:3349   .debug_str:000000000000030a .LASF109
     /tmp/ccwxAIsx.s:3383   .debug_str:0000000000000400 .LASF110
     /tmp/ccwxAIsx.s:3483   .debug_str:00000000000006dd .LASF111
     /tmp/ccwxAIsx.s:3271   .debug_str:00000000000000cf .LASF155
     /tmp/ccwxAIsx.s:3369   .debug_str:0000000000000391 .LASF156
     /tmp/ccwxAIsx.s:3545   .debug_str:00000000000009b6 .LASF112
     /tmp/ccwxAIsx.s:3311   .debug_str:000000000000020d .LASF113
     /tmp/ccwxAIsx.s:3401   .debug_str:0000000000000485 .LASF114
     /tmp/ccwxAIsx.s:3379   .debug_str:00000000000003ec .LASF115
     /tmp/ccwxAIsx.s:3289   .debug_str:0000000000000163 .LASF116
     /tmp/ccwxAIsx.s:3353   .debug_str:0000000000000339 .LASF117
     /tmp/ccwxAIsx.s:3265   .debug_str:0000000000000096 .LASF118
     /tmp/ccwxAIsx.s:506    .text:0000000000000378 .LFB34
     /tmp/ccwxAIsx.s:531    .text:00000000000003a0 .LFE34
     /tmp/ccwxAIsx.s:520    .text:0000000000000390 .LVL59
     /tmp/ccwxAIsx.s:3389   .debug_str:0000000000000435 .LASF119
     /tmp/ccwxAIsx.s:3263   .debug_str:0000000000000081 .LASF120
     /tmp/ccwxAIsx.s:333    .text:0000000000000228 .LFB33
     /tmp/ccwxAIsx.s:500    .text:0000000000000378 .LFE33
     /tmp/ccwxAIsx.s:3343   .debug_str:00000000000002e4 .LASF121
     /tmp/ccwxAIsx.s:355    .text:0000000000000254 .LBB24
     /tmp/ccwxAIsx.s:395    .text:00000000000002bc .LBE24
     /tmp/ccwxAIsx.s:3088   .debug_loc:0000000000000000 .LLST9
     /tmp/ccwxAIsx.s:369    .text:000000000000027c .LVL40
     /tmp/ccwxAIsx.s:374    .text:000000000000028c .LVL41
     /tmp/ccwxAIsx.s:381    .text:00000000000002a0 .LVL42
     /tmp/ccwxAIsx.s:386    .text:00000000000002b0 .LVL43
     /tmp/ccwxAIsx.s:407    .text:00000000000002d8 .LBB25
     /tmp/ccwxAIsx.s:458    .text:0000000000000314 .LBE25
     /tmp/ccwxAIsx.s:3095   .debug_loc:0000000000000023 .LLST10
     /tmp/ccwxAIsx.s:3541   .debug_str:000000000000099a .LASF122
     /tmp/ccwxAIsx.s:3287   .debug_str:0000000000000157 .LASF126
     /tmp/ccwxAIsx.s:3106   .debug_loc:0000000000000059 .LLST11
     /tmp/ccwxAIsx.s:3553   .debug_str:00000000000009f2 .LASF123
     /tmp/ccwxAIsx.s:414    .text:00000000000002e0 .LBB26
     /tmp/ccwxAIsx.s:3229   .debug_ranges:0000000000000000 .Ldebug_ranges0
     /tmp/ccwxAIsx.s:3113   .debug_loc:000000000000007c .LLST12
     /tmp/ccwxAIsx.s:418    .text:00000000000002e8 .LVL48
     /tmp/ccwxAIsx.s:422    .text:00000000000002e8 .LBB29
     /tmp/ccwxAIsx.s:431    .text:00000000000002f4 .LBE29
     /tmp/ccwxAIsx.s:3124   .debug_loc:00000000000000b2 .LLST13
     /tmp/ccwxAIsx.s:428    .text:00000000000002f4 .LVL49
     /tmp/ccwxAIsx.s:354    .text:0000000000000254 .LVL38
     /tmp/ccwxAIsx.s:404    .text:00000000000002d4 .LVL45
     /tmp/ccwxAIsx.s:463    .text:0000000000000324 .LVL54
GAS LISTING /tmp/ccwxAIsx.s 			page 21


     /tmp/ccwxAIsx.s:472    .text:0000000000000340 .LVL56
     /tmp/ccwxAIsx.s:477    .text:000000000000034c .LVL57
     /tmp/ccwxAIsx.s:485    .text:0000000000000360 .LVL58
     /tmp/ccwxAIsx.s:3533   .debug_str:0000000000000952 .LASF124
     /tmp/ccwxAIsx.s:3275   .debug_str:00000000000000f1 .LASF125
     /tmp/ccwxAIsx.s:159    .text:00000000000000d8 .LFB32
     /tmp/ccwxAIsx.s:327    .text:0000000000000228 .LFE32
     /tmp/ccwxAIsx.s:181    .text:0000000000000104 .LBB16
     /tmp/ccwxAIsx.s:221    .text:000000000000016c .LBE16
     /tmp/ccwxAIsx.s:3131   .debug_loc:00000000000000d5 .LLST4
     /tmp/ccwxAIsx.s:195    .text:000000000000012c .LVL19
     /tmp/ccwxAIsx.s:200    .text:000000000000013c .LVL20
     /tmp/ccwxAIsx.s:207    .text:0000000000000150 .LVL21
     /tmp/ccwxAIsx.s:212    .text:0000000000000160 .LVL22
     /tmp/ccwxAIsx.s:233    .text:0000000000000188 .LBB17
     /tmp/ccwxAIsx.s:285    .text:00000000000001c4 .LBE17
     /tmp/ccwxAIsx.s:3138   .debug_loc:00000000000000f8 .LLST5
     /tmp/ccwxAIsx.s:3149   .debug_loc:000000000000012e .LLST6
     /tmp/ccwxAIsx.s:240    .text:0000000000000190 .LBB18
     /tmp/ccwxAIsx.s:3156   .debug_loc:0000000000000151 .LLST7
     /tmp/ccwxAIsx.s:245    .text:0000000000000198 .LVL27
     /tmp/ccwxAIsx.s:249    .text:0000000000000198 .LBB21
     /tmp/ccwxAIsx.s:258    .text:00000000000001a4 .LBE21
     /tmp/ccwxAIsx.s:3167   .debug_loc:0000000000000187 .LLST8
     /tmp/ccwxAIsx.s:255    .text:00000000000001a4 .LVL28
     /tmp/ccwxAIsx.s:180    .text:0000000000000104 .LVL17
     /tmp/ccwxAIsx.s:230    .text:0000000000000184 .LVL24
     /tmp/ccwxAIsx.s:290    .text:00000000000001d4 .LVL33
     /tmp/ccwxAIsx.s:299    .text:00000000000001f0 .LVL35
     /tmp/ccwxAIsx.s:304    .text:00000000000001fc .LVL36
     /tmp/ccwxAIsx.s:312    .text:0000000000000210 .LVL37
     /tmp/ccwxAIsx.s:3341   .debug_str:00000000000002d9 .LASF127
     /tmp/ccwxAIsx.s:3459   .debug_str:000000000000063b .LASF128
     /tmp/ccwxAIsx.s:82     .text:0000000000000074 .LFB31
     /tmp/ccwxAIsx.s:139    .text:00000000000000d8 .LFE31
     /tmp/ccwxAIsx.s:3174   .debug_loc:00000000000001aa .LLST2
     /tmp/ccwxAIsx.s:3188   .debug_loc:00000000000001e3 .LLST3
     /tmp/ccwxAIsx.s:104    .text:00000000000000a0 .LVL11
     /tmp/ccwxAIsx.s:115    .text:00000000000000b0 .LVL14
     /tmp/ccwxAIsx.s:123    .text:00000000000000c0 .LVL15
     /tmp/ccwxAIsx.s:3359   .debug_str:0000000000000367 .LASF129
     /tmp/ccwxAIsx.s:3491   .debug_str:0000000000000724 .LASF130
     /tmp/ccwxAIsx.s:10     .text:0000000000000000 .LFB30
     /tmp/ccwxAIsx.s:76     .text:0000000000000074 .LFE30
     /tmp/ccwxAIsx.s:3195   .debug_loc:0000000000000206 .LLST0
     /tmp/ccwxAIsx.s:3209   .debug_loc:000000000000023f .LLST1
     /tmp/ccwxAIsx.s:33     .text:000000000000002c .LVL2
     /tmp/ccwxAIsx.s:44     .text:000000000000003c .LVL5
     /tmp/ccwxAIsx.s:49     .text:0000000000000048 .LVL6
     /tmp/ccwxAIsx.s:60     .text:000000000000005c .LVL7
     /tmp/ccwxAIsx.s:3527   .debug_str:0000000000000932 .LASF157
     /tmp/ccwxAIsx.s:3465   .debug_str:000000000000065c .LASF131
     /tmp/ccwxAIsx.s:3293   .debug_str:0000000000000175 .LASF132
     /tmp/ccwxAIsx.s:3407   .debug_str:00000000000004c5 .LASF158
     /tmp/ccwxAIsx.s:3501   .debug_str:0000000000000767 .LASF133
     /tmp/ccwxAIsx.s:3309   .debug_str:00000000000001ff .LASF135
     /tmp/ccwxAIsx.s:3547   .debug_str:00000000000009ca .LASF134
GAS LISTING /tmp/ccwxAIsx.s 			page 22


     /tmp/ccwxAIsx.s:3433   .debug_str:0000000000000580 .LASF136
     /tmp/ccwxAIsx.s:3441   .debug_str:00000000000005ae .LASF137
     /tmp/ccwxAIsx.s:3339   .debug_str:00000000000002d0 .LASF138
     /tmp/ccwxAIsx.s:3247   .debug_str:000000000000000d .LASF159
     /tmp/ccwxAIsx.s:3321   .debug_str:0000000000000244 .LASF139
     /tmp/ccwxAIsx.s:3327   .debug_str:0000000000000280 .LASF140
     /tmp/ccwxAIsx.s:3375   .debug_str:00000000000003cc .LASF141
     /tmp/ccwxAIsx.s:3497   .debug_str:0000000000000758 .LASF142
     /tmp/ccwxAIsx.s:3325   .debug_str:0000000000000267 .LASF143
     /tmp/ccwxAIsx.s:3447   .debug_str:00000000000005db .LASF144
     /tmp/ccwxAIsx.s:3511   .debug_str:0000000000000882 .LASF145
     /tmp/ccwxAIsx.s:3471   .debug_str:000000000000067a .LASF146
     /tmp/ccwxAIsx.s:3413   .debug_str:00000000000004e3 .LASF147
     /tmp/ccwxAIsx.s:3519   .debug_str:00000000000008e6 .LASF148
     /tmp/ccwxAIsx.s:359    .text:000000000000025c .LVL39
     /tmp/ccwxAIsx.s:410    .text:00000000000002dc .LVL46
     /tmp/ccwxAIsx.s:412    .text:00000000000002e0 .LVL47
     /tmp/ccwxAIsx.s:434    .text:00000000000002f8 .LVL50
     /tmp/ccwxAIsx.s:439    .text:0000000000000300 .LVL51
     /tmp/ccwxAIsx.s:454    .text:0000000000000314 .LVL53
     /tmp/ccwxAIsx.s:467    .text:000000000000032c .LVL55
     /tmp/ccwxAIsx.s:445    .text:0000000000000308 .LVL52
     /tmp/ccwxAIsx.s:185    .text:000000000000010c .LVL18
     /tmp/ccwxAIsx.s:236    .text:000000000000018c .LVL25
     /tmp/ccwxAIsx.s:238    .text:0000000000000190 .LVL26
     /tmp/ccwxAIsx.s:261    .text:00000000000001a8 .LVL29
     /tmp/ccwxAIsx.s:266    .text:00000000000001b0 .LVL30
     /tmp/ccwxAIsx.s:281    .text:00000000000001c4 .LVL32
     /tmp/ccwxAIsx.s:294    .text:00000000000001dc .LVL34
     /tmp/ccwxAIsx.s:272    .text:00000000000001b8 .LVL31
     /tmp/ccwxAIsx.s:85     .text:0000000000000074 .LVL9
     /tmp/ccwxAIsx.s:102    .text:0000000000000098 .LVL10
     /tmp/ccwxAIsx.s:108    .text:00000000000000a4 .LVL12
     /tmp/ccwxAIsx.s:134    .text:00000000000000d0 .LVL16
     /tmp/ccwxAIsx.s:14     .text:0000000000000000 .LVL0
     /tmp/ccwxAIsx.s:31     .text:0000000000000024 .LVL1
     /tmp/ccwxAIsx.s:37     .text:0000000000000030 .LVL3
     /tmp/ccwxAIsx.s:71     .text:000000000000006c .LVL8
     /tmp/ccwxAIsx.s:554    .debug_info:0000000000000000 .Ldebug_info0
     /tmp/ccwxAIsx.s:248    .text:0000000000000198 .LBE18
     /tmp/ccwxAIsx.s:273    .text:00000000000001b8 .LBB23
     /tmp/ccwxAIsx.s:284    .text:00000000000001c4 .LBE23
     /tmp/ccwxAIsx.s:421    .text:00000000000002e8 .LBE26
     /tmp/ccwxAIsx.s:446    .text:0000000000000308 .LBB31
     /tmp/ccwxAIsx.s:457    .text:0000000000000314 .LBE31

UNDEFINED SYMBOLS
_Z8sem_waitP10KSemaphore
_Z15thread_dispatchv
_Z9sem_closeP10KSemaphore
_Z10sem_signalP10KSemaphore
_Z8sem_openPP10KSemaphorej
_Z13thread_createPP4KPCBPFvPvES2_
_Z11printStringPKc
_Z8printIntiii
_ZN4KPCB7counterE
_ZN4KPCB5yieldEv
GAS LISTING /tmp/ccwxAIsx.s 			page 23


_ZdaPv
_ZN16KMemoryAllocator8mem_freeEPv
