GAS LISTING /tmp/cczOroum.s 			page 1


   1              		.file	"test_thread.cpp"
   2              		.option pic
   3              		.option norelax
   4              		.text
   5              	.Ltext0:
   6              		.section	.text._ZN6Thread3runEv,"axG",@progbits,_ZN6Thread3runEv,comdat
   7              		.align	2
   8              		.weak	_ZN6Thread3runEv
  10              	_ZN6Thread3runEv:
  11              	.LFB33:
  12              		.file 1 "src/../h/syscall_cpp.h"
   1:src/../h/syscall_cpp.h **** //
   2:src/../h/syscall_cpp.h **** // Created by os on 6/22/22.
   3:src/../h/syscall_cpp.h **** //
   4:src/../h/syscall_cpp.h **** 
   5:src/../h/syscall_cpp.h **** #ifndef PROJECT_BASE_V1_1_SYSCALL_CPP_H
   6:src/../h/syscall_cpp.h **** #define PROJECT_BASE_V1_1_SYSCALL_CPP_H
   7:src/../h/syscall_cpp.h **** 
   8:src/../h/syscall_cpp.h **** #include "syscall_c.h"
   9:src/../h/syscall_cpp.h **** 
  10:src/../h/syscall_cpp.h **** void* operator new (size_t);
  11:src/../h/syscall_cpp.h **** void operator delete (void*);
  12:src/../h/syscall_cpp.h **** void* operator new[] (size_t);
  13:src/../h/syscall_cpp.h **** void operator delete[] (void*);
  14:src/../h/syscall_cpp.h **** 
  15:src/../h/syscall_cpp.h **** class Thread {
  16:src/../h/syscall_cpp.h **** public:
  17:src/../h/syscall_cpp.h ****     Thread (void (*body)(void*), void* arg);
  18:src/../h/syscall_cpp.h ****     virtual ~Thread ();
  19:src/../h/syscall_cpp.h ****     int start ();
  20:src/../h/syscall_cpp.h ****     static void dispatch ();
  21:src/../h/syscall_cpp.h ****     static int sleep (time_t);
  22:src/../h/syscall_cpp.h **** protected:
  23:src/../h/syscall_cpp.h ****     Thread ();
  24:src/../h/syscall_cpp.h ****     virtual void run () {}
  13              		.loc 1 24 18
  14              		.cfi_startproc
  15              	.LVL0:
  16 0000 130101FF 		addi	sp,sp,-16
  17              		.cfi_def_cfa_offset 16
  18 0004 23348100 		sd	s0,8(sp)
  19              		.cfi_offset 8, -8
  20 0008 13040101 		addi	s0,sp,16
  21              		.cfi_def_cfa 8, 0
  22              		.loc 1 24 26 is_stmt 0
  23 000c 03348100 		ld	s0,8(sp)
  24              		.cfi_restore 8
  25              		.cfi_def_cfa 2, 16
  26 0010 13010101 		addi	sp,sp,16
  27              		.cfi_def_cfa_offset 0
  28 0014 67800000 		jr	ra
  29              		.cfi_endproc
  30              	.LFE33:
  32              		.section	.text._ZN14PeriodicThread18periodicActivationEv,"axG",@progbits,_ZN14PeriodicThread18peri
  33              		.align	2
  34              		.weak	_ZN14PeriodicThread18periodicActivationEv
  36              	_ZN14PeriodicThread18periodicActivationEv:
GAS LISTING /tmp/cczOroum.s 			page 2


  37              	.LFB34:
  25:src/../h/syscall_cpp.h **** private:
  26:src/../h/syscall_cpp.h ****     thread_t myHandle;
  27:src/../h/syscall_cpp.h ****     static void wrapper(void* args);
  28:src/../h/syscall_cpp.h **** };
  29:src/../h/syscall_cpp.h **** 
  30:src/../h/syscall_cpp.h **** class Semaphore {
  31:src/../h/syscall_cpp.h **** public:
  32:src/../h/syscall_cpp.h ****     Semaphore (unsigned init = 1);
  33:src/../h/syscall_cpp.h ****     virtual ~Semaphore ();
  34:src/../h/syscall_cpp.h ****     int wait ();
  35:src/../h/syscall_cpp.h ****     int signal ();
  36:src/../h/syscall_cpp.h **** private:
  37:src/../h/syscall_cpp.h ****     sem_t myHandle;
  38:src/../h/syscall_cpp.h **** };
  39:src/../h/syscall_cpp.h **** 
  40:src/../h/syscall_cpp.h **** class PeriodicThread : public Thread {
  41:src/../h/syscall_cpp.h **** protected:
  42:src/../h/syscall_cpp.h ****     PeriodicThread (time_t period);
  43:src/../h/syscall_cpp.h ****     virtual void periodicActivation () {}
  38              		.loc 1 43 18 is_stmt 1
  39              		.cfi_startproc
  40              	.LVL1:
  41 0000 130101FF 		addi	sp,sp,-16
  42              		.cfi_def_cfa_offset 16
  43 0004 23348100 		sd	s0,8(sp)
  44              		.cfi_offset 8, -8
  45 0008 13040101 		addi	s0,sp,16
  46              		.cfi_def_cfa 8, 0
  47              		.loc 1 43 41 is_stmt 0
  48 000c 03348100 		ld	s0,8(sp)
  49              		.cfi_restore 8
  50              		.cfi_def_cfa 2, 16
  51 0010 13010101 		addi	sp,sp,16
  52              		.cfi_def_cfa_offset 0
  53 0014 67800000 		jr	ra
  54              		.cfi_endproc
  55              	.LFE34:
  57              		.section	.rodata.str1.8,"aMS",@progbits,1
  58              		.align	3
  59              	.LC0:
  60 0000 413A2069 		.string	"A: i="
  60      3D00
  61 0006 0000     		.align	3
  62              	.LC1:
  63 0008 0A00     		.string	"\n"
  64              		.text
  65              		.align	2
  66              		.globl	_Z15workerBodyPedjaPv
  68              	_Z15workerBodyPedjaPv:
  69              	.LFB40:
  70              		.file 2 "src/test_thread.cpp"
   1:src/test_thread.cpp **** //
   2:src/test_thread.cpp **** // Created by os on 6/22/22.
   3:src/test_thread.cpp **** //
   4:src/test_thread.cpp **** 
   5:src/test_thread.cpp **** #include "../h/KPCB.hpp"
GAS LISTING /tmp/cczOroum.s 			page 3


   6:src/test_thread.cpp **** #include "../h/KRiscv.hpp"
   7:src/test_thread.cpp **** #include "../h/syscall_c.h"
   8:src/test_thread.cpp **** #include "../h/syscall_cpp.h"
   9:src/test_thread.cpp **** #include "../test/printing.hpp"
  10:src/test_thread.cpp **** 
  11:src/test_thread.cpp **** uint64 fibonacciSone(uint64 n) {
  12:src/test_thread.cpp ****     if (n == 0 || n == 1) { return n; }
  13:src/test_thread.cpp ****     if (n % 4 == 0) thread_dispatch();
  14:src/test_thread.cpp ****     return fibonacciSone(n - 1) + fibonacciSone(n - 2);
  15:src/test_thread.cpp **** }
  16:src/test_thread.cpp **** void workerBodyDjape(void* arg) {
  17:src/test_thread.cpp ****     int ind = *(int*)arg;
  18:src/test_thread.cpp ****     uint8 i = 0;
  19:src/test_thread.cpp ****     for (; i < 3; i++) {
  20:src/test_thread.cpp ****         if (ind) time_sleep(10);
  21:src/test_thread.cpp ****         thread_exit();
  22:src/test_thread.cpp ****         printString("A: i=");
  23:src/test_thread.cpp ****         printInt(i);
  24:src/test_thread.cpp ****         printString("\n");
  25:src/test_thread.cpp ****     }
  26:src/test_thread.cpp **** 
  27:src/test_thread.cpp ****     printString("A: yield\n");
  28:src/test_thread.cpp ****     asm volatile ("li t1, 7");
  29:src/test_thread.cpp ****     thread_dispatch();
  30:src/test_thread.cpp **** 
  31:src/test_thread.cpp ****     uint64 t1 = 0;
  32:src/test_thread.cpp ****     asm volatile ("mv %[t1], t1" : [t1] "=r"(t1));
  33:src/test_thread.cpp ****     printString("A: t1=");
  34:src/test_thread.cpp ****     printInt(t1);
  35:src/test_thread.cpp ****     printString("\n");
  36:src/test_thread.cpp **** 
  37:src/test_thread.cpp ****     uint64 result = fibonacciSone(20);
  38:src/test_thread.cpp ****     printString("A: fibonaci=");
  39:src/test_thread.cpp ****     printInt(result);
  40:src/test_thread.cpp ****     printString("\n");
  41:src/test_thread.cpp **** 
  42:src/test_thread.cpp ****     for (; i < 6; i++) {
  43:src/test_thread.cpp ****         thread_exit();
  44:src/test_thread.cpp ****         thread_dispatch();
  45:src/test_thread.cpp ****         printString("A promenio\n");
  46:src/test_thread.cpp ****         printString("A: i=");
  47:src/test_thread.cpp ****         printInt(i);
  48:src/test_thread.cpp ****         printString("\n");
  49:src/test_thread.cpp ****     }
  50:src/test_thread.cpp ****     printString("A zavrsio\n");
  51:src/test_thread.cpp **** }
  52:src/test_thread.cpp **** void workerBodyComi(void* arg) {
  53:src/test_thread.cpp ****     int ind = *(int*)arg;
  54:src/test_thread.cpp ****     uint8 i = 10;
  55:src/test_thread.cpp ****     for (; i < 13; i++) {
  56:src/test_thread.cpp ****         if (ind) time_sleep(10);
  57:src/test_thread.cpp ****         thread_exit();
  58:src/test_thread.cpp ****         printString("B: i=");
  59:src/test_thread.cpp ****         printInt(i);
  60:src/test_thread.cpp ****         printString("\n");
  61:src/test_thread.cpp ****     }
  62:src/test_thread.cpp **** 
GAS LISTING /tmp/cczOroum.s 			page 4


  63:src/test_thread.cpp ****     printString("B: yield\n");
  64:src/test_thread.cpp ****     asm volatile ("li t1, 5");
  65:src/test_thread.cpp ****     thread_dispatch();
  66:src/test_thread.cpp **** 
  67:src/test_thread.cpp ****     uint64 result = fibonacciSone(23);
  68:src/test_thread.cpp ****     printString("B: fibonaci=");
  69:src/test_thread.cpp ****     printInt(result);
  70:src/test_thread.cpp ****     printString("\n");
  71:src/test_thread.cpp **** 
  72:src/test_thread.cpp ****     for (; i < 16; i++) {
  73:src/test_thread.cpp ****         thread_exit();
  74:src/test_thread.cpp ****         thread_dispatch();
  75:src/test_thread.cpp ****         printString("B promenio\n");
  76:src/test_thread.cpp ****         printString("B: i=");
  77:src/test_thread.cpp ****         printInt(i);
  78:src/test_thread.cpp ****         printString("\n");
  79:src/test_thread.cpp ****     }
  80:src/test_thread.cpp ****     printString("B zavrsio\n");
  81:src/test_thread.cpp **** }
  82:src/test_thread.cpp **** void test_thread_sync() {
  83:src/test_thread.cpp ****     /*
  84:src/test_thread.cpp ****     KPCB* threads[3];
  85:src/test_thread.cpp ****     threads[0] = KPCB::createThread(nullptr);
  86:src/test_thread.cpp ****     KPCB::running = threads[0];
  87:src/test_thread.cpp ****     threads[1] = KPCB::createThread(&workerBodyA);
  88:src/test_thread.cpp ****     printString("ThreadA created\n");
  89:src/test_thread.cpp ****     threads[2] = KPCB::createThread(&workerBodyB);
  90:src/test_thread.cpp ****     printString("ThreadB created\n");
  91:src/test_thread.cpp ****     while (!(threads[1]->isFinished() && threads[2]->isFinished())) KPCB::yield();
  92:src/test_thread.cpp ****     for (auto& thr: threads) delete thr;
  93:src/test_thread.cpp ****     printString("Finished\n");
  94:src/test_thread.cpp ****     */
  95:src/test_thread.cpp **** 
  96:src/test_thread.cpp ****     /*
  97:src/test_thread.cpp ****     KPCB* threads[3];
  98:src/test_thread.cpp ****     threads[0] = KPCB::createThread(nullptr, nullptr, nullptr);
  99:src/test_thread.cpp ****     KPCB::running = threads[0];
 100:src/test_thread.cpp ****     size_t sizeBlock = (2 * DEFAULT_STACK_SIZE + 16) / MEM_BLOCK_SIZE + ((2 * DEFAULT_STACK_SIZE + 
 101:src/test_thread.cpp ****     void* stackA = KMemoryAllocator::mem_alloc(sizeBlock);
 102:src/test_thread.cpp ****     threads[1] = KPCB::createThread(&workerBodyA, nullptr, stackA);
 103:src/test_thread.cpp ****     printString("ThreadA created\n");
 104:src/test_thread.cpp ****     void* stackB = KMemoryAllocator::mem_alloc(sizeBlock);
 105:src/test_thread.cpp ****     threads[2] = KPCB::createThread(&workerBodyB, nullptr, stackB);
 106:src/test_thread.cpp ****     printString("ThreadB created\n");
 107:src/test_thread.cpp ****     while (!(threads[1]->isFinished() && threads[2]->isFinished())) KPCB::yield();
 108:src/test_thread.cpp ****     for (auto& thr: threads) delete thr;
 109:src/test_thread.cpp ****     printString("Finished\n");
 110:src/test_thread.cpp ****     */
 111:src/test_thread.cpp **** 
 112:src/test_thread.cpp ****     /*
 113:src/test_thread.cpp ****     KPCB* threads[3];
 114:src/test_thread.cpp ****     threads[0] = KPCB::createThread(nullptr, nullptr, nullptr);
 115:src/test_thread.cpp ****     KPCB::running = threads[0];
 116:src/test_thread.cpp ****     thread_create(&threads[1], workerBodyA, nullptr);
 117:src/test_thread.cpp ****     printString("ThreadA created\n");
 118:src/test_thread.cpp ****     thread_create(&threads[2], workerBodyB, nullptr);
 119:src/test_thread.cpp ****     printString("ThreadB created\n");
GAS LISTING /tmp/cczOroum.s 			page 5


 120:src/test_thread.cpp ****     while (!(threads[1]->isFinished() && threads[2]->isFinished())) KPCB::yield();
 121:src/test_thread.cpp ****     for (auto& thr: threads) delete thr;
 122:src/test_thread.cpp ****     printString("Finished\n");
 123:src/test_thread.cpp ****     */
 124:src/test_thread.cpp **** 
 125:src/test_thread.cpp **** 
 126:src/test_thread.cpp ****     KPCB* threads[2];
 127:src/test_thread.cpp ****     int ind = 0;
 128:src/test_thread.cpp ****     thread_create(&threads[0], &workerBodyDjape, &ind);
 129:src/test_thread.cpp ****     printString("ThreadA created\n");
 130:src/test_thread.cpp ****     thread_create(&threads[1], &workerBodyComi, &ind);
 131:src/test_thread.cpp ****     printString("ThreadB created\n");
 132:src/test_thread.cpp ****     while (KPCB::counter) KPCB::yield();
 133:src/test_thread.cpp ****     //delete threads[0];
 134:src/test_thread.cpp ****     for (auto& thr: threads) delete thr;
 135:src/test_thread.cpp ****     printString("Finished\n");
 136:src/test_thread.cpp **** 
 137:src/test_thread.cpp **** 
 138:src/test_thread.cpp ****     //while (KPCB::counter) KPCB::yield();
 139:src/test_thread.cpp ****     //delete threads[0];
 140:src/test_thread.cpp **** 
 141:src/test_thread.cpp **** }
 142:src/test_thread.cpp **** 
 143:src/test_thread.cpp **** uint64 fibonacciDragan(uint64 n) {
 144:src/test_thread.cpp ****     if (n == 0 || n == 1) { return n; }
 145:src/test_thread.cpp ****     if (n % 10 == 0) { thread_dispatch(); }
 146:src/test_thread.cpp ****     return fibonacciDragan(n - 1) + fibonacciDragan(n - 2);
 147:src/test_thread.cpp **** }
 148:src/test_thread.cpp **** void workerBodyPedja(void* arg) {
  71              		.loc 2 148 33 is_stmt 1
  72              		.cfi_startproc
  73              	.LVL2:
  74 0000 130101FE 		addi	sp,sp,-32
  75              		.cfi_def_cfa_offset 32
  76 0004 233C1100 		sd	ra,24(sp)
  77 0008 23388100 		sd	s0,16(sp)
  78 000c 23349100 		sd	s1,8(sp)
  79              		.cfi_offset 1, -8
  80              		.cfi_offset 8, -16
  81              		.cfi_offset 9, -24
  82 0010 13040102 		addi	s0,sp,32
  83              		.cfi_def_cfa 8, 0
 149:src/test_thread.cpp ****     for (uint64 i = 0; i < 10; i++) {
  84              		.loc 2 149 5
  85              	.LVL3:
  86              	.LBB48:
  87              		.loc 2 149 17 is_stmt 0
  88 0014 93040000 		li	s1,0
  89 0018 6F008002 		j	.L11
  90              	.LVL4:
  91              	.L8:
  92              	.LBB49:
  93              	.LBB50:
 150:src/test_thread.cpp ****         printString("A: i=");
 151:src/test_thread.cpp ****         printInt(i);
 152:src/test_thread.cpp ****         printString("\n");
 153:src/test_thread.cpp ****         for (uint64 j = 0; j < 100; j++) {
GAS LISTING /tmp/cczOroum.s 			page 6


  94              		.loc 2 153 9 is_stmt 1 discriminator 2
  95 001c 93861600 		addi	a3,a3,1
  96              	.LVL5:
  97              	.L10:
  98              		.loc 2 153 30 discriminator 1
  99 0020 93073006 		li	a5,99
 100 0024 63ECD700 		bgtu	a3,a5,.L7
 101              	.LBB51:
 154:src/test_thread.cpp ****             for (uint64 k = 0; k < 300; k++) { /* busy wait */ }
 102              		.loc 2 154 25 is_stmt 0
 103 0028 93070000 		li	a5,0
 104              	.L9:
 105              	.LVL6:
 106              		.loc 2 154 34 is_stmt 1 discriminator 3
 107 002c 1307B012 		li	a4,299
 108 0030 E366F7FE 		bgtu	a5,a4,.L8
 109              		.loc 2 154 13 discriminator 2
 110 0034 93871700 		addi	a5,a5,1
 111              	.LVL7:
 112 0038 6FF05FFF 		j	.L9
 113              	.LVL8:
 114              	.L7:
 115              	.LBE51:
 116              	.LBE50:
 117              	.LBE49:
 149:src/test_thread.cpp ****     for (uint64 i = 0; i < 10; i++) {
 118              		.loc 2 149 5 discriminator 2
 119 003c 93841400 		addi	s1,s1,1
 120              	.LVL9:
 121              	.L11:
 149:src/test_thread.cpp ****     for (uint64 i = 0; i < 10; i++) {
 122              		.loc 2 149 26 discriminator 1
 123 0040 93079000 		li	a5,9
 124 0044 63E09704 		bgtu	s1,a5,.L5
 125              	.LBB53:
 150:src/test_thread.cpp ****         printString("A: i=");
 126              		.loc 2 150 9
 150:src/test_thread.cpp ****         printString("A: i=");
 127              		.loc 2 150 20 is_stmt 0
 128 0048 17050000 		lla	a0,.LC0
 128      13050500 
 129 0050 97000000 		call	_Z11printStringPKc@plt
 129      E7800000 
 130              	.LVL10:
 151:src/test_thread.cpp ****         printString("\n");
 131              		.loc 2 151 9 is_stmt 1
 151:src/test_thread.cpp ****         printString("\n");
 132              		.loc 2 151 17 is_stmt 0
 133 0058 13060000 		li	a2,0
 134 005c 9305A000 		li	a1,10
 135 0060 1B850400 		sext.w	a0,s1
 136 0064 97000000 		call	_Z8printIntiii@plt
 136      E7800000 
 137              	.LVL11:
 152:src/test_thread.cpp ****         for (uint64 j = 0; j < 100; j++) {
 138              		.loc 2 152 9 is_stmt 1
 152:src/test_thread.cpp ****         for (uint64 j = 0; j < 100; j++) {
GAS LISTING /tmp/cczOroum.s 			page 7


 139              		.loc 2 152 20 is_stmt 0
 140 006c 17050000 		lla	a0,.LC1
 140      13050500 
 141 0074 97000000 		call	_Z11printStringPKc@plt
 141      E7800000 
 142              	.LVL12:
 153:src/test_thread.cpp ****             for (uint64 k = 0; k < 300; k++) { /* busy wait */ }
 143              		.loc 2 153 9 is_stmt 1
 144              	.LBB52:
 153:src/test_thread.cpp ****             for (uint64 k = 0; k < 300; k++) { /* busy wait */ }
 145              		.loc 2 153 21 is_stmt 0
 146 007c 93060000 		li	a3,0
 147 0080 6FF01FFA 		j	.L10
 148              	.LVL13:
 149              	.L5:
 150              	.LBE52:
 151              	.LBE53:
 152              	.LBE48:
 155:src/test_thread.cpp ****             // TCB::yield();
 156:src/test_thread.cpp ****         }
 157:src/test_thread.cpp ****     }
 158:src/test_thread.cpp **** }
 153              		.loc 2 158 1
 154 0084 83308101 		ld	ra,24(sp)
 155              		.cfi_restore 1
 156 0088 03340101 		ld	s0,16(sp)
 157              		.cfi_restore 8
 158              		.cfi_def_cfa 2, 32
 159 008c 83348100 		ld	s1,8(sp)
 160              		.cfi_restore 9
 161              	.LVL14:
 162 0090 13010102 		addi	sp,sp,32
 163              		.cfi_def_cfa_offset 0
 164 0094 67800000 		jr	ra
 165              		.cfi_endproc
 166              	.LFE40:
 168              		.section	.rodata.str1.8
 169 000a 00000000 		.align	3
 169      0000
 170              	.LC2:
 171 0010 423A2069 		.string	"B: i="
 171      3D00
 172              		.text
 173              		.align	2
 174              		.globl	_Z16workerBodyMilicaPv
 176              	_Z16workerBodyMilicaPv:
 177              	.LFB41:
 159:src/test_thread.cpp **** void workerBodyMilica(void* arg) {
 178              		.loc 2 159 34 is_stmt 1
 179              		.cfi_startproc
 180              	.LVL15:
 181 0098 130101FE 		addi	sp,sp,-32
 182              		.cfi_def_cfa_offset 32
 183 009c 233C1100 		sd	ra,24(sp)
 184 00a0 23388100 		sd	s0,16(sp)
 185 00a4 23349100 		sd	s1,8(sp)
 186              		.cfi_offset 1, -8
GAS LISTING /tmp/cczOroum.s 			page 8


 187              		.cfi_offset 8, -16
 188              		.cfi_offset 9, -24
 189 00a8 13040102 		addi	s0,sp,32
 190              		.cfi_def_cfa 8, 0
 160:src/test_thread.cpp ****     for (uint64 i = 0; i < 16; i++) {
 191              		.loc 2 160 5
 192              	.LVL16:
 193              	.LBB54:
 194              		.loc 2 160 17 is_stmt 0
 195 00ac 93040000 		li	s1,0
 196 00b0 6F008002 		j	.L19
 197              	.LVL17:
 198              	.L16:
 199              	.LBB55:
 200              	.LBB56:
 161:src/test_thread.cpp ****         printString("B: i=");
 162:src/test_thread.cpp ****         printInt(i);
 163:src/test_thread.cpp ****         printString("\n");
 164:src/test_thread.cpp ****         for (uint64 j = 0; j < 100; j++) {
 201              		.loc 2 164 9 is_stmt 1 discriminator 2
 202 00b4 93861600 		addi	a3,a3,1
 203              	.LVL18:
 204              	.L18:
 205              		.loc 2 164 30 discriminator 1
 206 00b8 93073006 		li	a5,99
 207 00bc 63ECD700 		bgtu	a3,a5,.L15
 208              	.LBB57:
 165:src/test_thread.cpp ****             for (uint64 k = 0; k < 300; k++) { /* busy wait */ }
 209              		.loc 2 165 25 is_stmt 0
 210 00c0 93070000 		li	a5,0
 211              	.L17:
 212              	.LVL19:
 213              		.loc 2 165 34 is_stmt 1 discriminator 3
 214 00c4 1307B012 		li	a4,299
 215 00c8 E366F7FE 		bgtu	a5,a4,.L16
 216              		.loc 2 165 13 discriminator 2
 217 00cc 93871700 		addi	a5,a5,1
 218              	.LVL20:
 219 00d0 6FF05FFF 		j	.L17
 220              	.LVL21:
 221              	.L15:
 222              	.LBE57:
 223              	.LBE56:
 224              	.LBE55:
 160:src/test_thread.cpp ****     for (uint64 i = 0; i < 16; i++) {
 225              		.loc 2 160 5 discriminator 2
 226 00d4 93841400 		addi	s1,s1,1
 227              	.LVL22:
 228              	.L19:
 160:src/test_thread.cpp ****     for (uint64 i = 0; i < 16; i++) {
 229              		.loc 2 160 26 discriminator 1
 230 00d8 9307F000 		li	a5,15
 231 00dc 63E09704 		bgtu	s1,a5,.L13
 232              	.LBB59:
 161:src/test_thread.cpp ****         printString("B: i=");
 233              		.loc 2 161 9
 161:src/test_thread.cpp ****         printString("B: i=");
GAS LISTING /tmp/cczOroum.s 			page 9


 234              		.loc 2 161 20 is_stmt 0
 235 00e0 17050000 		lla	a0,.LC2
 235      13050500 
 236 00e8 97000000 		call	_Z11printStringPKc@plt
 236      E7800000 
 237              	.LVL23:
 162:src/test_thread.cpp ****         printString("\n");
 238              		.loc 2 162 9 is_stmt 1
 162:src/test_thread.cpp ****         printString("\n");
 239              		.loc 2 162 17 is_stmt 0
 240 00f0 13060000 		li	a2,0
 241 00f4 9305A000 		li	a1,10
 242 00f8 1B850400 		sext.w	a0,s1
 243 00fc 97000000 		call	_Z8printIntiii@plt
 243      E7800000 
 244              	.LVL24:
 163:src/test_thread.cpp ****         for (uint64 j = 0; j < 100; j++) {
 245              		.loc 2 163 9 is_stmt 1
 163:src/test_thread.cpp ****         for (uint64 j = 0; j < 100; j++) {
 246              		.loc 2 163 20 is_stmt 0
 247 0104 17050000 		lla	a0,.LC1
 247      13050500 
 248 010c 97000000 		call	_Z11printStringPKc@plt
 248      E7800000 
 249              	.LVL25:
 164:src/test_thread.cpp ****             for (uint64 k = 0; k < 300; k++) { /* busy wait */ }
 250              		.loc 2 164 9 is_stmt 1
 251              	.LBB58:
 164:src/test_thread.cpp ****             for (uint64 k = 0; k < 300; k++) { /* busy wait */ }
 252              		.loc 2 164 21 is_stmt 0
 253 0114 93060000 		li	a3,0
 254 0118 6FF01FFA 		j	.L18
 255              	.LVL26:
 256              	.L13:
 257              	.LBE58:
 258              	.LBE59:
 259              	.LBE54:
 166:src/test_thread.cpp ****             // TCB::yield();
 167:src/test_thread.cpp ****         }
 168:src/test_thread.cpp ****     }
 169:src/test_thread.cpp **** 
 170:src/test_thread.cpp **** }
 260              		.loc 2 170 1
 261 011c 83308101 		ld	ra,24(sp)
 262              		.cfi_restore 1
 263 0120 03340101 		ld	s0,16(sp)
 264              		.cfi_restore 8
 265              		.cfi_def_cfa 2, 32
 266 0124 83348100 		ld	s1,8(sp)
 267              		.cfi_restore 9
 268              	.LVL27:
 269 0128 13010102 		addi	sp,sp,32
 270              		.cfi_def_cfa_offset 0
 271 012c 67800000 		jr	ra
 272              		.cfi_endproc
 273              	.LFE41:
 275              		.section	.rodata.str1.8
GAS LISTING /tmp/cczOroum.s 			page 10


 276 0016 0000     		.align	3
 277              	.LC3:
 278 0018 50657269 		.string	"PeriodicThread radi: "
 278      6F646963 
 278      54687265 
 278      61642072 
 278      6164693A 
 279              		.text
 280              		.align	2
 282              	_ZZ20test_periodic_threadvEN9MojaKlasa18periodicActivationEv:
 283              	.LFB54:
 171:src/test_thread.cpp **** void workerBodySlavica(void* arg) {
 172:src/test_thread.cpp ****     uint8 i = 0;
 173:src/test_thread.cpp ****     for (; i < 3; i++) {
 174:src/test_thread.cpp ****         printString("C: i=");
 175:src/test_thread.cpp ****         printInt(i);
 176:src/test_thread.cpp ****         printString("\n");
 177:src/test_thread.cpp ****     }
 178:src/test_thread.cpp **** 
 179:src/test_thread.cpp ****     printString("C: yield\n");
 180:src/test_thread.cpp ****     __asm__ ("li t1, 7");
 181:src/test_thread.cpp ****     thread_dispatch();
 182:src/test_thread.cpp **** 
 183:src/test_thread.cpp ****     uint64 t1 = 0;
 184:src/test_thread.cpp ****     __asm__ ("mv %[t1], t1" : [t1] "=r"(t1));
 185:src/test_thread.cpp **** 
 186:src/test_thread.cpp ****     printString("C: t1=");
 187:src/test_thread.cpp ****     printInt(t1);
 188:src/test_thread.cpp ****     printString("\n");
 189:src/test_thread.cpp **** 
 190:src/test_thread.cpp ****     uint64 result = fibonacciDragan(12);
 191:src/test_thread.cpp ****     printString("C: fibonaci=");
 192:src/test_thread.cpp ****     printInt(result);
 193:src/test_thread.cpp ****     printString("\n");
 194:src/test_thread.cpp **** 
 195:src/test_thread.cpp ****     for (; i < 6; i++) {
 196:src/test_thread.cpp ****         printString("C: i=");
 197:src/test_thread.cpp ****         printInt(i);
 198:src/test_thread.cpp ****         printString("\n");
 199:src/test_thread.cpp ****     }
 200:src/test_thread.cpp **** //    TCB::yield();
 201:src/test_thread.cpp **** 
 202:src/test_thread.cpp **** }
 203:src/test_thread.cpp **** void workerBodyRanko(void* arg) {
 204:src/test_thread.cpp ****     uint8 i = 10;
 205:src/test_thread.cpp ****     for (; i < 13; i++) {
 206:src/test_thread.cpp ****         printString("D: i=");
 207:src/test_thread.cpp ****         printInt(i);
 208:src/test_thread.cpp ****         printString("\n");
 209:src/test_thread.cpp ****     }
 210:src/test_thread.cpp **** 
 211:src/test_thread.cpp ****     printString("D: yield\n");
 212:src/test_thread.cpp ****     __asm__ ("li t1, 5");
 213:src/test_thread.cpp ****     thread_dispatch();
 214:src/test_thread.cpp **** 
 215:src/test_thread.cpp ****     uint64 result = fibonacciDragan(16);
 216:src/test_thread.cpp ****     printString("D: fibonaci=");
GAS LISTING /tmp/cczOroum.s 			page 11


 217:src/test_thread.cpp ****     printInt(result);
 218:src/test_thread.cpp ****     printString("\n");
 219:src/test_thread.cpp **** 
 220:src/test_thread.cpp ****     for (; i < 16; i++) {
 221:src/test_thread.cpp ****         printString("D: i=");
 222:src/test_thread.cpp ****         printInt(i);
 223:src/test_thread.cpp ****         printString("\n");
 224:src/test_thread.cpp ****     }
 225:src/test_thread.cpp **** //    TCB::yield();
 226:src/test_thread.cpp **** 
 227:src/test_thread.cpp **** }
 228:src/test_thread.cpp **** void test_thread_async() {
 229:src/test_thread.cpp ****     KPCB* threads[4];
 230:src/test_thread.cpp ****     thread_create(&threads[0], &workerBodyPedja, nullptr);
 231:src/test_thread.cpp ****     printString("ThreadA created\n");
 232:src/test_thread.cpp ****     thread_create(&threads[1], &workerBodyMilica, nullptr);
 233:src/test_thread.cpp ****     printString("ThreadB created\n");
 234:src/test_thread.cpp ****     thread_create(&threads[2], &workerBodySlavica, nullptr);
 235:src/test_thread.cpp ****     printString("ThreadC created\n");
 236:src/test_thread.cpp ****     thread_create(&threads[3], &workerBodyRanko, nullptr);
 237:src/test_thread.cpp ****     printString("ThreadD created\n");
 238:src/test_thread.cpp ****     while (KPCB::counter) KPCB::yield();
 239:src/test_thread.cpp ****     //delete threads[0];
 240:src/test_thread.cpp ****     for (auto& thr: threads) delete thr;
 241:src/test_thread.cpp ****     printString("Finished\n");
 242:src/test_thread.cpp **** }
 243:src/test_thread.cpp **** 
 244:src/test_thread.cpp **** void test_thread_sync_sleep() {
 245:src/test_thread.cpp ****     KPCB* threads[2];
 246:src/test_thread.cpp ****     int ind = 1;
 247:src/test_thread.cpp ****     thread_create(&threads[0], &workerBodyDjape, &ind);
 248:src/test_thread.cpp ****     printString("ThreadA created\n");
 249:src/test_thread.cpp ****     thread_create(&threads[1], &workerBodyComi, &ind);
 250:src/test_thread.cpp ****     printString("ThreadB created\n");
 251:src/test_thread.cpp ****     while (KPCB::counter) KPCB::yield();
 252:src/test_thread.cpp ****     //delete threads[0];
 253:src/test_thread.cpp ****     for (auto& thr: threads) delete thr;
 254:src/test_thread.cpp ****     printString("Finished\n");
 255:src/test_thread.cpp **** }
 256:src/test_thread.cpp **** 
 257:src/test_thread.cpp **** void test_periodic_thread() {
 258:src/test_thread.cpp ****     class MojaKlasa : public PeriodicThread {
 259:src/test_thread.cpp ****         int num;
 260:src/test_thread.cpp ****     public:
 261:src/test_thread.cpp ****         MojaKlasa(time_t t, int num) : PeriodicThread(t), num(num) {}
 262:src/test_thread.cpp ****         void periodicActivation() override {
 284              		.loc 2 262 14 is_stmt 1
 285              		.cfi_startproc
 286              	.LVL28:
 287 0130 130101FE 		addi	sp,sp,-32
 288              		.cfi_def_cfa_offset 32
 289 0134 233C1100 		sd	ra,24(sp)
 290 0138 23388100 		sd	s0,16(sp)
 291 013c 23349100 		sd	s1,8(sp)
 292              		.cfi_offset 1, -8
 293              		.cfi_offset 8, -16
 294              		.cfi_offset 9, -24
GAS LISTING /tmp/cczOroum.s 			page 12


 295 0140 13040102 		addi	s0,sp,32
 296              		.cfi_def_cfa 8, 0
 297 0144 93040500 		mv	s1,a0
 263:src/test_thread.cpp ****             printString("PeriodicThread radi: ");
 298              		.loc 2 263 13
 299              		.loc 2 263 24 is_stmt 0
 300 0148 17050000 		lla	a0,.LC3
 300      13050500 
 301              	.LVL29:
 302 0150 97000000 		call	_Z11printStringPKc@plt
 302      E7800000 
 303              	.LVL30:
 264:src/test_thread.cpp ****             printInt(num);
 304              		.loc 2 264 13 is_stmt 1
 305              		.loc 2 264 21 is_stmt 0
 306 0158 13060000 		li	a2,0
 307 015c 9305A000 		li	a1,10
 308 0160 03A50401 		lw	a0,16(s1)
 309 0164 97000000 		call	_Z8printIntiii@plt
 309      E7800000 
 310              	.LVL31:
 265:src/test_thread.cpp ****             printString("\n");
 311              		.loc 2 265 13 is_stmt 1
 312              		.loc 2 265 24 is_stmt 0
 313 016c 17050000 		lla	a0,.LC1
 313      13050500 
 314 0174 97000000 		call	_Z11printStringPKc@plt
 314      E7800000 
 315              	.LVL32:
 266:src/test_thread.cpp ****         }
 316              		.loc 2 266 9
 317 017c 83308101 		ld	ra,24(sp)
 318              		.cfi_restore 1
 319 0180 03340101 		ld	s0,16(sp)
 320              		.cfi_restore 8
 321              		.cfi_def_cfa 2, 32
 322 0184 83348100 		ld	s1,8(sp)
 323              		.cfi_restore 9
 324              	.LVL33:
 325 0188 13010102 		addi	sp,sp,32
 326              		.cfi_def_cfa_offset 0
 327 018c 67800000 		jr	ra
 328              		.cfi_endproc
 329              	.LFE54:
 331              		.section	.text._ZN14PeriodicThreadD2Ev,"axG",@progbits,_ZN14PeriodicThreadD5Ev,comdat
 332              		.align	2
 333              		.weak	_ZN14PeriodicThreadD2Ev
 335              	_ZN14PeriodicThreadD2Ev:
 336              	.LFB49:
  40:src/../h/syscall_cpp.h **** protected:
 337              		.loc 1 40 7 is_stmt 1
 338              		.cfi_startproc
 339              	.LVL34:
 340 0000 130101FF 		addi	sp,sp,-16
 341              		.cfi_def_cfa_offset 16
 342 0004 23341100 		sd	ra,8(sp)
 343 0008 23308100 		sd	s0,0(sp)
GAS LISTING /tmp/cczOroum.s 			page 13


 344              		.cfi_offset 1, -8
 345              		.cfi_offset 8, -16
 346 000c 13040101 		addi	s0,sp,16
 347              		.cfi_def_cfa 8, 0
 348              	.LBB60:
  40:src/../h/syscall_cpp.h **** protected:
 349              		.loc 1 40 7 is_stmt 0
 350 0010 97070000 		lla	a5,_ZTV14PeriodicThread+16
 350      93870700 
 351 0018 2330F500 		sd	a5,0(a0)
 352 001c 97000000 		call	_ZN6ThreadD2Ev@plt
 352      E7800000 
 353              	.LVL35:
 354              	.LBE60:
 355 0024 83308100 		ld	ra,8(sp)
 356              		.cfi_restore 1
 357 0028 03340100 		ld	s0,0(sp)
 358              		.cfi_restore 8
 359              		.cfi_def_cfa 2, 16
 360 002c 13010101 		addi	sp,sp,16
 361              		.cfi_def_cfa_offset 0
 362 0030 67800000 		jr	ra
 363              		.cfi_endproc
 364              	.LFE49:
 366              		.weak	_ZN14PeriodicThreadD1Ev
 367              		.set	_ZN14PeriodicThreadD1Ev,_ZN14PeriodicThreadD2Ev
 368              		.section	.text._ZN14PeriodicThreadD0Ev,"axG",@progbits,_ZN14PeriodicThreadD5Ev,comdat
 369              		.align	2
 370              		.weak	_ZN14PeriodicThreadD0Ev
 372              	_ZN14PeriodicThreadD0Ev:
 373              	.LFB51:
  40:src/../h/syscall_cpp.h **** protected:
 374              		.loc 1 40 7 is_stmt 1
 375              		.cfi_startproc
 376              	.LVL36:
 377 0000 130101FE 		addi	sp,sp,-32
 378              		.cfi_def_cfa_offset 32
 379 0004 233C1100 		sd	ra,24(sp)
 380 0008 23388100 		sd	s0,16(sp)
 381 000c 23349100 		sd	s1,8(sp)
 382              		.cfi_offset 1, -8
 383              		.cfi_offset 8, -16
 384              		.cfi_offset 9, -24
 385 0010 13040102 		addi	s0,sp,32
 386              		.cfi_def_cfa 8, 0
 387 0014 93040500 		mv	s1,a0
 388              	.LVL37:
 389              	.LBB61:
 390              	.LBB62:
  40:src/../h/syscall_cpp.h **** protected:
 391              		.loc 1 40 7 is_stmt 0
 392 0018 97070000 		lla	a5,_ZTV14PeriodicThread+16
 392      93870700 
 393 0020 2330F500 		sd	a5,0(a0)
 394 0024 97000000 		call	_ZN6ThreadD2Ev@plt
 394      E7800000 
 395              	.LVL38:
GAS LISTING /tmp/cczOroum.s 			page 14


 396              	.LBE62:
 397              	.LBE61:
 398 002c 13850400 		mv	a0,s1
 399 0030 97000000 		call	_ZdlPv@plt
 399      E7800000 
 400              	.LVL39:
 401 0038 83308101 		ld	ra,24(sp)
 402              		.cfi_restore 1
 403 003c 03340101 		ld	s0,16(sp)
 404              		.cfi_restore 8
 405              		.cfi_def_cfa 2, 32
 406 0040 83348100 		ld	s1,8(sp)
 407              		.cfi_restore 9
 408              	.LVL40:
 409 0044 13010102 		addi	sp,sp,32
 410              		.cfi_def_cfa_offset 0
 411 0048 67800000 		jr	ra
 412              		.cfi_endproc
 413              	.LFE51:
 415              		.text
 416              		.align	2
 418              	_ZZ20test_periodic_threadvEN9MojaKlasaD2Ev:
 419              	.LFB57:
 258:src/test_thread.cpp ****         int num;
 420              		.loc 2 258 11 is_stmt 1
 421              		.cfi_startproc
 422              	.LVL41:
 423 0190 130101FF 		addi	sp,sp,-16
 424              		.cfi_def_cfa_offset 16
 425 0194 23341100 		sd	ra,8(sp)
 426 0198 23308100 		sd	s0,0(sp)
 427              		.cfi_offset 1, -8
 428              		.cfi_offset 8, -16
 429 019c 13040101 		addi	s0,sp,16
 430              		.cfi_def_cfa 8, 0
 431              	.LVL42:
 432              	.LBB63:
 433              	.LBB64:
  40:src/../h/syscall_cpp.h **** protected:
 434              		.loc 1 40 7 is_stmt 0
 435 01a0 97070000 		lla	a5,_ZTV14PeriodicThread+16
 435      93870700 
 436 01a8 2330F500 		sd	a5,0(a0)
 437 01ac 97000000 		call	_ZN6ThreadD2Ev@plt
 437      E7800000 
 438              	.LVL43:
 439              	.LBE64:
 440              	.LBE63:
 258:src/test_thread.cpp ****         int num;
 441              		.loc 2 258 11
 442 01b4 83308100 		ld	ra,8(sp)
 443              		.cfi_restore 1
 444 01b8 03340100 		ld	s0,0(sp)
 445              		.cfi_restore 8
 446              		.cfi_def_cfa 2, 16
 447 01bc 13010101 		addi	sp,sp,16
 448              		.cfi_def_cfa_offset 0
GAS LISTING /tmp/cczOroum.s 			page 15


 449 01c0 67800000 		jr	ra
 450              		.cfi_endproc
 451              	.LFE57:
 453              		.set	_ZZ20test_periodic_threadvEN9MojaKlasaD1Ev,_ZZ20test_periodic_threadvEN9MojaKlasaD2Ev
 454              		.align	2
 456              	_ZZ20test_periodic_threadvEN9MojaKlasaD0Ev:
 457              	.LFB59:
 258:src/test_thread.cpp ****         int num;
 458              		.loc 2 258 11 is_stmt 1
 459              		.cfi_startproc
 460              	.LVL44:
 461 01c4 130101FE 		addi	sp,sp,-32
 462              		.cfi_def_cfa_offset 32
 463 01c8 233C1100 		sd	ra,24(sp)
 464 01cc 23388100 		sd	s0,16(sp)
 465 01d0 23349100 		sd	s1,8(sp)
 466              		.cfi_offset 1, -8
 467              		.cfi_offset 8, -16
 468              		.cfi_offset 9, -24
 469 01d4 13040102 		addi	s0,sp,32
 470              		.cfi_def_cfa 8, 0
 471 01d8 93040500 		mv	s1,a0
 472              	.LVL45:
 473              	.LBB65:
 474              	.LBB66:
 475              	.LBB67:
  40:src/../h/syscall_cpp.h **** protected:
 476              		.loc 1 40 7 is_stmt 0
 477 01dc 97070000 		lla	a5,_ZTV14PeriodicThread+16
 477      93870700 
 478 01e4 2330F500 		sd	a5,0(a0)
 479 01e8 97000000 		call	_ZN6ThreadD2Ev@plt
 479      E7800000 
 480              	.LVL46:
 481              	.LBE67:
 482              	.LBE66:
 483              	.LBE65:
 258:src/test_thread.cpp ****         int num;
 484              		.loc 2 258 11
 485 01f0 13850400 		mv	a0,s1
 486 01f4 97000000 		call	_ZdlPv@plt
 486      E7800000 
 487              	.LVL47:
 488 01fc 83308101 		ld	ra,24(sp)
 489              		.cfi_restore 1
 490 0200 03340101 		ld	s0,16(sp)
 491              		.cfi_restore 8
 492              		.cfi_def_cfa 2, 32
 493 0204 83348100 		ld	s1,8(sp)
 494              		.cfi_restore 9
 495              	.LVL48:
 496 0208 13010102 		addi	sp,sp,32
 497              		.cfi_def_cfa_offset 0
 498 020c 67800000 		jr	ra
 499              		.cfi_endproc
 500              	.LFE59:
 502              		.align	2
GAS LISTING /tmp/cczOroum.s 			page 16


 503              		.globl	_Z13fibonacciSonem
 505              	_Z13fibonacciSonem:
 506              	.LFB35:
  11:src/test_thread.cpp ****     if (n == 0 || n == 1) { return n; }
 507              		.loc 2 11 32 is_stmt 1
 508              		.cfi_startproc
 509              	.LVL49:
 510 0210 130101FE 		addi	sp,sp,-32
 511              		.cfi_def_cfa_offset 32
 512 0214 233C1100 		sd	ra,24(sp)
 513 0218 23388100 		sd	s0,16(sp)
 514 021c 23349100 		sd	s1,8(sp)
 515 0220 23302101 		sd	s2,0(sp)
 516              		.cfi_offset 1, -8
 517              		.cfi_offset 8, -16
 518              		.cfi_offset 9, -24
 519              		.cfi_offset 18, -32
 520 0224 13040102 		addi	s0,sp,32
 521              		.cfi_def_cfa 8, 0
 522 0228 93040500 		mv	s1,a0
  12:src/test_thread.cpp ****     if (n % 4 == 0) thread_dispatch();
 523              		.loc 2 12 5
 524 022c 93071000 		li	a5,1
 525 0230 63F6A702 		bleu	a0,a5,.L31
  13:src/test_thread.cpp ****     return fibonacciSone(n - 1) + fibonacciSone(n - 2);
 526              		.loc 2 13 5
  13:src/test_thread.cpp ****     return fibonacciSone(n - 1) + fibonacciSone(n - 2);
 527              		.loc 2 13 11 is_stmt 0
 528 0234 93773500 		andi	a5,a0,3
  13:src/test_thread.cpp ****     return fibonacciSone(n - 1) + fibonacciSone(n - 2);
 529              		.loc 2 13 5
 530 0238 638E0702 		beqz	a5,.L36
 531              	.LVL50:
 532              	.L33:
  14:src/test_thread.cpp **** }
 533              		.loc 2 14 5 is_stmt 1
  14:src/test_thread.cpp **** }
 534              		.loc 2 14 25 is_stmt 0
 535 023c 1385F4FF 		addi	a0,s1,-1
 536 0240 97000000 		call	_Z13fibonacciSonem
 536      E7800000 
 537              	.LVL51:
 538 0248 13090500 		mv	s2,a0
  14:src/test_thread.cpp **** }
 539              		.loc 2 14 48
 540 024c 1385E4FF 		addi	a0,s1,-2
 541 0250 97000000 		call	_Z13fibonacciSonem
 541      E7800000 
 542              	.LVL52:
  14:src/test_thread.cpp **** }
 543              		.loc 2 14 54
 544 0258 3305A900 		add	a0,s2,a0
 545              	.L31:
  15:src/test_thread.cpp **** void workerBodyDjape(void* arg) {
 546              		.loc 2 15 1
 547 025c 83308101 		ld	ra,24(sp)
 548              		.cfi_remember_state
GAS LISTING /tmp/cczOroum.s 			page 17


 549              		.cfi_restore 1
 550 0260 03340101 		ld	s0,16(sp)
 551              		.cfi_restore 8
 552              		.cfi_def_cfa 2, 32
 553 0264 83348100 		ld	s1,8(sp)
 554              		.cfi_restore 9
 555              	.LVL53:
 556 0268 03390100 		ld	s2,0(sp)
 557              		.cfi_restore 18
 558 026c 13010102 		addi	sp,sp,32
 559              		.cfi_def_cfa_offset 0
 560 0270 67800000 		jr	ra
 561              	.LVL54:
 562              	.L36:
 563              		.cfi_restore_state
  13:src/test_thread.cpp ****     return fibonacciSone(n - 1) + fibonacciSone(n - 2);
 564              		.loc 2 13 21 is_stmt 1 discriminator 1
  13:src/test_thread.cpp ****     return fibonacciSone(n - 1) + fibonacciSone(n - 2);
 565              		.loc 2 13 36 is_stmt 0 discriminator 1
 566 0274 97000000 		call	_Z15thread_dispatchv@plt
 566      E7800000 
 567              	.LVL55:
 568 027c 6FF01FFC 		j	.L33
 569              		.cfi_endproc
 570              	.LFE35:
 572              		.section	.rodata.str1.8
 573 002e 0000     		.align	3
 574              	.LC4:
 575 0030 413A2079 		.string	"A: yield\n"
 575      69656C64 
 575      0A00
 576 003a 00000000 		.align	3
 576      0000
 577              	.LC5:
 578 0040 413A2074 		.string	"A: t1="
 578      313D00
 579 0047 00       		.align	3
 580              	.LC6:
 581 0048 413A2066 		.string	"A: fibonaci="
 581      69626F6E 
 581      6163693D 
 581      00
 582 0055 000000   		.align	3
 583              	.LC7:
 584 0058 41207072 		.string	"A promenio\n"
 584      6F6D656E 
 584      696F0A00 
 585 0064 00000000 		.align	3
 586              	.LC8:
 587 0068 41207A61 		.string	"A zavrsio\n"
 587      76727369 
 587      6F0A00
 588              		.text
 589              		.align	2
 590              		.globl	_Z15workerBodyDjapePv
 592              	_Z15workerBodyDjapePv:
 593              	.LFB36:
GAS LISTING /tmp/cczOroum.s 			page 18


  16:src/test_thread.cpp ****     int ind = *(int*)arg;
 594              		.loc 2 16 33 is_stmt 1
 595              		.cfi_startproc
 596              	.LVL56:
 597 0280 130101FE 		addi	sp,sp,-32
 598              		.cfi_def_cfa_offset 32
 599 0284 233C1100 		sd	ra,24(sp)
 600 0288 23388100 		sd	s0,16(sp)
 601 028c 23349100 		sd	s1,8(sp)
 602 0290 23302101 		sd	s2,0(sp)
 603              		.cfi_offset 1, -8
 604              		.cfi_offset 8, -16
 605              		.cfi_offset 9, -24
 606              		.cfi_offset 18, -32
 607 0294 13040102 		addi	s0,sp,32
 608              		.cfi_def_cfa 8, 0
  17:src/test_thread.cpp ****     uint8 i = 0;
 609              		.loc 2 17 5
  17:src/test_thread.cpp ****     uint8 i = 0;
 610              		.loc 2 17 9 is_stmt 0
 611 0298 03290500 		lw	s2,0(a0)
 612              	.LVL57:
  18:src/test_thread.cpp ****     for (; i < 3; i++) {
 613              		.loc 2 18 5 is_stmt 1
  18:src/test_thread.cpp ****     for (; i < 3; i++) {
 614              		.loc 2 18 11 is_stmt 0
 615 029c 93040000 		li	s1,0
 616 02a0 6F004005 		j	.L40
 617              	.LVL58:
 618              	.L44:
  20:src/test_thread.cpp ****         thread_exit();
 619              		.loc 2 20 18 is_stmt 1 discriminator 1
  20:src/test_thread.cpp ****         thread_exit();
 620              		.loc 2 20 28 is_stmt 0 discriminator 1
 621 02a4 1305A000 		li	a0,10
 622 02a8 97000000 		call	_Z10time_sleepm@plt
 622      E7800000 
 623              	.LVL59:
 624              	.L39:
  21:src/test_thread.cpp ****         printString("A: i=");
 625              		.loc 2 21 9 is_stmt 1
  21:src/test_thread.cpp ****         printString("A: i=");
 626              		.loc 2 21 20 is_stmt 0
 627 02b0 97000000 		call	_Z11thread_exitv@plt
 627      E7800000 
 628              	.LVL60:
  22:src/test_thread.cpp ****         printInt(i);
 629              		.loc 2 22 9 is_stmt 1
  22:src/test_thread.cpp ****         printInt(i);
 630              		.loc 2 22 20 is_stmt 0
 631 02b8 17050000 		lla	a0,.LC0
 631      13050500 
 632 02c0 97000000 		call	_Z11printStringPKc@plt
 632      E7800000 
 633              	.LVL61:
  23:src/test_thread.cpp ****         printString("\n");
 634              		.loc 2 23 9 is_stmt 1
GAS LISTING /tmp/cczOroum.s 			page 19


  23:src/test_thread.cpp ****         printString("\n");
 635              		.loc 2 23 17 is_stmt 0
 636 02c8 13060000 		li	a2,0
 637 02cc 9305A000 		li	a1,10
 638 02d0 13850400 		mv	a0,s1
 639 02d4 97000000 		call	_Z8printIntiii@plt
 639      E7800000 
 640              	.LVL62:
  24:src/test_thread.cpp ****     }
 641              		.loc 2 24 9 is_stmt 1
  24:src/test_thread.cpp ****     }
 642              		.loc 2 24 20 is_stmt 0
 643 02dc 17050000 		lla	a0,.LC1
 643      13050500 
 644 02e4 97000000 		call	_Z11printStringPKc@plt
 644      E7800000 
 645              	.LVL63:
  19:src/test_thread.cpp ****         if (ind) time_sleep(10);
 646              		.loc 2 19 5 is_stmt 1
 647 02ec 9B841400 		addiw	s1,s1,1
 648              	.LVL64:
 649 02f0 93F4F40F 		andi	s1,s1,0xff
 650              	.LVL65:
 651              	.L40:
  19:src/test_thread.cpp ****         if (ind) time_sleep(10);
 652              		.loc 2 19 5 discriminator 1
  19:src/test_thread.cpp ****         if (ind) time_sleep(10);
 653              		.loc 2 19 14 discriminator 1
 654 02f4 93072000 		li	a5,2
 655 02f8 63E69700 		bgtu	s1,a5,.L38
  20:src/test_thread.cpp ****         thread_exit();
 656              		.loc 2 20 9
 657 02fc E30A09FA 		beqz	s2,.L39
 658 0300 6FF05FFA 		j	.L44
 659              	.L38:
  27:src/test_thread.cpp ****     asm volatile ("li t1, 7");
 660              		.loc 2 27 5
  27:src/test_thread.cpp ****     asm volatile ("li t1, 7");
 661              		.loc 2 27 16 is_stmt 0
 662 0304 17050000 		lla	a0,.LC4
 662      13050500 
 663 030c 97000000 		call	_Z11printStringPKc@plt
 663      E7800000 
 664              	.LVL66:
  28:src/test_thread.cpp ****     thread_dispatch();
 665              		.loc 2 28 5 is_stmt 1
  28:src/test_thread.cpp ****     thread_dispatch();
 666              		.loc 2 28 30 is_stmt 0
 667              	#APP
 668              	# 28 "src/test_thread.cpp" 1
  29:src/test_thread.cpp **** 
 669              		li t1, 7
 670              	# 0 "" 2
 671              		.loc 2 29 5 is_stmt 1
  29:src/test_thread.cpp **** 
 672              		.loc 2 29 20 is_stmt 0
 673              	#NO_APP
GAS LISTING /tmp/cczOroum.s 			page 20


 674 0318 97000000 		call	_Z15thread_dispatchv@plt
 674      E7800000 
 675              	.LVL67:
  31:src/test_thread.cpp ****     asm volatile ("mv %[t1], t1" : [t1] "=r"(t1));
 676              		.loc 2 31 5 is_stmt 1
  32:src/test_thread.cpp ****     printString("A: t1=");
 677              		.loc 2 32 5
  32:src/test_thread.cpp ****     printString("A: t1=");
 678              		.loc 2 32 50 is_stmt 0
 679              	#APP
 680              	# 32 "src/test_thread.cpp" 1
 681              		mv s2, t1
 682              	# 0 "" 2
 683              	.LVL68:
  33:src/test_thread.cpp ****     printInt(t1);
 684              		.loc 2 33 5 is_stmt 1
  33:src/test_thread.cpp ****     printInt(t1);
 685              		.loc 2 33 16 is_stmt 0
 686              	#NO_APP
 687 0324 17050000 		lla	a0,.LC5
 687      13050500 
 688 032c 97000000 		call	_Z11printStringPKc@plt
 688      E7800000 
 689              	.LVL69:
  34:src/test_thread.cpp ****     printString("\n");
 690              		.loc 2 34 5 is_stmt 1
  34:src/test_thread.cpp ****     printString("\n");
 691              		.loc 2 34 13 is_stmt 0
 692 0334 13060000 		li	a2,0
 693 0338 9305A000 		li	a1,10
 694 033c 1B050900 		sext.w	a0,s2
 695 0340 97000000 		call	_Z8printIntiii@plt
 695      E7800000 
 696              	.LVL70:
  35:src/test_thread.cpp **** 
 697              		.loc 2 35 5 is_stmt 1
  35:src/test_thread.cpp **** 
 698              		.loc 2 35 16 is_stmt 0
 699 0348 17050000 		lla	a0,.LC1
 699      13050500 
 700 0350 97000000 		call	_Z11printStringPKc@plt
 700      E7800000 
 701              	.LVL71:
  37:src/test_thread.cpp ****     printString("A: fibonaci=");
 702              		.loc 2 37 5 is_stmt 1
  37:src/test_thread.cpp ****     printString("A: fibonaci=");
 703              		.loc 2 37 34 is_stmt 0
 704 0358 13054001 		li	a0,20
 705 035c 97000000 		call	_Z13fibonacciSonem
 705      E7800000 
 706              	.LVL72:
 707 0364 13090500 		mv	s2,a0
 708              	.LVL73:
  38:src/test_thread.cpp ****     printInt(result);
 709              		.loc 2 38 5 is_stmt 1
  38:src/test_thread.cpp ****     printInt(result);
 710              		.loc 2 38 16 is_stmt 0
GAS LISTING /tmp/cczOroum.s 			page 21


 711 0368 17050000 		lla	a0,.LC6
 711      13050500 
 712              	.LVL74:
 713 0370 97000000 		call	_Z11printStringPKc@plt
 713      E7800000 
 714              	.LVL75:
  39:src/test_thread.cpp ****     printString("\n");
 715              		.loc 2 39 5 is_stmt 1
  39:src/test_thread.cpp ****     printString("\n");
 716              		.loc 2 39 13 is_stmt 0
 717 0378 13060000 		li	a2,0
 718 037c 9305A000 		li	a1,10
 719 0380 1B050900 		sext.w	a0,s2
 720 0384 97000000 		call	_Z8printIntiii@plt
 720      E7800000 
 721              	.LVL76:
  40:src/test_thread.cpp **** 
 722              		.loc 2 40 5 is_stmt 1
  40:src/test_thread.cpp **** 
 723              		.loc 2 40 16 is_stmt 0
 724 038c 17050000 		lla	a0,.LC1
 724      13050500 
 725 0394 97000000 		call	_Z11printStringPKc@plt
 725      E7800000 
 726              	.LVL77:
 727 039c 6F000006 		j	.L42
 728              	.L45:
  43:src/test_thread.cpp ****         thread_dispatch();
 729              		.loc 2 43 9 is_stmt 1 discriminator 1
  43:src/test_thread.cpp ****         thread_dispatch();
 730              		.loc 2 43 20 is_stmt 0 discriminator 1
 731 03a0 97000000 		call	_Z11thread_exitv@plt
 731      E7800000 
 732              	.LVL78:
  44:src/test_thread.cpp ****         printString("A promenio\n");
 733              		.loc 2 44 9 is_stmt 1 discriminator 1
  44:src/test_thread.cpp ****         printString("A promenio\n");
 734              		.loc 2 44 24 is_stmt 0 discriminator 1
 735 03a8 97000000 		call	_Z15thread_dispatchv@plt
 735      E7800000 
 736              	.LVL79:
  45:src/test_thread.cpp ****         printString("A: i=");
 737              		.loc 2 45 9 is_stmt 1 discriminator 1
  45:src/test_thread.cpp ****         printString("A: i=");
 738              		.loc 2 45 20 is_stmt 0 discriminator 1
 739 03b0 17050000 		lla	a0,.LC7
 739      13050500 
 740 03b8 97000000 		call	_Z11printStringPKc@plt
 740      E7800000 
 741              	.LVL80:
  46:src/test_thread.cpp ****         printInt(i);
 742              		.loc 2 46 9 is_stmt 1 discriminator 1
  46:src/test_thread.cpp ****         printInt(i);
 743              		.loc 2 46 20 is_stmt 0 discriminator 1
 744 03c0 17050000 		lla	a0,.LC0
 744      13050500 
 745 03c8 97000000 		call	_Z11printStringPKc@plt
GAS LISTING /tmp/cczOroum.s 			page 22


 745      E7800000 
 746              	.LVL81:
  47:src/test_thread.cpp ****         printString("\n");
 747              		.loc 2 47 9 is_stmt 1 discriminator 1
  47:src/test_thread.cpp ****         printString("\n");
 748              		.loc 2 47 17 is_stmt 0 discriminator 1
 749 03d0 13060000 		li	a2,0
 750 03d4 9305A000 		li	a1,10
 751 03d8 13850400 		mv	a0,s1
 752 03dc 97000000 		call	_Z8printIntiii@plt
 752      E7800000 
 753              	.LVL82:
  48:src/test_thread.cpp ****     }
 754              		.loc 2 48 9 is_stmt 1 discriminator 1
  48:src/test_thread.cpp ****     }
 755              		.loc 2 48 20 is_stmt 0 discriminator 1
 756 03e4 17050000 		lla	a0,.LC1
 756      13050500 
 757 03ec 97000000 		call	_Z11printStringPKc@plt
 757      E7800000 
 758              	.LVL83:
  42:src/test_thread.cpp ****         thread_exit();
 759              		.loc 2 42 5 is_stmt 1 discriminator 1
 760 03f4 9B841400 		addiw	s1,s1,1
 761              	.LVL84:
 762 03f8 93F4F40F 		andi	s1,s1,0xff
 763              	.LVL85:
 764              	.L42:
  42:src/test_thread.cpp ****         thread_exit();
 765              		.loc 2 42 5 discriminator 2
  42:src/test_thread.cpp ****         thread_exit();
 766              		.loc 2 42 14 discriminator 2
 767 03fc 93075000 		li	a5,5
 768 0400 E3F097FA 		bleu	s1,a5,.L45
  50:src/test_thread.cpp **** }
 769              		.loc 2 50 5
  50:src/test_thread.cpp **** }
 770              		.loc 2 50 16 is_stmt 0
 771 0404 17050000 		lla	a0,.LC8
 771      13050500 
 772 040c 97000000 		call	_Z11printStringPKc@plt
 772      E7800000 
 773              	.LVL86:
  51:src/test_thread.cpp **** void workerBodyComi(void* arg) {
 774              		.loc 2 51 1
 775 0414 83308101 		ld	ra,24(sp)
 776              		.cfi_restore 1
 777 0418 03340101 		ld	s0,16(sp)
 778              		.cfi_restore 8
 779              		.cfi_def_cfa 2, 32
 780 041c 83348100 		ld	s1,8(sp)
 781              		.cfi_restore 9
 782              	.LVL87:
 783 0420 03390100 		ld	s2,0(sp)
 784              		.cfi_restore 18
 785              	.LVL88:
 786 0424 13010102 		addi	sp,sp,32
GAS LISTING /tmp/cczOroum.s 			page 23


 787              		.cfi_def_cfa_offset 0
 788 0428 67800000 		jr	ra
 789              		.cfi_endproc
 790              	.LFE36:
 792              		.section	.rodata.str1.8
 793 0073 00000000 		.align	3
 793      00
 794              	.LC9:
 795 0078 423A2079 		.string	"B: yield\n"
 795      69656C64 
 795      0A00
 796 0082 00000000 		.align	3
 796      0000
 797              	.LC10:
 798 0088 423A2066 		.string	"B: fibonaci="
 798      69626F6E 
 798      6163693D 
 798      00
 799 0095 000000   		.align	3
 800              	.LC11:
 801 0098 42207072 		.string	"B promenio\n"
 801      6F6D656E 
 801      696F0A00 
 802 00a4 00000000 		.align	3
 803              	.LC12:
 804 00a8 42207A61 		.string	"B zavrsio\n"
 804      76727369 
 804      6F0A00
 805              		.text
 806              		.align	2
 807              		.globl	_Z14workerBodyComiPv
 809              	_Z14workerBodyComiPv:
 810              	.LFB37:
  52:src/test_thread.cpp ****     int ind = *(int*)arg;
 811              		.loc 2 52 32 is_stmt 1
 812              		.cfi_startproc
 813              	.LVL89:
 814 042c 130101FE 		addi	sp,sp,-32
 815              		.cfi_def_cfa_offset 32
 816 0430 233C1100 		sd	ra,24(sp)
 817 0434 23388100 		sd	s0,16(sp)
 818 0438 23349100 		sd	s1,8(sp)
 819 043c 23302101 		sd	s2,0(sp)
 820              		.cfi_offset 1, -8
 821              		.cfi_offset 8, -16
 822              		.cfi_offset 9, -24
 823              		.cfi_offset 18, -32
 824 0440 13040102 		addi	s0,sp,32
 825              		.cfi_def_cfa 8, 0
  53:src/test_thread.cpp ****     uint8 i = 10;
 826              		.loc 2 53 5
  53:src/test_thread.cpp ****     uint8 i = 10;
 827              		.loc 2 53 9 is_stmt 0
 828 0444 03290500 		lw	s2,0(a0)
 829              	.LVL90:
  54:src/test_thread.cpp ****     for (; i < 13; i++) {
 830              		.loc 2 54 5 is_stmt 1
GAS LISTING /tmp/cczOroum.s 			page 24


  54:src/test_thread.cpp ****     for (; i < 13; i++) {
 831              		.loc 2 54 11 is_stmt 0
 832 0448 9304A000 		li	s1,10
 833 044c 6F004005 		j	.L49
 834              	.LVL91:
 835              	.L53:
  56:src/test_thread.cpp ****         thread_exit();
 836              		.loc 2 56 18 is_stmt 1 discriminator 1
  56:src/test_thread.cpp ****         thread_exit();
 837              		.loc 2 56 28 is_stmt 0 discriminator 1
 838 0450 1305A000 		li	a0,10
 839 0454 97000000 		call	_Z10time_sleepm@plt
 839      E7800000 
 840              	.LVL92:
 841              	.L48:
  57:src/test_thread.cpp ****         printString("B: i=");
 842              		.loc 2 57 9 is_stmt 1
  57:src/test_thread.cpp ****         printString("B: i=");
 843              		.loc 2 57 20 is_stmt 0
 844 045c 97000000 		call	_Z11thread_exitv@plt
 844      E7800000 
 845              	.LVL93:
  58:src/test_thread.cpp ****         printInt(i);
 846              		.loc 2 58 9 is_stmt 1
  58:src/test_thread.cpp ****         printInt(i);
 847              		.loc 2 58 20 is_stmt 0
 848 0464 17050000 		lla	a0,.LC2
 848      13050500 
 849 046c 97000000 		call	_Z11printStringPKc@plt
 849      E7800000 
 850              	.LVL94:
  59:src/test_thread.cpp ****         printString("\n");
 851              		.loc 2 59 9 is_stmt 1
  59:src/test_thread.cpp ****         printString("\n");
 852              		.loc 2 59 17 is_stmt 0
 853 0474 13060000 		li	a2,0
 854 0478 9305A000 		li	a1,10
 855 047c 13850400 		mv	a0,s1
 856 0480 97000000 		call	_Z8printIntiii@plt
 856      E7800000 
 857              	.LVL95:
  60:src/test_thread.cpp ****     }
 858              		.loc 2 60 9 is_stmt 1
  60:src/test_thread.cpp ****     }
 859              		.loc 2 60 20 is_stmt 0
 860 0488 17050000 		lla	a0,.LC1
 860      13050500 
 861 0490 97000000 		call	_Z11printStringPKc@plt
 861      E7800000 
 862              	.LVL96:
  55:src/test_thread.cpp ****         if (ind) time_sleep(10);
 863              		.loc 2 55 5 is_stmt 1
 864 0498 9B841400 		addiw	s1,s1,1
 865              	.LVL97:
 866 049c 93F4F40F 		andi	s1,s1,0xff
 867              	.LVL98:
 868              	.L49:
GAS LISTING /tmp/cczOroum.s 			page 25


  55:src/test_thread.cpp ****         if (ind) time_sleep(10);
 869              		.loc 2 55 5 discriminator 1
  55:src/test_thread.cpp ****         if (ind) time_sleep(10);
 870              		.loc 2 55 14 discriminator 1
 871 04a0 9307C000 		li	a5,12
 872 04a4 63E69700 		bgtu	s1,a5,.L47
  56:src/test_thread.cpp ****         thread_exit();
 873              		.loc 2 56 9
 874 04a8 E30A09FA 		beqz	s2,.L48
 875 04ac 6FF05FFA 		j	.L53
 876              	.L47:
  63:src/test_thread.cpp ****     asm volatile ("li t1, 5");
 877              		.loc 2 63 5
  63:src/test_thread.cpp ****     asm volatile ("li t1, 5");
 878              		.loc 2 63 16 is_stmt 0
 879 04b0 17050000 		lla	a0,.LC9
 879      13050500 
 880 04b8 97000000 		call	_Z11printStringPKc@plt
 880      E7800000 
 881              	.LVL99:
  64:src/test_thread.cpp ****     thread_dispatch();
 882              		.loc 2 64 5 is_stmt 1
  64:src/test_thread.cpp ****     thread_dispatch();
 883              		.loc 2 64 30 is_stmt 0
 884              	#APP
 885              	# 64 "src/test_thread.cpp" 1
  65:src/test_thread.cpp **** 
 886              		li t1, 5
 887              	# 0 "" 2
 888              		.loc 2 65 5 is_stmt 1
  65:src/test_thread.cpp **** 
 889              		.loc 2 65 20 is_stmt 0
 890              	#NO_APP
 891 04c4 97000000 		call	_Z15thread_dispatchv@plt
 891      E7800000 
 892              	.LVL100:
  67:src/test_thread.cpp ****     printString("B: fibonaci=");
 893              		.loc 2 67 5 is_stmt 1
  67:src/test_thread.cpp ****     printString("B: fibonaci=");
 894              		.loc 2 67 34 is_stmt 0
 895 04cc 13057001 		li	a0,23
 896 04d0 97000000 		call	_Z13fibonacciSonem
 896      E7800000 
 897              	.LVL101:
 898 04d8 13090500 		mv	s2,a0
 899              	.LVL102:
  68:src/test_thread.cpp ****     printInt(result);
 900              		.loc 2 68 5 is_stmt 1
  68:src/test_thread.cpp ****     printInt(result);
 901              		.loc 2 68 16 is_stmt 0
 902 04dc 17050000 		lla	a0,.LC10
 902      13050500 
 903              	.LVL103:
 904 04e4 97000000 		call	_Z11printStringPKc@plt
 904      E7800000 
 905              	.LVL104:
  69:src/test_thread.cpp ****     printString("\n");
GAS LISTING /tmp/cczOroum.s 			page 26


 906              		.loc 2 69 5 is_stmt 1
  69:src/test_thread.cpp ****     printString("\n");
 907              		.loc 2 69 13 is_stmt 0
 908 04ec 13060000 		li	a2,0
 909 04f0 9305A000 		li	a1,10
 910 04f4 1B050900 		sext.w	a0,s2
 911 04f8 97000000 		call	_Z8printIntiii@plt
 911      E7800000 
 912              	.LVL105:
  70:src/test_thread.cpp **** 
 913              		.loc 2 70 5 is_stmt 1
  70:src/test_thread.cpp **** 
 914              		.loc 2 70 16 is_stmt 0
 915 0500 17050000 		lla	a0,.LC1
 915      13050500 
 916 0508 97000000 		call	_Z11printStringPKc@plt
 916      E7800000 
 917              	.LVL106:
 918 0510 6F000006 		j	.L51
 919              	.L54:
  73:src/test_thread.cpp ****         thread_dispatch();
 920              		.loc 2 73 9 is_stmt 1 discriminator 1
  73:src/test_thread.cpp ****         thread_dispatch();
 921              		.loc 2 73 20 is_stmt 0 discriminator 1
 922 0514 97000000 		call	_Z11thread_exitv@plt
 922      E7800000 
 923              	.LVL107:
  74:src/test_thread.cpp ****         printString("B promenio\n");
 924              		.loc 2 74 9 is_stmt 1 discriminator 1
  74:src/test_thread.cpp ****         printString("B promenio\n");
 925              		.loc 2 74 24 is_stmt 0 discriminator 1
 926 051c 97000000 		call	_Z15thread_dispatchv@plt
 926      E7800000 
 927              	.LVL108:
  75:src/test_thread.cpp ****         printString("B: i=");
 928              		.loc 2 75 9 is_stmt 1 discriminator 1
  75:src/test_thread.cpp ****         printString("B: i=");
 929              		.loc 2 75 20 is_stmt 0 discriminator 1
 930 0524 17050000 		lla	a0,.LC11
 930      13050500 
 931 052c 97000000 		call	_Z11printStringPKc@plt
 931      E7800000 
 932              	.LVL109:
  76:src/test_thread.cpp ****         printInt(i);
 933              		.loc 2 76 9 is_stmt 1 discriminator 1
  76:src/test_thread.cpp ****         printInt(i);
 934              		.loc 2 76 20 is_stmt 0 discriminator 1
 935 0534 17050000 		lla	a0,.LC2
 935      13050500 
 936 053c 97000000 		call	_Z11printStringPKc@plt
 936      E7800000 
 937              	.LVL110:
  77:src/test_thread.cpp ****         printString("\n");
 938              		.loc 2 77 9 is_stmt 1 discriminator 1
  77:src/test_thread.cpp ****         printString("\n");
 939              		.loc 2 77 17 is_stmt 0 discriminator 1
 940 0544 13060000 		li	a2,0
GAS LISTING /tmp/cczOroum.s 			page 27


 941 0548 9305A000 		li	a1,10
 942 054c 13850400 		mv	a0,s1
 943 0550 97000000 		call	_Z8printIntiii@plt
 943      E7800000 
 944              	.LVL111:
  78:src/test_thread.cpp ****     }
 945              		.loc 2 78 9 is_stmt 1 discriminator 1
  78:src/test_thread.cpp ****     }
 946              		.loc 2 78 20 is_stmt 0 discriminator 1
 947 0558 17050000 		lla	a0,.LC1
 947      13050500 
 948 0560 97000000 		call	_Z11printStringPKc@plt
 948      E7800000 
 949              	.LVL112:
  72:src/test_thread.cpp ****         thread_exit();
 950              		.loc 2 72 5 is_stmt 1 discriminator 1
 951 0568 9B841400 		addiw	s1,s1,1
 952              	.LVL113:
 953 056c 93F4F40F 		andi	s1,s1,0xff
 954              	.LVL114:
 955              	.L51:
  72:src/test_thread.cpp ****         thread_exit();
 956              		.loc 2 72 5 discriminator 2
  72:src/test_thread.cpp ****         thread_exit();
 957              		.loc 2 72 14 discriminator 2
 958 0570 9307F000 		li	a5,15
 959 0574 E3F097FA 		bleu	s1,a5,.L54
  80:src/test_thread.cpp **** }
 960              		.loc 2 80 5
  80:src/test_thread.cpp **** }
 961              		.loc 2 80 16 is_stmt 0
 962 0578 17050000 		lla	a0,.LC12
 962      13050500 
 963 0580 97000000 		call	_Z11printStringPKc@plt
 963      E7800000 
 964              	.LVL115:
  81:src/test_thread.cpp **** void test_thread_sync() {
 965              		.loc 2 81 1
 966 0588 83308101 		ld	ra,24(sp)
 967              		.cfi_restore 1
 968 058c 03340101 		ld	s0,16(sp)
 969              		.cfi_restore 8
 970              		.cfi_def_cfa 2, 32
 971 0590 83348100 		ld	s1,8(sp)
 972              		.cfi_restore 9
 973              	.LVL116:
 974 0594 03390100 		ld	s2,0(sp)
 975              		.cfi_restore 18
 976              	.LVL117:
 977 0598 13010102 		addi	sp,sp,32
 978              		.cfi_def_cfa_offset 0
 979 059c 67800000 		jr	ra
 980              		.cfi_endproc
 981              	.LFE37:
 983              		.section	.rodata.str1.8
 984 00b3 00000000 		.align	3
 984      00
GAS LISTING /tmp/cczOroum.s 			page 28


 985              	.LC13:
 986 00b8 54687265 		.string	"ThreadA created\n"
 986      61644120 
 986      63726561 
 986      7465640A 
 986      00
 987 00c9 00000000 		.align	3
 987      000000
 988              	.LC14:
 989 00d0 54687265 		.string	"ThreadB created\n"
 989      61644220 
 989      63726561 
 989      7465640A 
 989      00
 990 00e1 00000000 		.align	3
 990      000000
 991              	.LC15:
 992 00e8 46696E69 		.string	"Finished\n"
 992      73686564 
 992      0A00
 993              		.text
 994              		.align	2
 995              		.globl	_Z16test_thread_syncv
 997              	_Z16test_thread_syncv:
 998              	.LFB38:
  82:src/test_thread.cpp ****     /*
 999              		.loc 2 82 25 is_stmt 1
 1000              		.cfi_startproc
 1001 05a0 130101FC 		addi	sp,sp,-64
 1002              		.cfi_def_cfa_offset 64
 1003 05a4 233C1102 		sd	ra,56(sp)
 1004 05a8 23388102 		sd	s0,48(sp)
 1005 05ac 23349102 		sd	s1,40(sp)
 1006 05b0 23302103 		sd	s2,32(sp)
 1007              		.cfi_offset 1, -8
 1008              		.cfi_offset 8, -16
 1009              		.cfi_offset 9, -24
 1010              		.cfi_offset 18, -32
 1011 05b4 13040104 		addi	s0,sp,64
 1012              		.cfi_def_cfa 8, 0
 126:src/test_thread.cpp ****     int ind = 0;
 1013              		.loc 2 126 5
 127:src/test_thread.cpp ****     thread_create(&threads[0], &workerBodyDjape, &ind);
 1014              		.loc 2 127 5
 127:src/test_thread.cpp ****     thread_create(&threads[0], &workerBodyDjape, &ind);
 1015              		.loc 2 127 9 is_stmt 0
 1016 05b8 232604FC 		sw	zero,-52(s0)
 128:src/test_thread.cpp ****     printString("ThreadA created\n");
 1017              		.loc 2 128 5 is_stmt 1
 128:src/test_thread.cpp ****     printString("ThreadA created\n");
 1018              		.loc 2 128 18 is_stmt 0
 1019 05bc 9304C4FC 		addi	s1,s0,-52
 1020 05c0 13860400 		mv	a2,s1
 1021 05c4 97050000 		lla	a1,_Z15workerBodyDjapePv
 1021      93850500 
 1022 05cc 130504FD 		addi	a0,s0,-48
 1023 05d0 97000000 		call	_Z13thread_createPP4KPCBPFvPvES2_@plt
GAS LISTING /tmp/cczOroum.s 			page 29


 1023      E7800000 
 1024              	.LVL118:
 129:src/test_thread.cpp ****     thread_create(&threads[1], &workerBodyComi, &ind);
 1025              		.loc 2 129 5 is_stmt 1
 129:src/test_thread.cpp ****     thread_create(&threads[1], &workerBodyComi, &ind);
 1026              		.loc 2 129 16 is_stmt 0
 1027 05d8 17050000 		lla	a0,.LC13
 1027      13050500 
 1028 05e0 97000000 		call	_Z11printStringPKc@plt
 1028      E7800000 
 1029              	.LVL119:
 130:src/test_thread.cpp ****     printString("ThreadB created\n");
 1030              		.loc 2 130 5 is_stmt 1
 130:src/test_thread.cpp ****     printString("ThreadB created\n");
 1031              		.loc 2 130 18 is_stmt 0
 1032 05e8 13860400 		mv	a2,s1
 1033 05ec 97050000 		lla	a1,_Z14workerBodyComiPv
 1033      93850500 
 1034 05f4 130584FD 		addi	a0,s0,-40
 1035 05f8 97000000 		call	_Z13thread_createPP4KPCBPFvPvES2_@plt
 1035      E7800000 
 1036              	.LVL120:
 131:src/test_thread.cpp ****     while (KPCB::counter) KPCB::yield();
 1037              		.loc 2 131 5 is_stmt 1
 131:src/test_thread.cpp ****     while (KPCB::counter) KPCB::yield();
 1038              		.loc 2 131 16 is_stmt 0
 1039 0600 17050000 		lla	a0,.LC14
 1039      13050500 
 1040 0608 97000000 		call	_Z11printStringPKc@plt
 1040      E7800000 
 1041              	.LVL121:
 1042              	.L57:
 132:src/test_thread.cpp ****     //delete threads[0];
 1043              		.loc 2 132 5 is_stmt 1
 132:src/test_thread.cpp ****     //delete threads[0];
 1044              		.loc 2 132 18
 1045 0610 97070000 		la	a5,_ZN4KPCB7counterE
 1045      83B70700 
 1046 0618 83A70700 		lw	a5,0(a5)
 1047 061c 63880700 		beqz	a5,.L61
 132:src/test_thread.cpp ****     //delete threads[0];
 1048              		.loc 2 132 27 discriminator 1
 132:src/test_thread.cpp ****     //delete threads[0];
 1049              		.loc 2 132 38 is_stmt 0 discriminator 1
 1050 0620 97000000 		call	_ZN4KPCB5yieldEv@plt
 1050      E7800000 
 1051              	.LVL122:
 1052 0628 6FF09FFE 		j	.L57
 1053              	.L61:
 1054              	.LBB68:
 134:src/test_thread.cpp ****     printString("Finished\n");
 1055              		.loc 2 134 21
 1056 062c 930404FD 		addi	s1,s0,-48
 1057 0630 6F004001 		j	.L56
 1058              	.LVL123:
 1059              	.L60:
 1060              	.LBB69:
GAS LISTING /tmp/cczOroum.s 			page 30


 1061              	.LBB70:
 1062              		.file 3 "src/../h/KPCB.hpp"
   1:src/../h/KPCB.hpp **** //
   2:src/../h/KPCB.hpp **** // Created by os on 6/22/22.
   3:src/../h/KPCB.hpp **** //
   4:src/../h/KPCB.hpp **** 
   5:src/../h/KPCB.hpp **** #ifndef PROJECT_BASE_V1_1_KPCB_HPP
   6:src/../h/KPCB.hpp **** #define PROJECT_BASE_V1_1_KPCB_HPP
   7:src/../h/KPCB.hpp **** 
   8:src/../h/KPCB.hpp **** #include "../lib/hw.h"
   9:src/../h/KPCB.hpp **** #include "../lib/mem.h"
  10:src/../h/KPCB.hpp **** #include "KScheduler.hpp"
  11:src/../h/KPCB.hpp **** #include "KMemoryAllocator.hpp"
  12:src/../h/KPCB.hpp **** 
  13:src/../h/KPCB.hpp **** class KPCB {
  14:src/../h/KPCB.hpp **** public:
  15:src/../h/KPCB.hpp ****     ~KPCB() { delete[] stack; }
  16:src/../h/KPCB.hpp ****     friend class KScheduler;
  17:src/../h/KPCB.hpp ****     friend class KSemaphore;
  18:src/../h/KPCB.hpp ****     friend class KRiscv;
  19:src/../h/KPCB.hpp ****     friend class KSleep;
  20:src/../h/KPCB.hpp **** 
  21:src/../h/KPCB.hpp ****     void* operator new(size_t size) {
  22:src/../h/KPCB.hpp ****         size_t sizeBlock = (size + 16) / MEM_BLOCK_SIZE + ((size + 16) % MEM_BLOCK_SIZE ? 1 : 0);
  23:src/../h/KPCB.hpp ****         return KMemoryAllocator::mem_alloc(sizeBlock);
  24:src/../h/KPCB.hpp ****         //return __mem_alloc(size);
  25:src/../h/KPCB.hpp ****     }
  26:src/../h/KPCB.hpp ****     void* operator new[](size_t size) {
  27:src/../h/KPCB.hpp ****         size_t sizeBlock = (size + 16) / MEM_BLOCK_SIZE + ((size + 16) % MEM_BLOCK_SIZE ? 1 : 0);
  28:src/../h/KPCB.hpp ****         return KMemoryAllocator::mem_alloc(sizeBlock);
  29:src/../h/KPCB.hpp ****         //return __mem_alloc(size);
  30:src/../h/KPCB.hpp ****     }
  31:src/../h/KPCB.hpp ****     void operator delete(void* addr) {
  32:src/../h/KPCB.hpp ****         KMemoryAllocator::mem_free(addr);
 1063              		.loc 3 32 9 is_stmt 1
 1064              		.loc 3 32 35 is_stmt 0
 1065 0634 13050900 		mv	a0,s2
 1066 0638 97000000 		call	_ZN16KMemoryAllocator8mem_freeEPv@plt
 1066      E7800000 
 1067              	.LVL124:
 1068              	.L59:
 1069              	.LBE70:
 1070              	.LBE69:
 134:src/test_thread.cpp ****     printString("Finished\n");
 1071              		.loc 2 134 5 is_stmt 1 discriminator 4
 1072 0640 93848400 		addi	s1,s1,8
 1073              	.LVL125:
 1074              	.L56:
 134:src/test_thread.cpp ****     printString("Finished\n");
 1075              		.loc 2 134 21 discriminator 5
 1076 0644 930704FE 		addi	a5,s0,-32
 1077 0648 6380F402 		beq	s1,a5,.L58
 1078              	.LVL126:
 134:src/test_thread.cpp ****     printString("Finished\n");
 1079              		.loc 2 134 30 discriminator 2
 134:src/test_thread.cpp ****     printString("Finished\n");
 1080              		.loc 2 134 37 is_stmt 0 discriminator 2
GAS LISTING /tmp/cczOroum.s 			page 31


 1081 064c 03B90400 		ld	s2,0(s1)
 134:src/test_thread.cpp ****     printString("Finished\n");
 1082              		.loc 2 134 40 discriminator 2
 1083 0650 E30809FE 		beqz	s2,.L59
 1084              	.LVL127:
 1085              	.LBB71:
 1086              	.LBB72:
  15:src/../h/KPCB.hpp ****     friend class KScheduler;
 1087              		.loc 3 15 15 is_stmt 1
  15:src/../h/KPCB.hpp ****     friend class KScheduler;
 1088              		.loc 3 15 24 is_stmt 0
 1089 0654 03358901 		ld	a0,24(s2)
  15:src/../h/KPCB.hpp ****     friend class KScheduler;
 1090              		.loc 3 15 29
 1091 0658 E30E05FC 		beqz	a0,.L60
  15:src/../h/KPCB.hpp ****     friend class KScheduler;
 1092              		.loc 3 15 24
 1093 065c 97000000 		call	_ZdaPv@plt
 1093      E7800000 
 1094              	.LVL128:
 1095 0664 6FF01FFD 		j	.L60
 1096              	.LVL129:
 1097              	.L58:
 1098              	.LBE72:
 1099              	.LBE71:
 1100              	.LBE68:
 135:src/test_thread.cpp **** 
 1101              		.loc 2 135 5 is_stmt 1
 135:src/test_thread.cpp **** 
 1102              		.loc 2 135 16 is_stmt 0
 1103 0668 17050000 		lla	a0,.LC15
 1103      13050500 
 1104 0670 97000000 		call	_Z11printStringPKc@plt
 1104      E7800000 
 1105              	.LVL130:
 141:src/test_thread.cpp **** 
 1106              		.loc 2 141 1
 1107 0678 83308103 		ld	ra,56(sp)
 1108              		.cfi_restore 1
 1109 067c 03340103 		ld	s0,48(sp)
 1110              		.cfi_restore 8
 1111              		.cfi_def_cfa 2, 64
 1112 0680 83348102 		ld	s1,40(sp)
 1113              		.cfi_restore 9
 1114              	.LVL131:
 1115 0684 03390102 		ld	s2,32(sp)
 1116              		.cfi_restore 18
 1117 0688 13010104 		addi	sp,sp,64
 1118              		.cfi_def_cfa_offset 0
 1119 068c 67800000 		jr	ra
 1120              		.cfi_endproc
 1121              	.LFE38:
 1123              		.align	2
 1124              		.globl	_Z15fibonacciDraganm
 1126              	_Z15fibonacciDraganm:
 1127              	.LFB39:
 143:src/test_thread.cpp ****     if (n == 0 || n == 1) { return n; }
GAS LISTING /tmp/cczOroum.s 			page 32


 1128              		.loc 2 143 34 is_stmt 1
 1129              		.cfi_startproc
 1130              	.LVL132:
 1131 0690 130101FE 		addi	sp,sp,-32
 1132              		.cfi_def_cfa_offset 32
 1133 0694 233C1100 		sd	ra,24(sp)
 1134 0698 23388100 		sd	s0,16(sp)
 1135 069c 23349100 		sd	s1,8(sp)
 1136 06a0 23302101 		sd	s2,0(sp)
 1137              		.cfi_offset 1, -8
 1138              		.cfi_offset 8, -16
 1139              		.cfi_offset 9, -24
 1140              		.cfi_offset 18, -32
 1141 06a4 13040102 		addi	s0,sp,32
 1142              		.cfi_def_cfa 8, 0
 1143 06a8 93040500 		mv	s1,a0
 144:src/test_thread.cpp ****     if (n % 10 == 0) { thread_dispatch(); }
 1144              		.loc 2 144 5
 1145 06ac 93071000 		li	a5,1
 1146 06b0 63F8A702 		bleu	a0,a5,.L63
 145:src/test_thread.cpp ****     return fibonacciDragan(n - 1) + fibonacciDragan(n - 2);
 1147              		.loc 2 145 5
 145:src/test_thread.cpp ****     return fibonacciDragan(n - 1) + fibonacciDragan(n - 2);
 1148              		.loc 2 145 11 is_stmt 0
 1149 06b4 9307A000 		li	a5,10
 1150 06b8 B377F502 		remu	a5,a0,a5
 145:src/test_thread.cpp ****     return fibonacciDragan(n - 1) + fibonacciDragan(n - 2);
 1151              		.loc 2 145 5
 1152 06bc 638E0702 		beqz	a5,.L68
 1153              	.LVL133:
 1154              	.L65:
 146:src/test_thread.cpp **** }
 1155              		.loc 2 146 5 is_stmt 1
 146:src/test_thread.cpp **** }
 1156              		.loc 2 146 27 is_stmt 0
 1157 06c0 1385F4FF 		addi	a0,s1,-1
 1158 06c4 97000000 		call	_Z15fibonacciDraganm
 1158      E7800000 
 1159              	.LVL134:
 1160 06cc 13090500 		mv	s2,a0
 146:src/test_thread.cpp **** }
 1161              		.loc 2 146 52
 1162 06d0 1385E4FF 		addi	a0,s1,-2
 1163 06d4 97000000 		call	_Z15fibonacciDraganm
 1163      E7800000 
 1164              	.LVL135:
 146:src/test_thread.cpp **** }
 1165              		.loc 2 146 58
 1166 06dc 3305A900 		add	a0,s2,a0
 1167              	.L63:
 147:src/test_thread.cpp **** void workerBodyPedja(void* arg) {
 1168              		.loc 2 147 1
 1169 06e0 83308101 		ld	ra,24(sp)
 1170              		.cfi_remember_state
 1171              		.cfi_restore 1
 1172 06e4 03340101 		ld	s0,16(sp)
 1173              		.cfi_restore 8
GAS LISTING /tmp/cczOroum.s 			page 33


 1174              		.cfi_def_cfa 2, 32
 1175 06e8 83348100 		ld	s1,8(sp)
 1176              		.cfi_restore 9
 1177              	.LVL136:
 1178 06ec 03390100 		ld	s2,0(sp)
 1179              		.cfi_restore 18
 1180 06f0 13010102 		addi	sp,sp,32
 1181              		.cfi_def_cfa_offset 0
 1182 06f4 67800000 		jr	ra
 1183              	.LVL137:
 1184              	.L68:
 1185              		.cfi_restore_state
 145:src/test_thread.cpp ****     return fibonacciDragan(n - 1) + fibonacciDragan(n - 2);
 1186              		.loc 2 145 24 is_stmt 1 discriminator 1
 145:src/test_thread.cpp ****     return fibonacciDragan(n - 1) + fibonacciDragan(n - 2);
 1187              		.loc 2 145 39 is_stmt 0 discriminator 1
 1188 06f8 97000000 		call	_Z15thread_dispatchv@plt
 1188      E7800000 
 1189              	.LVL138:
 1190 0700 6FF01FFC 		j	.L65
 1191              		.cfi_endproc
 1192              	.LFE39:
 1194              		.section	.rodata.str1.8
 1195 00f2 00000000 		.align	3
 1195      0000
 1196              	.LC16:
 1197 00f8 433A2069 		.string	"C: i="
 1197      3D00
 1198 00fe 0000     		.align	3
 1199              	.LC17:
 1200 0100 433A2079 		.string	"C: yield\n"
 1200      69656C64 
 1200      0A00
 1201 010a 00000000 		.align	3
 1201      0000
 1202              	.LC18:
 1203 0110 433A2074 		.string	"C: t1="
 1203      313D00
 1204 0117 00       		.align	3
 1205              	.LC19:
 1206 0118 433A2066 		.string	"C: fibonaci="
 1206      69626F6E 
 1206      6163693D 
 1206      00
 1207              		.text
 1208              		.align	2
 1209              		.globl	_Z17workerBodySlavicaPv
 1211              	_Z17workerBodySlavicaPv:
 1212              	.LFB42:
 171:src/test_thread.cpp ****     uint8 i = 0;
 1213              		.loc 2 171 35 is_stmt 1
 1214              		.cfi_startproc
 1215              	.LVL139:
 1216 0704 130101FE 		addi	sp,sp,-32
 1217              		.cfi_def_cfa_offset 32
 1218 0708 233C1100 		sd	ra,24(sp)
 1219 070c 23388100 		sd	s0,16(sp)
GAS LISTING /tmp/cczOroum.s 			page 34


 1220 0710 23349100 		sd	s1,8(sp)
 1221 0714 23302101 		sd	s2,0(sp)
 1222              		.cfi_offset 1, -8
 1223              		.cfi_offset 8, -16
 1224              		.cfi_offset 9, -24
 1225              		.cfi_offset 18, -32
 1226 0718 13040102 		addi	s0,sp,32
 1227              		.cfi_def_cfa 8, 0
 172:src/test_thread.cpp ****     for (; i < 3; i++) {
 1228              		.loc 2 172 5
 1229              	.LVL140:
 172:src/test_thread.cpp ****     for (; i < 3; i++) {
 1230              		.loc 2 172 11 is_stmt 0
 1231 071c 93040000 		li	s1,0
 1232 0720 6F000004 		j	.L71
 1233              	.LVL141:
 1234              	.L75:
 174:src/test_thread.cpp ****         printInt(i);
 1235              		.loc 2 174 9 is_stmt 1 discriminator 1
 174:src/test_thread.cpp ****         printInt(i);
 1236              		.loc 2 174 20 is_stmt 0 discriminator 1
 1237 0724 17050000 		lla	a0,.LC16
 1237      13050500 
 1238 072c 97000000 		call	_Z11printStringPKc@plt
 1238      E7800000 
 1239              	.LVL142:
 175:src/test_thread.cpp ****         printString("\n");
 1240              		.loc 2 175 9 is_stmt 1 discriminator 1
 175:src/test_thread.cpp ****         printString("\n");
 1241              		.loc 2 175 17 is_stmt 0 discriminator 1
 1242 0734 13060000 		li	a2,0
 1243 0738 9305A000 		li	a1,10
 1244 073c 13850400 		mv	a0,s1
 1245 0740 97000000 		call	_Z8printIntiii@plt
 1245      E7800000 
 1246              	.LVL143:
 176:src/test_thread.cpp ****     }
 1247              		.loc 2 176 9 is_stmt 1 discriminator 1
 176:src/test_thread.cpp ****     }
 1248              		.loc 2 176 20 is_stmt 0 discriminator 1
 1249 0748 17050000 		lla	a0,.LC1
 1249      13050500 
 1250 0750 97000000 		call	_Z11printStringPKc@plt
 1250      E7800000 
 1251              	.LVL144:
 173:src/test_thread.cpp ****         printString("C: i=");
 1252              		.loc 2 173 5 is_stmt 1 discriminator 1
 1253 0758 9B841400 		addiw	s1,s1,1
 1254              	.LVL145:
 1255 075c 93F4F40F 		andi	s1,s1,0xff
 1256              	.LVL146:
 1257              	.L71:
 173:src/test_thread.cpp ****         printString("C: i=");
 1258              		.loc 2 173 5 discriminator 2
 173:src/test_thread.cpp ****         printString("C: i=");
 1259              		.loc 2 173 14 discriminator 2
 1260 0760 93072000 		li	a5,2
GAS LISTING /tmp/cczOroum.s 			page 35


 1261 0764 E3F097FC 		bleu	s1,a5,.L75
 179:src/test_thread.cpp ****     __asm__ ("li t1, 7");
 1262              		.loc 2 179 5
 179:src/test_thread.cpp ****     __asm__ ("li t1, 7");
 1263              		.loc 2 179 16 is_stmt 0
 1264 0768 17050000 		lla	a0,.LC17
 1264      13050500 
 1265 0770 97000000 		call	_Z11printStringPKc@plt
 1265      E7800000 
 1266              	.LVL147:
 180:src/test_thread.cpp ****     thread_dispatch();
 1267              		.loc 2 180 5 is_stmt 1
 180:src/test_thread.cpp ****     thread_dispatch();
 1268              		.loc 2 180 25 is_stmt 0
 1269              	#APP
 1270              	# 180 "src/test_thread.cpp" 1
 181:src/test_thread.cpp **** 
 1271              		li t1, 7
 1272              	# 0 "" 2
 1273              		.loc 2 181 5 is_stmt 1
 181:src/test_thread.cpp **** 
 1274              		.loc 2 181 20 is_stmt 0
 1275              	#NO_APP
 1276 077c 97000000 		call	_Z15thread_dispatchv@plt
 1276      E7800000 
 1277              	.LVL148:
 183:src/test_thread.cpp ****     __asm__ ("mv %[t1], t1" : [t1] "=r"(t1));
 1278              		.loc 2 183 5 is_stmt 1
 184:src/test_thread.cpp **** 
 1279              		.loc 2 184 5
 184:src/test_thread.cpp **** 
 1280              		.loc 2 184 45 is_stmt 0
 1281              	#APP
 1282              	# 184 "src/test_thread.cpp" 1
 1283              		mv s2, t1
 1284              	# 0 "" 2
 1285              	.LVL149:
 186:src/test_thread.cpp ****     printInt(t1);
 1286              		.loc 2 186 5 is_stmt 1
 186:src/test_thread.cpp ****     printInt(t1);
 1287              		.loc 2 186 16 is_stmt 0
 1288              	#NO_APP
 1289 0788 17050000 		lla	a0,.LC18
 1289      13050500 
 1290 0790 97000000 		call	_Z11printStringPKc@plt
 1290      E7800000 
 1291              	.LVL150:
 187:src/test_thread.cpp ****     printString("\n");
 1292              		.loc 2 187 5 is_stmt 1
 187:src/test_thread.cpp ****     printString("\n");
 1293              		.loc 2 187 13 is_stmt 0
 1294 0798 13060000 		li	a2,0
 1295 079c 9305A000 		li	a1,10
 1296 07a0 1B050900 		sext.w	a0,s2
 1297 07a4 97000000 		call	_Z8printIntiii@plt
 1297      E7800000 
 1298              	.LVL151:
GAS LISTING /tmp/cczOroum.s 			page 36


 188:src/test_thread.cpp **** 
 1299              		.loc 2 188 5 is_stmt 1
 188:src/test_thread.cpp **** 
 1300              		.loc 2 188 16 is_stmt 0
 1301 07ac 17050000 		lla	a0,.LC1
 1301      13050500 
 1302 07b4 97000000 		call	_Z11printStringPKc@plt
 1302      E7800000 
 1303              	.LVL152:
 190:src/test_thread.cpp ****     printString("C: fibonaci=");
 1304              		.loc 2 190 5 is_stmt 1
 190:src/test_thread.cpp ****     printString("C: fibonaci=");
 1305              		.loc 2 190 36 is_stmt 0
 1306 07bc 1305C000 		li	a0,12
 1307 07c0 97000000 		call	_Z15fibonacciDraganm
 1307      E7800000 
 1308              	.LVL153:
 1309 07c8 13090500 		mv	s2,a0
 1310              	.LVL154:
 191:src/test_thread.cpp ****     printInt(result);
 1311              		.loc 2 191 5 is_stmt 1
 191:src/test_thread.cpp ****     printInt(result);
 1312              		.loc 2 191 16 is_stmt 0
 1313 07cc 17050000 		lla	a0,.LC19
 1313      13050500 
 1314              	.LVL155:
 1315 07d4 97000000 		call	_Z11printStringPKc@plt
 1315      E7800000 
 1316              	.LVL156:
 192:src/test_thread.cpp ****     printString("\n");
 1317              		.loc 2 192 5 is_stmt 1
 192:src/test_thread.cpp ****     printString("\n");
 1318              		.loc 2 192 13 is_stmt 0
 1319 07dc 13060000 		li	a2,0
 1320 07e0 9305A000 		li	a1,10
 1321 07e4 1B050900 		sext.w	a0,s2
 1322 07e8 97000000 		call	_Z8printIntiii@plt
 1322      E7800000 
 1323              	.LVL157:
 193:src/test_thread.cpp **** 
 1324              		.loc 2 193 5 is_stmt 1
 193:src/test_thread.cpp **** 
 1325              		.loc 2 193 16 is_stmt 0
 1326 07f0 17050000 		lla	a0,.LC1
 1326      13050500 
 1327 07f8 97000000 		call	_Z11printStringPKc@plt
 1327      E7800000 
 1328              	.LVL158:
 1329 0800 6F000004 		j	.L73
 1330              	.L76:
 196:src/test_thread.cpp ****         printInt(i);
 1331              		.loc 2 196 9 is_stmt 1 discriminator 1
 196:src/test_thread.cpp ****         printInt(i);
 1332              		.loc 2 196 20 is_stmt 0 discriminator 1
 1333 0804 17050000 		lla	a0,.LC16
 1333      13050500 
 1334 080c 97000000 		call	_Z11printStringPKc@plt
GAS LISTING /tmp/cczOroum.s 			page 37


 1334      E7800000 
 1335              	.LVL159:
 197:src/test_thread.cpp ****         printString("\n");
 1336              		.loc 2 197 9 is_stmt 1 discriminator 1
 197:src/test_thread.cpp ****         printString("\n");
 1337              		.loc 2 197 17 is_stmt 0 discriminator 1
 1338 0814 13060000 		li	a2,0
 1339 0818 9305A000 		li	a1,10
 1340 081c 13850400 		mv	a0,s1
 1341 0820 97000000 		call	_Z8printIntiii@plt
 1341      E7800000 
 1342              	.LVL160:
 198:src/test_thread.cpp ****     }
 1343              		.loc 2 198 9 is_stmt 1 discriminator 1
 198:src/test_thread.cpp ****     }
 1344              		.loc 2 198 20 is_stmt 0 discriminator 1
 1345 0828 17050000 		lla	a0,.LC1
 1345      13050500 
 1346 0830 97000000 		call	_Z11printStringPKc@plt
 1346      E7800000 
 1347              	.LVL161:
 195:src/test_thread.cpp ****         printString("C: i=");
 1348              		.loc 2 195 5 is_stmt 1 discriminator 1
 1349 0838 9B841400 		addiw	s1,s1,1
 1350              	.LVL162:
 1351 083c 93F4F40F 		andi	s1,s1,0xff
 1352              	.LVL163:
 1353              	.L73:
 195:src/test_thread.cpp ****         printString("C: i=");
 1354              		.loc 2 195 5 discriminator 2
 195:src/test_thread.cpp ****         printString("C: i=");
 1355              		.loc 2 195 14 discriminator 2
 1356 0840 93075000 		li	a5,5
 1357 0844 E3F097FC 		bleu	s1,a5,.L76
 202:src/test_thread.cpp **** void workerBodyRanko(void* arg) {
 1358              		.loc 2 202 1 is_stmt 0
 1359 0848 83308101 		ld	ra,24(sp)
 1360              		.cfi_restore 1
 1361 084c 03340101 		ld	s0,16(sp)
 1362              		.cfi_restore 8
 1363              		.cfi_def_cfa 2, 32
 1364 0850 83348100 		ld	s1,8(sp)
 1365              		.cfi_restore 9
 1366              	.LVL164:
 1367 0854 03390100 		ld	s2,0(sp)
 1368              		.cfi_restore 18
 1369              	.LVL165:
 1370 0858 13010102 		addi	sp,sp,32
 1371              		.cfi_def_cfa_offset 0
 1372 085c 67800000 		jr	ra
 1373              		.cfi_endproc
 1374              	.LFE42:
 1376              		.section	.rodata.str1.8
 1377 0125 000000   		.align	3
 1378              	.LC20:
 1379 0128 443A2069 		.string	"D: i="
 1379      3D00
GAS LISTING /tmp/cczOroum.s 			page 38


 1380 012e 0000     		.align	3
 1381              	.LC21:
 1382 0130 443A2079 		.string	"D: yield\n"
 1382      69656C64 
 1382      0A00
 1383 013a 00000000 		.align	3
 1383      0000
 1384              	.LC22:
 1385 0140 443A2066 		.string	"D: fibonaci="
 1385      69626F6E 
 1385      6163693D 
 1385      00
 1386              		.text
 1387              		.align	2
 1388              		.globl	_Z15workerBodyRankoPv
 1390              	_Z15workerBodyRankoPv:
 1391              	.LFB43:
 203:src/test_thread.cpp ****     uint8 i = 10;
 1392              		.loc 2 203 33 is_stmt 1
 1393              		.cfi_startproc
 1394              	.LVL166:
 1395 0860 130101FE 		addi	sp,sp,-32
 1396              		.cfi_def_cfa_offset 32
 1397 0864 233C1100 		sd	ra,24(sp)
 1398 0868 23388100 		sd	s0,16(sp)
 1399 086c 23349100 		sd	s1,8(sp)
 1400 0870 23302101 		sd	s2,0(sp)
 1401              		.cfi_offset 1, -8
 1402              		.cfi_offset 8, -16
 1403              		.cfi_offset 9, -24
 1404              		.cfi_offset 18, -32
 1405 0874 13040102 		addi	s0,sp,32
 1406              		.cfi_def_cfa 8, 0
 204:src/test_thread.cpp ****     for (; i < 13; i++) {
 1407              		.loc 2 204 5
 1408              	.LVL167:
 204:src/test_thread.cpp ****     for (; i < 13; i++) {
 1409              		.loc 2 204 11 is_stmt 0
 1410 0878 9304A000 		li	s1,10
 1411 087c 6F000004 		j	.L79
 1412              	.LVL168:
 1413              	.L83:
 206:src/test_thread.cpp ****         printInt(i);
 1414              		.loc 2 206 9 is_stmt 1 discriminator 1
 206:src/test_thread.cpp ****         printInt(i);
 1415              		.loc 2 206 20 is_stmt 0 discriminator 1
 1416 0880 17050000 		lla	a0,.LC20
 1416      13050500 
 1417 0888 97000000 		call	_Z11printStringPKc@plt
 1417      E7800000 
 1418              	.LVL169:
 207:src/test_thread.cpp ****         printString("\n");
 1419              		.loc 2 207 9 is_stmt 1 discriminator 1
 207:src/test_thread.cpp ****         printString("\n");
 1420              		.loc 2 207 17 is_stmt 0 discriminator 1
 1421 0890 13060000 		li	a2,0
 1422 0894 9305A000 		li	a1,10
GAS LISTING /tmp/cczOroum.s 			page 39


 1423 0898 13850400 		mv	a0,s1
 1424 089c 97000000 		call	_Z8printIntiii@plt
 1424      E7800000 
 1425              	.LVL170:
 208:src/test_thread.cpp ****     }
 1426              		.loc 2 208 9 is_stmt 1 discriminator 1
 208:src/test_thread.cpp ****     }
 1427              		.loc 2 208 20 is_stmt 0 discriminator 1
 1428 08a4 17050000 		lla	a0,.LC1
 1428      13050500 
 1429 08ac 97000000 		call	_Z11printStringPKc@plt
 1429      E7800000 
 1430              	.LVL171:
 205:src/test_thread.cpp ****         printString("D: i=");
 1431              		.loc 2 205 5 is_stmt 1 discriminator 1
 1432 08b4 9B841400 		addiw	s1,s1,1
 1433              	.LVL172:
 1434 08b8 93F4F40F 		andi	s1,s1,0xff
 1435              	.LVL173:
 1436              	.L79:
 205:src/test_thread.cpp ****         printString("D: i=");
 1437              		.loc 2 205 5 discriminator 2
 205:src/test_thread.cpp ****         printString("D: i=");
 1438              		.loc 2 205 14 discriminator 2
 1439 08bc 9307C000 		li	a5,12
 1440 08c0 E3F097FC 		bleu	s1,a5,.L83
 211:src/test_thread.cpp ****     __asm__ ("li t1, 5");
 1441              		.loc 2 211 5
 211:src/test_thread.cpp ****     __asm__ ("li t1, 5");
 1442              		.loc 2 211 16 is_stmt 0
 1443 08c4 17050000 		lla	a0,.LC21
 1443      13050500 
 1444 08cc 97000000 		call	_Z11printStringPKc@plt
 1444      E7800000 
 1445              	.LVL174:
 212:src/test_thread.cpp ****     thread_dispatch();
 1446              		.loc 2 212 5 is_stmt 1
 212:src/test_thread.cpp ****     thread_dispatch();
 1447              		.loc 2 212 25 is_stmt 0
 1448              	#APP
 1449              	# 212 "src/test_thread.cpp" 1
 213:src/test_thread.cpp **** 
 1450              		li t1, 5
 1451              	# 0 "" 2
 1452              		.loc 2 213 5 is_stmt 1
 213:src/test_thread.cpp **** 
 1453              		.loc 2 213 20 is_stmt 0
 1454              	#NO_APP
 1455 08d8 97000000 		call	_Z15thread_dispatchv@plt
 1455      E7800000 
 1456              	.LVL175:
 215:src/test_thread.cpp ****     printString("D: fibonaci=");
 1457              		.loc 2 215 5 is_stmt 1
 215:src/test_thread.cpp ****     printString("D: fibonaci=");
 1458              		.loc 2 215 36 is_stmt 0
 1459 08e0 13050001 		li	a0,16
 1460 08e4 97000000 		call	_Z15fibonacciDraganm
GAS LISTING /tmp/cczOroum.s 			page 40


 1460      E7800000 
 1461              	.LVL176:
 1462 08ec 13090500 		mv	s2,a0
 1463              	.LVL177:
 216:src/test_thread.cpp ****     printInt(result);
 1464              		.loc 2 216 5 is_stmt 1
 216:src/test_thread.cpp ****     printInt(result);
 1465              		.loc 2 216 16 is_stmt 0
 1466 08f0 17050000 		lla	a0,.LC22
 1466      13050500 
 1467              	.LVL178:
 1468 08f8 97000000 		call	_Z11printStringPKc@plt
 1468      E7800000 
 1469              	.LVL179:
 217:src/test_thread.cpp ****     printString("\n");
 1470              		.loc 2 217 5 is_stmt 1
 217:src/test_thread.cpp ****     printString("\n");
 1471              		.loc 2 217 13 is_stmt 0
 1472 0900 13060000 		li	a2,0
 1473 0904 9305A000 		li	a1,10
 1474 0908 1B050900 		sext.w	a0,s2
 1475 090c 97000000 		call	_Z8printIntiii@plt
 1475      E7800000 
 1476              	.LVL180:
 218:src/test_thread.cpp **** 
 1477              		.loc 2 218 5 is_stmt 1
 218:src/test_thread.cpp **** 
 1478              		.loc 2 218 16 is_stmt 0
 1479 0914 17050000 		lla	a0,.LC1
 1479      13050500 
 1480 091c 97000000 		call	_Z11printStringPKc@plt
 1480      E7800000 
 1481              	.LVL181:
 1482 0924 6F000004 		j	.L81
 1483              	.L84:
 221:src/test_thread.cpp ****         printInt(i);
 1484              		.loc 2 221 9 is_stmt 1 discriminator 1
 221:src/test_thread.cpp ****         printInt(i);
 1485              		.loc 2 221 20 is_stmt 0 discriminator 1
 1486 0928 17050000 		lla	a0,.LC20
 1486      13050500 
 1487 0930 97000000 		call	_Z11printStringPKc@plt
 1487      E7800000 
 1488              	.LVL182:
 222:src/test_thread.cpp ****         printString("\n");
 1489              		.loc 2 222 9 is_stmt 1 discriminator 1
 222:src/test_thread.cpp ****         printString("\n");
 1490              		.loc 2 222 17 is_stmt 0 discriminator 1
 1491 0938 13060000 		li	a2,0
 1492 093c 9305A000 		li	a1,10
 1493 0940 13850400 		mv	a0,s1
 1494 0944 97000000 		call	_Z8printIntiii@plt
 1494      E7800000 
 1495              	.LVL183:
 223:src/test_thread.cpp ****     }
 1496              		.loc 2 223 9 is_stmt 1 discriminator 1
 223:src/test_thread.cpp ****     }
GAS LISTING /tmp/cczOroum.s 			page 41


 1497              		.loc 2 223 20 is_stmt 0 discriminator 1
 1498 094c 17050000 		lla	a0,.LC1
 1498      13050500 
 1499 0954 97000000 		call	_Z11printStringPKc@plt
 1499      E7800000 
 1500              	.LVL184:
 220:src/test_thread.cpp ****         printString("D: i=");
 1501              		.loc 2 220 5 is_stmt 1 discriminator 1
 1502 095c 9B841400 		addiw	s1,s1,1
 1503              	.LVL185:
 1504 0960 93F4F40F 		andi	s1,s1,0xff
 1505              	.LVL186:
 1506              	.L81:
 220:src/test_thread.cpp ****         printString("D: i=");
 1507              		.loc 2 220 5 discriminator 2
 220:src/test_thread.cpp ****         printString("D: i=");
 1508              		.loc 2 220 14 discriminator 2
 1509 0964 9307F000 		li	a5,15
 1510 0968 E3F097FC 		bleu	s1,a5,.L84
 227:src/test_thread.cpp **** void test_thread_async() {
 1511              		.loc 2 227 1 is_stmt 0
 1512 096c 83308101 		ld	ra,24(sp)
 1513              		.cfi_restore 1
 1514 0970 03340101 		ld	s0,16(sp)
 1515              		.cfi_restore 8
 1516              		.cfi_def_cfa 2, 32
 1517 0974 83348100 		ld	s1,8(sp)
 1518              		.cfi_restore 9
 1519              	.LVL187:
 1520 0978 03390100 		ld	s2,0(sp)
 1521              		.cfi_restore 18
 1522              	.LVL188:
 1523 097c 13010102 		addi	sp,sp,32
 1524              		.cfi_def_cfa_offset 0
 1525 0980 67800000 		jr	ra
 1526              		.cfi_endproc
 1527              	.LFE43:
 1529              		.section	.rodata.str1.8
 1530 014d 000000   		.align	3
 1531              	.LC23:
 1532 0150 54687265 		.string	"ThreadC created\n"
 1532      61644320 
 1532      63726561 
 1532      7465640A 
 1532      00
 1533 0161 00000000 		.align	3
 1533      000000
 1534              	.LC24:
 1535 0168 54687265 		.string	"ThreadD created\n"
 1535      61644420 
 1535      63726561 
 1535      7465640A 
 1535      00
 1536              		.text
 1537              		.align	2
 1538              		.globl	_Z17test_thread_asyncv
 1540              	_Z17test_thread_asyncv:
GAS LISTING /tmp/cczOroum.s 			page 42


 1541              	.LFB44:
 228:src/test_thread.cpp ****     KPCB* threads[4];
 1542              		.loc 2 228 26 is_stmt 1
 1543              		.cfi_startproc
 1544 0984 130101FC 		addi	sp,sp,-64
 1545              		.cfi_def_cfa_offset 64
 1546 0988 233C1102 		sd	ra,56(sp)
 1547 098c 23388102 		sd	s0,48(sp)
 1548 0990 23349102 		sd	s1,40(sp)
 1549 0994 23302103 		sd	s2,32(sp)
 1550              		.cfi_offset 1, -8
 1551              		.cfi_offset 8, -16
 1552              		.cfi_offset 9, -24
 1553              		.cfi_offset 18, -32
 1554 0998 13040104 		addi	s0,sp,64
 1555              		.cfi_def_cfa 8, 0
 229:src/test_thread.cpp ****     thread_create(&threads[0], &workerBodyPedja, nullptr);
 1556              		.loc 2 229 5
 230:src/test_thread.cpp ****     printString("ThreadA created\n");
 1557              		.loc 2 230 5
 230:src/test_thread.cpp ****     printString("ThreadA created\n");
 1558              		.loc 2 230 18 is_stmt 0
 1559 099c 13060000 		li	a2,0
 1560 09a0 97050000 		lla	a1,_Z15workerBodyPedjaPv
 1560      93850500 
 1561 09a8 130504FC 		addi	a0,s0,-64
 1562 09ac 97000000 		call	_Z13thread_createPP4KPCBPFvPvES2_@plt
 1562      E7800000 
 1563              	.LVL189:
 231:src/test_thread.cpp ****     thread_create(&threads[1], &workerBodyMilica, nullptr);
 1564              		.loc 2 231 5 is_stmt 1
 231:src/test_thread.cpp ****     thread_create(&threads[1], &workerBodyMilica, nullptr);
 1565              		.loc 2 231 16 is_stmt 0
 1566 09b4 17050000 		lla	a0,.LC13
 1566      13050500 
 1567 09bc 97000000 		call	_Z11printStringPKc@plt
 1567      E7800000 
 1568              	.LVL190:
 232:src/test_thread.cpp ****     printString("ThreadB created\n");
 1569              		.loc 2 232 5 is_stmt 1
 232:src/test_thread.cpp ****     printString("ThreadB created\n");
 1570              		.loc 2 232 18 is_stmt 0
 1571 09c4 13060000 		li	a2,0
 1572 09c8 97050000 		lla	a1,_Z16workerBodyMilicaPv
 1572      93850500 
 1573 09d0 130584FC 		addi	a0,s0,-56
 1574 09d4 97000000 		call	_Z13thread_createPP4KPCBPFvPvES2_@plt
 1574      E7800000 
 1575              	.LVL191:
 233:src/test_thread.cpp ****     thread_create(&threads[2], &workerBodySlavica, nullptr);
 1576              		.loc 2 233 5 is_stmt 1
 233:src/test_thread.cpp ****     thread_create(&threads[2], &workerBodySlavica, nullptr);
 1577              		.loc 2 233 16 is_stmt 0
 1578 09dc 17050000 		lla	a0,.LC14
 1578      13050500 
 1579 09e4 97000000 		call	_Z11printStringPKc@plt
 1579      E7800000 
GAS LISTING /tmp/cczOroum.s 			page 43


 1580              	.LVL192:
 234:src/test_thread.cpp ****     printString("ThreadC created\n");
 1581              		.loc 2 234 5 is_stmt 1
 234:src/test_thread.cpp ****     printString("ThreadC created\n");
 1582              		.loc 2 234 18 is_stmt 0
 1583 09ec 13060000 		li	a2,0
 1584 09f0 97050000 		lla	a1,_Z17workerBodySlavicaPv
 1584      93850500 
 1585 09f8 130504FD 		addi	a0,s0,-48
 1586 09fc 97000000 		call	_Z13thread_createPP4KPCBPFvPvES2_@plt
 1586      E7800000 
 1587              	.LVL193:
 235:src/test_thread.cpp ****     thread_create(&threads[3], &workerBodyRanko, nullptr);
 1588              		.loc 2 235 5 is_stmt 1
 235:src/test_thread.cpp ****     thread_create(&threads[3], &workerBodyRanko, nullptr);
 1589              		.loc 2 235 16 is_stmt 0
 1590 0a04 17050000 		lla	a0,.LC23
 1590      13050500 
 1591 0a0c 97000000 		call	_Z11printStringPKc@plt
 1591      E7800000 
 1592              	.LVL194:
 236:src/test_thread.cpp ****     printString("ThreadD created\n");
 1593              		.loc 2 236 5 is_stmt 1
 236:src/test_thread.cpp ****     printString("ThreadD created\n");
 1594              		.loc 2 236 18 is_stmt 0
 1595 0a14 13060000 		li	a2,0
 1596 0a18 97050000 		lla	a1,_Z15workerBodyRankoPv
 1596      93850500 
 1597 0a20 130584FD 		addi	a0,s0,-40
 1598 0a24 97000000 		call	_Z13thread_createPP4KPCBPFvPvES2_@plt
 1598      E7800000 
 1599              	.LVL195:
 237:src/test_thread.cpp ****     while (KPCB::counter) KPCB::yield();
 1600              		.loc 2 237 5 is_stmt 1
 237:src/test_thread.cpp ****     while (KPCB::counter) KPCB::yield();
 1601              		.loc 2 237 16 is_stmt 0
 1602 0a2c 17050000 		lla	a0,.LC24
 1602      13050500 
 1603 0a34 97000000 		call	_Z11printStringPKc@plt
 1603      E7800000 
 1604              	.LVL196:
 1605              	.L87:
 238:src/test_thread.cpp ****     //delete threads[0];
 1606              		.loc 2 238 5 is_stmt 1
 238:src/test_thread.cpp ****     //delete threads[0];
 1607              		.loc 2 238 18
 1608 0a3c 97070000 		la	a5,_ZN4KPCB7counterE
 1608      83B70700 
 1609 0a44 83A70700 		lw	a5,0(a5)
 1610 0a48 63880700 		beqz	a5,.L91
 238:src/test_thread.cpp ****     //delete threads[0];
 1611              		.loc 2 238 27 discriminator 1
 238:src/test_thread.cpp ****     //delete threads[0];
 1612              		.loc 2 238 38 is_stmt 0 discriminator 1
 1613 0a4c 97000000 		call	_ZN4KPCB5yieldEv@plt
 1613      E7800000 
 1614              	.LVL197:
GAS LISTING /tmp/cczOroum.s 			page 44


 1615 0a54 6FF09FFE 		j	.L87
 1616              	.L91:
 1617              	.LBB73:
 240:src/test_thread.cpp ****     printString("Finished\n");
 1618              		.loc 2 240 21
 1619 0a58 930404FC 		addi	s1,s0,-64
 1620 0a5c 6F00C001 		j	.L86
 1621              	.LVL198:
 1622              	.L93:
 1623              	.LBB74:
 1624              	.LBB75:
  15:src/../h/KPCB.hpp ****     friend class KScheduler;
 1625              		.loc 3 15 24
 1626 0a60 97000000 		call	_ZdaPv@plt
 1626      E7800000 
 1627              	.LVL199:
 1628              	.L90:
 1629              	.LBE75:
 1630              	.LBE74:
 1631              	.LBB77:
 1632              	.LBB78:
 1633              		.loc 3 32 9 is_stmt 1
 1634              		.loc 3 32 35 is_stmt 0
 1635 0a68 13050900 		mv	a0,s2
 1636 0a6c 97000000 		call	_ZN16KMemoryAllocator8mem_freeEPv@plt
 1636      E7800000 
 1637              	.LVL200:
 1638              	.L89:
 1639              	.LBE78:
 1640              	.LBE77:
 240:src/test_thread.cpp ****     printString("Finished\n");
 1641              		.loc 2 240 5 is_stmt 1 discriminator 4
 1642 0a74 93848400 		addi	s1,s1,8
 1643              	.LVL201:
 1644              	.L86:
 240:src/test_thread.cpp ****     printString("Finished\n");
 1645              		.loc 2 240 21 discriminator 5
 1646 0a78 930704FE 		addi	a5,s0,-32
 1647 0a7c 638CF400 		beq	s1,a5,.L88
 1648              	.LVL202:
 240:src/test_thread.cpp ****     printString("Finished\n");
 1649              		.loc 2 240 30 discriminator 2
 240:src/test_thread.cpp ****     printString("Finished\n");
 1650              		.loc 2 240 37 is_stmt 0 discriminator 2
 1651 0a80 03B90400 		ld	s2,0(s1)
 240:src/test_thread.cpp ****     printString("Finished\n");
 1652              		.loc 2 240 40 discriminator 2
 1653 0a84 E30809FE 		beqz	s2,.L89
 1654              	.LVL203:
 1655              	.LBB79:
 1656              	.LBB76:
  15:src/../h/KPCB.hpp ****     friend class KScheduler;
 1657              		.loc 3 15 15 is_stmt 1
  15:src/../h/KPCB.hpp ****     friend class KScheduler;
 1658              		.loc 3 15 24 is_stmt 0
 1659 0a88 03358901 		ld	a0,24(s2)
  15:src/../h/KPCB.hpp ****     friend class KScheduler;
GAS LISTING /tmp/cczOroum.s 			page 45


 1660              		.loc 3 15 29
 1661 0a8c E31A05FC 		bnez	a0,.L93
 1662 0a90 6FF09FFD 		j	.L90
 1663              	.LVL204:
 1664              	.L88:
 1665              	.LBE76:
 1666              	.LBE79:
 1667              	.LBE73:
 241:src/test_thread.cpp **** }
 1668              		.loc 2 241 5 is_stmt 1
 241:src/test_thread.cpp **** }
 1669              		.loc 2 241 16 is_stmt 0
 1670 0a94 17050000 		lla	a0,.LC15
 1670      13050500 
 1671 0a9c 97000000 		call	_Z11printStringPKc@plt
 1671      E7800000 
 1672              	.LVL205:
 242:src/test_thread.cpp **** 
 1673              		.loc 2 242 1
 1674 0aa4 83308103 		ld	ra,56(sp)
 1675              		.cfi_restore 1
 1676 0aa8 03340103 		ld	s0,48(sp)
 1677              		.cfi_restore 8
 1678              		.cfi_def_cfa 2, 64
 1679 0aac 83348102 		ld	s1,40(sp)
 1680              		.cfi_restore 9
 1681              	.LVL206:
 1682 0ab0 03390102 		ld	s2,32(sp)
 1683              		.cfi_restore 18
 1684 0ab4 13010104 		addi	sp,sp,64
 1685              		.cfi_def_cfa_offset 0
 1686 0ab8 67800000 		jr	ra
 1687              		.cfi_endproc
 1688              	.LFE44:
 1690              		.align	2
 1691              		.globl	_Z22test_thread_sync_sleepv
 1693              	_Z22test_thread_sync_sleepv:
 1694              	.LFB45:
 244:src/test_thread.cpp ****     KPCB* threads[2];
 1695              		.loc 2 244 31 is_stmt 1
 1696              		.cfi_startproc
 1697 0abc 130101FC 		addi	sp,sp,-64
 1698              		.cfi_def_cfa_offset 64
 1699 0ac0 233C1102 		sd	ra,56(sp)
 1700 0ac4 23388102 		sd	s0,48(sp)
 1701 0ac8 23349102 		sd	s1,40(sp)
 1702 0acc 23302103 		sd	s2,32(sp)
 1703              		.cfi_offset 1, -8
 1704              		.cfi_offset 8, -16
 1705              		.cfi_offset 9, -24
 1706              		.cfi_offset 18, -32
 1707 0ad0 13040104 		addi	s0,sp,64
 1708              		.cfi_def_cfa 8, 0
 245:src/test_thread.cpp ****     int ind = 1;
 1709              		.loc 2 245 5
 246:src/test_thread.cpp ****     thread_create(&threads[0], &workerBodyDjape, &ind);
 1710              		.loc 2 246 5
GAS LISTING /tmp/cczOroum.s 			page 46


 246:src/test_thread.cpp ****     thread_create(&threads[0], &workerBodyDjape, &ind);
 1711              		.loc 2 246 9 is_stmt 0
 1712 0ad4 93071000 		li	a5,1
 1713 0ad8 2326F4FC 		sw	a5,-52(s0)
 247:src/test_thread.cpp ****     printString("ThreadA created\n");
 1714              		.loc 2 247 5 is_stmt 1
 247:src/test_thread.cpp ****     printString("ThreadA created\n");
 1715              		.loc 2 247 18 is_stmt 0
 1716 0adc 9304C4FC 		addi	s1,s0,-52
 1717 0ae0 13860400 		mv	a2,s1
 1718 0ae4 97050000 		lla	a1,_Z15workerBodyDjapePv
 1718      93850500 
 1719 0aec 130504FD 		addi	a0,s0,-48
 1720 0af0 97000000 		call	_Z13thread_createPP4KPCBPFvPvES2_@plt
 1720      E7800000 
 1721              	.LVL207:
 248:src/test_thread.cpp ****     thread_create(&threads[1], &workerBodyComi, &ind);
 1722              		.loc 2 248 5 is_stmt 1
 248:src/test_thread.cpp ****     thread_create(&threads[1], &workerBodyComi, &ind);
 1723              		.loc 2 248 16 is_stmt 0
 1724 0af8 17050000 		lla	a0,.LC13
 1724      13050500 
 1725 0b00 97000000 		call	_Z11printStringPKc@plt
 1725      E7800000 
 1726              	.LVL208:
 249:src/test_thread.cpp ****     printString("ThreadB created\n");
 1727              		.loc 2 249 5 is_stmt 1
 249:src/test_thread.cpp ****     printString("ThreadB created\n");
 1728              		.loc 2 249 18 is_stmt 0
 1729 0b08 13860400 		mv	a2,s1
 1730 0b0c 97050000 		lla	a1,_Z14workerBodyComiPv
 1730      93850500 
 1731 0b14 130584FD 		addi	a0,s0,-40
 1732 0b18 97000000 		call	_Z13thread_createPP4KPCBPFvPvES2_@plt
 1732      E7800000 
 1733              	.LVL209:
 250:src/test_thread.cpp ****     while (KPCB::counter) KPCB::yield();
 1734              		.loc 2 250 5 is_stmt 1
 250:src/test_thread.cpp ****     while (KPCB::counter) KPCB::yield();
 1735              		.loc 2 250 16 is_stmt 0
 1736 0b20 17050000 		lla	a0,.LC14
 1736      13050500 
 1737 0b28 97000000 		call	_Z11printStringPKc@plt
 1737      E7800000 
 1738              	.LVL210:
 1739              	.L96:
 251:src/test_thread.cpp ****     //delete threads[0];
 1740              		.loc 2 251 5 is_stmt 1
 251:src/test_thread.cpp ****     //delete threads[0];
 1741              		.loc 2 251 18
 1742 0b30 97070000 		la	a5,_ZN4KPCB7counterE
 1742      83B70700 
 1743 0b38 83A70700 		lw	a5,0(a5)
 1744 0b3c 63880700 		beqz	a5,.L100
 251:src/test_thread.cpp ****     //delete threads[0];
 1745              		.loc 2 251 27 discriminator 1
 251:src/test_thread.cpp ****     //delete threads[0];
GAS LISTING /tmp/cczOroum.s 			page 47


 1746              		.loc 2 251 38 is_stmt 0 discriminator 1
 1747 0b40 97000000 		call	_ZN4KPCB5yieldEv@plt
 1747      E7800000 
 1748              	.LVL211:
 1749 0b48 6FF09FFE 		j	.L96
 1750              	.L100:
 1751              	.LBB80:
 253:src/test_thread.cpp ****     printString("Finished\n");
 1752              		.loc 2 253 21
 1753 0b4c 930404FD 		addi	s1,s0,-48
 1754 0b50 6F004001 		j	.L95
 1755              	.LVL212:
 1756              	.L99:
 1757              	.LBB81:
 1758              	.LBB82:
 1759              		.loc 3 32 9 is_stmt 1
 1760              		.loc 3 32 35 is_stmt 0
 1761 0b54 13050900 		mv	a0,s2
 1762 0b58 97000000 		call	_ZN16KMemoryAllocator8mem_freeEPv@plt
 1762      E7800000 
 1763              	.LVL213:
 1764              	.L98:
 1765              	.LBE82:
 1766              	.LBE81:
 253:src/test_thread.cpp ****     printString("Finished\n");
 1767              		.loc 2 253 5 is_stmt 1 discriminator 4
 1768 0b60 93848400 		addi	s1,s1,8
 1769              	.LVL214:
 1770              	.L95:
 253:src/test_thread.cpp ****     printString("Finished\n");
 1771              		.loc 2 253 21 discriminator 5
 1772 0b64 930704FE 		addi	a5,s0,-32
 1773 0b68 6380F402 		beq	s1,a5,.L97
 1774              	.LVL215:
 253:src/test_thread.cpp ****     printString("Finished\n");
 1775              		.loc 2 253 30 discriminator 2
 253:src/test_thread.cpp ****     printString("Finished\n");
 1776              		.loc 2 253 37 is_stmt 0 discriminator 2
 1777 0b6c 03B90400 		ld	s2,0(s1)
 253:src/test_thread.cpp ****     printString("Finished\n");
 1778              		.loc 2 253 40 discriminator 2
 1779 0b70 E30809FE 		beqz	s2,.L98
 1780              	.LVL216:
 1781              	.LBB83:
 1782              	.LBB84:
  15:src/../h/KPCB.hpp ****     friend class KScheduler;
 1783              		.loc 3 15 15 is_stmt 1
  15:src/../h/KPCB.hpp ****     friend class KScheduler;
 1784              		.loc 3 15 24 is_stmt 0
 1785 0b74 03358901 		ld	a0,24(s2)
  15:src/../h/KPCB.hpp ****     friend class KScheduler;
 1786              		.loc 3 15 29
 1787 0b78 E30E05FC 		beqz	a0,.L99
  15:src/../h/KPCB.hpp ****     friend class KScheduler;
 1788              		.loc 3 15 24
 1789 0b7c 97000000 		call	_ZdaPv@plt
 1789      E7800000 
GAS LISTING /tmp/cczOroum.s 			page 48


 1790              	.LVL217:
 1791 0b84 6FF01FFD 		j	.L99
 1792              	.LVL218:
 1793              	.L97:
 1794              	.LBE84:
 1795              	.LBE83:
 1796              	.LBE80:
 254:src/test_thread.cpp **** }
 1797              		.loc 2 254 5 is_stmt 1
 254:src/test_thread.cpp **** }
 1798              		.loc 2 254 16 is_stmt 0
 1799 0b88 17050000 		lla	a0,.LC15
 1799      13050500 
 1800 0b90 97000000 		call	_Z11printStringPKc@plt
 1800      E7800000 
 1801              	.LVL219:
 255:src/test_thread.cpp **** 
 1802              		.loc 2 255 1
 1803 0b98 83308103 		ld	ra,56(sp)
 1804              		.cfi_restore 1
 1805 0b9c 03340103 		ld	s0,48(sp)
 1806              		.cfi_restore 8
 1807              		.cfi_def_cfa 2, 64
 1808 0ba0 83348102 		ld	s1,40(sp)
 1809              		.cfi_restore 9
 1810              	.LVL220:
 1811 0ba4 03390102 		ld	s2,32(sp)
 1812              		.cfi_restore 18
 1813 0ba8 13010104 		addi	sp,sp,64
 1814              		.cfi_def_cfa_offset 0
 1815 0bac 67800000 		jr	ra
 1816              		.cfi_endproc
 1817              	.LFE45:
 1819              		.align	2
 1820              		.globl	_Z20test_periodic_threadv
 1822              	_Z20test_periodic_threadv:
 1823              	.LFB46:
 257:src/test_thread.cpp ****     class MojaKlasa : public PeriodicThread {
 1824              		.loc 2 257 29 is_stmt 1
 1825              		.cfi_startproc
 1826              		.cfi_personality 0x9b,DW.ref.__gxx_personality_v0
 1827              		.cfi_lsda 0x1b,.LLSDA46
 1828 0bb0 130101FC 		addi	sp,sp,-64
 1829              		.cfi_def_cfa_offset 64
 1830 0bb4 233C1102 		sd	ra,56(sp)
 1831 0bb8 23388102 		sd	s0,48(sp)
 1832 0bbc 23349102 		sd	s1,40(sp)
 1833 0bc0 23302103 		sd	s2,32(sp)
 1834              		.cfi_offset 1, -8
 1835              		.cfi_offset 8, -16
 1836              		.cfi_offset 9, -24
 1837              		.cfi_offset 18, -32
 1838 0bc4 13040104 		addi	s0,sp,64
 1839              		.cfi_def_cfa 8, 0
 258:src/test_thread.cpp ****         int num;
 1840              		.loc 2 258 5
 267:src/test_thread.cpp ****     };
GAS LISTING /tmp/cczOroum.s 			page 49


 268:src/test_thread.cpp **** 
 269:src/test_thread.cpp ****     MojaKlasa* m = new MojaKlasa(10, 1);
 1841              		.loc 2 269 5
 1842              		.loc 2 269 39 is_stmt 0
 1843 0bc8 13058001 		li	a0,24
 1844              	.LEHB0:
 1845 0bcc 97000000 		call	_Znwm@plt
 1845      E7800000 
 1846              	.LVL221:
 1847              	.LEHE0:
 1848 0bd4 93040500 		mv	s1,a0
 1849              	.LVL222:
 1850              	.LBB85:
 1851              	.LBB86:
 261:src/test_thread.cpp ****         void periodicActivation() override {
 1852              		.loc 2 261 66
 1853 0bd8 9305A000 		li	a1,10
 1854              	.LEHB1:
 1855 0bdc 97000000 		call	_ZN14PeriodicThreadC2Em@plt
 1855      E7800000 
 1856              	.LVL223:
 1857              	.LEHE1:
 1858 0be4 17090000 		lla	s2,.LANCHOR0+16
 1858      13090900 
 1859 0bec 23B02401 		sd	s2,0(s1)
 1860 0bf0 93071000 		li	a5,1
 1861 0bf4 23A8F400 		sw	a5,16(s1)
 1862              	.LVL224:
 1863              	.LBE86:
 1864              	.LBE85:
 270:src/test_thread.cpp ****     MojaKlasa p(25, 2);
 1865              		.loc 2 270 5 is_stmt 1
 1866              	.LBB87:
 1867              	.LBB88:
 1868              	.LBB89:
 261:src/test_thread.cpp ****         void periodicActivation() override {
 1869              		.loc 2 261 66 is_stmt 0
 1870 0bf8 93059001 		li	a1,25
 1871 0bfc 130584FC 		addi	a0,s0,-56
 1872              	.LVL225:
 1873              	.LEHB2:
 1874 0c00 97000000 		call	_ZN14PeriodicThreadC2Em@plt
 1874      E7800000 
 1875              	.LVL226:
 1876              	.LEHE2:
 1877 0c08 233424FD 		sd	s2,-56(s0)
 1878 0c0c 93072000 		li	a5,2
 1879 0c10 232CF4FC 		sw	a5,-40(s0)
 1880              	.LVL227:
 1881              	.LBE89:
 1882              	.LBE88:
 1883              	.LBE87:
 271:src/test_thread.cpp ****     m->start();
 1884              		.loc 2 271 5 is_stmt 1
 1885              		.loc 2 271 13 is_stmt 0
 1886 0c14 13850400 		mv	a0,s1
 1887              	.LEHB3:
GAS LISTING /tmp/cczOroum.s 			page 50


 1888 0c18 97000000 		call	_ZN6Thread5startEv@plt
 1888      E7800000 
 1889              	.LVL228:
 272:src/test_thread.cpp ****     p.start();
 1890              		.loc 2 272 5 is_stmt 1
 1891              		.loc 2 272 12 is_stmt 0
 1892 0c20 130584FC 		addi	a0,s0,-56
 1893 0c24 97000000 		call	_ZN6Thread5startEv@plt
 1893      E7800000 
 1894              	.LVL229:
 1895              	.L104:
 273:src/test_thread.cpp ****     while (KPCB::counter) KPCB::yield();
 1896              		.loc 2 273 5 is_stmt 1
 1897              		.loc 2 273 18
 1898 0c2c 97070000 		la	a5,_ZN4KPCB7counterE
 1898      83B70700 
 1899 0c34 83A70700 		lw	a5,0(a5)
 1900 0c38 63880700 		beqz	a5,.L103
 1901              		.loc 2 273 27 discriminator 1
 1902              		.loc 2 273 38 is_stmt 0 discriminator 1
 1903 0c3c 97000000 		call	_ZN4KPCB5yieldEv@plt
 1903      E7800000 
 1904              	.LVL230:
 1905 0c44 6FF09FFE 		j	.L104
 1906              	.L103:
 274:src/test_thread.cpp ****     delete m;
 1907              		.loc 2 274 5 is_stmt 1
 1908              		.loc 2 274 13 is_stmt 0
 1909 0c48 638A0400 		beqz	s1,.L105
 1910              		.loc 2 274 12 discriminator 1
 1911 0c4c 83B70400 		ld	a5,0(s1)
 1912 0c50 83B78700 		ld	a5,8(a5)
 1913 0c54 13850400 		mv	a0,s1
 1914 0c58 E7800700 		jalr	a5
 1915              	.LVL231:
 1916              	.L105:
 275:src/test_thread.cpp ****     printString("Finished\n");
 1917              		.loc 2 275 5 is_stmt 1
 1918              		.loc 2 275 16 is_stmt 0
 1919 0c5c 17050000 		lla	a0,.LC15
 1919      13050500 
 1920 0c64 97000000 		call	_Z11printStringPKc@plt
 1920      E7800000 
 1921              	.LVL232:
 1922              	.LEHE3:
 1923              	.LBB90:
 1924              	.LBB91:
 1925              	.LBB92:
  40:src/../h/syscall_cpp.h **** protected:
 1926              		.loc 1 40 7
 1927 0c6c 97070000 		lla	a5,_ZTV14PeriodicThread+16
 1927      93870700 
 1928 0c74 2334F4FC 		sd	a5,-56(s0)
 1929 0c78 130584FC 		addi	a0,s0,-56
 1930              	.LVL233:
 1931 0c7c 97000000 		call	_ZN6ThreadD2Ev@plt
 1931      E7800000 
GAS LISTING /tmp/cczOroum.s 			page 51


 1932              	.LVL234:
 1933              	.LBE92:
 1934              	.LBE91:
 1935              	.LBE90:
 276:src/test_thread.cpp **** }
 1936              		.loc 2 276 1
 1937 0c84 83308103 		ld	ra,56(sp)
 1938              		.cfi_remember_state
 1939              		.cfi_restore 1
 1940 0c88 03340103 		ld	s0,48(sp)
 1941              		.cfi_restore 8
 1942              		.cfi_def_cfa 2, 64
 1943 0c8c 83348102 		ld	s1,40(sp)
 1944              		.cfi_restore 9
 1945              	.LVL235:
 1946 0c90 03390102 		ld	s2,32(sp)
 1947              		.cfi_restore 18
 1948 0c94 13010104 		addi	sp,sp,64
 1949              		.cfi_def_cfa_offset 0
 1950 0c98 67800000 		jr	ra
 1951              	.LVL236:
 1952              	.L108:
 1953              		.cfi_restore_state
 1954 0c9c 13090500 		mv	s2,a0
 269:src/test_thread.cpp ****     MojaKlasa p(25, 2);
 1955              		.loc 2 269 39
 1956 0ca0 13850400 		mv	a0,s1
 1957 0ca4 97000000 		call	_ZdlPv@plt
 1957      E7800000 
 1958              	.LVL237:
 1959 0cac 13050900 		mv	a0,s2
 1960              	.LEHB4:
 1961 0cb0 97000000 		call	_Unwind_Resume@plt
 1961      E7800000 
 1962              	.LVL238:
 1963              	.L109:
 1964 0cb8 93040500 		mv	s1,a0
 1965              	.LVL239:
 1966              	.LBB93:
 1967              	.LBB94:
 1968              	.LBB95:
  40:src/../h/syscall_cpp.h **** protected:
 1969              		.loc 1 40 7
 1970 0cbc 97070000 		lla	a5,_ZTV14PeriodicThread+16
 1970      93870700 
 1971 0cc4 2334F4FC 		sd	a5,-56(s0)
 1972 0cc8 130584FC 		addi	a0,s0,-56
 1973              	.LVL240:
 1974 0ccc 97000000 		call	_ZN6ThreadD2Ev@plt
 1974      E7800000 
 1975              	.LVL241:
 1976 0cd4 13850400 		mv	a0,s1
 1977 0cd8 97000000 		call	_Unwind_Resume@plt
 1977      E7800000 
 1978              	.LVL242:
 1979              	.LEHE4:
 1980              	.LBE95:
GAS LISTING /tmp/cczOroum.s 			page 52


 1981              	.LBE94:
 1982              	.LBE93:
 1983              		.cfi_endproc
 1984              	.LFE46:
 1985              		.globl	__gxx_personality_v0
 1986              		.section	.gcc_except_table,"a",@progbits
 1987              	.LLSDA46:
 1988 0000 FF       		.byte	0xff
 1989 0001 FF       		.byte	0xff
 1990 0002 03       		.byte	0x3
 1991 0003 41       		.byte	0x41
 1992 0004 00000000 		.4byte	.LEHB0-.LFB46
 1993 0008 00000000 		.4byte	.LEHE0-.LEHB0
 1994 000c 00000000 		.4byte	0
 1995 0010 00       		.byte	0
 1996 0011 00000000 		.4byte	.LEHB1-.LFB46
 1997 0015 00000000 		.4byte	.LEHE1-.LEHB1
 1998 0019 00000000 		.4byte	.L108-.LFB46
 1999 001d 00       		.byte	0
 2000 001e 00000000 		.4byte	.LEHB2-.LFB46
 2001 0022 00000000 		.4byte	.LEHE2-.LEHB2
 2002 0026 00000000 		.4byte	0
 2003 002a 00       		.byte	0
 2004 002b 00000000 		.4byte	.LEHB3-.LFB46
 2005 002f 00000000 		.4byte	.LEHE3-.LEHB3
 2006 0033 00000000 		.4byte	.L109-.LFB46
 2007 0037 00       		.byte	0
 2008 0038 00000000 		.4byte	.LEHB4-.LFB46
 2009 003c 00000000 		.4byte	.LEHE4-.LEHB4
 2010 0040 00000000 		.4byte	0
 2011 0044 00       		.byte	0
 2012              		.text
 2014              		.align	2
 2015              		.globl	_Z11test_threadv
 2017              	_Z11test_threadv:
 2018              	.LFB55:
 277:src/test_thread.cpp **** 
 278:src/test_thread.cpp **** void test_thread() {
 2019              		.loc 2 278 20 is_stmt 1
 2020              		.cfi_startproc
 2021 0ce0 130101FF 		addi	sp,sp,-16
 2022              		.cfi_def_cfa_offset 16
 2023 0ce4 23341100 		sd	ra,8(sp)
 2024 0ce8 23308100 		sd	s0,0(sp)
 2025              		.cfi_offset 1, -8
 2026              		.cfi_offset 8, -16
 2027 0cec 13040101 		addi	s0,sp,16
 2028              		.cfi_def_cfa 8, 0
 279:src/test_thread.cpp ****     test_thread_sync();
 2029              		.loc 2 279 5
 2030              		.loc 2 279 21 is_stmt 0
 2031 0cf0 97000000 		call	_Z16test_thread_syncv
 2031      E7800000 
 2032              	.LVL243:
 280:src/test_thread.cpp ****     test_thread_async();
 2033              		.loc 2 280 5 is_stmt 1
 2034              		.loc 2 280 22 is_stmt 0
GAS LISTING /tmp/cczOroum.s 			page 53


 2035 0cf8 97000000 		call	_Z17test_thread_asyncv
 2035      E7800000 
 2036              	.LVL244:
 281:src/test_thread.cpp ****     //test_thread_sync_sleep();
 282:src/test_thread.cpp ****     //test_periodic_thread();
 283:src/test_thread.cpp **** }...
 2037              		.loc 2 283 1
 2038 0d00 83308100 		ld	ra,8(sp)
 2039              		.cfi_restore 1
 2040 0d04 03340100 		ld	s0,0(sp)
 2041              		.cfi_restore 8
 2042              		.cfi_def_cfa 2, 16
 2043 0d08 13010101 		addi	sp,sp,16
 2044              		.cfi_def_cfa_offset 0
 2045 0d0c 67800000 		jr	ra
 2046              		.cfi_endproc
 2047              	.LFE55:
 2049              		.weak	_ZTV14PeriodicThread
 2050              		.section	.data.rel.ro.local._ZTV14PeriodicThread,"awG",@progbits,_ZTV14PeriodicThread,comdat
 2051              		.align	3
 2054              	_ZTV14PeriodicThread:
 2055 0000 00000000 		.dword	0
 2055      00000000 
 2056 0008 00000000 		.dword	0
 2056      00000000 
 2057 0010 00000000 		.dword	_ZN14PeriodicThreadD1Ev
 2057      00000000 
 2058 0018 00000000 		.dword	_ZN14PeriodicThreadD0Ev
 2058      00000000 
 2059 0020 00000000 		.dword	_ZN6Thread3runEv
 2059      00000000 
 2060 0028 00000000 		.dword	_ZN14PeriodicThread18periodicActivationEv
 2060      00000000 
 2061              		.section	.data.rel.ro.local,"aw"
 2062              		.align	3
 2063              		.set	.LANCHOR0,. + 0
 2066              	_ZTVZ20test_periodic_threadvE9MojaKlasa:
 2067 0000 00000000 		.dword	0
 2067      00000000 
 2068 0008 00000000 		.dword	0
 2068      00000000 
 2069 0010 00000000 		.dword	_ZZ20test_periodic_threadvEN9MojaKlasaD1Ev
 2069      00000000 
 2070 0018 00000000 		.dword	_ZZ20test_periodic_threadvEN9MojaKlasaD0Ev
 2070      00000000 
 2071 0020 00000000 		.dword	_ZN6Thread3runEv
 2071      00000000 
 2072 0028 00000000 		.dword	_ZZ20test_periodic_threadvEN9MojaKlasa18periodicActivationEv
 2072      00000000 
 2073              		.text
 2074              	.Letext0:
 2075              		.file 4 "src/../h/../lib/hw.h"
 2076              		.file 5 "src/../h/KMemoryAllocator.hpp"
 2077              		.file 6 "src/../h/KRiscv.hpp"
 2078              		.file 7 "src/../h/syscall_c.h"
 2079              		.file 8 "src/../test/printing.hpp"
 8089              		.align	3
GAS LISTING /tmp/cczOroum.s 			page 54


 8092              	DW.ref.__gxx_personality_v0:
 8093 0000 00000000 		.dword	__gxx_personality_v0
 8093      00000000 
 8094              		.ident	"GCC: (Ubuntu 9.4.0-1ubuntu1~20.04) 9.4.0"
 8095              		.section	.note.GNU-stack,"",@progbits
GAS LISTING /tmp/cczOroum.s 			page 55


DEFINED SYMBOLS
                            *ABS*:0000000000000000 test_thread.cpp
     /tmp/cczOroum.s:10     .text._ZN6Thread3runEv:0000000000000000 _ZN6Thread3runEv
     /tmp/cczOroum.s:14     .text._ZN6Thread3runEv:0000000000000000 .L0 
     /tmp/cczOroum.s:16     .text._ZN6Thread3runEv:0000000000000000 .L0 
     /tmp/cczOroum.s:17     .text._ZN6Thread3runEv:0000000000000004 .L0 
     /tmp/cczOroum.s:19     .text._ZN6Thread3runEv:0000000000000008 .L0 
     /tmp/cczOroum.s:21     .text._ZN6Thread3runEv:000000000000000c .L0 
     /tmp/cczOroum.s:23     .text._ZN6Thread3runEv:000000000000000c .L0 
     /tmp/cczOroum.s:24     .text._ZN6Thread3runEv:0000000000000010 .L0 
     /tmp/cczOroum.s:25     .text._ZN6Thread3runEv:0000000000000010 .L0 
     /tmp/cczOroum.s:27     .text._ZN6Thread3runEv:0000000000000014 .L0 
     /tmp/cczOroum.s:29     .text._ZN6Thread3runEv:0000000000000018 .L0 
     /tmp/cczOroum.s:36     .text._ZN14PeriodicThread18periodicActivationEv:0000000000000000 _ZN14PeriodicThread18periodicActivationEv
     /tmp/cczOroum.s:39     .text._ZN14PeriodicThread18periodicActivationEv:0000000000000000 .L0 
     /tmp/cczOroum.s:41     .text._ZN14PeriodicThread18periodicActivationEv:0000000000000000 .L0 
     /tmp/cczOroum.s:42     .text._ZN14PeriodicThread18periodicActivationEv:0000000000000004 .L0 
     /tmp/cczOroum.s:44     .text._ZN14PeriodicThread18periodicActivationEv:0000000000000008 .L0 
     /tmp/cczOroum.s:46     .text._ZN14PeriodicThread18periodicActivationEv:000000000000000c .L0 
     /tmp/cczOroum.s:48     .text._ZN14PeriodicThread18periodicActivationEv:000000000000000c .L0 
     /tmp/cczOroum.s:49     .text._ZN14PeriodicThread18periodicActivationEv:0000000000000010 .L0 
     /tmp/cczOroum.s:50     .text._ZN14PeriodicThread18periodicActivationEv:0000000000000010 .L0 
     /tmp/cczOroum.s:52     .text._ZN14PeriodicThread18periodicActivationEv:0000000000000014 .L0 
     /tmp/cczOroum.s:54     .text._ZN14PeriodicThread18periodicActivationEv:0000000000000018 .L0 
     /tmp/cczOroum.s:68     .text:0000000000000000 _Z15workerBodyPedjaPv
     /tmp/cczOroum.s:72     .text:0000000000000000 .L0 
     /tmp/cczOroum.s:74     .text:0000000000000000 .L0 
     /tmp/cczOroum.s:75     .text:0000000000000004 .L0 
     /tmp/cczOroum.s:79     .text:0000000000000010 .L0 
     /tmp/cczOroum.s:80     .text:0000000000000010 .L0 
     /tmp/cczOroum.s:81     .text:0000000000000010 .L0 
     /tmp/cczOroum.s:83     .text:0000000000000014 .L0 
     /tmp/cczOroum.s:87     .text:0000000000000014 .L0 
     /tmp/cczOroum.s:88     .text:0000000000000014 .L0 
     /tmp/cczOroum.s:95     .text:000000000000001c .L0 
     /tmp/cczOroum.s:99     .text:0000000000000020 .L0 
     /tmp/cczOroum.s:103    .text:0000000000000028 .L0 
     /tmp/cczOroum.s:107    .text:000000000000002c .L0 
     /tmp/cczOroum.s:110    .text:0000000000000034 .L0 
     /tmp/cczOroum.s:119    .text:000000000000003c .L0 
     /tmp/cczOroum.s:123    .text:0000000000000040 .L0 
     /tmp/cczOroum.s:127    .text:0000000000000048 .L0 
     /tmp/cczOroum.s:128    .text:0000000000000048 .L0 
     /tmp/cczOroum.s:132    .text:0000000000000058 .L0 
     /tmp/cczOroum.s:133    .text:0000000000000058 .L0 
     /tmp/cczOroum.s:139    .text:000000000000006c .L0 
     /tmp/cczOroum.s:140    .text:000000000000006c .L0 
     /tmp/cczOroum.s:145    .text:000000000000007c .L0 
     /tmp/cczOroum.s:146    .text:000000000000007c .L0 
     /tmp/cczOroum.s:154    .text:0000000000000084 .L0 
     /tmp/cczOroum.s:155    .text:0000000000000088 .L0 
     /tmp/cczOroum.s:157    .text:000000000000008c .L0 
     /tmp/cczOroum.s:158    .text:000000000000008c .L0 
     /tmp/cczOroum.s:160    .text:0000000000000090 .L0 
     /tmp/cczOroum.s:163    .text:0000000000000094 .L0 
     /tmp/cczOroum.s:165    .text:0000000000000098 .L0 
     /tmp/cczOroum.s:176    .text:0000000000000098 _Z16workerBodyMilicaPv
GAS LISTING /tmp/cczOroum.s 			page 56


     /tmp/cczOroum.s:179    .text:0000000000000098 .L0 
     /tmp/cczOroum.s:181    .text:0000000000000098 .L0 
     /tmp/cczOroum.s:182    .text:000000000000009c .L0 
     /tmp/cczOroum.s:186    .text:00000000000000a8 .L0 
     /tmp/cczOroum.s:187    .text:00000000000000a8 .L0 
     /tmp/cczOroum.s:188    .text:00000000000000a8 .L0 
     /tmp/cczOroum.s:190    .text:00000000000000ac .L0 
     /tmp/cczOroum.s:194    .text:00000000000000ac .L0 
     /tmp/cczOroum.s:195    .text:00000000000000ac .L0 
     /tmp/cczOroum.s:202    .text:00000000000000b4 .L0 
     /tmp/cczOroum.s:206    .text:00000000000000b8 .L0 
     /tmp/cczOroum.s:210    .text:00000000000000c0 .L0 
     /tmp/cczOroum.s:214    .text:00000000000000c4 .L0 
     /tmp/cczOroum.s:217    .text:00000000000000cc .L0 
     /tmp/cczOroum.s:226    .text:00000000000000d4 .L0 
     /tmp/cczOroum.s:230    .text:00000000000000d8 .L0 
     /tmp/cczOroum.s:234    .text:00000000000000e0 .L0 
     /tmp/cczOroum.s:235    .text:00000000000000e0 .L0 
     /tmp/cczOroum.s:239    .text:00000000000000f0 .L0 
     /tmp/cczOroum.s:240    .text:00000000000000f0 .L0 
     /tmp/cczOroum.s:246    .text:0000000000000104 .L0 
     /tmp/cczOroum.s:247    .text:0000000000000104 .L0 
     /tmp/cczOroum.s:252    .text:0000000000000114 .L0 
     /tmp/cczOroum.s:253    .text:0000000000000114 .L0 
     /tmp/cczOroum.s:261    .text:000000000000011c .L0 
     /tmp/cczOroum.s:262    .text:0000000000000120 .L0 
     /tmp/cczOroum.s:264    .text:0000000000000124 .L0 
     /tmp/cczOroum.s:265    .text:0000000000000124 .L0 
     /tmp/cczOroum.s:267    .text:0000000000000128 .L0 
     /tmp/cczOroum.s:270    .text:000000000000012c .L0 
     /tmp/cczOroum.s:272    .text:0000000000000130 .L0 
     /tmp/cczOroum.s:282    .text:0000000000000130 _ZZ20test_periodic_threadvEN9MojaKlasa18periodicActivationEv
     /tmp/cczOroum.s:285    .text:0000000000000130 .L0 
     /tmp/cczOroum.s:287    .text:0000000000000130 .L0 
     /tmp/cczOroum.s:288    .text:0000000000000134 .L0 
     /tmp/cczOroum.s:292    .text:0000000000000140 .L0 
     /tmp/cczOroum.s:293    .text:0000000000000140 .L0 
     /tmp/cczOroum.s:294    .text:0000000000000140 .L0 
     /tmp/cczOroum.s:296    .text:0000000000000144 .L0 
     /tmp/cczOroum.s:299    .text:0000000000000148 .L0 
     /tmp/cczOroum.s:300    .text:0000000000000148 .L0 
     /tmp/cczOroum.s:305    .text:0000000000000158 .L0 
     /tmp/cczOroum.s:306    .text:0000000000000158 .L0 
     /tmp/cczOroum.s:312    .text:000000000000016c .L0 
     /tmp/cczOroum.s:313    .text:000000000000016c .L0 
     /tmp/cczOroum.s:317    .text:000000000000017c .L0 
     /tmp/cczOroum.s:318    .text:0000000000000180 .L0 
     /tmp/cczOroum.s:320    .text:0000000000000184 .L0 
     /tmp/cczOroum.s:321    .text:0000000000000184 .L0 
     /tmp/cczOroum.s:323    .text:0000000000000188 .L0 
     /tmp/cczOroum.s:326    .text:000000000000018c .L0 
     /tmp/cczOroum.s:328    .text:0000000000000190 .L0 
     /tmp/cczOroum.s:335    .text._ZN14PeriodicThreadD2Ev:0000000000000000 _ZN14PeriodicThreadD2Ev
     /tmp/cczOroum.s:338    .text._ZN14PeriodicThreadD2Ev:0000000000000000 .L0 
     /tmp/cczOroum.s:340    .text._ZN14PeriodicThreadD2Ev:0000000000000000 .L0 
     /tmp/cczOroum.s:341    .text._ZN14PeriodicThreadD2Ev:0000000000000004 .L0 
     /tmp/cczOroum.s:344    .text._ZN14PeriodicThreadD2Ev:000000000000000c .L0 
GAS LISTING /tmp/cczOroum.s 			page 57


     /tmp/cczOroum.s:345    .text._ZN14PeriodicThreadD2Ev:000000000000000c .L0 
     /tmp/cczOroum.s:347    .text._ZN14PeriodicThreadD2Ev:0000000000000010 .L0 
     /tmp/cczOroum.s:2054   .data.rel.ro.local._ZTV14PeriodicThread:0000000000000000 _ZTV14PeriodicThread
     /tmp/cczOroum.s:350    .text._ZN14PeriodicThreadD2Ev:0000000000000010 .L0 
     /tmp/cczOroum.s:356    .text._ZN14PeriodicThreadD2Ev:0000000000000028 .L0 
     /tmp/cczOroum.s:358    .text._ZN14PeriodicThreadD2Ev:000000000000002c .L0 
     /tmp/cczOroum.s:359    .text._ZN14PeriodicThreadD2Ev:000000000000002c .L0 
     /tmp/cczOroum.s:361    .text._ZN14PeriodicThreadD2Ev:0000000000000030 .L0 
     /tmp/cczOroum.s:363    .text._ZN14PeriodicThreadD2Ev:0000000000000034 .L0 
     /tmp/cczOroum.s:335    .text._ZN14PeriodicThreadD2Ev:0000000000000000 _ZN14PeriodicThreadD1Ev
     /tmp/cczOroum.s:372    .text._ZN14PeriodicThreadD0Ev:0000000000000000 _ZN14PeriodicThreadD0Ev
     /tmp/cczOroum.s:375    .text._ZN14PeriodicThreadD0Ev:0000000000000000 .L0 
     /tmp/cczOroum.s:377    .text._ZN14PeriodicThreadD0Ev:0000000000000000 .L0 
     /tmp/cczOroum.s:378    .text._ZN14PeriodicThreadD0Ev:0000000000000004 .L0 
     /tmp/cczOroum.s:382    .text._ZN14PeriodicThreadD0Ev:0000000000000010 .L0 
     /tmp/cczOroum.s:383    .text._ZN14PeriodicThreadD0Ev:0000000000000010 .L0 
     /tmp/cczOroum.s:384    .text._ZN14PeriodicThreadD0Ev:0000000000000010 .L0 
     /tmp/cczOroum.s:386    .text._ZN14PeriodicThreadD0Ev:0000000000000014 .L0 
     /tmp/cczOroum.s:392    .text._ZN14PeriodicThreadD0Ev:0000000000000018 .L0 
     /tmp/cczOroum.s:402    .text._ZN14PeriodicThreadD0Ev:000000000000003c .L0 
     /tmp/cczOroum.s:404    .text._ZN14PeriodicThreadD0Ev:0000000000000040 .L0 
     /tmp/cczOroum.s:405    .text._ZN14PeriodicThreadD0Ev:0000000000000040 .L0 
     /tmp/cczOroum.s:407    .text._ZN14PeriodicThreadD0Ev:0000000000000044 .L0 
     /tmp/cczOroum.s:410    .text._ZN14PeriodicThreadD0Ev:0000000000000048 .L0 
     /tmp/cczOroum.s:412    .text._ZN14PeriodicThreadD0Ev:000000000000004c .L0 
     /tmp/cczOroum.s:418    .text:0000000000000190 _ZZ20test_periodic_threadvEN9MojaKlasaD2Ev
     /tmp/cczOroum.s:421    .text:0000000000000190 .L0 
     /tmp/cczOroum.s:423    .text:0000000000000190 .L0 
     /tmp/cczOroum.s:424    .text:0000000000000194 .L0 
     /tmp/cczOroum.s:427    .text:000000000000019c .L0 
     /tmp/cczOroum.s:428    .text:000000000000019c .L0 
     /tmp/cczOroum.s:430    .text:00000000000001a0 .L0 
     /tmp/cczOroum.s:435    .text:00000000000001a0 .L0 
     /tmp/cczOroum.s:442    .text:00000000000001b4 .L0 
     /tmp/cczOroum.s:443    .text:00000000000001b8 .L0 
     /tmp/cczOroum.s:445    .text:00000000000001bc .L0 
     /tmp/cczOroum.s:446    .text:00000000000001bc .L0 
     /tmp/cczOroum.s:448    .text:00000000000001c0 .L0 
     /tmp/cczOroum.s:450    .text:00000000000001c4 .L0 
     /tmp/cczOroum.s:418    .text:0000000000000190 _ZZ20test_periodic_threadvEN9MojaKlasaD1Ev
     /tmp/cczOroum.s:456    .text:00000000000001c4 _ZZ20test_periodic_threadvEN9MojaKlasaD0Ev
     /tmp/cczOroum.s:459    .text:00000000000001c4 .L0 
     /tmp/cczOroum.s:461    .text:00000000000001c4 .L0 
     /tmp/cczOroum.s:462    .text:00000000000001c8 .L0 
     /tmp/cczOroum.s:466    .text:00000000000001d4 .L0 
     /tmp/cczOroum.s:467    .text:00000000000001d4 .L0 
     /tmp/cczOroum.s:468    .text:00000000000001d4 .L0 
     /tmp/cczOroum.s:470    .text:00000000000001d8 .L0 
     /tmp/cczOroum.s:477    .text:00000000000001dc .L0 
     /tmp/cczOroum.s:485    .text:00000000000001f0 .L0 
     /tmp/cczOroum.s:489    .text:0000000000000200 .L0 
     /tmp/cczOroum.s:491    .text:0000000000000204 .L0 
     /tmp/cczOroum.s:492    .text:0000000000000204 .L0 
     /tmp/cczOroum.s:494    .text:0000000000000208 .L0 
     /tmp/cczOroum.s:497    .text:000000000000020c .L0 
     /tmp/cczOroum.s:499    .text:0000000000000210 .L0 
     /tmp/cczOroum.s:505    .text:0000000000000210 _Z13fibonacciSonem
GAS LISTING /tmp/cczOroum.s 			page 58


     /tmp/cczOroum.s:508    .text:0000000000000210 .L0 
     /tmp/cczOroum.s:510    .text:0000000000000210 .L0 
     /tmp/cczOroum.s:511    .text:0000000000000214 .L0 
     /tmp/cczOroum.s:516    .text:0000000000000224 .L0 
     /tmp/cczOroum.s:517    .text:0000000000000224 .L0 
     /tmp/cczOroum.s:518    .text:0000000000000224 .L0 
     /tmp/cczOroum.s:519    .text:0000000000000224 .L0 
     /tmp/cczOroum.s:521    .text:0000000000000228 .L0 
     /tmp/cczOroum.s:524    .text:000000000000022c .L0 
     /tmp/cczOroum.s:527    .text:0000000000000234 .L0 
     /tmp/cczOroum.s:528    .text:0000000000000234 .L0 
     /tmp/cczOroum.s:530    .text:0000000000000238 .L0 
     /tmp/cczOroum.s:534    .text:000000000000023c .L0 
     /tmp/cczOroum.s:535    .text:000000000000023c .L0 
     /tmp/cczOroum.s:540    .text:000000000000024c .L0 
     /tmp/cczOroum.s:544    .text:0000000000000258 .L0 
     /tmp/cczOroum.s:547    .text:000000000000025c .L0 
     /tmp/cczOroum.s:548    .text:0000000000000260 .L0 
     /tmp/cczOroum.s:549    .text:0000000000000260 .L0 
     /tmp/cczOroum.s:551    .text:0000000000000264 .L0 
     /tmp/cczOroum.s:552    .text:0000000000000264 .L0 
     /tmp/cczOroum.s:554    .text:0000000000000268 .L0 
     /tmp/cczOroum.s:557    .text:000000000000026c .L0 
     /tmp/cczOroum.s:559    .text:0000000000000270 .L0 
     /tmp/cczOroum.s:563    .text:0000000000000274 .L0 
     /tmp/cczOroum.s:565    .text:0000000000000274 .L0 
     /tmp/cczOroum.s:566    .text:0000000000000274 .L0 
     /tmp/cczOroum.s:569    .text:0000000000000280 .L0 
     /tmp/cczOroum.s:592    .text:0000000000000280 _Z15workerBodyDjapePv
     /tmp/cczOroum.s:595    .text:0000000000000280 .L0 
     /tmp/cczOroum.s:597    .text:0000000000000280 .L0 
     /tmp/cczOroum.s:598    .text:0000000000000284 .L0 
     /tmp/cczOroum.s:603    .text:0000000000000294 .L0 
     /tmp/cczOroum.s:604    .text:0000000000000294 .L0 
     /tmp/cczOroum.s:605    .text:0000000000000294 .L0 
     /tmp/cczOroum.s:606    .text:0000000000000294 .L0 
     /tmp/cczOroum.s:608    .text:0000000000000298 .L0 
     /tmp/cczOroum.s:610    .text:0000000000000298 .L0 
     /tmp/cczOroum.s:611    .text:0000000000000298 .L0 
     /tmp/cczOroum.s:614    .text:000000000000029c .L0 
     /tmp/cczOroum.s:615    .text:000000000000029c .L0 
     /tmp/cczOroum.s:620    .text:00000000000002a4 .L0 
     /tmp/cczOroum.s:621    .text:00000000000002a4 .L0 
     /tmp/cczOroum.s:626    .text:00000000000002b0 .L0 
     /tmp/cczOroum.s:627    .text:00000000000002b0 .L0 
     /tmp/cczOroum.s:630    .text:00000000000002b8 .L0 
     /tmp/cczOroum.s:631    .text:00000000000002b8 .L0 
     /tmp/cczOroum.s:635    .text:00000000000002c8 .L0 
     /tmp/cczOroum.s:636    .text:00000000000002c8 .L0 
     /tmp/cczOroum.s:642    .text:00000000000002dc .L0 
     /tmp/cczOroum.s:643    .text:00000000000002dc .L0 
     /tmp/cczOroum.s:647    .text:00000000000002ec .L0 
     /tmp/cczOroum.s:653    .text:00000000000002f4 .L0 
     /tmp/cczOroum.s:654    .text:00000000000002f4 .L0 
     /tmp/cczOroum.s:657    .text:00000000000002fc .L0 
     /tmp/cczOroum.s:661    .text:0000000000000304 .L0 
     /tmp/cczOroum.s:662    .text:0000000000000304 .L0 
GAS LISTING /tmp/cczOroum.s 			page 59


     /tmp/cczOroum.s:666    .text:0000000000000314 .L0 
 src/test_thread.cpp:28     .text:0000000000000314 .L0 
     /tmp/cczOroum.s:672    .text:0000000000000318 .L0 
     /tmp/cczOroum.s:674    .text:0000000000000318 .L0 
     /tmp/cczOroum.s:677    .text:0000000000000320 .L0 
     /tmp/cczOroum.s:678    .text:0000000000000320 .L0 
 src/test_thread.cpp:32     .text:0000000000000320 .L0 
     /tmp/cczOroum.s:685    .text:0000000000000324 .L0 
     /tmp/cczOroum.s:687    .text:0000000000000324 .L0 
     /tmp/cczOroum.s:691    .text:0000000000000334 .L0 
     /tmp/cczOroum.s:692    .text:0000000000000334 .L0 
     /tmp/cczOroum.s:698    .text:0000000000000348 .L0 
     /tmp/cczOroum.s:699    .text:0000000000000348 .L0 
     /tmp/cczOroum.s:703    .text:0000000000000358 .L0 
     /tmp/cczOroum.s:704    .text:0000000000000358 .L0 
     /tmp/cczOroum.s:710    .text:0000000000000368 .L0 
     /tmp/cczOroum.s:711    .text:0000000000000368 .L0 
     /tmp/cczOroum.s:716    .text:0000000000000378 .L0 
     /tmp/cczOroum.s:717    .text:0000000000000378 .L0 
     /tmp/cczOroum.s:723    .text:000000000000038c .L0 
     /tmp/cczOroum.s:724    .text:000000000000038c .L0 
     /tmp/cczOroum.s:730    .text:00000000000003a0 .L0 
     /tmp/cczOroum.s:731    .text:00000000000003a0 .L0 
     /tmp/cczOroum.s:734    .text:00000000000003a8 .L0 
     /tmp/cczOroum.s:735    .text:00000000000003a8 .L0 
     /tmp/cczOroum.s:738    .text:00000000000003b0 .L0 
     /tmp/cczOroum.s:739    .text:00000000000003b0 .L0 
     /tmp/cczOroum.s:743    .text:00000000000003c0 .L0 
     /tmp/cczOroum.s:744    .text:00000000000003c0 .L0 
     /tmp/cczOroum.s:748    .text:00000000000003d0 .L0 
     /tmp/cczOroum.s:749    .text:00000000000003d0 .L0 
     /tmp/cczOroum.s:755    .text:00000000000003e4 .L0 
     /tmp/cczOroum.s:756    .text:00000000000003e4 .L0 
     /tmp/cczOroum.s:760    .text:00000000000003f4 .L0 
     /tmp/cczOroum.s:766    .text:00000000000003fc .L0 
     /tmp/cczOroum.s:767    .text:00000000000003fc .L0 
     /tmp/cczOroum.s:770    .text:0000000000000404 .L0 
     /tmp/cczOroum.s:771    .text:0000000000000404 .L0 
     /tmp/cczOroum.s:775    .text:0000000000000414 .L0 
     /tmp/cczOroum.s:776    .text:0000000000000418 .L0 
     /tmp/cczOroum.s:778    .text:000000000000041c .L0 
     /tmp/cczOroum.s:779    .text:000000000000041c .L0 
     /tmp/cczOroum.s:781    .text:0000000000000420 .L0 
     /tmp/cczOroum.s:784    .text:0000000000000424 .L0 
     /tmp/cczOroum.s:787    .text:0000000000000428 .L0 
     /tmp/cczOroum.s:789    .text:000000000000042c .L0 
     /tmp/cczOroum.s:809    .text:000000000000042c _Z14workerBodyComiPv
     /tmp/cczOroum.s:812    .text:000000000000042c .L0 
     /tmp/cczOroum.s:814    .text:000000000000042c .L0 
     /tmp/cczOroum.s:815    .text:0000000000000430 .L0 
     /tmp/cczOroum.s:820    .text:0000000000000440 .L0 
     /tmp/cczOroum.s:821    .text:0000000000000440 .L0 
     /tmp/cczOroum.s:822    .text:0000000000000440 .L0 
     /tmp/cczOroum.s:823    .text:0000000000000440 .L0 
     /tmp/cczOroum.s:825    .text:0000000000000444 .L0 
     /tmp/cczOroum.s:827    .text:0000000000000444 .L0 
     /tmp/cczOroum.s:828    .text:0000000000000444 .L0 
GAS LISTING /tmp/cczOroum.s 			page 60


     /tmp/cczOroum.s:831    .text:0000000000000448 .L0 
     /tmp/cczOroum.s:832    .text:0000000000000448 .L0 
     /tmp/cczOroum.s:837    .text:0000000000000450 .L0 
     /tmp/cczOroum.s:838    .text:0000000000000450 .L0 
     /tmp/cczOroum.s:843    .text:000000000000045c .L0 
     /tmp/cczOroum.s:844    .text:000000000000045c .L0 
     /tmp/cczOroum.s:847    .text:0000000000000464 .L0 
     /tmp/cczOroum.s:848    .text:0000000000000464 .L0 
     /tmp/cczOroum.s:852    .text:0000000000000474 .L0 
     /tmp/cczOroum.s:853    .text:0000000000000474 .L0 
     /tmp/cczOroum.s:859    .text:0000000000000488 .L0 
     /tmp/cczOroum.s:860    .text:0000000000000488 .L0 
     /tmp/cczOroum.s:864    .text:0000000000000498 .L0 
     /tmp/cczOroum.s:870    .text:00000000000004a0 .L0 
     /tmp/cczOroum.s:871    .text:00000000000004a0 .L0 
     /tmp/cczOroum.s:874    .text:00000000000004a8 .L0 
     /tmp/cczOroum.s:878    .text:00000000000004b0 .L0 
     /tmp/cczOroum.s:879    .text:00000000000004b0 .L0 
     /tmp/cczOroum.s:883    .text:00000000000004c0 .L0 
 src/test_thread.cpp:64     .text:00000000000004c0 .L0 
     /tmp/cczOroum.s:889    .text:00000000000004c4 .L0 
     /tmp/cczOroum.s:891    .text:00000000000004c4 .L0 
     /tmp/cczOroum.s:894    .text:00000000000004cc .L0 
     /tmp/cczOroum.s:895    .text:00000000000004cc .L0 
     /tmp/cczOroum.s:901    .text:00000000000004dc .L0 
     /tmp/cczOroum.s:902    .text:00000000000004dc .L0 
     /tmp/cczOroum.s:907    .text:00000000000004ec .L0 
     /tmp/cczOroum.s:908    .text:00000000000004ec .L0 
     /tmp/cczOroum.s:914    .text:0000000000000500 .L0 
     /tmp/cczOroum.s:915    .text:0000000000000500 .L0 
     /tmp/cczOroum.s:921    .text:0000000000000514 .L0 
     /tmp/cczOroum.s:922    .text:0000000000000514 .L0 
     /tmp/cczOroum.s:925    .text:000000000000051c .L0 
     /tmp/cczOroum.s:926    .text:000000000000051c .L0 
     /tmp/cczOroum.s:929    .text:0000000000000524 .L0 
     /tmp/cczOroum.s:930    .text:0000000000000524 .L0 
     /tmp/cczOroum.s:934    .text:0000000000000534 .L0 
     /tmp/cczOroum.s:935    .text:0000000000000534 .L0 
     /tmp/cczOroum.s:939    .text:0000000000000544 .L0 
     /tmp/cczOroum.s:940    .text:0000000000000544 .L0 
     /tmp/cczOroum.s:946    .text:0000000000000558 .L0 
     /tmp/cczOroum.s:947    .text:0000000000000558 .L0 
     /tmp/cczOroum.s:951    .text:0000000000000568 .L0 
     /tmp/cczOroum.s:957    .text:0000000000000570 .L0 
     /tmp/cczOroum.s:958    .text:0000000000000570 .L0 
     /tmp/cczOroum.s:961    .text:0000000000000578 .L0 
     /tmp/cczOroum.s:962    .text:0000000000000578 .L0 
     /tmp/cczOroum.s:966    .text:0000000000000588 .L0 
     /tmp/cczOroum.s:967    .text:000000000000058c .L0 
     /tmp/cczOroum.s:969    .text:0000000000000590 .L0 
     /tmp/cczOroum.s:970    .text:0000000000000590 .L0 
     /tmp/cczOroum.s:972    .text:0000000000000594 .L0 
     /tmp/cczOroum.s:975    .text:0000000000000598 .L0 
     /tmp/cczOroum.s:978    .text:000000000000059c .L0 
     /tmp/cczOroum.s:980    .text:00000000000005a0 .L0 
     /tmp/cczOroum.s:997    .text:00000000000005a0 _Z16test_thread_syncv
     /tmp/cczOroum.s:1000   .text:00000000000005a0 .L0 
GAS LISTING /tmp/cczOroum.s 			page 61


     /tmp/cczOroum.s:1001   .text:00000000000005a0 .L0 
     /tmp/cczOroum.s:1002   .text:00000000000005a4 .L0 
     /tmp/cczOroum.s:1007   .text:00000000000005b4 .L0 
     /tmp/cczOroum.s:1008   .text:00000000000005b4 .L0 
     /tmp/cczOroum.s:1009   .text:00000000000005b4 .L0 
     /tmp/cczOroum.s:1010   .text:00000000000005b4 .L0 
     /tmp/cczOroum.s:1012   .text:00000000000005b8 .L0 
     /tmp/cczOroum.s:1014   .text:00000000000005b8 .L0 
     /tmp/cczOroum.s:1015   .text:00000000000005b8 .L0 
     /tmp/cczOroum.s:1016   .text:00000000000005b8 .L0 
     /tmp/cczOroum.s:1018   .text:00000000000005bc .L0 
     /tmp/cczOroum.s:1019   .text:00000000000005bc .L0 
     /tmp/cczOroum.s:1026   .text:00000000000005d8 .L0 
     /tmp/cczOroum.s:1027   .text:00000000000005d8 .L0 
     /tmp/cczOroum.s:1031   .text:00000000000005e8 .L0 
     /tmp/cczOroum.s:1032   .text:00000000000005e8 .L0 
     /tmp/cczOroum.s:1038   .text:0000000000000600 .L0 
     /tmp/cczOroum.s:1039   .text:0000000000000600 .L0 
     /tmp/cczOroum.s:1044   .text:0000000000000610 .L0 
     /tmp/cczOroum.s:1045   .text:0000000000000610 .L0 
     /tmp/cczOroum.s:1049   .text:0000000000000620 .L0 
     /tmp/cczOroum.s:1050   .text:0000000000000620 .L0 
     /tmp/cczOroum.s:1056   .text:000000000000062c .L0 
     /tmp/cczOroum.s:1064   .text:0000000000000634 .L0 
     /tmp/cczOroum.s:1065   .text:0000000000000634 .L0 
     /tmp/cczOroum.s:1072   .text:0000000000000640 .L0 
     /tmp/cczOroum.s:1076   .text:0000000000000644 .L0 
     /tmp/cczOroum.s:1080   .text:000000000000064c .L0 
     /tmp/cczOroum.s:1081   .text:000000000000064c .L0 
     /tmp/cczOroum.s:1083   .text:0000000000000650 .L0 
     /tmp/cczOroum.s:1088   .text:0000000000000654 .L0 
     /tmp/cczOroum.s:1089   .text:0000000000000654 .L0 
     /tmp/cczOroum.s:1091   .text:0000000000000658 .L0 
     /tmp/cczOroum.s:1093   .text:000000000000065c .L0 
     /tmp/cczOroum.s:1102   .text:0000000000000668 .L0 
     /tmp/cczOroum.s:1103   .text:0000000000000668 .L0 
     /tmp/cczOroum.s:1107   .text:0000000000000678 .L0 
     /tmp/cczOroum.s:1108   .text:000000000000067c .L0 
     /tmp/cczOroum.s:1110   .text:0000000000000680 .L0 
     /tmp/cczOroum.s:1111   .text:0000000000000680 .L0 
     /tmp/cczOroum.s:1113   .text:0000000000000684 .L0 
     /tmp/cczOroum.s:1116   .text:0000000000000688 .L0 
     /tmp/cczOroum.s:1118   .text:000000000000068c .L0 
     /tmp/cczOroum.s:1120   .text:0000000000000690 .L0 
     /tmp/cczOroum.s:1126   .text:0000000000000690 _Z15fibonacciDraganm
     /tmp/cczOroum.s:1129   .text:0000000000000690 .L0 
     /tmp/cczOroum.s:1131   .text:0000000000000690 .L0 
     /tmp/cczOroum.s:1132   .text:0000000000000694 .L0 
     /tmp/cczOroum.s:1137   .text:00000000000006a4 .L0 
     /tmp/cczOroum.s:1138   .text:00000000000006a4 .L0 
     /tmp/cczOroum.s:1139   .text:00000000000006a4 .L0 
     /tmp/cczOroum.s:1140   .text:00000000000006a4 .L0 
     /tmp/cczOroum.s:1142   .text:00000000000006a8 .L0 
     /tmp/cczOroum.s:1145   .text:00000000000006ac .L0 
     /tmp/cczOroum.s:1148   .text:00000000000006b4 .L0 
     /tmp/cczOroum.s:1149   .text:00000000000006b4 .L0 
     /tmp/cczOroum.s:1152   .text:00000000000006bc .L0 
GAS LISTING /tmp/cczOroum.s 			page 62


     /tmp/cczOroum.s:1156   .text:00000000000006c0 .L0 
     /tmp/cczOroum.s:1157   .text:00000000000006c0 .L0 
     /tmp/cczOroum.s:1162   .text:00000000000006d0 .L0 
     /tmp/cczOroum.s:1166   .text:00000000000006dc .L0 
     /tmp/cczOroum.s:1169   .text:00000000000006e0 .L0 
     /tmp/cczOroum.s:1170   .text:00000000000006e4 .L0 
     /tmp/cczOroum.s:1171   .text:00000000000006e4 .L0 
     /tmp/cczOroum.s:1173   .text:00000000000006e8 .L0 
     /tmp/cczOroum.s:1174   .text:00000000000006e8 .L0 
     /tmp/cczOroum.s:1176   .text:00000000000006ec .L0 
     /tmp/cczOroum.s:1179   .text:00000000000006f0 .L0 
     /tmp/cczOroum.s:1181   .text:00000000000006f4 .L0 
     /tmp/cczOroum.s:1185   .text:00000000000006f8 .L0 
     /tmp/cczOroum.s:1187   .text:00000000000006f8 .L0 
     /tmp/cczOroum.s:1188   .text:00000000000006f8 .L0 
     /tmp/cczOroum.s:1191   .text:0000000000000704 .L0 
     /tmp/cczOroum.s:1211   .text:0000000000000704 _Z17workerBodySlavicaPv
     /tmp/cczOroum.s:1214   .text:0000000000000704 .L0 
     /tmp/cczOroum.s:1216   .text:0000000000000704 .L0 
     /tmp/cczOroum.s:1217   .text:0000000000000708 .L0 
     /tmp/cczOroum.s:1222   .text:0000000000000718 .L0 
     /tmp/cczOroum.s:1223   .text:0000000000000718 .L0 
     /tmp/cczOroum.s:1224   .text:0000000000000718 .L0 
     /tmp/cczOroum.s:1225   .text:0000000000000718 .L0 
     /tmp/cczOroum.s:1227   .text:000000000000071c .L0 
     /tmp/cczOroum.s:1230   .text:000000000000071c .L0 
     /tmp/cczOroum.s:1231   .text:000000000000071c .L0 
     /tmp/cczOroum.s:1236   .text:0000000000000724 .L0 
     /tmp/cczOroum.s:1237   .text:0000000000000724 .L0 
     /tmp/cczOroum.s:1241   .text:0000000000000734 .L0 
     /tmp/cczOroum.s:1242   .text:0000000000000734 .L0 
     /tmp/cczOroum.s:1248   .text:0000000000000748 .L0 
     /tmp/cczOroum.s:1249   .text:0000000000000748 .L0 
     /tmp/cczOroum.s:1253   .text:0000000000000758 .L0 
     /tmp/cczOroum.s:1259   .text:0000000000000760 .L0 
     /tmp/cczOroum.s:1260   .text:0000000000000760 .L0 
     /tmp/cczOroum.s:1263   .text:0000000000000768 .L0 
     /tmp/cczOroum.s:1264   .text:0000000000000768 .L0 
     /tmp/cczOroum.s:1268   .text:0000000000000778 .L0 
 src/test_thread.cpp:180    .text:0000000000000778 .L0 
     /tmp/cczOroum.s:1274   .text:000000000000077c .L0 
     /tmp/cczOroum.s:1276   .text:000000000000077c .L0 
     /tmp/cczOroum.s:1279   .text:0000000000000784 .L0 
     /tmp/cczOroum.s:1280   .text:0000000000000784 .L0 
 src/test_thread.cpp:184    .text:0000000000000784 .L0 
     /tmp/cczOroum.s:1287   .text:0000000000000788 .L0 
     /tmp/cczOroum.s:1289   .text:0000000000000788 .L0 
     /tmp/cczOroum.s:1293   .text:0000000000000798 .L0 
     /tmp/cczOroum.s:1294   .text:0000000000000798 .L0 
     /tmp/cczOroum.s:1300   .text:00000000000007ac .L0 
     /tmp/cczOroum.s:1301   .text:00000000000007ac .L0 
     /tmp/cczOroum.s:1305   .text:00000000000007bc .L0 
     /tmp/cczOroum.s:1306   .text:00000000000007bc .L0 
     /tmp/cczOroum.s:1312   .text:00000000000007cc .L0 
     /tmp/cczOroum.s:1313   .text:00000000000007cc .L0 
     /tmp/cczOroum.s:1318   .text:00000000000007dc .L0 
     /tmp/cczOroum.s:1319   .text:00000000000007dc .L0 
GAS LISTING /tmp/cczOroum.s 			page 63


     /tmp/cczOroum.s:1325   .text:00000000000007f0 .L0 
     /tmp/cczOroum.s:1326   .text:00000000000007f0 .L0 
     /tmp/cczOroum.s:1332   .text:0000000000000804 .L0 
     /tmp/cczOroum.s:1333   .text:0000000000000804 .L0 
     /tmp/cczOroum.s:1337   .text:0000000000000814 .L0 
     /tmp/cczOroum.s:1338   .text:0000000000000814 .L0 
     /tmp/cczOroum.s:1344   .text:0000000000000828 .L0 
     /tmp/cczOroum.s:1345   .text:0000000000000828 .L0 
     /tmp/cczOroum.s:1349   .text:0000000000000838 .L0 
     /tmp/cczOroum.s:1355   .text:0000000000000840 .L0 
     /tmp/cczOroum.s:1356   .text:0000000000000840 .L0 
     /tmp/cczOroum.s:1359   .text:0000000000000848 .L0 
     /tmp/cczOroum.s:1360   .text:000000000000084c .L0 
     /tmp/cczOroum.s:1362   .text:0000000000000850 .L0 
     /tmp/cczOroum.s:1363   .text:0000000000000850 .L0 
     /tmp/cczOroum.s:1365   .text:0000000000000854 .L0 
     /tmp/cczOroum.s:1368   .text:0000000000000858 .L0 
     /tmp/cczOroum.s:1371   .text:000000000000085c .L0 
     /tmp/cczOroum.s:1373   .text:0000000000000860 .L0 
     /tmp/cczOroum.s:1390   .text:0000000000000860 _Z15workerBodyRankoPv
     /tmp/cczOroum.s:1393   .text:0000000000000860 .L0 
     /tmp/cczOroum.s:1395   .text:0000000000000860 .L0 
     /tmp/cczOroum.s:1396   .text:0000000000000864 .L0 
     /tmp/cczOroum.s:1401   .text:0000000000000874 .L0 
     /tmp/cczOroum.s:1402   .text:0000000000000874 .L0 
     /tmp/cczOroum.s:1403   .text:0000000000000874 .L0 
     /tmp/cczOroum.s:1404   .text:0000000000000874 .L0 
     /tmp/cczOroum.s:1406   .text:0000000000000878 .L0 
     /tmp/cczOroum.s:1409   .text:0000000000000878 .L0 
     /tmp/cczOroum.s:1410   .text:0000000000000878 .L0 
     /tmp/cczOroum.s:1415   .text:0000000000000880 .L0 
     /tmp/cczOroum.s:1416   .text:0000000000000880 .L0 
     /tmp/cczOroum.s:1420   .text:0000000000000890 .L0 
     /tmp/cczOroum.s:1421   .text:0000000000000890 .L0 
     /tmp/cczOroum.s:1427   .text:00000000000008a4 .L0 
     /tmp/cczOroum.s:1428   .text:00000000000008a4 .L0 
     /tmp/cczOroum.s:1432   .text:00000000000008b4 .L0 
     /tmp/cczOroum.s:1438   .text:00000000000008bc .L0 
     /tmp/cczOroum.s:1439   .text:00000000000008bc .L0 
     /tmp/cczOroum.s:1442   .text:00000000000008c4 .L0 
     /tmp/cczOroum.s:1443   .text:00000000000008c4 .L0 
     /tmp/cczOroum.s:1447   .text:00000000000008d4 .L0 
 src/test_thread.cpp:212    .text:00000000000008d4 .L0 
     /tmp/cczOroum.s:1453   .text:00000000000008d8 .L0 
     /tmp/cczOroum.s:1455   .text:00000000000008d8 .L0 
     /tmp/cczOroum.s:1458   .text:00000000000008e0 .L0 
     /tmp/cczOroum.s:1459   .text:00000000000008e0 .L0 
     /tmp/cczOroum.s:1465   .text:00000000000008f0 .L0 
     /tmp/cczOroum.s:1466   .text:00000000000008f0 .L0 
     /tmp/cczOroum.s:1471   .text:0000000000000900 .L0 
     /tmp/cczOroum.s:1472   .text:0000000000000900 .L0 
     /tmp/cczOroum.s:1478   .text:0000000000000914 .L0 
     /tmp/cczOroum.s:1479   .text:0000000000000914 .L0 
     /tmp/cczOroum.s:1485   .text:0000000000000928 .L0 
     /tmp/cczOroum.s:1486   .text:0000000000000928 .L0 
     /tmp/cczOroum.s:1490   .text:0000000000000938 .L0 
     /tmp/cczOroum.s:1491   .text:0000000000000938 .L0 
GAS LISTING /tmp/cczOroum.s 			page 64


     /tmp/cczOroum.s:1497   .text:000000000000094c .L0 
     /tmp/cczOroum.s:1498   .text:000000000000094c .L0 
     /tmp/cczOroum.s:1502   .text:000000000000095c .L0 
     /tmp/cczOroum.s:1508   .text:0000000000000964 .L0 
     /tmp/cczOroum.s:1509   .text:0000000000000964 .L0 
     /tmp/cczOroum.s:1512   .text:000000000000096c .L0 
     /tmp/cczOroum.s:1513   .text:0000000000000970 .L0 
     /tmp/cczOroum.s:1515   .text:0000000000000974 .L0 
     /tmp/cczOroum.s:1516   .text:0000000000000974 .L0 
     /tmp/cczOroum.s:1518   .text:0000000000000978 .L0 
     /tmp/cczOroum.s:1521   .text:000000000000097c .L0 
     /tmp/cczOroum.s:1524   .text:0000000000000980 .L0 
     /tmp/cczOroum.s:1526   .text:0000000000000984 .L0 
     /tmp/cczOroum.s:1540   .text:0000000000000984 _Z17test_thread_asyncv
     /tmp/cczOroum.s:1543   .text:0000000000000984 .L0 
     /tmp/cczOroum.s:1544   .text:0000000000000984 .L0 
     /tmp/cczOroum.s:1545   .text:0000000000000988 .L0 
     /tmp/cczOroum.s:1550   .text:0000000000000998 .L0 
     /tmp/cczOroum.s:1551   .text:0000000000000998 .L0 
     /tmp/cczOroum.s:1552   .text:0000000000000998 .L0 
     /tmp/cczOroum.s:1553   .text:0000000000000998 .L0 
     /tmp/cczOroum.s:1555   .text:000000000000099c .L0 
     /tmp/cczOroum.s:1557   .text:000000000000099c .L0 
     /tmp/cczOroum.s:1558   .text:000000000000099c .L0 
     /tmp/cczOroum.s:1559   .text:000000000000099c .L0 
     /tmp/cczOroum.s:1565   .text:00000000000009b4 .L0 
     /tmp/cczOroum.s:1566   .text:00000000000009b4 .L0 
     /tmp/cczOroum.s:1570   .text:00000000000009c4 .L0 
     /tmp/cczOroum.s:1571   .text:00000000000009c4 .L0 
     /tmp/cczOroum.s:1577   .text:00000000000009dc .L0 
     /tmp/cczOroum.s:1578   .text:00000000000009dc .L0 
     /tmp/cczOroum.s:1582   .text:00000000000009ec .L0 
     /tmp/cczOroum.s:1583   .text:00000000000009ec .L0 
     /tmp/cczOroum.s:1589   .text:0000000000000a04 .L0 
     /tmp/cczOroum.s:1590   .text:0000000000000a04 .L0 
     /tmp/cczOroum.s:1594   .text:0000000000000a14 .L0 
     /tmp/cczOroum.s:1595   .text:0000000000000a14 .L0 
     /tmp/cczOroum.s:1601   .text:0000000000000a2c .L0 
     /tmp/cczOroum.s:1602   .text:0000000000000a2c .L0 
     /tmp/cczOroum.s:1607   .text:0000000000000a3c .L0 
     /tmp/cczOroum.s:1608   .text:0000000000000a3c .L0 
     /tmp/cczOroum.s:1612   .text:0000000000000a4c .L0 
     /tmp/cczOroum.s:1613   .text:0000000000000a4c .L0 
     /tmp/cczOroum.s:1619   .text:0000000000000a58 .L0 
     /tmp/cczOroum.s:1626   .text:0000000000000a60 .L0 
     /tmp/cczOroum.s:1634   .text:0000000000000a68 .L0 
     /tmp/cczOroum.s:1635   .text:0000000000000a68 .L0 
     /tmp/cczOroum.s:1642   .text:0000000000000a74 .L0 
     /tmp/cczOroum.s:1646   .text:0000000000000a78 .L0 
     /tmp/cczOroum.s:1650   .text:0000000000000a80 .L0 
     /tmp/cczOroum.s:1651   .text:0000000000000a80 .L0 
     /tmp/cczOroum.s:1653   .text:0000000000000a84 .L0 
     /tmp/cczOroum.s:1658   .text:0000000000000a88 .L0 
     /tmp/cczOroum.s:1659   .text:0000000000000a88 .L0 
     /tmp/cczOroum.s:1661   .text:0000000000000a8c .L0 
     /tmp/cczOroum.s:1669   .text:0000000000000a94 .L0 
     /tmp/cczOroum.s:1670   .text:0000000000000a94 .L0 
GAS LISTING /tmp/cczOroum.s 			page 65


     /tmp/cczOroum.s:1674   .text:0000000000000aa4 .L0 
     /tmp/cczOroum.s:1675   .text:0000000000000aa8 .L0 
     /tmp/cczOroum.s:1677   .text:0000000000000aac .L0 
     /tmp/cczOroum.s:1678   .text:0000000000000aac .L0 
     /tmp/cczOroum.s:1680   .text:0000000000000ab0 .L0 
     /tmp/cczOroum.s:1683   .text:0000000000000ab4 .L0 
     /tmp/cczOroum.s:1685   .text:0000000000000ab8 .L0 
     /tmp/cczOroum.s:1687   .text:0000000000000abc .L0 
     /tmp/cczOroum.s:1693   .text:0000000000000abc _Z22test_thread_sync_sleepv
     /tmp/cczOroum.s:1696   .text:0000000000000abc .L0 
     /tmp/cczOroum.s:1697   .text:0000000000000abc .L0 
     /tmp/cczOroum.s:1698   .text:0000000000000ac0 .L0 
     /tmp/cczOroum.s:1703   .text:0000000000000ad0 .L0 
     /tmp/cczOroum.s:1704   .text:0000000000000ad0 .L0 
     /tmp/cczOroum.s:1705   .text:0000000000000ad0 .L0 
     /tmp/cczOroum.s:1706   .text:0000000000000ad0 .L0 
     /tmp/cczOroum.s:1708   .text:0000000000000ad4 .L0 
     /tmp/cczOroum.s:1710   .text:0000000000000ad4 .L0 
     /tmp/cczOroum.s:1711   .text:0000000000000ad4 .L0 
     /tmp/cczOroum.s:1712   .text:0000000000000ad4 .L0 
     /tmp/cczOroum.s:1715   .text:0000000000000adc .L0 
     /tmp/cczOroum.s:1716   .text:0000000000000adc .L0 
     /tmp/cczOroum.s:1723   .text:0000000000000af8 .L0 
     /tmp/cczOroum.s:1724   .text:0000000000000af8 .L0 
     /tmp/cczOroum.s:1728   .text:0000000000000b08 .L0 
     /tmp/cczOroum.s:1729   .text:0000000000000b08 .L0 
     /tmp/cczOroum.s:1735   .text:0000000000000b20 .L0 
     /tmp/cczOroum.s:1736   .text:0000000000000b20 .L0 
     /tmp/cczOroum.s:1741   .text:0000000000000b30 .L0 
     /tmp/cczOroum.s:1742   .text:0000000000000b30 .L0 
     /tmp/cczOroum.s:1746   .text:0000000000000b40 .L0 
     /tmp/cczOroum.s:1747   .text:0000000000000b40 .L0 
     /tmp/cczOroum.s:1753   .text:0000000000000b4c .L0 
     /tmp/cczOroum.s:1760   .text:0000000000000b54 .L0 
     /tmp/cczOroum.s:1761   .text:0000000000000b54 .L0 
     /tmp/cczOroum.s:1768   .text:0000000000000b60 .L0 
     /tmp/cczOroum.s:1772   .text:0000000000000b64 .L0 
     /tmp/cczOroum.s:1776   .text:0000000000000b6c .L0 
     /tmp/cczOroum.s:1777   .text:0000000000000b6c .L0 
     /tmp/cczOroum.s:1779   .text:0000000000000b70 .L0 
     /tmp/cczOroum.s:1784   .text:0000000000000b74 .L0 
     /tmp/cczOroum.s:1785   .text:0000000000000b74 .L0 
     /tmp/cczOroum.s:1787   .text:0000000000000b78 .L0 
     /tmp/cczOroum.s:1789   .text:0000000000000b7c .L0 
     /tmp/cczOroum.s:1798   .text:0000000000000b88 .L0 
     /tmp/cczOroum.s:1799   .text:0000000000000b88 .L0 
     /tmp/cczOroum.s:1803   .text:0000000000000b98 .L0 
     /tmp/cczOroum.s:1804   .text:0000000000000b9c .L0 
     /tmp/cczOroum.s:1806   .text:0000000000000ba0 .L0 
     /tmp/cczOroum.s:1807   .text:0000000000000ba0 .L0 
     /tmp/cczOroum.s:1809   .text:0000000000000ba4 .L0 
     /tmp/cczOroum.s:1812   .text:0000000000000ba8 .L0 
     /tmp/cczOroum.s:1814   .text:0000000000000bac .L0 
     /tmp/cczOroum.s:1816   .text:0000000000000bb0 .L0 
     /tmp/cczOroum.s:1822   .text:0000000000000bb0 _Z20test_periodic_threadv
     /tmp/cczOroum.s:1825   .text:0000000000000bb0 .L0 
     /tmp/cczOroum.s:8092   .data.rel.local.DW.ref.__gxx_personality_v0:0000000000000000 DW.ref.__gxx_personality_v0
GAS LISTING /tmp/cczOroum.s 			page 66


     /tmp/cczOroum.s:1828   .text:0000000000000bb0 .L0 
     /tmp/cczOroum.s:1829   .text:0000000000000bb4 .L0 
     /tmp/cczOroum.s:1834   .text:0000000000000bc4 .L0 
     /tmp/cczOroum.s:1835   .text:0000000000000bc4 .L0 
     /tmp/cczOroum.s:1836   .text:0000000000000bc4 .L0 
     /tmp/cczOroum.s:1837   .text:0000000000000bc4 .L0 
     /tmp/cczOroum.s:1839   .text:0000000000000bc8 .L0 
     /tmp/cczOroum.s:1841   .text:0000000000000bc8 .L0 
     /tmp/cczOroum.s:1842   .text:0000000000000bc8 .L0 
     /tmp/cczOroum.s:1843   .text:0000000000000bc8 .L0 
     /tmp/cczOroum.s:1853   .text:0000000000000bd8 .L0 
     /tmp/cczOroum.s:1869   .text:0000000000000bf8 .L0 
     /tmp/cczOroum.s:1870   .text:0000000000000bf8 .L0 
     /tmp/cczOroum.s:1885   .text:0000000000000c14 .L0 
     /tmp/cczOroum.s:1886   .text:0000000000000c14 .L0 
     /tmp/cczOroum.s:1891   .text:0000000000000c20 .L0 
     /tmp/cczOroum.s:1892   .text:0000000000000c20 .L0 
     /tmp/cczOroum.s:1897   .text:0000000000000c2c .L0 
     /tmp/cczOroum.s:1898   .text:0000000000000c2c .L0 
     /tmp/cczOroum.s:1902   .text:0000000000000c3c .L0 
     /tmp/cczOroum.s:1903   .text:0000000000000c3c .L0 
     /tmp/cczOroum.s:1908   .text:0000000000000c48 .L0 
     /tmp/cczOroum.s:1909   .text:0000000000000c48 .L0 
     /tmp/cczOroum.s:1911   .text:0000000000000c4c .L0 
     /tmp/cczOroum.s:1918   .text:0000000000000c5c .L0 
     /tmp/cczOroum.s:1919   .text:0000000000000c5c .L0 
     /tmp/cczOroum.s:1927   .text:0000000000000c6c .L0 
     /tmp/cczOroum.s:1937   .text:0000000000000c84 .L0 
     /tmp/cczOroum.s:1938   .text:0000000000000c88 .L0 
     /tmp/cczOroum.s:1939   .text:0000000000000c88 .L0 
     /tmp/cczOroum.s:1941   .text:0000000000000c8c .L0 
     /tmp/cczOroum.s:1942   .text:0000000000000c8c .L0 
     /tmp/cczOroum.s:1944   .text:0000000000000c90 .L0 
     /tmp/cczOroum.s:1947   .text:0000000000000c94 .L0 
     /tmp/cczOroum.s:1949   .text:0000000000000c98 .L0 
     /tmp/cczOroum.s:1953   .text:0000000000000c9c .L0 
     /tmp/cczOroum.s:1956   .text:0000000000000ca0 .L0 
     /tmp/cczOroum.s:1970   .text:0000000000000cbc .L0 
     /tmp/cczOroum.s:1983   .text:0000000000000ce0 .L0 
     /tmp/cczOroum.s:2017   .text:0000000000000ce0 _Z11test_threadv
     /tmp/cczOroum.s:2020   .text:0000000000000ce0 .L0 
     /tmp/cczOroum.s:2021   .text:0000000000000ce0 .L0 
     /tmp/cczOroum.s:2022   .text:0000000000000ce4 .L0 
     /tmp/cczOroum.s:2025   .text:0000000000000cec .L0 
     /tmp/cczOroum.s:2026   .text:0000000000000cec .L0 
     /tmp/cczOroum.s:2028   .text:0000000000000cf0 .L0 
     /tmp/cczOroum.s:2030   .text:0000000000000cf0 .L0 
     /tmp/cczOroum.s:2031   .text:0000000000000cf0 .L0 
     /tmp/cczOroum.s:2034   .text:0000000000000cf8 .L0 
     /tmp/cczOroum.s:2035   .text:0000000000000cf8 .L0 
     /tmp/cczOroum.s:2038   .text:0000000000000d00 .L0 
     /tmp/cczOroum.s:2039   .text:0000000000000d04 .L0 
     /tmp/cczOroum.s:2041   .text:0000000000000d08 .L0 
     /tmp/cczOroum.s:2042   .text:0000000000000d08 .L0 
     /tmp/cczOroum.s:2044   .text:0000000000000d0c .L0 
     /tmp/cczOroum.s:2046   .text:0000000000000d10 .L0 
     /tmp/cczOroum.s:2063   .data.rel.ro.local:0000000000000000 .LANCHOR0
GAS LISTING /tmp/cczOroum.s 			page 67


     /tmp/cczOroum.s:2066   .data.rel.ro.local:0000000000000000 _ZTVZ20test_periodic_threadvE9MojaKlasa
     /tmp/cczOroum.s:32     .text._ZN6Thread3runEv:0000000000000018 .L0 
     /tmp/cczOroum.s:57     .text._ZN14PeriodicThread18periodicActivationEv:0000000000000018 .L0 
     /tmp/cczOroum.s:2080   .text:0000000000000d10 .L0 
     /tmp/cczOroum.s:368    .text._ZN14PeriodicThreadD2Ev:0000000000000034 .L0 
     /tmp/cczOroum.s:415    .text._ZN14PeriodicThreadD0Ev:000000000000004c .L0 
     /tmp/cczOroum.s:59     .rodata.str1.8:0000000000000000 .LC0
     /tmp/cczOroum.s:128    .text:0000000000000048 .L0 
     /tmp/cczOroum.s:62     .rodata.str1.8:0000000000000008 .LC1
     /tmp/cczOroum.s:140    .text:000000000000006c .L0 
     /tmp/cczOroum.s:170    .rodata.str1.8:0000000000000010 .LC2
     /tmp/cczOroum.s:235    .text:00000000000000e0 .L0 
     /tmp/cczOroum.s:247    .text:0000000000000104 .L0 
     /tmp/cczOroum.s:277    .rodata.str1.8:0000000000000018 .LC3
     /tmp/cczOroum.s:300    .text:0000000000000148 .L0 
     /tmp/cczOroum.s:313    .text:000000000000016c .L0 
     /tmp/cczOroum.s:435    .text:00000000000001a0 .L0 
     /tmp/cczOroum.s:477    .text:00000000000001dc .L0 
     /tmp/cczOroum.s:631    .text:00000000000002b8 .L0 
     /tmp/cczOroum.s:643    .text:00000000000002dc .L0 
     /tmp/cczOroum.s:574    .rodata.str1.8:0000000000000030 .LC4
     /tmp/cczOroum.s:662    .text:0000000000000304 .L0 
     /tmp/cczOroum.s:577    .rodata.str1.8:0000000000000040 .LC5
     /tmp/cczOroum.s:687    .text:0000000000000324 .L0 
     /tmp/cczOroum.s:699    .text:0000000000000348 .L0 
     /tmp/cczOroum.s:580    .rodata.str1.8:0000000000000048 .LC6
     /tmp/cczOroum.s:711    .text:0000000000000368 .L0 
     /tmp/cczOroum.s:724    .text:000000000000038c .L0 
     /tmp/cczOroum.s:583    .rodata.str1.8:0000000000000058 .LC7
     /tmp/cczOroum.s:739    .text:00000000000003b0 .L0 
     /tmp/cczOroum.s:744    .text:00000000000003c0 .L0 
     /tmp/cczOroum.s:756    .text:00000000000003e4 .L0 
     /tmp/cczOroum.s:586    .rodata.str1.8:0000000000000068 .LC8
     /tmp/cczOroum.s:771    .text:0000000000000404 .L0 
     /tmp/cczOroum.s:848    .text:0000000000000464 .L0 
     /tmp/cczOroum.s:860    .text:0000000000000488 .L0 
     /tmp/cczOroum.s:794    .rodata.str1.8:0000000000000078 .LC9
     /tmp/cczOroum.s:879    .text:00000000000004b0 .L0 
     /tmp/cczOroum.s:797    .rodata.str1.8:0000000000000088 .LC10
     /tmp/cczOroum.s:902    .text:00000000000004dc .L0 
     /tmp/cczOroum.s:915    .text:0000000000000500 .L0 
     /tmp/cczOroum.s:800    .rodata.str1.8:0000000000000098 .LC11
     /tmp/cczOroum.s:930    .text:0000000000000524 .L0 
     /tmp/cczOroum.s:935    .text:0000000000000534 .L0 
     /tmp/cczOroum.s:947    .text:0000000000000558 .L0 
     /tmp/cczOroum.s:803    .rodata.str1.8:00000000000000a8 .LC12
     /tmp/cczOroum.s:962    .text:0000000000000578 .L0 
     /tmp/cczOroum.s:1021   .text:00000000000005c4 .L0 
     /tmp/cczOroum.s:985    .rodata.str1.8:00000000000000b8 .LC13
     /tmp/cczOroum.s:1027   .text:00000000000005d8 .L0 
     /tmp/cczOroum.s:1033   .text:00000000000005ec .L0 
     /tmp/cczOroum.s:988    .rodata.str1.8:00000000000000d0 .LC14
     /tmp/cczOroum.s:1039   .text:0000000000000600 .L0 
     /tmp/cczOroum.s:1045   .text:0000000000000610 .L0 
     /tmp/cczOroum.s:991    .rodata.str1.8:00000000000000e8 .LC15
     /tmp/cczOroum.s:1103   .text:0000000000000668 .L0 
     /tmp/cczOroum.s:1196   .rodata.str1.8:00000000000000f8 .LC16
GAS LISTING /tmp/cczOroum.s 			page 68


     /tmp/cczOroum.s:1237   .text:0000000000000724 .L0 
     /tmp/cczOroum.s:1249   .text:0000000000000748 .L0 
     /tmp/cczOroum.s:1199   .rodata.str1.8:0000000000000100 .LC17
     /tmp/cczOroum.s:1264   .text:0000000000000768 .L0 
     /tmp/cczOroum.s:1202   .rodata.str1.8:0000000000000110 .LC18
     /tmp/cczOroum.s:1289   .text:0000000000000788 .L0 
     /tmp/cczOroum.s:1301   .text:00000000000007ac .L0 
     /tmp/cczOroum.s:1205   .rodata.str1.8:0000000000000118 .LC19
     /tmp/cczOroum.s:1313   .text:00000000000007cc .L0 
     /tmp/cczOroum.s:1326   .text:00000000000007f0 .L0 
     /tmp/cczOroum.s:1333   .text:0000000000000804 .L0 
     /tmp/cczOroum.s:1345   .text:0000000000000828 .L0 
     /tmp/cczOroum.s:1378   .rodata.str1.8:0000000000000128 .LC20
     /tmp/cczOroum.s:1416   .text:0000000000000880 .L0 
     /tmp/cczOroum.s:1428   .text:00000000000008a4 .L0 
     /tmp/cczOroum.s:1381   .rodata.str1.8:0000000000000130 .LC21
     /tmp/cczOroum.s:1443   .text:00000000000008c4 .L0 
     /tmp/cczOroum.s:1384   .rodata.str1.8:0000000000000140 .LC22
     /tmp/cczOroum.s:1466   .text:00000000000008f0 .L0 
     /tmp/cczOroum.s:1479   .text:0000000000000914 .L0 
     /tmp/cczOroum.s:1486   .text:0000000000000928 .L0 
     /tmp/cczOroum.s:1498   .text:000000000000094c .L0 
     /tmp/cczOroum.s:1560   .text:00000000000009a0 .L0 
     /tmp/cczOroum.s:1566   .text:00000000000009b4 .L0 
     /tmp/cczOroum.s:1572   .text:00000000000009c8 .L0 
     /tmp/cczOroum.s:1578   .text:00000000000009dc .L0 
     /tmp/cczOroum.s:1584   .text:00000000000009f0 .L0 
     /tmp/cczOroum.s:1531   .rodata.str1.8:0000000000000150 .LC23
     /tmp/cczOroum.s:1590   .text:0000000000000a04 .L0 
     /tmp/cczOroum.s:1596   .text:0000000000000a18 .L0 
     /tmp/cczOroum.s:1534   .rodata.str1.8:0000000000000168 .LC24
     /tmp/cczOroum.s:1602   .text:0000000000000a2c .L0 
     /tmp/cczOroum.s:1608   .text:0000000000000a3c .L0 
     /tmp/cczOroum.s:1670   .text:0000000000000a94 .L0 
     /tmp/cczOroum.s:1718   .text:0000000000000ae4 .L0 
     /tmp/cczOroum.s:1724   .text:0000000000000af8 .L0 
     /tmp/cczOroum.s:1730   .text:0000000000000b0c .L0 
     /tmp/cczOroum.s:1736   .text:0000000000000b20 .L0 
     /tmp/cczOroum.s:1742   .text:0000000000000b30 .L0 
     /tmp/cczOroum.s:1799   .text:0000000000000b88 .L0 
     /tmp/cczOroum.s:1858   .text:0000000000000be4 .L0 
     /tmp/cczOroum.s:1898   .text:0000000000000c2c .L0 
     /tmp/cczOroum.s:1919   .text:0000000000000c5c .L0 
     /tmp/cczOroum.s:1927   .text:0000000000000c6c .L0 
     /tmp/cczOroum.s:1970   .text:0000000000000cbc .L0 
     /tmp/cczOroum.s:121    .text:0000000000000040 .L11
     /tmp/cczOroum.s:114    .text:000000000000003c .L7
     /tmp/cczOroum.s:91     .text:000000000000001c .L8
     /tmp/cczOroum.s:104    .text:000000000000002c .L9
     /tmp/cczOroum.s:149    .text:0000000000000084 .L5
     /tmp/cczOroum.s:97     .text:0000000000000020 .L10
     /tmp/cczOroum.s:228    .text:00000000000000d8 .L19
     /tmp/cczOroum.s:221    .text:00000000000000d4 .L15
     /tmp/cczOroum.s:198    .text:00000000000000b4 .L16
     /tmp/cczOroum.s:211    .text:00000000000000c4 .L17
     /tmp/cczOroum.s:256    .text:000000000000011c .L13
     /tmp/cczOroum.s:204    .text:00000000000000b8 .L18
GAS LISTING /tmp/cczOroum.s 			page 69


     /tmp/cczOroum.s:545    .text:000000000000025c .L31
     /tmp/cczOroum.s:562    .text:0000000000000274 .L36
     /tmp/cczOroum.s:532    .text:000000000000023c .L33
     /tmp/cczOroum.s:651    .text:00000000000002f4 .L40
     /tmp/cczOroum.s:659    .text:0000000000000304 .L38
     /tmp/cczOroum.s:624    .text:00000000000002b0 .L39
     /tmp/cczOroum.s:618    .text:00000000000002a4 .L44
     /tmp/cczOroum.s:764    .text:00000000000003fc .L42
     /tmp/cczOroum.s:728    .text:00000000000003a0 .L45
     /tmp/cczOroum.s:868    .text:00000000000004a0 .L49
     /tmp/cczOroum.s:876    .text:00000000000004b0 .L47
     /tmp/cczOroum.s:841    .text:000000000000045c .L48
     /tmp/cczOroum.s:835    .text:0000000000000450 .L53
     /tmp/cczOroum.s:955    .text:0000000000000570 .L51
     /tmp/cczOroum.s:919    .text:0000000000000514 .L54
     /tmp/cczOroum.s:1053   .text:000000000000062c .L61
     /tmp/cczOroum.s:1042   .text:0000000000000610 .L57
     /tmp/cczOroum.s:1074   .text:0000000000000644 .L56
     /tmp/cczOroum.s:1097   .text:0000000000000668 .L58
     /tmp/cczOroum.s:1068   .text:0000000000000640 .L59
     /tmp/cczOroum.s:1059   .text:0000000000000634 .L60
     /tmp/cczOroum.s:1167   .text:00000000000006e0 .L63
     /tmp/cczOroum.s:1184   .text:00000000000006f8 .L68
     /tmp/cczOroum.s:1154   .text:00000000000006c0 .L65
     /tmp/cczOroum.s:1257   .text:0000000000000760 .L71
     /tmp/cczOroum.s:1234   .text:0000000000000724 .L75
     /tmp/cczOroum.s:1353   .text:0000000000000840 .L73
     /tmp/cczOroum.s:1330   .text:0000000000000804 .L76
     /tmp/cczOroum.s:1436   .text:00000000000008bc .L79
     /tmp/cczOroum.s:1413   .text:0000000000000880 .L83
     /tmp/cczOroum.s:1506   .text:0000000000000964 .L81
     /tmp/cczOroum.s:1483   .text:0000000000000928 .L84
     /tmp/cczOroum.s:1616   .text:0000000000000a58 .L91
     /tmp/cczOroum.s:1605   .text:0000000000000a3c .L87
     /tmp/cczOroum.s:1644   .text:0000000000000a78 .L86
     /tmp/cczOroum.s:1664   .text:0000000000000a94 .L88
     /tmp/cczOroum.s:1638   .text:0000000000000a74 .L89
     /tmp/cczOroum.s:1622   .text:0000000000000a60 .L93
     /tmp/cczOroum.s:1628   .text:0000000000000a68 .L90
     /tmp/cczOroum.s:1750   .text:0000000000000b4c .L100
     /tmp/cczOroum.s:1739   .text:0000000000000b30 .L96
     /tmp/cczOroum.s:1770   .text:0000000000000b64 .L95
     /tmp/cczOroum.s:1793   .text:0000000000000b88 .L97
     /tmp/cczOroum.s:1764   .text:0000000000000b60 .L98
     /tmp/cczOroum.s:1756   .text:0000000000000b54 .L99
     /tmp/cczOroum.s:1906   .text:0000000000000c48 .L103
     /tmp/cczOroum.s:1895   .text:0000000000000c2c .L104
     /tmp/cczOroum.s:1916   .text:0000000000000c5c .L105
     /tmp/cczOroum.s:350    .text._ZN14PeriodicThreadD2Ev:0000000000000010 .L0 
     /tmp/cczOroum.s:392    .text._ZN14PeriodicThreadD0Ev:0000000000000018 .L0 
     /tmp/cczOroum.s:1844   .text:0000000000000bcc .LEHB0
     /tmp/cczOroum.s:1823   .text:0000000000000bb0 .LFB46
     /tmp/cczOroum.s:1847   .text:0000000000000bd4 .LEHE0
     /tmp/cczOroum.s:1854   .text:0000000000000bdc .LEHB1
     /tmp/cczOroum.s:1857   .text:0000000000000be4 .LEHE1
     /tmp/cczOroum.s:1952   .text:0000000000000c9c .L108
     /tmp/cczOroum.s:1873   .text:0000000000000c00 .LEHB2
GAS LISTING /tmp/cczOroum.s 			page 70


     /tmp/cczOroum.s:1876   .text:0000000000000c08 .LEHE2
     /tmp/cczOroum.s:1887   .text:0000000000000c18 .LEHB3
     /tmp/cczOroum.s:1922   .text:0000000000000c6c .LEHE3
     /tmp/cczOroum.s:1963   .text:0000000000000cb8 .L109
     /tmp/cczOroum.s:1960   .text:0000000000000cb0 .LEHB4
     /tmp/cczOroum.s:1979   .text:0000000000000ce0 .LEHE4
     /tmp/cczOroum.s:5462   .debug_abbrev:0000000000000000 .Ldebug_abbrev0
     /tmp/cczOroum.s:8028   .debug_str:00000000000008e9 .LASF159
     /tmp/cczOroum.s:7982   .debug_str:00000000000007c7 .LASF160
     /tmp/cczOroum.s:8036   .debug_str:00000000000009e0 .LASF161
     /tmp/cczOroum.s:7708   .debug_ranges:0000000000000000 .Ldebug_ranges0
     /tmp/cczOroum.s:7740   .debug_line:0000000000000000 .Ldebug_line0
     /tmp/cczOroum.s:7860   .debug_str:000000000000040c .LASF0
     /tmp/cczOroum.s:7882   .debug_str:00000000000004d6 .LASF1
     /tmp/cczOroum.s:7972   .debug_str:000000000000078c .LASF2
     /tmp/cczOroum.s:7818   .debug_str:0000000000000259 .LASF3
     /tmp/cczOroum.s:7980   .debug_str:00000000000007c0 .LASF4
     /tmp/cczOroum.s:7868   .debug_str:000000000000044a .LASF5
     /tmp/cczOroum.s:7758   .debug_str:0000000000000083 .LASF6
     /tmp/cczOroum.s:7954   .debug_str:00000000000006d7 .LASF7
     /tmp/cczOroum.s:7938   .debug_str:000000000000064e .LASF8
     /tmp/cczOroum.s:7874   .debug_str:0000000000000484 .LASF9
     /tmp/cczOroum.s:7834   .debug_str:00000000000002fa .LASF10
     /tmp/cczOroum.s:7846   .debug_str:0000000000000377 .LASF11
     /tmp/cczOroum.s:7788   .debug_str:0000000000000179 .LASF12
     /tmp/cczOroum.s:7828   .debug_str:00000000000002d5 .LASF13
     /tmp/cczOroum.s:7800   .debug_str:00000000000001ce .LASF14
     /tmp/cczOroum.s:7786   .debug_str:0000000000000169 .LASF15
     /tmp/cczOroum.s:8010   .debug_str:0000000000000890 .LASF16
     /tmp/cczOroum.s:7814   .debug_str:000000000000022e .LASF17
     /tmp/cczOroum.s:8000   .debug_str:000000000000083c .LASF18
     /tmp/cczOroum.s:7994   .debug_str:000000000000081e .LASF59
     /tmp/cczOroum.s:8014   .debug_str:00000000000008a5 .LASF76
     /tmp/cczOroum.s:7804   .debug_str:00000000000001e7 .LASF19
     /tmp/cczOroum.s:8024   .debug_str:00000000000008d4 .LASF21
     /tmp/cczOroum.s:8078   .debug_str:0000000000000b4e .LASF20
     /tmp/cczOroum.s:7754   .debug_str:000000000000006c .LASF22
     /tmp/cczOroum.s:7780   .debug_str:0000000000000148 .LASF23
     /tmp/cczOroum.s:7742   .debug_str:0000000000000000 .LASF24
     /tmp/cczOroum.s:7750   .debug_str:0000000000000049 .LASF25
     /tmp/cczOroum.s:8008   .debug_str:0000000000000882 .LASF27
     /tmp/cczOroum.s:7998   .debug_str:0000000000000829 .LASF26
     /tmp/cczOroum.s:7942   .debug_str:000000000000066a .LASF28
     /tmp/cczOroum.s:8032   .debug_str:00000000000009c5 .LASF29
     /tmp/cczOroum.s:7824   .debug_str:0000000000000288 .LASF30
     /tmp/cczOroum.s:7932   .debug_str:0000000000000623 .LASF162
     /tmp/cczOroum.s:7770   .debug_str:00000000000000ec .LASF31
     /tmp/cczOroum.s:7886   .debug_str:00000000000004ff .LASF32
     /tmp/cczOroum.s:7830   .debug_str:00000000000002e4 .LASF34
     /tmp/cczOroum.s:7808   .debug_str:0000000000000205 .LASF33
     /tmp/cczOroum.s:7766   .debug_str:00000000000000c7 .LASF35
     /tmp/cczOroum.s:8026   .debug_str:00000000000008e1 .LASF36
     /tmp/cczOroum.s:7984   .debug_str:00000000000007db .LASF37
     /tmp/cczOroum.s:8082   .debug_str:0000000000000b62 .LASF38
     /tmp/cczOroum.s:8016   .debug_str:00000000000008ad .LASF39
     /tmp/cczOroum.s:7848   .debug_str:0000000000000385 .LASF41
     /tmp/cczOroum.s:7916   .debug_str:00000000000005d1 .LASF40
GAS LISTING /tmp/cczOroum.s 			page 71


     /tmp/cczOroum.s:7838   .debug_str:000000000000031d .LASF42
     /tmp/cczOroum.s:7894   .debug_str:0000000000000536 .LASF43
     /tmp/cczOroum.s:7764   .debug_str:00000000000000b1 .LASF44
     /tmp/cczOroum.s:7920   .debug_str:00000000000005ea .LASF45
     /tmp/cczOroum.s:7810   .debug_str:000000000000020e .LASF46
     /tmp/cczOroum.s:7774   .debug_str:0000000000000112 .LASF47
     /tmp/cczOroum.s:8030   .debug_str:00000000000009ad .LASF48
     /tmp/cczOroum.s:8038   .debug_str:0000000000000a03 .LASF49
     /tmp/cczOroum.s:7946   .debug_str:000000000000068e .LASF50
     /tmp/cczOroum.s:7928   .debug_str:0000000000000611 .LASF51
     /tmp/cczOroum.s:8046   .debug_str:0000000000000a42 .LASF52
     /tmp/cczOroum.s:7906   .debug_str:0000000000000579 .LASF53
     /tmp/cczOroum.s:7864   .debug_str:0000000000000423 .LASF54
     /tmp/cczOroum.s:7896   .debug_str:0000000000000540 .LASF55
     /tmp/cczOroum.s:7950   .debug_str:00000000000006b4 .LASF56
     /tmp/cczOroum.s:8058   .debug_str:0000000000000aaa .LASF57
     /tmp/cczOroum.s:7778   .debug_str:000000000000012c .LASF58
     /tmp/cczOroum.s:8062   .debug_str:0000000000000acb .LASF60
     /tmp/cczOroum.s:7878   .debug_str:00000000000004b9 .LASF61
     /tmp/cczOroum.s:7748   .debug_str:0000000000000044 .LASF62
     /tmp/cczOroum.s:8074   .debug_str:0000000000000b27 .LASF63
     /tmp/cczOroum.s:7996   .debug_str:0000000000000823 .LASF64
     /tmp/cczOroum.s:8042   .debug_str:0000000000000a20 .LASF65
     /tmp/cczOroum.s:8012   .debug_str:000000000000089c .LASF66
     /tmp/cczOroum.s:7802   .debug_str:00000000000001de .LASF67
     /tmp/cczOroum.s:7852   .debug_str:00000000000003b9 .LASF68
     /tmp/cczOroum.s:7772   .debug_str:000000000000010a .LASF69
     /tmp/cczOroum.s:7918   .debug_str:00000000000005dc .LASF70
     /tmp/cczOroum.s:7746   .debug_str:0000000000000037 .LASF71
     /tmp/cczOroum.s:7812   .debug_str:0000000000000220 .LASF72
     /tmp/cczOroum.s:8060   .debug_str:0000000000000aba .LASF73
     /tmp/cczOroum.s:7988   .debug_str:00000000000007eb .LASF81
     /tmp/cczOroum.s:7956   .debug_str:00000000000006de .LASF74
     /tmp/cczOroum.s:7976   .debug_str:00000000000007a4 .LASF75
     /tmp/cczOroum.s:8070   .debug_str:0000000000000b13 .LASF83
     /tmp/cczOroum.s:7826   .debug_str:00000000000002ac .LASF85
     /tmp/cczOroum.s:7948   .debug_str:00000000000006a6 .LASF163
     /tmp/cczOroum.s:7760   .debug_str:000000000000008a .LASF164
     /tmp/cczOroum.s:7992   .debug_str:0000000000000812 .LASF77
     /tmp/cczOroum.s:7790   .debug_str:0000000000000188 .LASF78
     /tmp/cczOroum.s:7880   .debug_str:00000000000004d1 .LASF79
     /tmp/cczOroum.s:8040   .debug_str:0000000000000a0f .LASF80
     /tmp/cczOroum.s:7962   .debug_str:0000000000000705 .LASF82
     /tmp/cczOroum.s:7862   .debug_str:0000000000000419 .LASF84
     /tmp/cczOroum.s:7964   .debug_str:0000000000000711 .LASF86
     /tmp/cczOroum.s:7914   .debug_str:00000000000005c1 .LASF87
     /tmp/cczOroum.s:7968   .debug_str:000000000000074b .LASF88
     /tmp/cczOroum.s:7908   .debug_str:0000000000000580 .LASF89
     /tmp/cczOroum.s:7910   .debug_str:000000000000058a .LASF90
     /tmp/cczOroum.s:7858   .debug_str:0000000000000403 .LASF91
     /tmp/cczOroum.s:7876   .debug_str:0000000000000497 .LASF92
     /tmp/cczOroum.s:7902   .debug_str:0000000000000568 .LASF93
     /tmp/cczOroum.s:7762   .debug_str:00000000000000a4 .LASF94
     /tmp/cczOroum.s:8018   .debug_str:00000000000008b8 .LASF95
     /tmp/cczOroum.s:7792   .debug_str:000000000000018d .LASF96
     /tmp/cczOroum.s:8044   .debug_str:0000000000000a28 .LASF97
     /tmp/cczOroum.s:8048   .debug_str:0000000000000a59 .LASF98
GAS LISTING /tmp/cczOroum.s 			page 72


     /tmp/cczOroum.s:7872   .debug_str:000000000000046c .LASF99
     /tmp/cczOroum.s:7842   .debug_str:000000000000034d .LASF103
     /tmp/cczOroum.s:7744   .debug_str:000000000000000d .LASF165
     /tmp/cczOroum.s:7898   .debug_str:0000000000000548 .LASF100
     /tmp/cczOroum.s:7854   .debug_str:00000000000003c1 .LASF101
     /tmp/cczOroum.s:7924   .debug_str:00000000000005fa .LASF102
     /tmp/cczOroum.s:7840   .debug_str:0000000000000335 .LASF166
     /tmp/cczOroum.s:8056   .debug_str:0000000000000aa3 .LASF167
     /tmp/cczOroum.s:7934   .debug_str:0000000000000628 .LASF168
     /tmp/cczOroum.s:7752   .debug_str:0000000000000059 .LASF142
     /tmp/cczOroum.s:8072   .debug_str:0000000000000b21 .LASF144
     /tmp/cczOroum.s:7866   .debug_str:0000000000000435 .LASF104
     /tmp/cczOroum.s:7856   .debug_str:00000000000003e9 .LASF110
     /tmp/cczOroum.s:1984   .text:0000000000000ce0 .LFE46
     /tmp/cczOroum.s:7974   .debug_str:000000000000079a .LASF105
     /tmp/cczOroum.s:7832   .debug_str:00000000000002f5 .LASF107
     /tmp/cczOroum.s:283    .text:0000000000000130 .LFB54
     /tmp/cczOroum.s:329    .text:0000000000000190 .LFE54
     /tmp/cczOroum.s:6992   .debug_loc:0000000000000000 .LLST8
     /tmp/cczOroum.s:303    .text:0000000000000158 .LVL30
     /tmp/cczOroum.s:310    .text:000000000000016c .LVL31
     /tmp/cczOroum.s:315    .text:000000000000017c .LVL32
     /tmp/cczOroum.s:8022   .debug_str:00000000000008c9 .LASF106
     /tmp/cczOroum.s:7756   .debug_str:0000000000000079 .LASF108
     /tmp/cczOroum.s:419    .text:0000000000000190 .LFB57
     /tmp/cczOroum.s:451    .text:00000000000001c4 .LFE57
     /tmp/cczOroum.s:7010   .debug_loc:000000000000004c .LLST12
     /tmp/cczOroum.s:432    .text:00000000000001a0 .LBB63
     /tmp/cczOroum.s:440    .text:00000000000001b4 .LBE63
     /tmp/cczOroum.s:7024   .debug_loc:0000000000000085 .LLST13
     /tmp/cczOroum.s:438    .text:00000000000001b4 .LVL43
     /tmp/cczOroum.s:457    .text:00000000000001c4 .LFB59
     /tmp/cczOroum.s:500    .text:0000000000000210 .LFE59
     /tmp/cczOroum.s:7038   .debug_loc:00000000000000be .LLST14
     /tmp/cczOroum.s:473    .text:00000000000001dc .LBB65
     /tmp/cczOroum.s:483    .text:00000000000001f0 .LBE65
     /tmp/cczOroum.s:7056   .debug_loc:000000000000010a .LLST15
     /tmp/cczOroum.s:474    .text:00000000000001dc .LBB66
     /tmp/cczOroum.s:482    .text:00000000000001f0 .LBE66
     /tmp/cczOroum.s:480    .text:00000000000001f0 .LVL46
     /tmp/cczOroum.s:487    .text:00000000000001fc .LVL47
     /tmp/cczOroum.s:7067   .debug_loc:0000000000000140 .LLST47
     /tmp/cczOroum.s:1850   .text:0000000000000bd8 .LBB85
     /tmp/cczOroum.s:1864   .text:0000000000000bf8 .LBE85
     /tmp/cczOroum.s:7078   .debug_loc:0000000000000176 .LLST48
     /tmp/cczOroum.s:7091   .debug_loc:00000000000001ae .LLST49
     /tmp/cczOroum.s:7104   .debug_loc:00000000000001e6 .LLST50
     /tmp/cczOroum.s:1856   .text:0000000000000be4 .LVL223
     /tmp/cczOroum.s:1866   .text:0000000000000bf8 .LBB87
     /tmp/cczOroum.s:1883   .text:0000000000000c14 .LBE87
     /tmp/cczOroum.s:7115   .debug_loc:000000000000021c .LLST51
     /tmp/cczOroum.s:7123   .debug_loc:0000000000000240 .LLST52
     /tmp/cczOroum.s:7131   .debug_loc:0000000000000264 .LLST53
     /tmp/cczOroum.s:1875   .text:0000000000000c08 .LVL226
     /tmp/cczOroum.s:1923   .text:0000000000000c6c .LBB90
     /tmp/cczOroum.s:1935   .text:0000000000000c84 .LBE90
     /tmp/cczOroum.s:7150   .debug_loc:00000000000002b1 .LLST54
GAS LISTING /tmp/cczOroum.s 			page 73


     /tmp/cczOroum.s:1924   .text:0000000000000c6c .LBB91
     /tmp/cczOroum.s:1934   .text:0000000000000c84 .LBE91
     /tmp/cczOroum.s:1932   .text:0000000000000c84 .LVL234
     /tmp/cczOroum.s:1966   .text:0000000000000cbc .LBB93
     /tmp/cczOroum.s:1982   .text:0000000000000ce0 .LBE93
     /tmp/cczOroum.s:7169   .debug_loc:00000000000002fe .LLST56
     /tmp/cczOroum.s:1967   .text:0000000000000cbc .LBB94
     /tmp/cczOroum.s:1981   .text:0000000000000ce0 .LBE94
     /tmp/cczOroum.s:1975   .text:0000000000000cd4 .LVL241
     /tmp/cczOroum.s:1846   .text:0000000000000bd4 .LVL221
     /tmp/cczOroum.s:1889   .text:0000000000000c20 .LVL228
     /tmp/cczOroum.s:1894   .text:0000000000000c2c .LVL229
     /tmp/cczOroum.s:1904   .text:0000000000000c44 .LVL230
     /tmp/cczOroum.s:1915   .text:0000000000000c5c .LVL231
     /tmp/cczOroum.s:1921   .text:0000000000000c6c .LVL232
     /tmp/cczOroum.s:1958   .text:0000000000000cac .LVL237
     /tmp/cczOroum.s:1962   .text:0000000000000cb8 .LVL238
     /tmp/cczOroum.s:1978   .text:0000000000000ce0 .LVL242
     /tmp/cczOroum.s:7784   .debug_str:000000000000015d .LASF109
     /tmp/cczOroum.s:7768   .debug_str:00000000000000db .LASF111
     /tmp/cczOroum.s:2018   .text:0000000000000ce0 .LFB55
     /tmp/cczOroum.s:2047   .text:0000000000000d10 .LFE55
     /tmp/cczOroum.s:2032   .text:0000000000000cf8 .LVL243
     /tmp/cczOroum.s:2036   .text:0000000000000d00 .LVL244
     /tmp/cczOroum.s:8084   .debug_str:0000000000000b69 .LASF112
     /tmp/cczOroum.s:373    .text._ZN14PeriodicThreadD0Ev:0000000000000000 .LFB51
     /tmp/cczOroum.s:413    .text._ZN14PeriodicThreadD0Ev:000000000000004c .LFE51
     /tmp/cczOroum.s:7188   .debug_loc:000000000000034b .LLST10
     /tmp/cczOroum.s:389    .text._ZN14PeriodicThreadD0Ev:0000000000000018 .LBB61
     /tmp/cczOroum.s:397    .text._ZN14PeriodicThreadD0Ev:000000000000002c .LBE61
     /tmp/cczOroum.s:7206   .debug_loc:0000000000000397 .LLST11
     /tmp/cczOroum.s:395    .text._ZN14PeriodicThreadD0Ev:000000000000002c .LVL38
     /tmp/cczOroum.s:400    .text._ZN14PeriodicThreadD0Ev:0000000000000038 .LVL39
     /tmp/cczOroum.s:7970   .debug_str:0000000000000774 .LASF113
     /tmp/cczOroum.s:336    .text._ZN14PeriodicThreadD2Ev:0000000000000000 .LFB49
     /tmp/cczOroum.s:364    .text._ZN14PeriodicThreadD2Ev:0000000000000034 .LFE49
     /tmp/cczOroum.s:7217   .debug_loc:00000000000003cd .LLST9
     /tmp/cczOroum.s:353    .text._ZN14PeriodicThreadD2Ev:0000000000000024 .LVL35
     /tmp/cczOroum.s:7844   .debug_str:0000000000000360 .LASF114
     /tmp/cczOroum.s:7850   .debug_str:000000000000039d .LASF115
     /tmp/cczOroum.s:1694   .text:0000000000000abc .LFB45
     /tmp/cczOroum.s:1817   .text:0000000000000bb0 .LFE45
     /tmp/cczOroum.s:7986   .debug_str:00000000000007e3 .LASF116
     /tmp/cczOroum.s:1751   .text:0000000000000b4c .LBB80
     /tmp/cczOroum.s:1796   .text:0000000000000b88 .LBE80
     /tmp/cczOroum.s:7231   .debug_loc:0000000000000406 .LLST43
     /tmp/cczOroum.s:8004   .debug_str:0000000000000863 .LASF117
     /tmp/cczOroum.s:8020   .debug_str:00000000000008bd .LASF121
     /tmp/cczOroum.s:7242   .debug_loc:000000000000043c .LLST44
     /tmp/cczOroum.s:7922   .debug_str:00000000000005f0 .LASF118
     /tmp/cczOroum.s:1757   .text:0000000000000b54 .LBB81
     /tmp/cczOroum.s:1766   .text:0000000000000b60 .LBE81
     /tmp/cczOroum.s:7249   .debug_loc:000000000000045f .LLST45
     /tmp/cczOroum.s:1763   .text:0000000000000b60 .LVL213
     /tmp/cczOroum.s:1781   .text:0000000000000b74 .LBB83
     /tmp/cczOroum.s:1795   .text:0000000000000b88 .LBE83
     /tmp/cczOroum.s:7256   .debug_loc:0000000000000482 .LLST46
GAS LISTING /tmp/cczOroum.s 			page 74


     /tmp/cczOroum.s:1790   .text:0000000000000b84 .LVL217
     /tmp/cczOroum.s:1721   .text:0000000000000af8 .LVL207
     /tmp/cczOroum.s:1726   .text:0000000000000b08 .LVL208
     /tmp/cczOroum.s:1733   .text:0000000000000b20 .LVL209
     /tmp/cczOroum.s:1738   .text:0000000000000b30 .LVL210
     /tmp/cczOroum.s:1748   .text:0000000000000b48 .LVL211
     /tmp/cczOroum.s:1801   .text:0000000000000b98 .LVL219
     /tmp/cczOroum.s:8052   .debug_str:0000000000000a7a .LASF119
     /tmp/cczOroum.s:8054   .debug_str:0000000000000a8c .LASF120
     /tmp/cczOroum.s:1541   .text:0000000000000984 .LFB44
     /tmp/cczOroum.s:1688   .text:0000000000000abc .LFE44
     /tmp/cczOroum.s:1617   .text:0000000000000a58 .LBB73
     /tmp/cczOroum.s:1667   .text:0000000000000a94 .LBE73
     /tmp/cczOroum.s:7263   .debug_loc:00000000000004a5 .LLST39
     /tmp/cczOroum.s:7274   .debug_loc:00000000000004db .LLST40
     /tmp/cczOroum.s:1623   .text:0000000000000a60 .LBB74
     /tmp/cczOroum.s:7281   .debug_loc:00000000000004fe .LLST41
     /tmp/cczOroum.s:1627   .text:0000000000000a68 .LVL199
     /tmp/cczOroum.s:1631   .text:0000000000000a68 .LBB77
     /tmp/cczOroum.s:1640   .text:0000000000000a74 .LBE77
     /tmp/cczOroum.s:7292   .debug_loc:0000000000000534 .LLST42
     /tmp/cczOroum.s:1637   .text:0000000000000a74 .LVL200
     /tmp/cczOroum.s:1563   .text:00000000000009b4 .LVL189
     /tmp/cczOroum.s:1568   .text:00000000000009c4 .LVL190
     /tmp/cczOroum.s:1575   .text:00000000000009dc .LVL191
     /tmp/cczOroum.s:1580   .text:00000000000009ec .LVL192
     /tmp/cczOroum.s:1587   .text:0000000000000a04 .LVL193
     /tmp/cczOroum.s:1592   .text:0000000000000a14 .LVL194
     /tmp/cczOroum.s:1599   .text:0000000000000a2c .LVL195
     /tmp/cczOroum.s:1604   .text:0000000000000a3c .LVL196
     /tmp/cczOroum.s:1614   .text:0000000000000a54 .LVL197
     /tmp/cczOroum.s:1672   .text:0000000000000aa4 .LVL205
     /tmp/cczOroum.s:7888   .debug_str:0000000000000505 .LASF122
     /tmp/cczOroum.s:7944   .debug_str:0000000000000678 .LASF123
     /tmp/cczOroum.s:1391   .text:0000000000000860 .LFB43
     /tmp/cczOroum.s:1527   .text:0000000000000984 .LFE43
     /tmp/cczOroum.s:7299   .debug_loc:0000000000000557 .LLST36
     /tmp/cczOroum.s:7313   .debug_loc:0000000000000590 .LLST37
     /tmp/cczOroum.s:8080   .debug_str:0000000000000b5b .LASF124
     /tmp/cczOroum.s:7333   .debug_loc:00000000000005ed .LLST38
     /tmp/cczOroum.s:1418   .text:0000000000000890 .LVL169
     /tmp/cczOroum.s:1425   .text:00000000000008a4 .LVL170
     /tmp/cczOroum.s:1430   .text:00000000000008b4 .LVL171
     /tmp/cczOroum.s:1445   .text:00000000000008d4 .LVL174
     /tmp/cczOroum.s:1456   .text:00000000000008e0 .LVL175
     /tmp/cczOroum.s:1461   .text:00000000000008ec .LVL176
     /tmp/cczOroum.s:1469   .text:0000000000000900 .LVL179
     /tmp/cczOroum.s:1476   .text:0000000000000914 .LVL180
     /tmp/cczOroum.s:1481   .text:0000000000000924 .LVL181
     /tmp/cczOroum.s:1488   .text:0000000000000938 .LVL182
     /tmp/cczOroum.s:1495   .text:000000000000094c .LVL183
     /tmp/cczOroum.s:1500   .text:000000000000095c .LVL184
     /tmp/cczOroum.s:7820   .debug_str:000000000000025f .LASF125
     /tmp/cczOroum.s:8064   .debug_str:0000000000000add .LASF126
     /tmp/cczOroum.s:1212   .text:0000000000000704 .LFB42
     /tmp/cczOroum.s:1374   .text:0000000000000860 .LFE42
     /tmp/cczOroum.s:7344   .debug_loc:0000000000000623 .LLST32
GAS LISTING /tmp/cczOroum.s 			page 75


     /tmp/cczOroum.s:7358   .debug_loc:000000000000065c .LLST33
     /tmp/cczOroum.s:7378   .debug_loc:00000000000006b9 .LLST34
     /tmp/cczOroum.s:7386   .debug_loc:00000000000006dd .LLST35
     /tmp/cczOroum.s:1239   .text:0000000000000734 .LVL142
     /tmp/cczOroum.s:1246   .text:0000000000000748 .LVL143
     /tmp/cczOroum.s:1251   .text:0000000000000758 .LVL144
     /tmp/cczOroum.s:1266   .text:0000000000000778 .LVL147
     /tmp/cczOroum.s:1277   .text:0000000000000784 .LVL148
     /tmp/cczOroum.s:1291   .text:0000000000000798 .LVL150
     /tmp/cczOroum.s:1298   .text:00000000000007ac .LVL151
     /tmp/cczOroum.s:1303   .text:00000000000007bc .LVL152
     /tmp/cczOroum.s:1308   .text:00000000000007c8 .LVL153
     /tmp/cczOroum.s:1316   .text:00000000000007dc .LVL156
     /tmp/cczOroum.s:1323   .text:00000000000007f0 .LVL157
     /tmp/cczOroum.s:1328   .text:0000000000000800 .LVL158
     /tmp/cczOroum.s:1335   .text:0000000000000814 .LVL159
     /tmp/cczOroum.s:1342   .text:0000000000000828 .LVL160
     /tmp/cczOroum.s:1347   .text:0000000000000838 .LVL161
     /tmp/cczOroum.s:7890   .debug_str:0000000000000515 .LASF127
     /tmp/cczOroum.s:7822   .debug_str:0000000000000271 .LASF128
     /tmp/cczOroum.s:177    .text:0000000000000098 .LFB41
     /tmp/cczOroum.s:273    .text:0000000000000130 .LFE41
     /tmp/cczOroum.s:7397   .debug_loc:0000000000000713 .LLST4
     /tmp/cczOroum.s:193    .text:00000000000000ac .LBB54
     /tmp/cczOroum.s:259    .text:000000000000011c .LBE54
     /tmp/cczOroum.s:7411   .debug_loc:000000000000074c .LLST5
     /tmp/cczOroum.s:7423   .debug_loc:0000000000000783 .LLST6
     /tmp/cczOroum.s:208    .text:00000000000000c0 .LBB57
     /tmp/cczOroum.s:222    .text:00000000000000d4 .LBE57
     /tmp/cczOroum.s:7435   .debug_loc:00000000000007ba .LLST7
     /tmp/cczOroum.s:237    .text:00000000000000f0 .LVL23
     /tmp/cczOroum.s:244    .text:0000000000000104 .LVL24
     /tmp/cczOroum.s:249    .text:0000000000000114 .LVL25
     /tmp/cczOroum.s:7892   .debug_str:0000000000000526 .LASF129
     /tmp/cczOroum.s:7990   .debug_str:00000000000007fc .LASF130
     /tmp/cczOroum.s:69     .text:0000000000000000 .LFB40
     /tmp/cczOroum.s:166    .text:0000000000000098 .LFE40
     /tmp/cczOroum.s:7446   .debug_loc:00000000000007f0 .LLST0
     /tmp/cczOroum.s:86     .text:0000000000000014 .LBB48
     /tmp/cczOroum.s:152    .text:0000000000000084 .LBE48
     /tmp/cczOroum.s:7460   .debug_loc:0000000000000829 .LLST1
     /tmp/cczOroum.s:7472   .debug_loc:0000000000000860 .LLST2
     /tmp/cczOroum.s:101    .text:0000000000000028 .LBB51
     /tmp/cczOroum.s:115    .text:000000000000003c .LBE51
     /tmp/cczOroum.s:7484   .debug_loc:0000000000000897 .LLST3
     /tmp/cczOroum.s:130    .text:0000000000000058 .LVL10
     /tmp/cczOroum.s:137    .text:000000000000006c .LVL11
     /tmp/cczOroum.s:142    .text:000000000000007c .LVL12
     /tmp/cczOroum.s:7900   .debug_str:0000000000000558 .LASF137
     /tmp/cczOroum.s:7816   .debug_str:0000000000000244 .LASF139
     /tmp/cczOroum.s:1127   .text:0000000000000690 .LFB39
     /tmp/cczOroum.s:1192   .text:0000000000000704 .LFE39
     /tmp/cczOroum.s:7495   .debug_loc:00000000000008cd .LLST31
     /tmp/cczOroum.s:1159   .text:00000000000006cc .LVL134
     /tmp/cczOroum.s:1164   .text:00000000000006dc .LVL135
     /tmp/cczOroum.s:1189   .text:0000000000000700 .LVL138
     /tmp/cczOroum.s:7978   .debug_str:00000000000007af .LASF131
GAS LISTING /tmp/cczOroum.s 			page 76


     /tmp/cczOroum.s:7884   .debug_str:00000000000004e9 .LASF132
     /tmp/cczOroum.s:998    .text:00000000000005a0 .LFB38
     /tmp/cczOroum.s:1121   .text:0000000000000690 .LFE38
     /tmp/cczOroum.s:1054   .text:000000000000062c .LBB68
     /tmp/cczOroum.s:1100   .text:0000000000000668 .LBE68
     /tmp/cczOroum.s:7517   .debug_loc:000000000000092c .LLST27
     /tmp/cczOroum.s:7528   .debug_loc:0000000000000962 .LLST28
     /tmp/cczOroum.s:1060   .text:0000000000000634 .LBB69
     /tmp/cczOroum.s:1070   .text:0000000000000640 .LBE69
     /tmp/cczOroum.s:7535   .debug_loc:0000000000000985 .LLST29
     /tmp/cczOroum.s:1067   .text:0000000000000640 .LVL124
     /tmp/cczOroum.s:1085   .text:0000000000000654 .LBB71
     /tmp/cczOroum.s:1099   .text:0000000000000668 .LBE71
     /tmp/cczOroum.s:7542   .debug_loc:00000000000009a8 .LLST30
     /tmp/cczOroum.s:1094   .text:0000000000000664 .LVL128
     /tmp/cczOroum.s:1024   .text:00000000000005d8 .LVL118
     /tmp/cczOroum.s:1029   .text:00000000000005e8 .LVL119
     /tmp/cczOroum.s:1036   .text:0000000000000600 .LVL120
     /tmp/cczOroum.s:1041   .text:0000000000000610 .LVL121
     /tmp/cczOroum.s:1051   .text:0000000000000628 .LVL122
     /tmp/cczOroum.s:1105   .text:0000000000000678 .LVL130
     /tmp/cczOroum.s:8066   .debug_str:0000000000000af5 .LASF133
     /tmp/cczOroum.s:7936   .debug_str:0000000000000639 .LASF134
     /tmp/cczOroum.s:810    .text:000000000000042c .LFB37
     /tmp/cczOroum.s:981    .text:00000000000005a0 .LFE37
     /tmp/cczOroum.s:7549   .debug_loc:00000000000009cb .LLST23
     /tmp/cczOroum.s:7563   .debug_loc:0000000000000a04 .LLST24
     /tmp/cczOroum.s:7570   .debug_loc:0000000000000a27 .LLST25
     /tmp/cczOroum.s:7590   .debug_loc:0000000000000a84 .LLST26
     /tmp/cczOroum.s:840    .text:000000000000045c .LVL92
     /tmp/cczOroum.s:845    .text:0000000000000464 .LVL93
     /tmp/cczOroum.s:850    .text:0000000000000474 .LVL94
     /tmp/cczOroum.s:857    .text:0000000000000488 .LVL95
     /tmp/cczOroum.s:862    .text:0000000000000498 .LVL96
     /tmp/cczOroum.s:881    .text:00000000000004c0 .LVL99
     /tmp/cczOroum.s:892    .text:00000000000004cc .LVL100
     /tmp/cczOroum.s:897    .text:00000000000004d8 .LVL101
     /tmp/cczOroum.s:905    .text:00000000000004ec .LVL104
     /tmp/cczOroum.s:912    .text:0000000000000500 .LVL105
     /tmp/cczOroum.s:917    .text:0000000000000510 .LVL106
     /tmp/cczOroum.s:923    .text:000000000000051c .LVL107
     /tmp/cczOroum.s:927    .text:0000000000000524 .LVL108
     /tmp/cczOroum.s:932    .text:0000000000000534 .LVL109
     /tmp/cczOroum.s:937    .text:0000000000000544 .LVL110
     /tmp/cczOroum.s:944    .text:0000000000000558 .LVL111
     /tmp/cczOroum.s:949    .text:0000000000000568 .LVL112
     /tmp/cczOroum.s:964    .text:0000000000000588 .LVL115
     /tmp/cczOroum.s:7870   .debug_str:000000000000045c .LASF135
     /tmp/cczOroum.s:7796   .debug_str:00000000000001a9 .LASF136
     /tmp/cczOroum.s:593    .text:0000000000000280 .LFB36
     /tmp/cczOroum.s:790    .text:000000000000042c .LFE36
     /tmp/cczOroum.s:7601   .debug_loc:0000000000000aba .LLST18
     /tmp/cczOroum.s:7615   .debug_loc:0000000000000af3 .LLST19
     /tmp/cczOroum.s:7622   .debug_loc:0000000000000b16 .LLST20
     /tmp/cczOroum.s:7642   .debug_loc:0000000000000b73 .LLST21
     /tmp/cczOroum.s:7654   .debug_loc:0000000000000baa .LLST22
     /tmp/cczOroum.s:623    .text:00000000000002b0 .LVL59
GAS LISTING /tmp/cczOroum.s 			page 77


     /tmp/cczOroum.s:628    .text:00000000000002b8 .LVL60
     /tmp/cczOroum.s:633    .text:00000000000002c8 .LVL61
     /tmp/cczOroum.s:640    .text:00000000000002dc .LVL62
     /tmp/cczOroum.s:645    .text:00000000000002ec .LVL63
     /tmp/cczOroum.s:664    .text:0000000000000314 .LVL66
     /tmp/cczOroum.s:675    .text:0000000000000320 .LVL67
     /tmp/cczOroum.s:689    .text:0000000000000334 .LVL69
     /tmp/cczOroum.s:696    .text:0000000000000348 .LVL70
     /tmp/cczOroum.s:701    .text:0000000000000358 .LVL71
     /tmp/cczOroum.s:706    .text:0000000000000364 .LVL72
     /tmp/cczOroum.s:714    .text:0000000000000378 .LVL75
     /tmp/cczOroum.s:721    .text:000000000000038c .LVL76
     /tmp/cczOroum.s:726    .text:000000000000039c .LVL77
     /tmp/cczOroum.s:732    .text:00000000000003a8 .LVL78
     /tmp/cczOroum.s:736    .text:00000000000003b0 .LVL79
     /tmp/cczOroum.s:741    .text:00000000000003c0 .LVL80
     /tmp/cczOroum.s:746    .text:00000000000003d0 .LVL81
     /tmp/cczOroum.s:753    .text:00000000000003e4 .LVL82
     /tmp/cczOroum.s:758    .text:00000000000003f4 .LVL83
     /tmp/cczOroum.s:773    .text:0000000000000414 .LVL86
     /tmp/cczOroum.s:7776   .debug_str:000000000000011e .LASF138
     /tmp/cczOroum.s:7836   .debug_str:000000000000030a .LASF140
     /tmp/cczOroum.s:506    .text:0000000000000210 .LFB35
     /tmp/cczOroum.s:570    .text:0000000000000280 .LFE35
     /tmp/cczOroum.s:7665   .debug_loc:0000000000000be0 .LLST17
     /tmp/cczOroum.s:537    .text:0000000000000248 .LVL51
     /tmp/cczOroum.s:542    .text:0000000000000258 .LVL52
     /tmp/cczOroum.s:567    .text:000000000000027c .LVL55
     /tmp/cczOroum.s:37     .text._ZN14PeriodicThread18periodicActivationEv:0000000000000000 .LFB34
     /tmp/cczOroum.s:55     .text._ZN14PeriodicThread18periodicActivationEv:0000000000000018 .LFE34
     /tmp/cczOroum.s:11     .text._ZN6Thread3runEv:0000000000000000 .LFB33
     /tmp/cczOroum.s:30     .text._ZN6Thread3runEv:0000000000000018 .LFE33
     /tmp/cczOroum.s:7782   .debug_str:0000000000000158 .LASF141
     /tmp/cczOroum.s:7794   .debug_str:000000000000019c .LASF169
     /tmp/cczOroum.s:8006   .debug_str:000000000000086f .LASF143
     /tmp/cczOroum.s:7958   .debug_str:00000000000006e9 .LASF145
     /tmp/cczOroum.s:7798   .debug_str:00000000000001bf .LASF146
     /tmp/cczOroum.s:7940   .debug_str:0000000000000661 .LASF147
     /tmp/cczOroum.s:7930   .debug_str:000000000000061c .LASF148
     /tmp/cczOroum.s:8050   .debug_str:0000000000000a74 .LASF149
     /tmp/cczOroum.s:8068   .debug_str:0000000000000b04 .LASF170
     /tmp/cczOroum.s:7806   .debug_str:00000000000001ed .LASF171
     /tmp/cczOroum.s:7926   .debug_str:000000000000060a .LASF150
     /tmp/cczOroum.s:8076   .debug_str:0000000000000b2c .LASF151
     /tmp/cczOroum.s:8034   .debug_str:00000000000009d2 .LASF152
     /tmp/cczOroum.s:7912   .debug_str:00000000000005ac .LASF153
     /tmp/cczOroum.s:7960   .debug_str:00000000000006f5 .LASF154
     /tmp/cczOroum.s:7952   .debug_str:00000000000006c7 .LASF155
     /tmp/cczOroum.s:7966   .debug_str:0000000000000740 .LASF156
     /tmp/cczOroum.s:8002   .debug_str:0000000000000852 .LASF157
     /tmp/cczOroum.s:7904   .debug_str:000000000000056d .LASF158
     /tmp/cczOroum.s:286    .text:0000000000000130 .LVL28
     /tmp/cczOroum.s:301    .text:0000000000000150 .LVL29
     /tmp/cczOroum.s:324    .text:0000000000000188 .LVL33
     /tmp/cczOroum.s:422    .text:0000000000000190 .LVL41
     /tmp/cczOroum.s:431    .text:00000000000001a0 .LVL42
     /tmp/cczOroum.s:460    .text:00000000000001c4 .LVL44
GAS LISTING /tmp/cczOroum.s 			page 78


     /tmp/cczOroum.s:495    .text:0000000000000208 .LVL48
     /tmp/cczOroum.s:472    .text:00000000000001dc .LVL45
     /tmp/cczOroum.s:1862   .text:0000000000000bf8 .LVL224
     /tmp/cczOroum.s:1945   .text:0000000000000c90 .LVL235
     /tmp/cczOroum.s:1965   .text:0000000000000cbc .LVL239
     /tmp/cczOroum.s:1849   .text:0000000000000bd8 .LVL222
     /tmp/cczOroum.s:1951   .text:0000000000000c9c .LVL236
     /tmp/cczOroum.s:1880   .text:0000000000000c14 .LVL227
     /tmp/cczOroum.s:1872   .text:0000000000000c00 .LVL225
     /tmp/cczOroum.s:1930   .text:0000000000000c7c .LVL233
     /tmp/cczOroum.s:1973   .text:0000000000000ccc .LVL240
     /tmp/cczOroum.s:376    .text._ZN14PeriodicThreadD0Ev:0000000000000000 .LVL36
     /tmp/cczOroum.s:408    .text._ZN14PeriodicThreadD0Ev:0000000000000044 .LVL40
     /tmp/cczOroum.s:388    .text._ZN14PeriodicThreadD0Ev:0000000000000018 .LVL37
     /tmp/cczOroum.s:339    .text._ZN14PeriodicThreadD2Ev:0000000000000000 .LVL34
     /tmp/cczOroum.s:1755   .text:0000000000000b54 .LVL212
     /tmp/cczOroum.s:1769   .text:0000000000000b64 .LVL214
     /tmp/cczOroum.s:1774   .text:0000000000000b6c .LVL215
     /tmp/cczOroum.s:1792   .text:0000000000000b88 .LVL218
     /tmp/cczOroum.s:1810   .text:0000000000000ba4 .LVL220
     /tmp/cczOroum.s:1780   .text:0000000000000b74 .LVL216
     /tmp/cczOroum.s:1621   .text:0000000000000a60 .LVL198
     /tmp/cczOroum.s:1643   .text:0000000000000a78 .LVL201
     /tmp/cczOroum.s:1648   .text:0000000000000a80 .LVL202
     /tmp/cczOroum.s:1663   .text:0000000000000a94 .LVL204
     /tmp/cczOroum.s:1681   .text:0000000000000ab0 .LVL206
     /tmp/cczOroum.s:1654   .text:0000000000000a88 .LVL203
     /tmp/cczOroum.s:1394   .text:0000000000000860 .LVL166
     /tmp/cczOroum.s:1412   .text:0000000000000880 .LVL168
     /tmp/cczOroum.s:1408   .text:0000000000000878 .LVL167
     /tmp/cczOroum.s:1433   .text:00000000000008b8 .LVL172
     /tmp/cczOroum.s:1435   .text:00000000000008bc .LVL173
     /tmp/cczOroum.s:1503   .text:0000000000000960 .LVL185
     /tmp/cczOroum.s:1505   .text:0000000000000964 .LVL186
     /tmp/cczOroum.s:1519   .text:0000000000000978 .LVL187
     /tmp/cczOroum.s:1463   .text:00000000000008f0 .LVL177
     /tmp/cczOroum.s:1467   .text:00000000000008f8 .LVL178
     /tmp/cczOroum.s:1522   .text:000000000000097c .LVL188
     /tmp/cczOroum.s:1215   .text:0000000000000704 .LVL139
     /tmp/cczOroum.s:1233   .text:0000000000000724 .LVL141
     /tmp/cczOroum.s:1229   .text:000000000000071c .LVL140
     /tmp/cczOroum.s:1254   .text:000000000000075c .LVL145
     /tmp/cczOroum.s:1256   .text:0000000000000760 .LVL146
     /tmp/cczOroum.s:1350   .text:000000000000083c .LVL162
     /tmp/cczOroum.s:1352   .text:0000000000000840 .LVL163
     /tmp/cczOroum.s:1366   .text:0000000000000854 .LVL164
     /tmp/cczOroum.s:1285   .text:0000000000000788 .LVL149
     /tmp/cczOroum.s:1310   .text:00000000000007cc .LVL154
     /tmp/cczOroum.s:1314   .text:00000000000007d4 .LVL155
     /tmp/cczOroum.s:1369   .text:0000000000000858 .LVL165
     /tmp/cczOroum.s:180    .text:0000000000000098 .LVL15
     /tmp/cczOroum.s:197    .text:00000000000000b4 .LVL17
     /tmp/cczOroum.s:192    .text:00000000000000ac .LVL16
     /tmp/cczOroum.s:268    .text:0000000000000128 .LVL27
     /tmp/cczOroum.s:227    .text:00000000000000d8 .LVL22
     /tmp/cczOroum.s:255    .text:000000000000011c .LVL26
     /tmp/cczOroum.s:203    .text:00000000000000b8 .LVL18
GAS LISTING /tmp/cczOroum.s 			page 79


     /tmp/cczOroum.s:212    .text:00000000000000c4 .LVL19
     /tmp/cczOroum.s:220    .text:00000000000000d4 .LVL21
     /tmp/cczOroum.s:73     .text:0000000000000000 .LVL2
     /tmp/cczOroum.s:90     .text:000000000000001c .LVL4
     /tmp/cczOroum.s:85     .text:0000000000000014 .LVL3
     /tmp/cczOroum.s:161    .text:0000000000000090 .LVL14
     /tmp/cczOroum.s:120    .text:0000000000000040 .LVL9
     /tmp/cczOroum.s:148    .text:0000000000000084 .LVL13
     /tmp/cczOroum.s:96     .text:0000000000000020 .LVL5
     /tmp/cczOroum.s:105    .text:000000000000002c .LVL6
     /tmp/cczOroum.s:113    .text:000000000000003c .LVL8
     /tmp/cczOroum.s:1130   .text:0000000000000690 .LVL132
     /tmp/cczOroum.s:1153   .text:00000000000006c0 .LVL133
     /tmp/cczOroum.s:1177   .text:00000000000006ec .LVL136
     /tmp/cczOroum.s:1183   .text:00000000000006f8 .LVL137
     /tmp/cczOroum.s:1058   .text:0000000000000634 .LVL123
     /tmp/cczOroum.s:1073   .text:0000000000000644 .LVL125
     /tmp/cczOroum.s:1078   .text:000000000000064c .LVL126
     /tmp/cczOroum.s:1096   .text:0000000000000668 .LVL129
     /tmp/cczOroum.s:1114   .text:0000000000000684 .LVL131
     /tmp/cczOroum.s:1084   .text:0000000000000654 .LVL127
     /tmp/cczOroum.s:813    .text:000000000000042c .LVL89
     /tmp/cczOroum.s:834    .text:0000000000000450 .LVL91
     /tmp/cczOroum.s:829    .text:0000000000000448 .LVL90
     /tmp/cczOroum.s:899    .text:00000000000004dc .LVL102
     /tmp/cczOroum.s:865    .text:000000000000049c .LVL97
     /tmp/cczOroum.s:867    .text:00000000000004a0 .LVL98
     /tmp/cczOroum.s:952    .text:000000000000056c .LVL113
     /tmp/cczOroum.s:954    .text:0000000000000570 .LVL114
     /tmp/cczOroum.s:973    .text:0000000000000594 .LVL116
     /tmp/cczOroum.s:903    .text:00000000000004e4 .LVL103
     /tmp/cczOroum.s:976    .text:0000000000000598 .LVL117
     /tmp/cczOroum.s:596    .text:0000000000000280 .LVL56
     /tmp/cczOroum.s:617    .text:00000000000002a4 .LVL58
     /tmp/cczOroum.s:612    .text:000000000000029c .LVL57
     /tmp/cczOroum.s:683    .text:0000000000000324 .LVL68
     /tmp/cczOroum.s:648    .text:00000000000002f0 .LVL64
     /tmp/cczOroum.s:650    .text:00000000000002f4 .LVL65
     /tmp/cczOroum.s:761    .text:00000000000003f8 .LVL84
     /tmp/cczOroum.s:763    .text:00000000000003fc .LVL85
     /tmp/cczOroum.s:782    .text:0000000000000420 .LVL87
     /tmp/cczOroum.s:708    .text:0000000000000368 .LVL73
     /tmp/cczOroum.s:712    .text:0000000000000370 .LVL74
     /tmp/cczOroum.s:785    .text:0000000000000424 .LVL88
     /tmp/cczOroum.s:509    .text:0000000000000210 .LVL49
     /tmp/cczOroum.s:531    .text:000000000000023c .LVL50
     /tmp/cczOroum.s:555    .text:0000000000000268 .LVL53
     /tmp/cczOroum.s:561    .text:0000000000000274 .LVL54
     /tmp/cczOroum.s:2081   .debug_info:0000000000000000 .Ldebug_info0
     /tmp/cczOroum.s:5      .text:0000000000000000 .Ltext0
     /tmp/cczOroum.s:2074   .text:0000000000000d10 .Letext0
     /tmp/cczOroum.s:93     .text:000000000000001c .LBB50
     /tmp/cczOroum.s:116    .text:000000000000003c .LBE50
     /tmp/cczOroum.s:144    .text:000000000000007c .LBB52
     /tmp/cczOroum.s:150    .text:0000000000000084 .LBE52
     /tmp/cczOroum.s:200    .text:00000000000000b4 .LBB56
     /tmp/cczOroum.s:223    .text:00000000000000d4 .LBE56
GAS LISTING /tmp/cczOroum.s 			page 80


     /tmp/cczOroum.s:251    .text:0000000000000114 .LBB58
     /tmp/cczOroum.s:257    .text:000000000000011c .LBE58
     /tmp/cczOroum.s:1630   .text:0000000000000a68 .LBE74
     /tmp/cczOroum.s:1655   .text:0000000000000a88 .LBB79
     /tmp/cczOroum.s:1666   .text:0000000000000a94 .LBE79
     /tmp/cczOroum.s:1987   .gcc_except_table:0000000000000000 .LLSDA46
                           .group:0000000000000000 _ZN14PeriodicThreadD5Ev

UNDEFINED SYMBOLS
_Z11printStringPKc
_Z8printIntiii
_ZN6ThreadD2Ev
_ZdlPv
_Z15thread_dispatchv
_Z10time_sleepm
_Z11thread_exitv
_Z13thread_createPP4KPCBPFvPvES2_
_ZN4KPCB7counterE
_ZN4KPCB5yieldEv
_ZN16KMemoryAllocator8mem_freeEPv
_ZdaPv
_Znwm
_ZN14PeriodicThreadC2Em
_ZN6Thread5startEv
_Unwind_Resume
__gxx_personality_v0
