GAS LISTING /tmp/ccpSQTOS.s 			page 1


   1              		.file	"test_memory.cpp"
   2              		.option pic
   3              		.option norelax
   4              		.text
   5              	.Ltext0:
   6              		.align	2
   7              		.globl	_Z12test_memory1v
   9              	_Z12test_memory1v:
  10              	.LFB0:
  11              		.file 1 "src/test_memory.cpp"
   1:src/test_memory.cpp **** //
   2:src/test_memory.cpp **** // Created by os on 6/22/22.
   3:src/test_memory.cpp **** //
   4:src/test_memory.cpp **** 
   5:src/test_memory.cpp **** #include "../h/syscall_c.h"
   6:src/test_memory.cpp **** 
   7:src/test_memory.cpp **** void test_memory1() {
  12              		.loc 1 7 21
  13              		.cfi_startproc
  14 0000 130101FE 		addi	sp,sp,-32
  15              		.cfi_def_cfa_offset 32
  16 0004 233C1100 		sd	ra,24(sp)
  17 0008 23388100 		sd	s0,16(sp)
  18 000c 23349100 		sd	s1,8(sp)
  19 0010 23302101 		sd	s2,0(sp)
  20              		.cfi_offset 1, -8
  21              		.cfi_offset 8, -16
  22              		.cfi_offset 9, -24
  23              		.cfi_offset 18, -32
  24 0014 13040102 		addi	s0,sp,32
  25              		.cfi_def_cfa 8, 0
   8:src/test_memory.cpp ****     char* z = new char;
  26              		.loc 1 8 5
  27              		.loc 1 8 19 is_stmt 0
  28 0018 13051000 		li	a0,1
  29 001c 97000000 		call	_Znwm@plt
  29      E7800000 
  30              	.LVL0:
  31 0024 93040500 		mv	s1,a0
  32              	.LVL1:
   9:src/test_memory.cpp ****     *z = 'z';
  33              		.loc 1 9 5 is_stmt 1
  34              		.loc 1 9 8 is_stmt 0
  35 0028 9307A007 		li	a5,122
  36 002c 2300F500 		sb	a5,0(a0)
  10:src/test_memory.cpp ****     putc(*z);
  37              		.loc 1 10 5 is_stmt 1
  38              		.loc 1 10 9 is_stmt 0
  39 0030 1305A007 		li	a0,122
  40 0034 97000000 		call	_Z4putcc@plt
  40      E7800000 
  41              	.LVL2:
  11:src/test_memory.cpp ****     putc('\n');
  42              		.loc 1 11 5 is_stmt 1
  43              		.loc 1 11 9 is_stmt 0
  44 003c 1305A000 		li	a0,10
  45 0040 97000000 		call	_Z4putcc@plt
GAS LISTING /tmp/ccpSQTOS.s 			page 2


  45      E7800000 
  46              	.LVL3:
  12:src/test_memory.cpp ****     delete z;
  47              		.loc 1 12 5 is_stmt 1
  48              		.loc 1 12 13 is_stmt 0
  49 0048 63880400 		beqz	s1,.L2
  50              		.loc 1 12 12 discriminator 1
  51 004c 13850400 		mv	a0,s1
  52 0050 97000000 		call	_ZdlPv@plt
  52      E7800000 
  53              	.LVL4:
  54              	.L2:
  13:src/test_memory.cpp ****     char* a = new char;
  55              		.loc 1 13 5 is_stmt 1
  56              		.loc 1 13 19 is_stmt 0
  57 0058 13051000 		li	a0,1
  58 005c 97000000 		call	_Znwm@plt
  58      E7800000 
  59              	.LVL5:
  60 0064 13090500 		mv	s2,a0
  61              	.LVL6:
  14:src/test_memory.cpp ****     *a = 'a';
  62              		.loc 1 14 5 is_stmt 1
  63              		.loc 1 14 8 is_stmt 0
  64 0068 93071006 		li	a5,97
  65 006c 2300F500 		sb	a5,0(a0)
  15:src/test_memory.cpp ****     putc(*a);
  66              		.loc 1 15 5 is_stmt 1
  67              		.loc 1 15 9 is_stmt 0
  68 0070 13051006 		li	a0,97
  69              	.LVL7:
  70 0074 97000000 		call	_Z4putcc@plt
  70      E7800000 
  71              	.LVL8:
  16:src/test_memory.cpp ****     putc('\n');
  72              		.loc 1 16 5 is_stmt 1
  73              		.loc 1 16 9 is_stmt 0
  74 007c 1305A000 		li	a0,10
  75 0080 97000000 		call	_Z4putcc@plt
  75      E7800000 
  76              	.LVL9:
  17:src/test_memory.cpp ****     char* b = new char;
  77              		.loc 1 17 5 is_stmt 1
  78              		.loc 1 17 19 is_stmt 0
  79 0088 13051000 		li	a0,1
  80 008c 97000000 		call	_Znwm@plt
  80      E7800000 
  81              	.LVL10:
  82 0094 93040500 		mv	s1,a0
  83              	.LVL11:
  18:src/test_memory.cpp ****     *b = 'b';
  84              		.loc 1 18 5 is_stmt 1
  85              		.loc 1 18 8 is_stmt 0
  86 0098 93072006 		li	a5,98
  87 009c 2300F500 		sb	a5,0(a0)
  19:src/test_memory.cpp ****     putc(*b);
  88              		.loc 1 19 5 is_stmt 1
GAS LISTING /tmp/ccpSQTOS.s 			page 3


  89              		.loc 1 19 9 is_stmt 0
  90 00a0 13052006 		li	a0,98
  91 00a4 97000000 		call	_Z4putcc@plt
  91      E7800000 
  92              	.LVL12:
  20:src/test_memory.cpp ****     putc('\n');
  93              		.loc 1 20 5 is_stmt 1
  94              		.loc 1 20 9 is_stmt 0
  95 00ac 1305A000 		li	a0,10
  96 00b0 97000000 		call	_Z4putcc@plt
  96      E7800000 
  97              	.LVL13:
  21:src/test_memory.cpp ****     delete a;
  98              		.loc 1 21 5 is_stmt 1
  99              		.loc 1 21 13 is_stmt 0
 100 00b8 63080900 		beqz	s2,.L3
 101              		.loc 1 21 12 discriminator 1
 102 00bc 13050900 		mv	a0,s2
 103 00c0 97000000 		call	_ZdlPv@plt
 103      E7800000 
 104              	.LVL14:
 105              	.L3:
  22:src/test_memory.cpp ****     char* c = new char;
 106              		.loc 1 22 5 is_stmt 1
 107              		.loc 1 22 19 is_stmt 0
 108 00c8 13051000 		li	a0,1
 109 00cc 97000000 		call	_Znwm@plt
 109      E7800000 
 110              	.LVL15:
 111 00d4 13090500 		mv	s2,a0
 112              	.LVL16:
  23:src/test_memory.cpp ****     *c = 'c';
 113              		.loc 1 23 5 is_stmt 1
 114              		.loc 1 23 8 is_stmt 0
 115 00d8 93073006 		li	a5,99
 116 00dc 2300F500 		sb	a5,0(a0)
  24:src/test_memory.cpp ****     putc(*c);
 117              		.loc 1 24 5 is_stmt 1
 118              		.loc 1 24 9 is_stmt 0
 119 00e0 13053006 		li	a0,99
 120              	.LVL17:
 121 00e4 97000000 		call	_Z4putcc@plt
 121      E7800000 
 122              	.LVL18:
  25:src/test_memory.cpp ****     putc('\n');
 123              		.loc 1 25 5 is_stmt 1
 124              		.loc 1 25 9 is_stmt 0
 125 00ec 1305A000 		li	a0,10
 126 00f0 97000000 		call	_Z4putcc@plt
 126      E7800000 
 127              	.LVL19:
  26:src/test_memory.cpp ****     delete c;
 128              		.loc 1 26 5 is_stmt 1
 129              		.loc 1 26 13 is_stmt 0
 130 00f8 63080900 		beqz	s2,.L4
 131              		.loc 1 26 12 discriminator 1
 132 00fc 13050900 		mv	a0,s2
GAS LISTING /tmp/ccpSQTOS.s 			page 4


 133 0100 97000000 		call	_ZdlPv@plt
 133      E7800000 
 134              	.LVL20:
 135              	.L4:
  27:src/test_memory.cpp ****     char* d = new char;
 136              		.loc 1 27 5 is_stmt 1
 137              		.loc 1 27 19 is_stmt 0
 138 0108 13051000 		li	a0,1
 139 010c 97000000 		call	_Znwm@plt
 139      E7800000 
 140              	.LVL21:
 141 0114 13090500 		mv	s2,a0
 142              	.LVL22:
  28:src/test_memory.cpp ****     *d = 'd';
 143              		.loc 1 28 5 is_stmt 1
 144              		.loc 1 28 8 is_stmt 0
 145 0118 93074006 		li	a5,100
 146 011c 2300F500 		sb	a5,0(a0)
  29:src/test_memory.cpp ****     putc(*d);
 147              		.loc 1 29 5 is_stmt 1
 148              		.loc 1 29 9 is_stmt 0
 149 0120 13054006 		li	a0,100
 150              	.LVL23:
 151 0124 97000000 		call	_Z4putcc@plt
 151      E7800000 
 152              	.LVL24:
  30:src/test_memory.cpp ****     putc('\n');
 153              		.loc 1 30 5 is_stmt 1
 154              		.loc 1 30 9 is_stmt 0
 155 012c 1305A000 		li	a0,10
 156 0130 97000000 		call	_Z4putcc@plt
 156      E7800000 
 157              	.LVL25:
  31:src/test_memory.cpp ****     delete d;
 158              		.loc 1 31 5 is_stmt 1
 159              		.loc 1 31 13 is_stmt 0
 160 0138 63080900 		beqz	s2,.L5
 161              		.loc 1 31 12 discriminator 1
 162 013c 13050900 		mv	a0,s2
 163 0140 97000000 		call	_ZdlPv@plt
 163      E7800000 
 164              	.LVL26:
 165              	.L5:
  32:src/test_memory.cpp ****     delete b;
 166              		.loc 1 32 5 is_stmt 1
 167              		.loc 1 32 13 is_stmt 0
 168 0148 63880400 		beqz	s1,.L6
 169              		.loc 1 32 12 discriminator 1
 170 014c 13850400 		mv	a0,s1
 171 0150 97000000 		call	_ZdlPv@plt
 171      E7800000 
 172              	.LVL27:
 173              	.L6:
  33:src/test_memory.cpp ****     char* e = new char[5];
 174              		.loc 1 33 5 is_stmt 1
 175              		.loc 1 33 25 is_stmt 0
 176 0158 13055000 		li	a0,5
GAS LISTING /tmp/ccpSQTOS.s 			page 5


 177 015c 97000000 		call	_Znam@plt
 177      E7800000 
 178              	.LVL28:
 179 0164 13090500 		mv	s2,a0
 180              	.LVL29:
  34:src/test_memory.cpp ****     *(e+0) = 'p';
 181              		.loc 1 34 5 is_stmt 1
 182              		.loc 1 34 12 is_stmt 0
 183 0168 93070007 		li	a5,112
 184 016c 2300F500 		sb	a5,0(a0)
  35:src/test_memory.cpp ****     *(e+1) = 'e';
 185              		.loc 1 35 5 is_stmt 1
 186              		.loc 1 35 12 is_stmt 0
 187 0170 93075006 		li	a5,101
 188 0174 A300F500 		sb	a5,1(a0)
  36:src/test_memory.cpp ****     *(e+2) = 'd';
 189              		.loc 1 36 5 is_stmt 1
 190              		.loc 1 36 12 is_stmt 0
 191 0178 93074006 		li	a5,100
 192 017c 2301F500 		sb	a5,2(a0)
  37:src/test_memory.cpp ****     *(e+3) = 'j';
 193              		.loc 1 37 5 is_stmt 1
 194              		.loc 1 37 12 is_stmt 0
 195 0180 9307A006 		li	a5,106
 196 0184 A301F500 		sb	a5,3(a0)
  38:src/test_memory.cpp ****     *(e+4) = 'a';
 197              		.loc 1 38 5 is_stmt 1
 198              		.loc 1 38 12 is_stmt 0
 199 0188 93071006 		li	a5,97
 200 018c 2302F500 		sb	a5,4(a0)
  39:src/test_memory.cpp ****     for (int i = 0; i < 5; i++)
 201              		.loc 1 39 5 is_stmt 1
 202              	.LVL30:
 203              	.LBB2:
 204              		.loc 1 39 14 is_stmt 0
 205 0190 93040000 		li	s1,0
 206              	.LVL31:
 207              	.L8:
 208              		.loc 1 39 23 is_stmt 1 discriminator 3
 209 0194 93074000 		li	a5,4
 210 0198 63CE9700 		bgt	s1,a5,.L7
  40:src/test_memory.cpp ****         putc(*(e+i));
 211              		.loc 1 40 9 discriminator 2
 212              		.loc 1 40 17 is_stmt 0 discriminator 2
 213 019c B3079900 		add	a5,s2,s1
 214              		.loc 1 40 13 discriminator 2
 215 01a0 03C50700 		lbu	a0,0(a5)
 216 01a4 97000000 		call	_Z4putcc@plt
 216      E7800000 
 217              	.LVL32:
  39:src/test_memory.cpp ****     for (int i = 0; i < 5; i++)
 218              		.loc 1 39 5 is_stmt 1 discriminator 2
 219 01ac 9B841400 		addiw	s1,s1,1
 220              	.LVL33:
 221 01b0 6FF05FFE 		j	.L8
 222              	.LVL34:
 223              	.L7:
GAS LISTING /tmp/ccpSQTOS.s 			page 6


 224              	.LBE2:
  41:src/test_memory.cpp ****     putc('\n');
 225              		.loc 1 41 5
 226              		.loc 1 41 9 is_stmt 0
 227 01b4 1305A000 		li	a0,10
 228 01b8 97000000 		call	_Z4putcc@plt
 228      E7800000 
 229              	.LVL35:
  42:src/test_memory.cpp ****     delete[] e;
 230              		.loc 1 42 5 is_stmt 1
 231              		.loc 1 42 15 is_stmt 0
 232 01c0 63080900 		beqz	s2,.L9
 233              		.loc 1 42 14 discriminator 1
 234 01c4 13050900 		mv	a0,s2
 235 01c8 97000000 		call	_ZdaPv@plt
 235      E7800000 
 236              	.LVL36:
 237              	.L9:
  43:src/test_memory.cpp ****     char* f = new char();
 238              		.loc 1 43 5 is_stmt 1
 239              		.loc 1 43 24 is_stmt 0
 240 01d0 13051000 		li	a0,1
 241 01d4 97000000 		call	_Znwm@plt
 241      E7800000 
 242              	.LVL37:
 243 01dc 93040500 		mv	s1,a0
 244              	.LVL38:
  44:src/test_memory.cpp ****     *f = 'f';
 245              		.loc 1 44 5 is_stmt 1
 246              		.loc 1 44 8 is_stmt 0
 247 01e0 93076006 		li	a5,102
 248 01e4 2300F500 		sb	a5,0(a0)
  45:src/test_memory.cpp ****     putc(*f);
 249              		.loc 1 45 5 is_stmt 1
 250              		.loc 1 45 9 is_stmt 0
 251 01e8 13056006 		li	a0,102
 252 01ec 97000000 		call	_Z4putcc@plt
 252      E7800000 
 253              	.LVL39:
  46:src/test_memory.cpp ****     putc('\n');
 254              		.loc 1 46 5 is_stmt 1
 255              		.loc 1 46 9 is_stmt 0
 256 01f4 1305A000 		li	a0,10
 257 01f8 97000000 		call	_Z4putcc@plt
 257      E7800000 
 258              	.LVL40:
  47:src/test_memory.cpp ****     delete f;
 259              		.loc 1 47 5 is_stmt 1
 260              		.loc 1 47 13 is_stmt 0
 261 0200 63880400 		beqz	s1,.L1
 262              		.loc 1 47 12 discriminator 1
 263 0204 13850400 		mv	a0,s1
 264 0208 97000000 		call	_ZdlPv@plt
 264      E7800000 
 265              	.LVL41:
 266              	.L1:
  48:src/test_memory.cpp **** }
GAS LISTING /tmp/ccpSQTOS.s 			page 7


 267              		.loc 1 48 1
 268 0210 83308101 		ld	ra,24(sp)
 269              		.cfi_restore 1
 270 0214 03340101 		ld	s0,16(sp)
 271              		.cfi_restore 8
 272              		.cfi_def_cfa 2, 32
 273 0218 83348100 		ld	s1,8(sp)
 274              		.cfi_restore 9
 275              	.LVL42:
 276 021c 03390100 		ld	s2,0(sp)
 277              		.cfi_restore 18
 278              	.LVL43:
 279 0220 13010102 		addi	sp,sp,32
 280              		.cfi_def_cfa_offset 0
 281 0224 67800000 		jr	ra
 282              		.cfi_endproc
 283              	.LFE0:
 285              		.align	2
 286              		.globl	_Z12test_memory2v
 288              	_Z12test_memory2v:
 289              	.LFB1:
  49:src/test_memory.cpp **** void test_memory2() {
 290              		.loc 1 49 21 is_stmt 1
 291              		.cfi_startproc
 292 0228 130101FD 		addi	sp,sp,-48
 293              		.cfi_def_cfa_offset 48
 294 022c 23341102 		sd	ra,40(sp)
 295 0230 23308102 		sd	s0,32(sp)
 296 0234 233C9100 		sd	s1,24(sp)
 297 0238 23382101 		sd	s2,16(sp)
 298 023c 23343101 		sd	s3,8(sp)
 299 0240 23304101 		sd	s4,0(sp)
 300              		.cfi_offset 1, -8
 301              		.cfi_offset 8, -16
 302              		.cfi_offset 9, -24
 303              		.cfi_offset 18, -32
 304              		.cfi_offset 19, -40
 305              		.cfi_offset 20, -48
 306 0244 13040103 		addi	s0,sp,48
 307              		.cfi_def_cfa 8, 0
  50:src/test_memory.cpp ****     char* charPtr = (char*)mem_alloc(sizeof(char));
 308              		.loc 1 50 5
 309              		.loc 1 50 37 is_stmt 0
 310 0248 13051000 		li	a0,1
 311 024c 97000000 		call	_Z9mem_allocm@plt
 311      E7800000 
 312              	.LVL44:
 313 0254 93040500 		mv	s1,a0
 314              	.LVL45:
  51:src/test_memory.cpp ****     *charPtr = 'C';
 315              		.loc 1 51 5 is_stmt 1
 316              		.loc 1 51 14 is_stmt 0
 317 0258 93073004 		li	a5,67
 318 025c 2300F500 		sb	a5,0(a0)
  52:src/test_memory.cpp ****     putc(*charPtr); putc(' ');
 319              		.loc 1 52 5 is_stmt 1
 320              		.loc 1 52 9 is_stmt 0
GAS LISTING /tmp/ccpSQTOS.s 			page 8


 321 0260 13053004 		li	a0,67
 322 0264 97000000 		call	_Z4putcc@plt
 322      E7800000 
 323              	.LVL46:
 324              		.loc 1 52 21 is_stmt 1
 325              		.loc 1 52 25 is_stmt 0
 326 026c 13050002 		li	a0,32
 327 0270 97000000 		call	_Z4putcc@plt
 327      E7800000 
 328              	.LVL47:
  53:src/test_memory.cpp ****     int status = mem_free(charPtr);
 329              		.loc 1 53 5 is_stmt 1
 330              		.loc 1 53 26 is_stmt 0
 331 0278 13850400 		mv	a0,s1
 332 027c 97000000 		call	_Z8mem_freePv@plt
 332      E7800000 
 333              	.LVL48:
  54:src/test_memory.cpp ****     if (status == 0) putc('1');
 334              		.loc 1 54 5 is_stmt 1
 335 0284 631C051A 		bnez	a0,.L13
 336              		.loc 1 54 22 discriminator 1
 337              		.loc 1 54 26 is_stmt 0 discriminator 1
 338 0288 13051003 		li	a0,49
 339              	.LVL49:
 340 028c 97000000 		call	_Z4putcc@plt
 340      E7800000 
 341              	.LVL50:
 342              	.L14:
  55:src/test_memory.cpp ****     else putc('0');
  56:src/test_memory.cpp ****     putc('\n');
 343              		.loc 1 56 5 is_stmt 1
 344              		.loc 1 56 9 is_stmt 0
 345 0294 1305A000 		li	a0,10
 346 0298 97000000 		call	_Z4putcc@plt
 346      E7800000 
 347              	.LVL51:
  57:src/test_memory.cpp **** 
  58:src/test_memory.cpp ****     char* ptr = (char*) mem_alloc(68 * sizeof(char));
 348              		.loc 1 58 5 is_stmt 1
 349              		.loc 1 58 34 is_stmt 0
 350 02a0 13054004 		li	a0,68
 351 02a4 97000000 		call	_Z9mem_allocm@plt
 351      E7800000 
 352              	.LVL52:
 353 02ac 13090500 		mv	s2,a0
 354              	.LVL53:
  59:src/test_memory.cpp ****     ptr[0] = 'N'; ptr[1] = 'i'; ptr[2] = 'k'; ptr[3] = 'o'; ptr[4] = 'l'; ptr[5] = 'a'; ptr[6] = ' 
 355              		.loc 1 59 5 is_stmt 1
 356              		.loc 1 59 12 is_stmt 0
 357 02b0 9309E004 		li	s3,78
 358 02b4 23003501 		sb	s3,0(a0)
 359              		.loc 1 59 19 is_stmt 1
 360              		.loc 1 59 26 is_stmt 0
 361 02b8 13079006 		li	a4,105
 362 02bc A300E500 		sb	a4,1(a0)
 363              		.loc 1 59 33 is_stmt 1
 364              		.loc 1 59 40 is_stmt 0
GAS LISTING /tmp/ccpSQTOS.s 			page 9


 365 02c0 9304B006 		li	s1,107
 366              	.LVL54:
 367 02c4 23019500 		sb	s1,2(a0)
 368              		.loc 1 59 47 is_stmt 1
 369              		.loc 1 59 54 is_stmt 0
 370 02c8 1303F006 		li	t1,111
 371 02cc A3016500 		sb	t1,3(a0)
 372              		.loc 1 59 61 is_stmt 1
 373              		.loc 1 59 68 is_stmt 0
 374 02d0 9303C006 		li	t2,108
 375 02d4 23027500 		sb	t2,4(a0)
 376              		.loc 1 59 75 is_stmt 1
 377              		.loc 1 59 82 is_stmt 0
 378 02d8 13081006 		li	a6,97
 379 02dc A3020501 		sb	a6,5(a0)
 380              		.loc 1 59 89 is_stmt 1
 381              		.loc 1 59 96 is_stmt 0
 382 02e0 93060002 		li	a3,32
 383 02e4 2303D500 		sb	a3,6(a0)
 384              		.loc 1 59 103 is_stmt 1
 385              		.loc 1 59 110 is_stmt 0
 386 02e8 1306D006 		li	a2,109
 387 02ec A303C500 		sb	a2,7(a0)
  60:src/test_memory.cpp ****     ptr[8] = 'r'; ptr[9] = 'z'; ptr[10] = 'i'; ptr[11] = ' '; ptr[12] = 'o'; ptr[13] = 'p'; ptr[14]
 388              		.loc 1 60 5 is_stmt 1
 389              		.loc 1 60 12 is_stmt 0
 390 02f0 93082007 		li	a7,114
 391 02f4 23041501 		sb	a7,8(a0)
 392              		.loc 1 60 19 is_stmt 1
 393              		.loc 1 60 26 is_stmt 0
 394 02f8 9302A007 		li	t0,122
 395 02fc A3045500 		sb	t0,9(a0)
 396              		.loc 1 60 33 is_stmt 1
 397              		.loc 1 60 41 is_stmt 0
 398 0300 2305E500 		sb	a4,10(a0)
 399              		.loc 1 60 48 is_stmt 1
 400              		.loc 1 60 56 is_stmt 0
 401 0304 A305D500 		sb	a3,11(a0)
 402              		.loc 1 60 63 is_stmt 1
 403              		.loc 1 60 71 is_stmt 0
 404 0308 23066500 		sb	t1,12(a0)
 405              		.loc 1 60 78 is_stmt 1
 406              		.loc 1 60 86 is_stmt 0
 407 030c 930F0007 		li	t6,112
 408 0310 A306F501 		sb	t6,13(a0)
 409              		.loc 1 60 93 is_stmt 1
 410              		.loc 1 60 101 is_stmt 0
 411 0314 93075006 		li	a5,101
 412 0318 2307F500 		sb	a5,14(a0)
 413              		.loc 1 60 108 is_stmt 1
 414              		.loc 1 60 116 is_stmt 0
 415 031c A3071501 		sb	a7,15(a0)
  61:src/test_memory.cpp ****     ptr[16] = 'a'; ptr[17] = 't'; ptr[18] = 'i'; ptr[19] = 'v'; ptr[20] = 'n'; ptr[21] = 'e'; ptr[2
 416              		.loc 1 61 5 is_stmt 1
 417              		.loc 1 61 13 is_stmt 0
 418 0320 23080501 		sb	a6,16(a0)
 419              		.loc 1 61 20 is_stmt 1
GAS LISTING /tmp/ccpSQTOS.s 			page 10


 420              		.loc 1 61 28 is_stmt 0
 421 0324 93054007 		li	a1,116
 422 0328 A308B500 		sb	a1,17(a0)
 423              		.loc 1 61 35 is_stmt 1
 424              		.loc 1 61 43 is_stmt 0
 425 032c 2309E500 		sb	a4,18(a0)
 426              		.loc 1 61 50 is_stmt 1
 427              		.loc 1 61 58 is_stmt 0
 428 0330 130F6007 		li	t5,118
 429 0334 A309E501 		sb	t5,19(a0)
 430              		.loc 1 61 65 is_stmt 1
 431              		.loc 1 61 73 is_stmt 0
 432 0338 930EE006 		li	t4,110
 433 033c 230AD501 		sb	t4,20(a0)
 434              		.loc 1 61 80 is_stmt 1
 435              		.loc 1 61 88 is_stmt 0
 436 0340 A30AF500 		sb	a5,21(a0)
 437              		.loc 1 61 95 is_stmt 1
 438              		.loc 1 61 103 is_stmt 0
 439 0344 230BD500 		sb	a3,22(a0)
 440              		.loc 1 61 110 is_stmt 1
 441              		.loc 1 61 118 is_stmt 0
 442 0348 13053007 		li	a0,115
 443              	.LVL55:
 444 034c A30BA900 		sb	a0,23(s2)
  62:src/test_memory.cpp ****     ptr[24] = 'i'; ptr[25] = 's'; ptr[26] = 't'; ptr[27] = 'e'; ptr[28] = 'm'; ptr[29] = 'e'; ptr[3
 445              		.loc 1 62 5 is_stmt 1
 446              		.loc 1 62 13 is_stmt 0
 447 0350 230CE900 		sb	a4,24(s2)
 448              		.loc 1 62 20 is_stmt 1
 449              		.loc 1 62 28 is_stmt 0
 450 0354 A30CA900 		sb	a0,25(s2)
 451              		.loc 1 62 35 is_stmt 1
 452              		.loc 1 62 43 is_stmt 0
 453 0358 230DB900 		sb	a1,26(s2)
 454              		.loc 1 62 50 is_stmt 1
 455              		.loc 1 62 58 is_stmt 0
 456 035c A30DF900 		sb	a5,27(s2)
 457              		.loc 1 62 65 is_stmt 1
 458              		.loc 1 62 73 is_stmt 0
 459 0360 230EC900 		sb	a2,28(s2)
 460              		.loc 1 62 80 is_stmt 1
 461              		.loc 1 62 88 is_stmt 0
 462 0364 A30EF900 		sb	a5,29(s2)
 463              		.loc 1 62 95 is_stmt 1
 464              		.loc 1 62 103 is_stmt 0
 465 0368 130E1002 		li	t3,33
 466 036c 230FC901 		sb	t3,30(s2)
  63:src/test_memory.cpp **** 
  64:src/test_memory.cpp ****     ptr[31] = 'N'; ptr[32] = 'i'; ptr[33] = 'k'; ptr[34] = 'o'; ptr[35] = 'l'; ptr[36] = 'a'; ptr[3
 467              		.loc 1 64 5 is_stmt 1
 468              		.loc 1 64 13 is_stmt 0
 469 0370 A30F3901 		sb	s3,31(s2)
 470              		.loc 1 64 20 is_stmt 1
 471              		.loc 1 64 28 is_stmt 0
 472 0374 2300E902 		sb	a4,32(s2)
 473              		.loc 1 64 35 is_stmt 1
GAS LISTING /tmp/ccpSQTOS.s 			page 11


 474              		.loc 1 64 43 is_stmt 0
 475 0378 A3009902 		sb	s1,33(s2)
 476              		.loc 1 64 50 is_stmt 1
 477              		.loc 1 64 58 is_stmt 0
 478 037c 23016902 		sb	t1,34(s2)
 479              		.loc 1 64 65 is_stmt 1
 480              		.loc 1 64 73 is_stmt 0
 481 0380 A3017902 		sb	t2,35(s2)
 482              		.loc 1 64 80 is_stmt 1
 483              		.loc 1 64 88 is_stmt 0
 484 0384 23020903 		sb	a6,36(s2)
 485              		.loc 1 64 95 is_stmt 1
 486              		.loc 1 64 103 is_stmt 0
 487 0388 A302D902 		sb	a3,37(s2)
 488              		.loc 1 64 110 is_stmt 1
 489              		.loc 1 64 118 is_stmt 0
 490 038c 2303C902 		sb	a2,38(s2)
  65:src/test_memory.cpp ****     ptr[39] = 'r'; ptr[40] = 'z'; ptr[41] = 'i'; ptr[42] = ' '; ptr[43] = 'o'; ptr[44] = 'p'; ptr[4
 491              		.loc 1 65 5 is_stmt 1
 492              		.loc 1 65 13 is_stmt 0
 493 0390 A3031903 		sb	a7,39(s2)
 494              		.loc 1 65 20 is_stmt 1
 495              		.loc 1 65 28 is_stmt 0
 496 0394 23045902 		sb	t0,40(s2)
 497              		.loc 1 65 35 is_stmt 1
 498              		.loc 1 65 43 is_stmt 0
 499 0398 A304E902 		sb	a4,41(s2)
 500              		.loc 1 65 50 is_stmt 1
 501              		.loc 1 65 58 is_stmt 0
 502 039c 2305D902 		sb	a3,42(s2)
 503              		.loc 1 65 65 is_stmt 1
 504              		.loc 1 65 73 is_stmt 0
 505 03a0 A3056902 		sb	t1,43(s2)
 506              		.loc 1 65 80 is_stmt 1
 507              		.loc 1 65 88 is_stmt 0
 508 03a4 2306F903 		sb	t6,44(s2)
 509              		.loc 1 65 95 is_stmt 1
 510              		.loc 1 65 103 is_stmt 0
 511 03a8 A306F902 		sb	a5,45(s2)
 512              		.loc 1 65 110 is_stmt 1
 513              		.loc 1 65 118 is_stmt 0
 514 03ac 23071903 		sb	a7,46(s2)
  66:src/test_memory.cpp ****     ptr[47] = 'a'; ptr[48] = 't'; ptr[49] = 'i'; ptr[50] = 'v'; ptr[51] = 'n'; ptr[52] = 'e'; ptr[5
 515              		.loc 1 66 5 is_stmt 1
 516              		.loc 1 66 13 is_stmt 0
 517 03b0 A3070903 		sb	a6,47(s2)
 518              		.loc 1 66 20 is_stmt 1
 519              		.loc 1 66 28 is_stmt 0
 520 03b4 2308B902 		sb	a1,48(s2)
 521              		.loc 1 66 35 is_stmt 1
 522              		.loc 1 66 43 is_stmt 0
 523 03b8 A308E902 		sb	a4,49(s2)
 524              		.loc 1 66 50 is_stmt 1
 525              		.loc 1 66 58 is_stmt 0
 526 03bc 2309E903 		sb	t5,50(s2)
 527              		.loc 1 66 65 is_stmt 1
 528              		.loc 1 66 73 is_stmt 0
GAS LISTING /tmp/ccpSQTOS.s 			page 12


 529 03c0 A309D903 		sb	t4,51(s2)
 530              		.loc 1 66 80 is_stmt 1
 531              		.loc 1 66 88 is_stmt 0
 532 03c4 230AF902 		sb	a5,52(s2)
 533              		.loc 1 66 95 is_stmt 1
 534              		.loc 1 66 103 is_stmt 0
 535 03c8 A30AD902 		sb	a3,53(s2)
 536              		.loc 1 66 110 is_stmt 1
 537              		.loc 1 66 118 is_stmt 0
 538 03cc 230BA902 		sb	a0,54(s2)
  67:src/test_memory.cpp ****     ptr[55] = 'i'; ptr[56] = 's'; ptr[57] = 't'; ptr[58] = 'e'; ptr[59] = 'm'; ptr[60] = 'e'; ptr[6
 539              		.loc 1 67 5 is_stmt 1
 540              		.loc 1 67 13 is_stmt 0
 541 03d0 A30BE902 		sb	a4,55(s2)
 542              		.loc 1 67 20 is_stmt 1
 543              		.loc 1 67 28 is_stmt 0
 544 03d4 230CA902 		sb	a0,56(s2)
 545              		.loc 1 67 35 is_stmt 1
 546              		.loc 1 67 43 is_stmt 0
 547 03d8 A30CB902 		sb	a1,57(s2)
 548              		.loc 1 67 50 is_stmt 1
 549              		.loc 1 67 58 is_stmt 0
 550 03dc 230DF902 		sb	a5,58(s2)
 551              		.loc 1 67 65 is_stmt 1
 552              		.loc 1 67 73 is_stmt 0
 553 03e0 A30DC902 		sb	a2,59(s2)
 554              		.loc 1 67 80 is_stmt 1
 555              		.loc 1 67 88 is_stmt 0
 556 03e4 230EF902 		sb	a5,60(s2)
 557              		.loc 1 67 95 is_stmt 1
 558              		.loc 1 67 103 is_stmt 0
 559 03e8 A30EC903 		sb	t3,61(s2)
  68:src/test_memory.cpp ****     ptr[62] = 'U'; ptr[63] = 'Z'; ptr[64] = 'X'; ptr[65] = 'A'; ptr[66] = 'S'; ptr[67] = '!';
 560              		.loc 1 68 5 is_stmt 1
 561              		.loc 1 68 13 is_stmt 0
 562 03ec 93075005 		li	a5,85
 563 03f0 230FF902 		sb	a5,62(s2)
 564              		.loc 1 68 20 is_stmt 1
 565              		.loc 1 68 28 is_stmt 0
 566 03f4 9307A005 		li	a5,90
 567 03f8 A30FF902 		sb	a5,63(s2)
 568              		.loc 1 68 35 is_stmt 1
 569              		.loc 1 68 43 is_stmt 0
 570 03fc 93078005 		li	a5,88
 571 0400 2300F904 		sb	a5,64(s2)
 572              		.loc 1 68 50 is_stmt 1
 573              		.loc 1 68 58 is_stmt 0
 574 0404 93071004 		li	a5,65
 575 0408 A300F904 		sb	a5,65(s2)
 576              		.loc 1 68 65 is_stmt 1
 577              		.loc 1 68 73 is_stmt 0
 578 040c 93073005 		li	a5,83
 579 0410 2301F904 		sb	a5,66(s2)
 580              		.loc 1 68 80 is_stmt 1
 581              		.loc 1 68 88 is_stmt 0
 582 0414 A301C905 		sb	t3,67(s2)
  69:src/test_memory.cpp **** 
GAS LISTING /tmp/ccpSQTOS.s 			page 13


  70:src/test_memory.cpp ****     for (int i = 0; i < 68; i++)
 583              		.loc 1 70 5 is_stmt 1
 584              	.LVL56:
 585              	.LBB3:
 586              		.loc 1 70 14 is_stmt 0
 587 0418 93040000 		li	s1,0
 588              	.LVL57:
 589              	.L16:
 590              		.loc 1 70 23 is_stmt 1 discriminator 3
 591 041c 93073004 		li	a5,67
 592 0420 63C69702 		bgt	s1,a5,.L15
  71:src/test_memory.cpp ****         putc(ptr[i]);
 593              		.loc 1 71 9 discriminator 2
 594              		.loc 1 71 19 is_stmt 0 discriminator 2
 595 0424 B3079900 		add	a5,s2,s1
 596              		.loc 1 71 13 discriminator 2
 597 0428 03C50700 		lbu	a0,0(a5)
 598 042c 97000000 		call	_Z4putcc@plt
 598      E7800000 
 599              	.LVL58:
  70:src/test_memory.cpp ****         putc(ptr[i]);
 600              		.loc 1 70 5 is_stmt 1 discriminator 2
 601 0434 9B841400 		addiw	s1,s1,1
 602              	.LVL59:
 603 0438 6FF05FFE 		j	.L16
 604              	.LVL60:
 605              	.L13:
 606              	.LBE3:
  55:src/test_memory.cpp ****     putc('\n');
 607              		.loc 1 55 10
  55:src/test_memory.cpp ****     putc('\n');
 608              		.loc 1 55 14 is_stmt 0
 609 043c 13050003 		li	a0,48
 610              	.LVL61:
 611 0440 97000000 		call	_Z4putcc@plt
 611      E7800000 
 612              	.LVL62:
 613 0448 6FF0DFE4 		j	.L14
 614              	.LVL63:
 615              	.L15:
  72:src/test_memory.cpp ****     putc('\n');
 616              		.loc 1 72 5 is_stmt 1
 617              		.loc 1 72 9 is_stmt 0
 618 044c 1305A000 		li	a0,10
 619 0450 97000000 		call	_Z4putcc@plt
 619      E7800000 
 620              	.LVL64:
  73:src/test_memory.cpp ****     mem_free(ptr);
 621              		.loc 1 73 5 is_stmt 1
 622              		.loc 1 73 13 is_stmt 0
 623 0458 13050900 		mv	a0,s2
 624 045c 97000000 		call	_Z8mem_freePv@plt
 624      E7800000 
 625              	.LVL65:
  74:src/test_memory.cpp **** 
  75:src/test_memory.cpp ****     uint64* intPtr = (uint64*)mem_alloc(5 * sizeof(uint64));
 626              		.loc 1 75 5 is_stmt 1
GAS LISTING /tmp/ccpSQTOS.s 			page 14


 627              		.loc 1 75 40 is_stmt 0
 628 0464 13058002 		li	a0,40
 629 0468 97000000 		call	_Z9mem_allocm@plt
 629      E7800000 
 630              	.LVL66:
 631 0470 130A0500 		mv	s4,a0
 632              	.LVL67:
  76:src/test_memory.cpp ****     *(intPtr + 0) = 5;
 633              		.loc 1 76 5 is_stmt 1
 634              		.loc 1 76 19 is_stmt 0
 635 0474 93075000 		li	a5,5
 636 0478 2330F500 		sd	a5,0(a0)
  77:src/test_memory.cpp ****     *(intPtr + 1) = 27;
 637              		.loc 1 77 5 is_stmt 1
 638              		.loc 1 77 19 is_stmt 0
 639 047c 9307B001 		li	a5,27
 640 0480 2334F500 		sd	a5,8(a0)
  78:src/test_memory.cpp ****     *(intPtr + 2) = 45;
 641              		.loc 1 78 5 is_stmt 1
 642              		.loc 1 78 19 is_stmt 0
 643 0484 9307D002 		li	a5,45
 644 0488 2338F500 		sd	a5,16(a0)
  79:src/test_memory.cpp ****     *(intPtr + 3) = 192;
 645              		.loc 1 79 5 is_stmt 1
 646              		.loc 1 79 19 is_stmt 0
 647 048c 9307000C 		li	a5,192
 648 0490 233CF500 		sd	a5,24(a0)
  80:src/test_memory.cpp ****     *(intPtr + 4) = 255;
 649              		.loc 1 80 5 is_stmt 1
 650              		.loc 1 80 19 is_stmt 0
 651 0494 9307F00F 		li	a5,255
 652 0498 2330F502 		sd	a5,32(a0)
  81:src/test_memory.cpp ****     for (int i = 0; i < 5; i++) {
 653              		.loc 1 81 5 is_stmt 1
 654              	.LVL68:
 655              	.LBB4:
 656              		.loc 1 81 14 is_stmt 0
 657 049c 93090000 		li	s3,0
 658 04a0 6F004001 		j	.L20
 659              	.LVL69:
 660              	.L18:
 661              	.LBB5:
  82:src/test_memory.cpp ****         putc(48 + i);
  83:src/test_memory.cpp ****         putc('.');
  84:src/test_memory.cpp ****         putc(' ');
  85:src/test_memory.cpp ****         uint64 ceo = intPtr[i];
  86:src/test_memory.cpp ****         while (ceo > 0) {
  87:src/test_memory.cpp ****             putc(48 + ceo%10);
  88:src/test_memory.cpp ****             ceo /= 10;
  89:src/test_memory.cpp ****         }
  90:src/test_memory.cpp ****         putc('\n');
 662              		.loc 1 90 9 is_stmt 1 discriminator 2
 663              		.loc 1 90 13 is_stmt 0 discriminator 2
 664 04a4 1305A000 		li	a0,10
 665 04a8 97000000 		call	_Z4putcc@plt
 665      E7800000 
 666              	.LVL70:
GAS LISTING /tmp/ccpSQTOS.s 			page 15


 667              	.LBE5:
  81:src/test_memory.cpp ****     for (int i = 0; i < 5; i++) {
 668              		.loc 1 81 5 is_stmt 1 discriminator 2
 669 04b0 9B891900 		addiw	s3,s3,1
 670              	.LVL71:
 671              	.L20:
  81:src/test_memory.cpp ****     for (int i = 0; i < 5; i++) {
 672              		.loc 1 81 23 discriminator 1
 673 04b4 93074000 		li	a5,4
 674 04b8 63CC3705 		bgt	s3,a5,.L17
 675              	.LBB6:
  82:src/test_memory.cpp ****         putc(48 + i);
 676              		.loc 1 82 9
  82:src/test_memory.cpp ****         putc(48 + i);
 677              		.loc 1 82 13 is_stmt 0
 678 04bc 1B850903 		addiw	a0,s3,48
 679 04c0 1375F50F 		andi	a0,a0,0xff
 680 04c4 97000000 		call	_Z4putcc@plt
 680      E7800000 
 681              	.LVL72:
  83:src/test_memory.cpp ****         putc(' ');
 682              		.loc 1 83 9 is_stmt 1
  83:src/test_memory.cpp ****         putc(' ');
 683              		.loc 1 83 13 is_stmt 0
 684 04cc 1305E002 		li	a0,46
 685 04d0 97000000 		call	_Z4putcc@plt
 685      E7800000 
 686              	.LVL73:
  84:src/test_memory.cpp ****         uint64 ceo = intPtr[i];
 687              		.loc 1 84 9 is_stmt 1
  84:src/test_memory.cpp ****         uint64 ceo = intPtr[i];
 688              		.loc 1 84 13 is_stmt 0
 689 04d8 13050002 		li	a0,32
 690 04dc 97000000 		call	_Z4putcc@plt
 690      E7800000 
 691              	.LVL74:
  85:src/test_memory.cpp ****         while (ceo > 0) {
 692              		.loc 1 85 9 is_stmt 1
  85:src/test_memory.cpp ****         while (ceo > 0) {
 693              		.loc 1 85 30 is_stmt 0
 694 04e4 93973900 		slli	a5,s3,3
 695 04e8 B307FA00 		add	a5,s4,a5
  85:src/test_memory.cpp ****         while (ceo > 0) {
 696              		.loc 1 85 16
 697 04ec 83B40700 		ld	s1,0(a5)
 698              	.LVL75:
 699              	.L19:
  86:src/test_memory.cpp ****             putc(48 + ceo%10);
 700              		.loc 1 86 9 is_stmt 1
  86:src/test_memory.cpp ****             putc(48 + ceo%10);
 701              		.loc 1 86 20
 702 04f0 E38A04FA 		beqz	s1,.L18
  87:src/test_memory.cpp ****             ceo /= 10;
 703              		.loc 1 87 13
  87:src/test_memory.cpp ****             ceo /= 10;
 704              		.loc 1 87 26 is_stmt 0
 705 04f4 1309A000 		li	s2,10
GAS LISTING /tmp/ccpSQTOS.s 			page 16


 706 04f8 33F52403 		remu	a0,s1,s2
  87:src/test_memory.cpp ****             ceo /= 10;
 707              		.loc 1 87 17
 708 04fc 13050503 		addi	a0,a0,48
 709 0500 97000000 		call	_Z4putcc@plt
 709      E7800000 
 710              	.LVL76:
  88:src/test_memory.cpp ****         }
 711              		.loc 1 88 13 is_stmt 1
  88:src/test_memory.cpp ****         }
 712              		.loc 1 88 17 is_stmt 0
 713 0508 B3D42403 		divu	s1,s1,s2
 714              	.LVL77:
  86:src/test_memory.cpp ****             putc(48 + ceo%10);
 715              		.loc 1 86 9
 716 050c 6FF05FFE 		j	.L19
 717              	.LVL78:
 718              	.L17:
 719              	.LBE6:
 720              	.LBE4:
  91:src/test_memory.cpp ****     }
  92:src/test_memory.cpp ****     mem_free(intPtr);
 721              		.loc 1 92 5 is_stmt 1
 722              		.loc 1 92 13 is_stmt 0
 723 0510 13050A00 		mv	a0,s4
 724 0514 97000000 		call	_Z8mem_freePv@plt
 724      E7800000 
 725              	.LVL79:
  93:src/test_memory.cpp **** 
  94:src/test_memory.cpp ****     char* newPtr = (char*)new char(1); // 1 blok = 64 bajtova
 726              		.loc 1 94 5 is_stmt 1
 727              		.loc 1 94 37 is_stmt 0
 728 051c 13051000 		li	a0,1
 729 0520 97000000 		call	_Znwm@plt
 729      E7800000 
 730              	.LVL80:
 731 0528 13090500 		mv	s2,a0
 732              	.LVL81:
  95:src/test_memory.cpp ****     newPtr[0] = 'O'; newPtr[1] = 'K'; newPtr[2] = '.';
 733              		.loc 1 95 5 is_stmt 1
 734              		.loc 1 95 15 is_stmt 0
 735 052c 9307F004 		li	a5,79
 736 0530 2300F500 		sb	a5,0(a0)
 737              		.loc 1 95 22 is_stmt 1
 738              		.loc 1 95 32 is_stmt 0
 739 0534 9307B004 		li	a5,75
 740 0538 A300F500 		sb	a5,1(a0)
 741              		.loc 1 95 39 is_stmt 1
 742              		.loc 1 95 49 is_stmt 0
 743 053c 9307E002 		li	a5,46
 744 0540 2301F500 		sb	a5,2(a0)
  96:src/test_memory.cpp ****     for (int i = 0; i < 3; i++)
 745              		.loc 1 96 5 is_stmt 1
 746              	.LVL82:
 747              	.LBB7:
 748              		.loc 1 96 14 is_stmt 0
 749 0544 93040000 		li	s1,0
GAS LISTING /tmp/ccpSQTOS.s 			page 17


 750              	.LVL83:
 751              	.L22:
 752              		.loc 1 96 23 is_stmt 1 discriminator 3
 753 0548 93072000 		li	a5,2
 754 054c 63CE9700 		bgt	s1,a5,.L21
  97:src/test_memory.cpp ****         putc(newPtr[i]);
 755              		.loc 1 97 9 discriminator 2
 756              		.loc 1 97 22 is_stmt 0 discriminator 2
 757 0550 B3079900 		add	a5,s2,s1
 758              		.loc 1 97 13 discriminator 2
 759 0554 03C50700 		lbu	a0,0(a5)
 760 0558 97000000 		call	_Z4putcc@plt
 760      E7800000 
 761              	.LVL84:
  96:src/test_memory.cpp ****     for (int i = 0; i < 3; i++)
 762              		.loc 1 96 5 is_stmt 1 discriminator 2
 763 0560 9B841400 		addiw	s1,s1,1
 764              	.LVL85:
 765 0564 6FF05FFE 		j	.L22
 766              	.LVL86:
 767              	.L21:
 768              	.LBE7:
  98:src/test_memory.cpp ****     putc('\n');
 769              		.loc 1 98 5
 770              		.loc 1 98 9 is_stmt 0
 771 0568 1305A000 		li	a0,10
 772 056c 97000000 		call	_Z4putcc@plt
 772      E7800000 
 773              	.LVL87:
  99:src/test_memory.cpp ****     delete(newPtr);
 774              		.loc 1 99 5 is_stmt 1
 775              		.loc 1 99 19 is_stmt 0
 776 0574 63080900 		beqz	s2,.L23
 777              		.loc 1 99 18 discriminator 1
 778 0578 13050900 		mv	a0,s2
 779 057c 97000000 		call	_ZdlPv@plt
 779      E7800000 
 780              	.LVL88:
 781              	.L23:
 100:src/test_memory.cpp **** 
 101:src/test_memory.cpp ****     newPtr = (char*)new char(1);
 782              		.loc 1 101 5 is_stmt 1
 783              		.loc 1 101 31 is_stmt 0
 784 0584 13051000 		li	a0,1
 785 0588 97000000 		call	_Znwm@plt
 785      E7800000 
 786              	.LVL89:
 787 0590 93040500 		mv	s1,a0
 788              	.LVL90:
 102:src/test_memory.cpp ****     *newPtr = 'A';
 789              		.loc 1 102 5 is_stmt 1
 790              		.loc 1 102 13 is_stmt 0
 791 0594 93071004 		li	a5,65
 792 0598 2300F500 		sb	a5,0(a0)
 103:src/test_memory.cpp ****     putc(*newPtr);
 793              		.loc 1 103 5 is_stmt 1
 794              		.loc 1 103 9 is_stmt 0
GAS LISTING /tmp/ccpSQTOS.s 			page 18


 795 059c 13051004 		li	a0,65
 796 05a0 97000000 		call	_Z4putcc@plt
 796      E7800000 
 797              	.LVL91:
 104:src/test_memory.cpp ****     delete(newPtr);
 798              		.loc 1 104 5 is_stmt 1
 799              		.loc 1 104 19 is_stmt 0
 800 05a8 63880400 		beqz	s1,.L24
 801              		.loc 1 104 18 discriminator 1
 802 05ac 13850400 		mv	a0,s1
 803 05b0 97000000 		call	_ZdlPv@plt
 803      E7800000 
 804              	.LVL92:
 805              	.L24:
 105:src/test_memory.cpp ****     *newPtr = 'B';
 806              		.loc 1 105 5 is_stmt 1
 807              		.loc 1 105 13 is_stmt 0
 808 05b8 93072004 		li	a5,66
 809 05bc 2380F400 		sb	a5,0(s1)
 106:src/test_memory.cpp ****     putc(*newPtr);
 810              		.loc 1 106 5 is_stmt 1
 811              		.loc 1 106 9 is_stmt 0
 812 05c0 13052004 		li	a0,66
 813 05c4 97000000 		call	_Z4putcc@plt
 813      E7800000 
 814              	.LVL93:
 107:src/test_memory.cpp ****     delete(newPtr);
 815              		.loc 1 107 5 is_stmt 1
 816              		.loc 1 107 19 is_stmt 0
 817 05cc 63880400 		beqz	s1,.L25
 818              		.loc 1 107 18 discriminator 1
 819 05d0 13850400 		mv	a0,s1
 820 05d4 97000000 		call	_ZdlPv@plt
 820      E7800000 
 821              	.LVL94:
 822              	.L25:
 108:src/test_memory.cpp ****     *newPtr = 'C';
 823              		.loc 1 108 5 is_stmt 1
 824              		.loc 1 108 13 is_stmt 0
 825 05dc 93073004 		li	a5,67
 826 05e0 2380F400 		sb	a5,0(s1)
 109:src/test_memory.cpp ****     putc(*newPtr);
 827              		.loc 1 109 5 is_stmt 1
 828              		.loc 1 109 9 is_stmt 0
 829 05e4 13053004 		li	a0,67
 830 05e8 97000000 		call	_Z4putcc@plt
 830      E7800000 
 831              	.LVL95:
 110:src/test_memory.cpp ****     delete(newPtr);
 832              		.loc 1 110 5 is_stmt 1
 833              		.loc 1 110 19 is_stmt 0
 834 05f0 63880400 		beqz	s1,.L26
 835              		.loc 1 110 18 discriminator 1
 836 05f4 13850400 		mv	a0,s1
 837 05f8 97000000 		call	_ZdlPv@plt
 837      E7800000 
 838              	.LVL96:
GAS LISTING /tmp/ccpSQTOS.s 			page 19


 839              	.L26:
 111:src/test_memory.cpp **** 
 112:src/test_memory.cpp ****     putc('\n');
 840              		.loc 1 112 5 is_stmt 1
 841              		.loc 1 112 9 is_stmt 0
 842 0600 1305A000 		li	a0,10
 843 0604 97000000 		call	_Z4putcc@plt
 843      E7800000 
 844              	.LVL97:
 113:src/test_memory.cpp ****     putc('*');
 845              		.loc 1 113 5 is_stmt 1
 846              		.loc 1 113 9 is_stmt 0
 847 060c 1305A002 		li	a0,42
 848 0610 97000000 		call	_Z4putcc@plt
 848      E7800000 
 849              	.LVL98:
 114:src/test_memory.cpp ****     putc('\n');
 850              		.loc 1 114 5 is_stmt 1
 851              		.loc 1 114 9 is_stmt 0
 852 0618 1305A000 		li	a0,10
 853 061c 97000000 		call	_Z4putcc@plt
 853      E7800000 
 854              	.LVL99:
 115:src/test_memory.cpp **** }
 855              		.loc 1 115 1
 856 0624 83308102 		ld	ra,40(sp)
 857              		.cfi_restore 1
 858 0628 03340102 		ld	s0,32(sp)
 859              		.cfi_restore 8
 860              		.cfi_def_cfa 2, 48
 861 062c 83348101 		ld	s1,24(sp)
 862              		.cfi_restore 9
 863              	.LVL100:
 864 0630 03390101 		ld	s2,16(sp)
 865              		.cfi_restore 18
 866 0634 83398100 		ld	s3,8(sp)
 867              		.cfi_restore 19
 868              	.LVL101:
 869 0638 033A0100 		ld	s4,0(sp)
 870              		.cfi_restore 20
 871              	.LVL102:
 872 063c 13010103 		addi	sp,sp,48
 873              		.cfi_def_cfa_offset 0
 874 0640 67800000 		jr	ra
 875              		.cfi_endproc
 876              	.LFE1:
 878              		.align	2
 879              		.globl	_Z11test_memoryv
 881              	_Z11test_memoryv:
 882              	.LFB2:
 116:src/test_memory.cpp **** 
 117:src/test_memory.cpp **** void test_memory() {
 883              		.loc 1 117 20 is_stmt 1
 884              		.cfi_startproc
 885 0644 130101FF 		addi	sp,sp,-16
 886              		.cfi_def_cfa_offset 16
 887 0648 23341100 		sd	ra,8(sp)
GAS LISTING /tmp/ccpSQTOS.s 			page 20


 888 064c 23308100 		sd	s0,0(sp)
 889              		.cfi_offset 1, -8
 890              		.cfi_offset 8, -16
 891 0650 13040101 		addi	s0,sp,16
 892              		.cfi_def_cfa 8, 0
 118:src/test_memory.cpp ****     test_memory1();
 893              		.loc 1 118 5
 894              		.loc 1 118 17 is_stmt 0
 895 0654 97000000 		call	_Z12test_memory1v
 895      E7800000 
 896              	.LVL103:
 119:src/test_memory.cpp ****     test_memory2();
 897              		.loc 1 119 5 is_stmt 1
 898              		.loc 1 119 17 is_stmt 0
 899 065c 97000000 		call	_Z12test_memory2v
 899      E7800000 
 900              	.LVL104:
 120:src/test_memory.cpp **** }
 901              		.loc 1 120 1
 902 0664 83308100 		ld	ra,8(sp)
 903              		.cfi_restore 1
 904 0668 03340100 		ld	s0,0(sp)
 905              		.cfi_restore 8
 906              		.cfi_def_cfa 2, 16
 907 066c 13010101 		addi	sp,sp,16
 908              		.cfi_def_cfa_offset 0
 909 0670 67800000 		jr	ra
 910              		.cfi_endproc
 911              	.LFE2:
 913              	.Letext0:
 914              		.file 2 "src/../h/../lib/hw.h"
 915              		.file 3 "src/../h/syscall_c.h"
GAS LISTING /tmp/ccpSQTOS.s 			page 21

