GAS LISTING /tmp/ccKOXyE7.s 			page 1


   1              		.file	"test_complex.cpp"
   2              		.option pic
   3              		.option norelax
   4              		.text
   5              	.Ltext0:
   6              		.align	2
   7              		.globl	_Z23test_memory_thread_syncv
   9              	_Z23test_memory_thread_syncv:
  10              	.LFB0:
  11              		.file 1 "src/test_complex.cpp"
   1:src/test_complex.cpp **** //
   2:src/test_complex.cpp **** // Created by os on 6/22/22.
   3:src/test_complex.cpp **** //
   4:src/test_complex.cpp **** 
   5:src/test_complex.cpp **** void test_thread();
   6:src/test_complex.cpp **** void test_memory();
   7:src/test_complex.cpp **** void test_semaphore();
   8:src/test_complex.cpp **** 
   9:src/test_complex.cpp **** void test_memory_thread_sync() {
  12              		.loc 1 9 32
  13              		.cfi_startproc
  14 0000 130101FE 		addi	sp,sp,-32
  15              		.cfi_def_cfa_offset 32
  16 0004 233C1100 		sd	ra,24(sp)
  17 0008 23388100 		sd	s0,16(sp)
  18 000c 23349100 		sd	s1,8(sp)
  19              		.cfi_offset 1, -8
  20              		.cfi_offset 8, -16
  21              		.cfi_offset 9, -24
  22 0010 13040102 		addi	s0,sp,32
  23              		.cfi_def_cfa 8, 0
  10:src/test_complex.cpp ****     test_memory();
  24              		.loc 1 10 5
  25              		.loc 1 10 16 is_stmt 0
  26 0014 97000000 		call	_Z11test_memoryv@plt
  26      E7800000 
  27              	.LVL0:
  11:src/test_complex.cpp ****     test_memory();
  28              		.loc 1 11 5 is_stmt 1
  29              		.loc 1 11 16 is_stmt 0
  30 001c 97000000 		call	_Z11test_memoryv@plt
  30      E7800000 
  31              	.LVL1:
  12:src/test_complex.cpp ****     test_thread();
  32              		.loc 1 12 5 is_stmt 1
  33              		.loc 1 12 16 is_stmt 0
  34 0024 97000000 		call	_Z11test_threadv@plt
  34      E7800000 
  35              	.LVL2:
  13:src/test_complex.cpp ****     test_memory();
  36              		.loc 1 13 5 is_stmt 1
  37              		.loc 1 13 16 is_stmt 0
  38 002c 97000000 		call	_Z11test_memoryv@plt
  38      E7800000 
  39              	.LVL3:
  14:src/test_complex.cpp ****     test_thread();
  40              		.loc 1 14 5 is_stmt 1
GAS LISTING /tmp/ccKOXyE7.s 			page 2


  41              		.loc 1 14 16 is_stmt 0
  42 0034 97000000 		call	_Z11test_threadv@plt
  42      E7800000 
  43              	.LVL4:
  15:src/test_complex.cpp ****     test_thread();
  44              		.loc 1 15 5 is_stmt 1
  45              		.loc 1 15 16 is_stmt 0
  46 003c 97000000 		call	_Z11test_threadv@plt
  46      E7800000 
  47              	.LVL5:
  16:src/test_complex.cpp ****     test_memory();
  48              		.loc 1 16 5 is_stmt 1
  49              		.loc 1 16 16 is_stmt 0
  50 0044 97000000 		call	_Z11test_memoryv@plt
  50      E7800000 
  51              	.LVL6:
  17:src/test_complex.cpp ****     test_memory();
  52              		.loc 1 17 5 is_stmt 1
  53              		.loc 1 17 16 is_stmt 0
  54 004c 97000000 		call	_Z11test_memoryv@plt
  54      E7800000 
  55              	.LVL7:
  18:src/test_complex.cpp **** 
  19:src/test_complex.cpp ****     for (int i = 0; i < 100; i++)
  56              		.loc 1 19 5 is_stmt 1
  57              	.LBB2:
  58              		.loc 1 19 14 is_stmt 0
  59 0054 93040000 		li	s1,0
  60              	.LVL8:
  61              	.L3:
  62              		.loc 1 19 23 is_stmt 1 discriminator 3
  63 0058 93073006 		li	a5,99
  64 005c 63CA9700 		bgt	s1,a5,.L7
  20:src/test_complex.cpp ****         test_thread();
  65              		.loc 1 20 9 discriminator 2
  66              		.loc 1 20 20 is_stmt 0 discriminator 2
  67 0060 97000000 		call	_Z11test_threadv@plt
  67      E7800000 
  68              	.LVL9:
  19:src/test_complex.cpp ****         test_thread();
  69              		.loc 1 19 5 is_stmt 1 discriminator 2
  70 0068 9B841400 		addiw	s1,s1,1
  71              	.LVL10:
  72 006c 6FF0DFFE 		j	.L3
  73              	.LVL11:
  74              	.L7:
  75              	.LBE2:
  76              	.LBB3:
  21:src/test_complex.cpp ****     for (int i = 0; i < 100; i++)
  77              		.loc 1 21 14 is_stmt 0
  78 0070 93040000 		li	s1,0
  79              	.LVL12:
  80              	.L2:
  81              		.loc 1 21 23 is_stmt 1 discriminator 3
  82 0074 93073006 		li	a5,99
  83 0078 63CA9700 		bgt	s1,a5,.L8
  22:src/test_complex.cpp ****         test_memory();
GAS LISTING /tmp/ccKOXyE7.s 			page 3


  84              		.loc 1 22 9 discriminator 2
  85              		.loc 1 22 20 is_stmt 0 discriminator 2
  86 007c 97000000 		call	_Z11test_memoryv@plt
  86      E7800000 
  87              	.LVL13:
  21:src/test_complex.cpp ****     for (int i = 0; i < 100; i++)
  88              		.loc 1 21 5 is_stmt 1 discriminator 2
  89 0084 9B841400 		addiw	s1,s1,1
  90              	.LVL14:
  91 0088 6FF0DFFE 		j	.L2
  92              	.LVL15:
  93              	.L8:
  94              	.LBE3:
  95              	.LBB4:
  23:src/test_complex.cpp ****     for (int i = 0; i < 100; i++) {
  96              		.loc 1 23 14 is_stmt 0
  97 008c 93040000 		li	s1,0
  98              	.LVL16:
  99              	.L4:
 100              		.loc 1 23 23 is_stmt 1 discriminator 3
 101 0090 93073006 		li	a5,99
 102 0094 63CE9700 		bgt	s1,a5,.L9
  24:src/test_complex.cpp ****         test_thread();
 103              		.loc 1 24 9 discriminator 2
 104              		.loc 1 24 20 is_stmt 0 discriminator 2
 105 0098 97000000 		call	_Z11test_threadv@plt
 105      E7800000 
 106              	.LVL17:
  25:src/test_complex.cpp ****         test_memory();
 107              		.loc 1 25 9 is_stmt 1 discriminator 2
 108              		.loc 1 25 20 is_stmt 0 discriminator 2
 109 00a0 97000000 		call	_Z11test_memoryv@plt
 109      E7800000 
 110              	.LVL18:
  23:src/test_complex.cpp ****     for (int i = 0; i < 100; i++) {
 111              		.loc 1 23 5 is_stmt 1 discriminator 2
 112 00a8 9B841400 		addiw	s1,s1,1
 113              	.LVL19:
 114 00ac 6FF05FFE 		j	.L4
 115              	.LVL20:
 116              	.L9:
 117              	.LBE4:
 118              	.LBB5:
  26:src/test_complex.cpp ****     }
  27:src/test_complex.cpp ****     for (int i = 0; i < 100; i++) {
 119              		.loc 1 27 14 is_stmt 0
 120 00b0 93040000 		li	s1,0
 121              	.LVL21:
 122              	.L5:
 123              		.loc 1 27 23 is_stmt 1 discriminator 3
 124 00b4 93073006 		li	a5,99
 125 00b8 63CE9700 		bgt	s1,a5,.L1
  28:src/test_complex.cpp ****         test_memory();
 126              		.loc 1 28 9 discriminator 2
 127              		.loc 1 28 20 is_stmt 0 discriminator 2
 128 00bc 97000000 		call	_Z11test_memoryv@plt
 128      E7800000 
GAS LISTING /tmp/ccKOXyE7.s 			page 4


 129              	.LVL22:
  29:src/test_complex.cpp ****         test_thread();
 130              		.loc 1 29 9 is_stmt 1 discriminator 2
 131              		.loc 1 29 20 is_stmt 0 discriminator 2
 132 00c4 97000000 		call	_Z11test_threadv@plt
 132      E7800000 
 133              	.LVL23:
  27:src/test_complex.cpp ****         test_memory();
 134              		.loc 1 27 5 is_stmt 1 discriminator 2
 135 00cc 9B841400 		addiw	s1,s1,1
 136              	.LVL24:
 137 00d0 6FF05FFE 		j	.L5
 138              	.LVL25:
 139              	.L1:
 140              	.LBE5:
  30:src/test_complex.cpp ****     }
  31:src/test_complex.cpp **** }
 141              		.loc 1 31 1 is_stmt 0
 142 00d4 83308101 		ld	ra,24(sp)
 143              		.cfi_restore 1
 144 00d8 03340101 		ld	s0,16(sp)
 145              		.cfi_restore 8
 146              		.cfi_def_cfa 2, 32
 147 00dc 83348100 		ld	s1,8(sp)
 148              		.cfi_restore 9
 149              	.LVL26:
 150 00e0 13010102 		addi	sp,sp,32
 151              		.cfi_def_cfa_offset 0
 152 00e4 67800000 		jr	ra
 153              		.cfi_endproc
 154              	.LFE0:
 156              		.align	2
 157              		.globl	_Z33test_memory_thread_sync_semaphorev
 159              	_Z33test_memory_thread_sync_semaphorev:
 160              	.LFB1:
  32:src/test_complex.cpp **** void test_memory_thread_sync_semaphore() {
 161              		.loc 1 32 42 is_stmt 1
 162              		.cfi_startproc
 163 00e8 130101FE 		addi	sp,sp,-32
 164              		.cfi_def_cfa_offset 32
 165 00ec 233C1100 		sd	ra,24(sp)
 166 00f0 23388100 		sd	s0,16(sp)
 167 00f4 23349100 		sd	s1,8(sp)
 168              		.cfi_offset 1, -8
 169              		.cfi_offset 8, -16
 170              		.cfi_offset 9, -24
 171 00f8 13040102 		addi	s0,sp,32
 172              		.cfi_def_cfa 8, 0
  33:src/test_complex.cpp ****     test_semaphore();
 173              		.loc 1 33 5
 174              		.loc 1 33 19 is_stmt 0
 175 00fc 97000000 		call	_Z14test_semaphorev@plt
 175      E7800000 
 176              	.LVL27:
  34:src/test_complex.cpp ****     test_memory();
 177              		.loc 1 34 5 is_stmt 1
 178              		.loc 1 34 16 is_stmt 0
GAS LISTING /tmp/ccKOXyE7.s 			page 5


 179 0104 97000000 		call	_Z11test_memoryv@plt
 179      E7800000 
 180              	.LVL28:
  35:src/test_complex.cpp ****     test_memory();
 181              		.loc 1 35 5 is_stmt 1
 182              		.loc 1 35 16 is_stmt 0
 183 010c 97000000 		call	_Z11test_memoryv@plt
 183      E7800000 
 184              	.LVL29:
  36:src/test_complex.cpp ****     test_thread();
 185              		.loc 1 36 5 is_stmt 1
 186              		.loc 1 36 16 is_stmt 0
 187 0114 97000000 		call	_Z11test_threadv@plt
 187      E7800000 
 188              	.LVL30:
  37:src/test_complex.cpp ****     test_memory();
 189              		.loc 1 37 5 is_stmt 1
 190              		.loc 1 37 16 is_stmt 0
 191 011c 97000000 		call	_Z11test_memoryv@plt
 191      E7800000 
 192              	.LVL31:
  38:src/test_complex.cpp ****     test_thread();
 193              		.loc 1 38 5 is_stmt 1
 194              		.loc 1 38 16 is_stmt 0
 195 0124 97000000 		call	_Z11test_threadv@plt
 195      E7800000 
 196              	.LVL32:
  39:src/test_complex.cpp ****     test_thread();
 197              		.loc 1 39 5 is_stmt 1
 198              		.loc 1 39 16 is_stmt 0
 199 012c 97000000 		call	_Z11test_threadv@plt
 199      E7800000 
 200              	.LVL33:
  40:src/test_complex.cpp ****     test_semaphore();
 201              		.loc 1 40 5 is_stmt 1
 202              		.loc 1 40 19 is_stmt 0
 203 0134 97000000 		call	_Z14test_semaphorev@plt
 203      E7800000 
 204              	.LVL34:
  41:src/test_complex.cpp ****     test_semaphore();
 205              		.loc 1 41 5 is_stmt 1
 206              		.loc 1 41 19 is_stmt 0
 207 013c 97000000 		call	_Z14test_semaphorev@plt
 207      E7800000 
 208              	.LVL35:
  42:src/test_complex.cpp ****     test_memory();
 209              		.loc 1 42 5 is_stmt 1
 210              		.loc 1 42 16 is_stmt 0
 211 0144 97000000 		call	_Z11test_memoryv@plt
 211      E7800000 
 212              	.LVL36:
  43:src/test_complex.cpp ****     test_memory();
 213              		.loc 1 43 5 is_stmt 1
 214              		.loc 1 43 16 is_stmt 0
 215 014c 97000000 		call	_Z11test_memoryv@plt
 215      E7800000 
 216              	.LVL37:
GAS LISTING /tmp/ccKOXyE7.s 			page 6


  44:src/test_complex.cpp **** 
  45:src/test_complex.cpp ****     for (int i = 0; i < 100; i++)
 217              		.loc 1 45 5 is_stmt 1
 218              	.LBB6:
 219              		.loc 1 45 14 is_stmt 0
 220 0154 93040000 		li	s1,0
 221              	.LVL38:
 222              	.L13:
 223              		.loc 1 45 23 is_stmt 1 discriminator 3
 224 0158 93073006 		li	a5,99
 225 015c 63CA9700 		bgt	s1,a5,.L19
  46:src/test_complex.cpp ****         test_thread();
 226              		.loc 1 46 9 discriminator 2
 227              		.loc 1 46 20 is_stmt 0 discriminator 2
 228 0160 97000000 		call	_Z11test_threadv@plt
 228      E7800000 
 229              	.LVL39:
  45:src/test_complex.cpp ****         test_thread();
 230              		.loc 1 45 5 is_stmt 1 discriminator 2
 231 0168 9B841400 		addiw	s1,s1,1
 232              	.LVL40:
 233 016c 6FF0DFFE 		j	.L13
 234              	.LVL41:
 235              	.L19:
 236              	.LBE6:
 237              	.LBB7:
  47:src/test_complex.cpp ****     for (int i = 0; i < 100; i++)
 238              		.loc 1 47 14 is_stmt 0
 239 0170 93040000 		li	s1,0
 240              	.LVL42:
 241              	.L12:
 242              		.loc 1 47 23 is_stmt 1 discriminator 3
 243 0174 93073006 		li	a5,99
 244 0178 63CA9700 		bgt	s1,a5,.L20
  48:src/test_complex.cpp ****         test_memory();
 245              		.loc 1 48 9 discriminator 2
 246              		.loc 1 48 20 is_stmt 0 discriminator 2
 247 017c 97000000 		call	_Z11test_memoryv@plt
 247      E7800000 
 248              	.LVL43:
  47:src/test_complex.cpp ****     for (int i = 0; i < 100; i++)
 249              		.loc 1 47 5 is_stmt 1 discriminator 2
 250 0184 9B841400 		addiw	s1,s1,1
 251              	.LVL44:
 252 0188 6FF0DFFE 		j	.L12
 253              	.LVL45:
 254              	.L20:
 255              	.LBE7:
 256              	.LBB8:
  49:src/test_complex.cpp ****     for (int i = 0; i < 100; i++)
 257              		.loc 1 49 14 is_stmt 0
 258 018c 93040000 		li	s1,0
 259              	.LVL46:
 260              	.L14:
 261              		.loc 1 49 23 is_stmt 1 discriminator 3
 262 0190 93073006 		li	a5,99
 263 0194 63CA9700 		bgt	s1,a5,.L21
GAS LISTING /tmp/ccKOXyE7.s 			page 7


  50:src/test_complex.cpp ****         test_semaphore();
 264              		.loc 1 50 9 discriminator 2
 265              		.loc 1 50 23 is_stmt 0 discriminator 2
 266 0198 97000000 		call	_Z14test_semaphorev@plt
 266      E7800000 
 267              	.LVL47:
  49:src/test_complex.cpp ****     for (int i = 0; i < 100; i++)
 268              		.loc 1 49 5 is_stmt 1 discriminator 2
 269 01a0 9B841400 		addiw	s1,s1,1
 270              	.LVL48:
 271 01a4 6FF0DFFE 		j	.L14
 272              	.LVL49:
 273              	.L21:
 274              	.LBE8:
 275              	.LBB9:
  51:src/test_complex.cpp ****     for (int i = 0; i < 100; i++) {
 276              		.loc 1 51 14 is_stmt 0
 277 01a8 93040000 		li	s1,0
 278              	.LVL50:
 279              	.L15:
 280              		.loc 1 51 23 is_stmt 1 discriminator 3
 281 01ac 93073006 		li	a5,99
 282 01b0 63C29702 		bgt	s1,a5,.L22
  52:src/test_complex.cpp ****         test_thread();
 283              		.loc 1 52 9 discriminator 2
 284              		.loc 1 52 20 is_stmt 0 discriminator 2
 285 01b4 97000000 		call	_Z11test_threadv@plt
 285      E7800000 
 286              	.LVL51:
  53:src/test_complex.cpp ****         test_semaphore();
 287              		.loc 1 53 9 is_stmt 1 discriminator 2
 288              		.loc 1 53 23 is_stmt 0 discriminator 2
 289 01bc 97000000 		call	_Z14test_semaphorev@plt
 289      E7800000 
 290              	.LVL52:
  54:src/test_complex.cpp ****         test_memory();
 291              		.loc 1 54 9 is_stmt 1 discriminator 2
 292              		.loc 1 54 20 is_stmt 0 discriminator 2
 293 01c4 97000000 		call	_Z11test_memoryv@plt
 293      E7800000 
 294              	.LVL53:
  51:src/test_complex.cpp ****         test_thread();
 295              		.loc 1 51 5 is_stmt 1 discriminator 2
 296 01cc 9B841400 		addiw	s1,s1,1
 297              	.LVL54:
 298 01d0 6FF0DFFD 		j	.L15
 299              	.LVL55:
 300              	.L22:
 301              	.LBE9:
 302              	.LBB10:
  55:src/test_complex.cpp ****     }
  56:src/test_complex.cpp ****     for (int i = 0; i < 100; i++) {
 303              		.loc 1 56 14 is_stmt 0
 304 01d4 93040000 		li	s1,0
 305              	.LVL56:
 306              	.L16:
 307              		.loc 1 56 23 is_stmt 1 discriminator 3
GAS LISTING /tmp/ccKOXyE7.s 			page 8


 308 01d8 93073006 		li	a5,99
 309 01dc 63C29702 		bgt	s1,a5,.L23
  57:src/test_complex.cpp ****         test_memory();
 310              		.loc 1 57 9 discriminator 2
 311              		.loc 1 57 20 is_stmt 0 discriminator 2
 312 01e0 97000000 		call	_Z11test_memoryv@plt
 312      E7800000 
 313              	.LVL57:
  58:src/test_complex.cpp ****         test_semaphore();
 314              		.loc 1 58 9 is_stmt 1 discriminator 2
 315              		.loc 1 58 23 is_stmt 0 discriminator 2
 316 01e8 97000000 		call	_Z14test_semaphorev@plt
 316      E7800000 
 317              	.LVL58:
  59:src/test_complex.cpp ****         test_thread();
 318              		.loc 1 59 9 is_stmt 1 discriminator 2
 319              		.loc 1 59 20 is_stmt 0 discriminator 2
 320 01f0 97000000 		call	_Z11test_threadv@plt
 320      E7800000 
 321              	.LVL59:
  56:src/test_complex.cpp ****         test_memory();
 322              		.loc 1 56 5 is_stmt 1 discriminator 2
 323 01f8 9B841400 		addiw	s1,s1,1
 324              	.LVL60:
 325 01fc 6FF0DFFD 		j	.L16
 326              	.LVL61:
 327              	.L23:
 328              	.LBE10:
 329              	.LBB11:
  60:src/test_complex.cpp ****     }
  61:src/test_complex.cpp ****     for (int i = 0; i < 100; i++) {
 330              		.loc 1 61 14 is_stmt 0
 331 0200 93040000 		li	s1,0
 332              	.LVL62:
 333              	.L17:
 334              		.loc 1 61 23 is_stmt 1 discriminator 3
 335 0204 93073006 		li	a5,99
 336 0208 63CA9702 		bgt	s1,a5,.L11
  62:src/test_complex.cpp ****         test_semaphore();
 337              		.loc 1 62 9 discriminator 2
 338              		.loc 1 62 23 is_stmt 0 discriminator 2
 339 020c 97000000 		call	_Z14test_semaphorev@plt
 339      E7800000 
 340              	.LVL63:
  63:src/test_complex.cpp ****         test_memory();
 341              		.loc 1 63 9 is_stmt 1 discriminator 2
 342              		.loc 1 63 20 is_stmt 0 discriminator 2
 343 0214 97000000 		call	_Z11test_memoryv@plt
 343      E7800000 
 344              	.LVL64:
  64:src/test_complex.cpp ****         test_semaphore();
 345              		.loc 1 64 9 is_stmt 1 discriminator 2
 346              		.loc 1 64 23 is_stmt 0 discriminator 2
 347 021c 97000000 		call	_Z14test_semaphorev@plt
 347      E7800000 
 348              	.LVL65:
  65:src/test_complex.cpp ****         test_thread();
GAS LISTING /tmp/ccKOXyE7.s 			page 9


 349              		.loc 1 65 9 is_stmt 1 discriminator 2
 350              		.loc 1 65 20 is_stmt 0 discriminator 2
 351 0224 97000000 		call	_Z11test_threadv@plt
 351      E7800000 
 352              	.LVL66:
  66:src/test_complex.cpp ****         test_semaphore();
 353              		.loc 1 66 9 is_stmt 1 discriminator 2
 354              		.loc 1 66 23 is_stmt 0 discriminator 2
 355 022c 97000000 		call	_Z14test_semaphorev@plt
 355      E7800000 
 356              	.LVL67:
  61:src/test_complex.cpp ****         test_semaphore();
 357              		.loc 1 61 5 is_stmt 1 discriminator 2
 358 0234 9B841400 		addiw	s1,s1,1
 359              	.LVL68:
 360 0238 6FF0DFFC 		j	.L17
 361              	.LVL69:
 362              	.L11:
 363              	.LBE11:
  67:src/test_complex.cpp ****     }
  68:src/test_complex.cpp **** }
 364              		.loc 1 68 1 is_stmt 0
 365 023c 83308101 		ld	ra,24(sp)
 366              		.cfi_restore 1
 367 0240 03340101 		ld	s0,16(sp)
 368              		.cfi_restore 8
 369              		.cfi_def_cfa 2, 32
 370 0244 83348100 		ld	s1,8(sp)
 371              		.cfi_restore 9
 372              	.LVL70:
 373 0248 13010102 		addi	sp,sp,32
 374              		.cfi_def_cfa_offset 0
 375 024c 67800000 		jr	ra
 376              		.cfi_endproc
 377              	.LFE1:
 379              		.align	2
 380              		.globl	_Z12test_complexv
 382              	_Z12test_complexv:
 383              	.LFB2:
  69:src/test_complex.cpp **** 
  70:src/test_complex.cpp **** void test_complex() {
 384              		.loc 1 70 21 is_stmt 1
 385              		.cfi_startproc
 386 0250 130101FF 		addi	sp,sp,-16
 387              		.cfi_def_cfa_offset 16
 388 0254 23341100 		sd	ra,8(sp)
 389 0258 23308100 		sd	s0,0(sp)
 390              		.cfi_offset 1, -8
 391              		.cfi_offset 8, -16
 392 025c 13040101 		addi	s0,sp,16
 393              		.cfi_def_cfa 8, 0
  71:src/test_complex.cpp ****     //test_memory_thread_sync();
  72:src/test_complex.cpp ****     test_memory_thread_sync_semaphore();
 394              		.loc 1 72 5
 395              		.loc 1 72 38 is_stmt 0
 396 0260 97000000 		call	_Z33test_memory_thread_sync_semaphorev
 396      E7800000 
GAS LISTING /tmp/ccKOXyE7.s 			page 10


 397              	.LVL71:
  73:src/test_complex.cpp **** }...
 398              		.loc 1 73 1
 399 0268 83308100 		ld	ra,8(sp)
 400              		.cfi_restore 1
 401 026c 03340100 		ld	s0,0(sp)
 402              		.cfi_restore 8
 403              		.cfi_def_cfa 2, 16
 404 0270 13010101 		addi	sp,sp,16
 405              		.cfi_def_cfa_offset 0
 406 0274 67800000 		jr	ra
 407              		.cfi_endproc
 408              	.LFE2:
 410              	.Letext0:
GAS LISTING /tmp/ccKOXyE7.s 			page 11


DEFINED SYMBOLS
                            *ABS*:0000000000000000 test_complex.cpp
     /tmp/ccKOXyE7.s:9      .text:0000000000000000 _Z23test_memory_thread_syncv
     /tmp/ccKOXyE7.s:13     .text:0000000000000000 .L0 
     /tmp/ccKOXyE7.s:14     .text:0000000000000000 .L0 
     /tmp/ccKOXyE7.s:15     .text:0000000000000004 .L0 
     /tmp/ccKOXyE7.s:19     .text:0000000000000010 .L0 
     /tmp/ccKOXyE7.s:20     .text:0000000000000010 .L0 
     /tmp/ccKOXyE7.s:21     .text:0000000000000010 .L0 
     /tmp/ccKOXyE7.s:23     .text:0000000000000014 .L0 
     /tmp/ccKOXyE7.s:25     .text:0000000000000014 .L0 
     /tmp/ccKOXyE7.s:26     .text:0000000000000014 .L0 
     /tmp/ccKOXyE7.s:29     .text:000000000000001c .L0 
     /tmp/ccKOXyE7.s:30     .text:000000000000001c .L0 
     /tmp/ccKOXyE7.s:33     .text:0000000000000024 .L0 
     /tmp/ccKOXyE7.s:34     .text:0000000000000024 .L0 
     /tmp/ccKOXyE7.s:37     .text:000000000000002c .L0 
     /tmp/ccKOXyE7.s:38     .text:000000000000002c .L0 
     /tmp/ccKOXyE7.s:41     .text:0000000000000034 .L0 
     /tmp/ccKOXyE7.s:42     .text:0000000000000034 .L0 
     /tmp/ccKOXyE7.s:45     .text:000000000000003c .L0 
     /tmp/ccKOXyE7.s:46     .text:000000000000003c .L0 
     /tmp/ccKOXyE7.s:49     .text:0000000000000044 .L0 
     /tmp/ccKOXyE7.s:50     .text:0000000000000044 .L0 
     /tmp/ccKOXyE7.s:53     .text:000000000000004c .L0 
     /tmp/ccKOXyE7.s:54     .text:000000000000004c .L0 
     /tmp/ccKOXyE7.s:58     .text:0000000000000054 .L0 
     /tmp/ccKOXyE7.s:59     .text:0000000000000054 .L0 
     /tmp/ccKOXyE7.s:63     .text:0000000000000058 .L0 
     /tmp/ccKOXyE7.s:66     .text:0000000000000060 .L0 
     /tmp/ccKOXyE7.s:67     .text:0000000000000060 .L0 
     /tmp/ccKOXyE7.s:70     .text:0000000000000068 .L0 
     /tmp/ccKOXyE7.s:78     .text:0000000000000070 .L0 
     /tmp/ccKOXyE7.s:82     .text:0000000000000074 .L0 
     /tmp/ccKOXyE7.s:85     .text:000000000000007c .L0 
     /tmp/ccKOXyE7.s:86     .text:000000000000007c .L0 
     /tmp/ccKOXyE7.s:89     .text:0000000000000084 .L0 
     /tmp/ccKOXyE7.s:97     .text:000000000000008c .L0 
     /tmp/ccKOXyE7.s:101    .text:0000000000000090 .L0 
     /tmp/ccKOXyE7.s:104    .text:0000000000000098 .L0 
     /tmp/ccKOXyE7.s:105    .text:0000000000000098 .L0 
     /tmp/ccKOXyE7.s:108    .text:00000000000000a0 .L0 
     /tmp/ccKOXyE7.s:109    .text:00000000000000a0 .L0 
     /tmp/ccKOXyE7.s:112    .text:00000000000000a8 .L0 
     /tmp/ccKOXyE7.s:120    .text:00000000000000b0 .L0 
     /tmp/ccKOXyE7.s:124    .text:00000000000000b4 .L0 
     /tmp/ccKOXyE7.s:127    .text:00000000000000bc .L0 
     /tmp/ccKOXyE7.s:128    .text:00000000000000bc .L0 
     /tmp/ccKOXyE7.s:131    .text:00000000000000c4 .L0 
     /tmp/ccKOXyE7.s:132    .text:00000000000000c4 .L0 
     /tmp/ccKOXyE7.s:135    .text:00000000000000cc .L0 
     /tmp/ccKOXyE7.s:142    .text:00000000000000d4 .L0 
     /tmp/ccKOXyE7.s:143    .text:00000000000000d8 .L0 
     /tmp/ccKOXyE7.s:145    .text:00000000000000dc .L0 
     /tmp/ccKOXyE7.s:146    .text:00000000000000dc .L0 
     /tmp/ccKOXyE7.s:148    .text:00000000000000e0 .L0 
     /tmp/ccKOXyE7.s:151    .text:00000000000000e4 .L0 
GAS LISTING /tmp/ccKOXyE7.s 			page 12


     /tmp/ccKOXyE7.s:153    .text:00000000000000e8 .L0 
     /tmp/ccKOXyE7.s:159    .text:00000000000000e8 _Z33test_memory_thread_sync_semaphorev
     /tmp/ccKOXyE7.s:162    .text:00000000000000e8 .L0 
     /tmp/ccKOXyE7.s:163    .text:00000000000000e8 .L0 
     /tmp/ccKOXyE7.s:164    .text:00000000000000ec .L0 
     /tmp/ccKOXyE7.s:168    .text:00000000000000f8 .L0 
     /tmp/ccKOXyE7.s:169    .text:00000000000000f8 .L0 
     /tmp/ccKOXyE7.s:170    .text:00000000000000f8 .L0 
     /tmp/ccKOXyE7.s:172    .text:00000000000000fc .L0 
     /tmp/ccKOXyE7.s:174    .text:00000000000000fc .L0 
     /tmp/ccKOXyE7.s:175    .text:00000000000000fc .L0 
     /tmp/ccKOXyE7.s:178    .text:0000000000000104 .L0 
     /tmp/ccKOXyE7.s:179    .text:0000000000000104 .L0 
     /tmp/ccKOXyE7.s:182    .text:000000000000010c .L0 
     /tmp/ccKOXyE7.s:183    .text:000000000000010c .L0 
     /tmp/ccKOXyE7.s:186    .text:0000000000000114 .L0 
     /tmp/ccKOXyE7.s:187    .text:0000000000000114 .L0 
     /tmp/ccKOXyE7.s:190    .text:000000000000011c .L0 
     /tmp/ccKOXyE7.s:191    .text:000000000000011c .L0 
     /tmp/ccKOXyE7.s:194    .text:0000000000000124 .L0 
     /tmp/ccKOXyE7.s:195    .text:0000000000000124 .L0 
     /tmp/ccKOXyE7.s:198    .text:000000000000012c .L0 
     /tmp/ccKOXyE7.s:199    .text:000000000000012c .L0 
     /tmp/ccKOXyE7.s:202    .text:0000000000000134 .L0 
     /tmp/ccKOXyE7.s:203    .text:0000000000000134 .L0 
     /tmp/ccKOXyE7.s:206    .text:000000000000013c .L0 
     /tmp/ccKOXyE7.s:207    .text:000000000000013c .L0 
     /tmp/ccKOXyE7.s:210    .text:0000000000000144 .L0 
     /tmp/ccKOXyE7.s:211    .text:0000000000000144 .L0 
     /tmp/ccKOXyE7.s:214    .text:000000000000014c .L0 
     /tmp/ccKOXyE7.s:215    .text:000000000000014c .L0 
     /tmp/ccKOXyE7.s:219    .text:0000000000000154 .L0 
     /tmp/ccKOXyE7.s:220    .text:0000000000000154 .L0 
     /tmp/ccKOXyE7.s:224    .text:0000000000000158 .L0 
     /tmp/ccKOXyE7.s:227    .text:0000000000000160 .L0 
     /tmp/ccKOXyE7.s:228    .text:0000000000000160 .L0 
     /tmp/ccKOXyE7.s:231    .text:0000000000000168 .L0 
     /tmp/ccKOXyE7.s:239    .text:0000000000000170 .L0 
     /tmp/ccKOXyE7.s:243    .text:0000000000000174 .L0 
     /tmp/ccKOXyE7.s:246    .text:000000000000017c .L0 
     /tmp/ccKOXyE7.s:247    .text:000000000000017c .L0 
     /tmp/ccKOXyE7.s:250    .text:0000000000000184 .L0 
     /tmp/ccKOXyE7.s:258    .text:000000000000018c .L0 
     /tmp/ccKOXyE7.s:262    .text:0000000000000190 .L0 
     /tmp/ccKOXyE7.s:265    .text:0000000000000198 .L0 
     /tmp/ccKOXyE7.s:266    .text:0000000000000198 .L0 
     /tmp/ccKOXyE7.s:269    .text:00000000000001a0 .L0 
     /tmp/ccKOXyE7.s:277    .text:00000000000001a8 .L0 
     /tmp/ccKOXyE7.s:281    .text:00000000000001ac .L0 
     /tmp/ccKOXyE7.s:284    .text:00000000000001b4 .L0 
     /tmp/ccKOXyE7.s:285    .text:00000000000001b4 .L0 
     /tmp/ccKOXyE7.s:288    .text:00000000000001bc .L0 
     /tmp/ccKOXyE7.s:289    .text:00000000000001bc .L0 
     /tmp/ccKOXyE7.s:292    .text:00000000000001c4 .L0 
     /tmp/ccKOXyE7.s:293    .text:00000000000001c4 .L0 
     /tmp/ccKOXyE7.s:296    .text:00000000000001cc .L0 
     /tmp/ccKOXyE7.s:304    .text:00000000000001d4 .L0 
GAS LISTING /tmp/ccKOXyE7.s 			page 13


     /tmp/ccKOXyE7.s:308    .text:00000000000001d8 .L0 
     /tmp/ccKOXyE7.s:311    .text:00000000000001e0 .L0 
     /tmp/ccKOXyE7.s:312    .text:00000000000001e0 .L0 
     /tmp/ccKOXyE7.s:315    .text:00000000000001e8 .L0 
     /tmp/ccKOXyE7.s:316    .text:00000000000001e8 .L0 
     /tmp/ccKOXyE7.s:319    .text:00000000000001f0 .L0 
     /tmp/ccKOXyE7.s:320    .text:00000000000001f0 .L0 
     /tmp/ccKOXyE7.s:323    .text:00000000000001f8 .L0 
     /tmp/ccKOXyE7.s:331    .text:0000000000000200 .L0 
     /tmp/ccKOXyE7.s:335    .text:0000000000000204 .L0 
     /tmp/ccKOXyE7.s:338    .text:000000000000020c .L0 
     /tmp/ccKOXyE7.s:339    .text:000000000000020c .L0 
     /tmp/ccKOXyE7.s:342    .text:0000000000000214 .L0 
     /tmp/ccKOXyE7.s:343    .text:0000000000000214 .L0 
     /tmp/ccKOXyE7.s:346    .text:000000000000021c .L0 
     /tmp/ccKOXyE7.s:347    .text:000000000000021c .L0 
     /tmp/ccKOXyE7.s:350    .text:0000000000000224 .L0 
     /tmp/ccKOXyE7.s:351    .text:0000000000000224 .L0 
     /tmp/ccKOXyE7.s:354    .text:000000000000022c .L0 
     /tmp/ccKOXyE7.s:355    .text:000000000000022c .L0 
     /tmp/ccKOXyE7.s:358    .text:0000000000000234 .L0 
     /tmp/ccKOXyE7.s:365    .text:000000000000023c .L0 
     /tmp/ccKOXyE7.s:366    .text:0000000000000240 .L0 
     /tmp/ccKOXyE7.s:368    .text:0000000000000244 .L0 
     /tmp/ccKOXyE7.s:369    .text:0000000000000244 .L0 
     /tmp/ccKOXyE7.s:371    .text:0000000000000248 .L0 
     /tmp/ccKOXyE7.s:374    .text:000000000000024c .L0 
     /tmp/ccKOXyE7.s:376    .text:0000000000000250 .L0 
     /tmp/ccKOXyE7.s:382    .text:0000000000000250 _Z12test_complexv
     /tmp/ccKOXyE7.s:385    .text:0000000000000250 .L0 
     /tmp/ccKOXyE7.s:386    .text:0000000000000250 .L0 
     /tmp/ccKOXyE7.s:387    .text:0000000000000254 .L0 
     /tmp/ccKOXyE7.s:390    .text:000000000000025c .L0 
     /tmp/ccKOXyE7.s:391    .text:000000000000025c .L0 
     /tmp/ccKOXyE7.s:393    .text:0000000000000260 .L0 
     /tmp/ccKOXyE7.s:395    .text:0000000000000260 .L0 
     /tmp/ccKOXyE7.s:396    .text:0000000000000260 .L0 
     /tmp/ccKOXyE7.s:399    .text:0000000000000268 .L0 
     /tmp/ccKOXyE7.s:400    .text:000000000000026c .L0 
     /tmp/ccKOXyE7.s:402    .text:0000000000000270 .L0 
     /tmp/ccKOXyE7.s:403    .text:0000000000000270 .L0 
     /tmp/ccKOXyE7.s:405    .text:0000000000000274 .L0 
     /tmp/ccKOXyE7.s:407    .text:0000000000000278 .L0 
     /tmp/ccKOXyE7.s:411    .text:0000000000000278 .L0 
     /tmp/ccKOXyE7.s:74     .text:0000000000000070 .L7
     /tmp/ccKOXyE7.s:61     .text:0000000000000058 .L3
     /tmp/ccKOXyE7.s:93     .text:000000000000008c .L8
     /tmp/ccKOXyE7.s:80     .text:0000000000000074 .L2
     /tmp/ccKOXyE7.s:116    .text:00000000000000b0 .L9
     /tmp/ccKOXyE7.s:99     .text:0000000000000090 .L4
     /tmp/ccKOXyE7.s:139    .text:00000000000000d4 .L1
     /tmp/ccKOXyE7.s:122    .text:00000000000000b4 .L5
     /tmp/ccKOXyE7.s:235    .text:0000000000000170 .L19
     /tmp/ccKOXyE7.s:222    .text:0000000000000158 .L13
     /tmp/ccKOXyE7.s:254    .text:000000000000018c .L20
     /tmp/ccKOXyE7.s:241    .text:0000000000000174 .L12
     /tmp/ccKOXyE7.s:273    .text:00000000000001a8 .L21
GAS LISTING /tmp/ccKOXyE7.s 			page 14


     /tmp/ccKOXyE7.s:260    .text:0000000000000190 .L14
     /tmp/ccKOXyE7.s:300    .text:00000000000001d4 .L22
     /tmp/ccKOXyE7.s:279    .text:00000000000001ac .L15
     /tmp/ccKOXyE7.s:327    .text:0000000000000200 .L23
     /tmp/ccKOXyE7.s:306    .text:00000000000001d8 .L16
     /tmp/ccKOXyE7.s:362    .text:000000000000023c .L11
     /tmp/ccKOXyE7.s:333    .text:0000000000000204 .L17
     /tmp/ccKOXyE7.s:725    .debug_abbrev:0000000000000000 .Ldebug_abbrev0
     /tmp/ccKOXyE7.s:983    .debug_str:000000000000003a .LASF12
     /tmp/ccKOXyE7.s:997    .debug_str:0000000000000187 .LASF13
     /tmp/ccKOXyE7.s:1001   .debug_str:00000000000001b4 .LASF14
     /tmp/ccKOXyE7.s:5      .text:0000000000000000 .Ltext0
     /tmp/ccKOXyE7.s:410    .text:0000000000000278 .Letext0
     /tmp/ccKOXyE7.s:975    .debug_line:0000000000000000 .Ldebug_line0
     /tmp/ccKOXyE7.s:1003   .debug_str:00000000000001d7 .LASF0
     /tmp/ccKOXyE7.s:1005   .debug_str:00000000000001e4 .LASF2
     /tmp/ccKOXyE7.s:383    .text:0000000000000250 .LFB2
     /tmp/ccKOXyE7.s:408    .text:0000000000000278 .LFE2
     /tmp/ccKOXyE7.s:397    .text:0000000000000268 .LVL71
     /tmp/ccKOXyE7.s:989    .debug_str:0000000000000123 .LASF1
     /tmp/ccKOXyE7.s:993    .debug_str:0000000000000151 .LASF3
     /tmp/ccKOXyE7.s:160    .text:00000000000000e8 .LFB1
     /tmp/ccKOXyE7.s:377    .text:0000000000000250 .LFE1
     /tmp/ccKOXyE7.s:218    .text:0000000000000154 .LBB6
     /tmp/ccKOXyE7.s:236    .text:0000000000000170 .LBE6
     /tmp/ccKOXyE7.s:842    .debug_loc:0000000000000000 .LLST4
     /tmp/ccKOXyE7.s:229    .text:0000000000000168 .LVL39
     /tmp/ccKOXyE7.s:237    .text:0000000000000170 .LBB7
     /tmp/ccKOXyE7.s:255    .text:000000000000018c .LBE7
     /tmp/ccKOXyE7.s:858    .debug_loc:000000000000004a .LLST5
     /tmp/ccKOXyE7.s:248    .text:0000000000000184 .LVL43
     /tmp/ccKOXyE7.s:256    .text:000000000000018c .LBB8
     /tmp/ccKOXyE7.s:274    .text:00000000000001a8 .LBE8
     /tmp/ccKOXyE7.s:869    .debug_loc:0000000000000080 .LLST6
     /tmp/ccKOXyE7.s:267    .text:00000000000001a0 .LVL47
     /tmp/ccKOXyE7.s:275    .text:00000000000001a8 .LBB9
     /tmp/ccKOXyE7.s:301    .text:00000000000001d4 .LBE9
     /tmp/ccKOXyE7.s:880    .debug_loc:00000000000000b6 .LLST7
     /tmp/ccKOXyE7.s:286    .text:00000000000001bc .LVL51
     /tmp/ccKOXyE7.s:290    .text:00000000000001c4 .LVL52
     /tmp/ccKOXyE7.s:294    .text:00000000000001cc .LVL53
     /tmp/ccKOXyE7.s:302    .text:00000000000001d4 .LBB10
     /tmp/ccKOXyE7.s:328    .text:0000000000000200 .LBE10
     /tmp/ccKOXyE7.s:891    .debug_loc:00000000000000ec .LLST8
     /tmp/ccKOXyE7.s:313    .text:00000000000001e8 .LVL57
     /tmp/ccKOXyE7.s:317    .text:00000000000001f0 .LVL58
     /tmp/ccKOXyE7.s:321    .text:00000000000001f8 .LVL59
     /tmp/ccKOXyE7.s:329    .text:0000000000000200 .LBB11
     /tmp/ccKOXyE7.s:363    .text:000000000000023c .LBE11
     /tmp/ccKOXyE7.s:902    .debug_loc:0000000000000122 .LLST9
     /tmp/ccKOXyE7.s:340    .text:0000000000000214 .LVL63
     /tmp/ccKOXyE7.s:344    .text:000000000000021c .LVL64
     /tmp/ccKOXyE7.s:348    .text:0000000000000224 .LVL65
     /tmp/ccKOXyE7.s:352    .text:000000000000022c .LVL66
     /tmp/ccKOXyE7.s:356    .text:0000000000000234 .LVL67
     /tmp/ccKOXyE7.s:176    .text:0000000000000104 .LVL27
     /tmp/ccKOXyE7.s:180    .text:000000000000010c .LVL28
GAS LISTING /tmp/ccKOXyE7.s 			page 15


     /tmp/ccKOXyE7.s:184    .text:0000000000000114 .LVL29
     /tmp/ccKOXyE7.s:188    .text:000000000000011c .LVL30
     /tmp/ccKOXyE7.s:192    .text:0000000000000124 .LVL31
     /tmp/ccKOXyE7.s:196    .text:000000000000012c .LVL32
     /tmp/ccKOXyE7.s:200    .text:0000000000000134 .LVL33
     /tmp/ccKOXyE7.s:204    .text:000000000000013c .LVL34
     /tmp/ccKOXyE7.s:208    .text:0000000000000144 .LVL35
     /tmp/ccKOXyE7.s:212    .text:000000000000014c .LVL36
     /tmp/ccKOXyE7.s:216    .text:0000000000000154 .LVL37
     /tmp/ccKOXyE7.s:999    .debug_str:000000000000019c .LASF4
     /tmp/ccKOXyE7.s:981    .debug_str:000000000000001d .LASF5
     /tmp/ccKOXyE7.s:10     .text:0000000000000000 .LFB0
     /tmp/ccKOXyE7.s:154    .text:00000000000000e8 .LFE0
     /tmp/ccKOXyE7.s:57     .text:0000000000000054 .LBB2
     /tmp/ccKOXyE7.s:75     .text:0000000000000070 .LBE2
     /tmp/ccKOXyE7.s:913    .debug_loc:0000000000000158 .LLST0
     /tmp/ccKOXyE7.s:68     .text:0000000000000068 .LVL9
     /tmp/ccKOXyE7.s:76     .text:0000000000000070 .LBB3
     /tmp/ccKOXyE7.s:94     .text:000000000000008c .LBE3
     /tmp/ccKOXyE7.s:929    .debug_loc:00000000000001a2 .LLST1
     /tmp/ccKOXyE7.s:87     .text:0000000000000084 .LVL13
     /tmp/ccKOXyE7.s:95     .text:000000000000008c .LBB4
     /tmp/ccKOXyE7.s:117    .text:00000000000000b0 .LBE4
     /tmp/ccKOXyE7.s:940    .debug_loc:00000000000001d8 .LLST2
     /tmp/ccKOXyE7.s:106    .text:00000000000000a0 .LVL17
     /tmp/ccKOXyE7.s:110    .text:00000000000000a8 .LVL18
     /tmp/ccKOXyE7.s:118    .text:00000000000000b0 .LBB5
     /tmp/ccKOXyE7.s:140    .text:00000000000000d4 .LBE5
     /tmp/ccKOXyE7.s:951    .debug_loc:000000000000020e .LLST3
     /tmp/ccKOXyE7.s:129    .text:00000000000000c4 .LVL22
     /tmp/ccKOXyE7.s:133    .text:00000000000000cc .LVL23
     /tmp/ccKOXyE7.s:27     .text:000000000000001c .LVL0
     /tmp/ccKOXyE7.s:31     .text:0000000000000024 .LVL1
     /tmp/ccKOXyE7.s:35     .text:000000000000002c .LVL2
     /tmp/ccKOXyE7.s:39     .text:0000000000000034 .LVL3
     /tmp/ccKOXyE7.s:43     .text:000000000000003c .LVL4
     /tmp/ccKOXyE7.s:47     .text:0000000000000044 .LVL5
     /tmp/ccKOXyE7.s:51     .text:000000000000004c .LVL6
     /tmp/ccKOXyE7.s:55     .text:0000000000000054 .LVL7
     /tmp/ccKOXyE7.s:977    .debug_str:0000000000000000 .LASF6
     /tmp/ccKOXyE7.s:991    .debug_str:0000000000000145 .LASF8
     /tmp/ccKOXyE7.s:985    .debug_str:00000000000000fe .LASF7
     /tmp/ccKOXyE7.s:979    .debug_str:0000000000000011 .LASF9
     /tmp/ccKOXyE7.s:987    .debug_str:000000000000010f .LASF10
     /tmp/ccKOXyE7.s:995    .debug_str:0000000000000178 .LASF11
     /tmp/ccKOXyE7.s:221    .text:0000000000000158 .LVL38
     /tmp/ccKOXyE7.s:232    .text:000000000000016c .LVL40
     /tmp/ccKOXyE7.s:234    .text:0000000000000170 .LVL41
     /tmp/ccKOXyE7.s:240    .text:0000000000000174 .LVL42
     /tmp/ccKOXyE7.s:251    .text:0000000000000188 .LVL44
     /tmp/ccKOXyE7.s:253    .text:000000000000018c .LVL45
     /tmp/ccKOXyE7.s:259    .text:0000000000000190 .LVL46
     /tmp/ccKOXyE7.s:270    .text:00000000000001a4 .LVL48
     /tmp/ccKOXyE7.s:272    .text:00000000000001a8 .LVL49
     /tmp/ccKOXyE7.s:278    .text:00000000000001ac .LVL50
     /tmp/ccKOXyE7.s:297    .text:00000000000001d0 .LVL54
     /tmp/ccKOXyE7.s:299    .text:00000000000001d4 .LVL55
GAS LISTING /tmp/ccKOXyE7.s 			page 16


     /tmp/ccKOXyE7.s:305    .text:00000000000001d8 .LVL56
     /tmp/ccKOXyE7.s:324    .text:00000000000001fc .LVL60
     /tmp/ccKOXyE7.s:326    .text:0000000000000200 .LVL61
     /tmp/ccKOXyE7.s:332    .text:0000000000000204 .LVL62
     /tmp/ccKOXyE7.s:359    .text:0000000000000238 .LVL68
     /tmp/ccKOXyE7.s:361    .text:000000000000023c .LVL69
     /tmp/ccKOXyE7.s:372    .text:0000000000000248 .LVL70
     /tmp/ccKOXyE7.s:60     .text:0000000000000058 .LVL8
     /tmp/ccKOXyE7.s:71     .text:000000000000006c .LVL10
     /tmp/ccKOXyE7.s:73     .text:0000000000000070 .LVL11
     /tmp/ccKOXyE7.s:79     .text:0000000000000074 .LVL12
     /tmp/ccKOXyE7.s:90     .text:0000000000000088 .LVL14
     /tmp/ccKOXyE7.s:92     .text:000000000000008c .LVL15
     /tmp/ccKOXyE7.s:98     .text:0000000000000090 .LVL16
     /tmp/ccKOXyE7.s:113    .text:00000000000000ac .LVL19
     /tmp/ccKOXyE7.s:115    .text:00000000000000b0 .LVL20
     /tmp/ccKOXyE7.s:121    .text:00000000000000b4 .LVL21
     /tmp/ccKOXyE7.s:136    .text:00000000000000d0 .LVL24
     /tmp/ccKOXyE7.s:138    .text:00000000000000d4 .LVL25
     /tmp/ccKOXyE7.s:149    .text:00000000000000e0 .LVL26
     /tmp/ccKOXyE7.s:412    .debug_info:0000000000000000 .Ldebug_info0

UNDEFINED SYMBOLS
_Z11test_memoryv
_Z11test_threadv
_Z14test_semaphorev
